	.text
	.def	 _ZN38_$LT$core..option..Option$LT$T$GT$$GT$14unwrap_or_else17h7cc91ec2ae96d1f1E;
	.scl	2;
	.type	32;
	.endef
	.section	.text,"xr",one_only,_ZN38_$LT$core..option..Option$LT$T$GT$$GT$14unwrap_or_else17h7cc91ec2ae96d1f1E
	.globl	_ZN38_$LT$core..option..Option$LT$T$GT$$GT$14unwrap_or_else17h7cc91ec2ae96d1f1E
	.p2align	4, 0x90
_ZN38_$LT$core..option..Option$LT$T$GT$$GT$14unwrap_or_else17h7cc91ec2ae96d1f1E:
.Lfunc_begin0:
	.cv_func_id 0
	.cv_file	1 "C:\\projects\\rust\\src\\libcore\\option.rs"
	.cv_loc	0 1 373 0 is_stmt 0
.Lcfi0:
.seh_proc _ZN38_$LT$core..option..Option$LT$T$GT$$GT$14unwrap_or_else17h7cc91ec2ae96d1f1E
	.seh_handler __CxxFrameHandler3, @unwind, @except
	pushq	%rbp
.Lcfi1:
	.seh_pushreg 5
.Ltmp2:
	subq	$96, %rsp
.Lcfi2:
	.seh_stackalloc 96
	leaq	96(%rsp), %rbp
.Lcfi3:
	.seh_setframe 5, 96
.Lcfi4:
	.seh_endprologue
	.cv_loc	0 1 375 0
	movq	$-2, -8(%rbp)
	movb	$0, -10(%rbp)
	movb	$0, -9(%rbp)
	movb	$1, -10(%rbp)
	movb	$1, -9(%rbp)
	movq	(%rcx), %rax
	testq	%rax, %rax
	movq	%rcx, -40(%rbp)
.Ltmp3:
	movq	%rax, -48(%rbp)
	je	.LBB0_2
	jmp	.LBB0_17
.Ltmp4:
.LBB0_17:
	movq	-48(%rbp), %rax
	subq	$1, %rax
	movq	%rax, -56(%rbp)
	je	.LBB0_4
	jmp	.LBB0_3
.Ltmp5:
.LBB0_2:
	.cv_loc	0 1 376 0
	movb	$0, -9(%rbp)
.Ltmp0:
	callq	_ZN5alloc2rc8RcBoxPtr10inc_strong28_$u7b$$u7b$closure$u7d$$u7d$17h13f56ac593f9bc27E
.Ltmp1:
	movq	%rax, -64(%rbp)
	jmp	.LBB0_6
.Ltmp6:
.LBB0_3:
	.cv_loc	0 1 378 0
	ud2
.Ltmp7:
.LBB0_4:
	.cv_loc	0 1 375 0
	movb	$0, -10(%rbp)
	movq	-40(%rbp), %rax
	movq	8(%rax), %rcx
	movq	%rcx, -24(%rbp)
.Ltmp8:
	.cv_loc	0 1 375 0
	movq	-24(%rbp), %rcx
	movq	%rcx, -32(%rbp)
.Ltmp9:
.LBB0_5:
	.cv_loc	0 1 378 0
	testb	$1, -9(%rbp)
	jne	.LBB0_11
	jmp	.LBB0_7
.Ltmp10:
.LBB0_6:
	.cv_loc	0 1 376 0
	movq	-64(%rbp), %rax
	movq	%rax, -32(%rbp)
	.cv_loc	0 1 374 0
	jmp	.LBB0_5
.Ltmp11:
.LBB0_7:
	.cv_loc	0 1 378 0
	movq	-40(%rbp), %rax
	cmpq	$1, (%rax)
	je	.LBB0_13
	jmp	.LBB0_15
.Ltmp12:
.LBB0_11:
	movb	$0, -9(%rbp)
	jmp	.LBB0_7
.Ltmp13:
.LBB0_12:
	movq	-32(%rbp), %rax
	addq	$96, %rsp
	popq	%rbp
	retq
.LBB0_13:
.Ltmp14:
	testb	$1, -10(%rbp)
	je	.LBB0_12
.Ltmp15:
	movb	$0, -10(%rbp)
	jmp	.LBB0_12
.Ltmp16:
.LBB0_15:
	jmp	.LBB0_12
.Ltmp17:
.LBB0_1:
	.cv_loc	0 1 373 0
	addq	$32, %rsp
	popq	%rbp
.Ltmp18:
	retq
.LBB0_8:
.Ltmp19:
	.cv_loc	0 1 378 0
	testb	$1, -10(%rbp)
	je	.LBB0_1
.Ltmp20:
	movb	$0, -10(%rbp)
	jmp	.LBB0_1
.Ltmp21:
.LBB0_10:
	jmp	.LBB0_1
.Ltmp22:
	.seh_handlerdata
	.long	($cppxdata$_ZN38_$LT$core..option..Option$LT$T$GT$$GT$14unwrap_or_else17h7cc91ec2ae96d1f1E)@IMGREL
	.section	.text,"xr",one_only,_ZN38_$LT$core..option..Option$LT$T$GT$$GT$14unwrap_or_else17h7cc91ec2ae96d1f1E
.Lcfi5:
	.seh_endproc
	.def	 "?dtor$16@?0?_ZN38_$LT$core..option..Option$LT$T$GT$$GT$14unwrap_or_else17h7cc91ec2ae96d1f1E@4HA";
	.scl	3;
	.type	32;
	.endef
	.p2align	4, 0x90
"?dtor$16@?0?_ZN38_$LT$core..option..Option$LT$T$GT$$GT$14unwrap_or_else17h7cc91ec2ae96d1f1E@4HA":
.Lcfi6:
.seh_proc "?dtor$16@?0?_ZN38_$LT$core..option..Option$LT$T$GT$$GT$14unwrap_or_else17h7cc91ec2ae96d1f1E@4HA"
.LBB0_16:
	movq	%rdx, 16(%rsp)
	pushq	%rbp
.Lcfi7:
	.seh_pushreg 5
	subq	$32, %rsp
.Lcfi8:
	.seh_stackalloc 32
	leaq	96(%rdx), %rbp
.Ltmp23:
.Lcfi9:
	.seh_endprologue
	movq	-40(%rbp), %rax
	cmpq	$1, (%rax)
	je	.LBB0_8
	jmp	.LBB0_10
.Ltmp24:
.Lfunc_end0:
	.seh_handlerdata
	.section	.text,"xr",one_only,_ZN38_$LT$core..option..Option$LT$T$GT$$GT$14unwrap_or_else17h7cc91ec2ae96d1f1E
.Lcfi10:
	.seh_endproc
	.section	.xdata,"dr",associative,_ZN38_$LT$core..option..Option$LT$T$GT$$GT$14unwrap_or_else17h7cc91ec2ae96d1f1E
	.p2align	2
$cppxdata$_ZN38_$LT$core..option..Option$LT$T$GT$$GT$14unwrap_or_else17h7cc91ec2ae96d1f1E:
	.long	429065506
	.long	1
	.long	($stateUnwindMap$_ZN38_$LT$core..option..Option$LT$T$GT$$GT$14unwrap_or_else17h7cc91ec2ae96d1f1E)@IMGREL
	.long	0
	.long	0
	.long	3
	.long	($ip2state$_ZN38_$LT$core..option..Option$LT$T$GT$$GT$14unwrap_or_else17h7cc91ec2ae96d1f1E)@IMGREL
	.long	88
	.long	0
	.long	1
$stateUnwindMap$_ZN38_$LT$core..option..Option$LT$T$GT$$GT$14unwrap_or_else17h7cc91ec2ae96d1f1E:
	.long	-1
	.long	"?dtor$16@?0?_ZN38_$LT$core..option..Option$LT$T$GT$$GT$14unwrap_or_else17h7cc91ec2ae96d1f1E@4HA"@IMGREL
$ip2state$_ZN38_$LT$core..option..Option$LT$T$GT$$GT$14unwrap_or_else17h7cc91ec2ae96d1f1E:
	.long	.Lfunc_begin0@IMGREL
	.long	-1
	.long	.Ltmp0@IMGREL+1
	.long	0
	.long	.Ltmp1@IMGREL+1
	.long	-1
	.section	.text,"xr",one_only,_ZN38_$LT$core..option..Option$LT$T$GT$$GT$14unwrap_or_else17h7cc91ec2ae96d1f1E

	.def	 _ZN38_$LT$core..option..Option$LT$T$GT$$GT$3map17h74e864a39d2df0cbE;
	.scl	2;
	.type	32;
	.endef
	.section	.text,"xr",one_only,_ZN38_$LT$core..option..Option$LT$T$GT$$GT$3map17h74e864a39d2df0cbE
	.globl	_ZN38_$LT$core..option..Option$LT$T$GT$$GT$3map17h74e864a39d2df0cbE
	.p2align	4, 0x90
_ZN38_$LT$core..option..Option$LT$T$GT$$GT$3map17h74e864a39d2df0cbE:
.Lfunc_begin1:
	.cv_func_id 1
	.cv_loc	1 1 402 0
.Lcfi11:
.seh_proc _ZN38_$LT$core..option..Option$LT$T$GT$$GT$3map17h74e864a39d2df0cbE
	.seh_handler __CxxFrameHandler3, @unwind, @except
	pushq	%rbp
.Lcfi12:
	.seh_pushreg 5
	subq	$208, %rsp
.Lcfi13:
	.seh_stackalloc 208
	leaq	128(%rsp), %rbp
.Lcfi14:
	.seh_setframe 5, 128
.Lcfi15:
	.seh_endprologue
	movq	$-2, 72(%rbp)
	movq	%rcx, %rax
.Ltmp27:
	.cv_loc	1 1 404 0
	movb	$0, 70(%rbp)
	movb	$0, 71(%rbp)
	movb	$1, 70(%rbp)
	movb	$1, 71(%rbp)
	movq	(%rdx), %r8
	testq	%r8, %r8
	movq	%rax, -40(%rbp)
	movq	%rdx, -48(%rbp)
.Ltmp28:
	movq	%rcx, -56(%rbp)
	movq	%r8, -64(%rbp)
	je	.LBB1_2
	jmp	.LBB1_17
.Ltmp29:
.LBB1_17:
	movq	-64(%rbp), %rax
	subq	$1, %rax
	movq	%rax, -72(%rbp)
	je	.LBB1_4
	jmp	.LBB1_3
.Ltmp30:
.LBB1_2:
	.cv_loc	1 1 405 0
	movq	-56(%rbp), %rax
	movq	$0, (%rax)
	.cv_loc	1 1 403 0
	jmp	.LBB1_6
.Ltmp31:
.LBB1_3:
	.cv_loc	1 1 407 0
	ud2
.Ltmp32:
.LBB1_4:
	.cv_loc	1 1 404 0
	movb	$0, 70(%rbp)
	movq	-48(%rbp), %rax
	movq	24(%rax), %rcx
	movq	%rcx, -16(%rbp)
	movups	8(%rax), %xmm0
	movaps	%xmm0, -32(%rbp)
.Ltmp33:
	.cv_loc	1 1 404 0
	movb	$0, 71(%rbp)
	movq	-16(%rbp), %rcx
	movq	%rcx, 48(%rbp)
	movaps	-32(%rbp), %xmm0
	movaps	%xmm0, 32(%rbp)
	movq	48(%rbp), %rcx
	movq	%rcx, 16(%rbp)
	movaps	32(%rbp), %xmm0
	movaps	%xmm0, (%rbp)
.Ltmp25:
	movq	%rbp, %rcx
	callq	_ZN5alloc9allocator6Layout5array28_$u7b$$u7b$closure$u7d$$u7d$17h98f3a7f6b9a01548E
.Ltmp26:
	movq	%rdx, -80(%rbp)
	movq	%rax, -88(%rbp)
	jmp	.LBB1_5
.Ltmp34:
.LBB1_5:
	movq	-56(%rbp), %rax
	movq	$1, (%rax)
	movq	-88(%rbp), %rcx
	movq	%rcx, 8(%rax)
	movq	-80(%rbp), %rcx
	movq	%rcx, 16(%rax)
.Ltmp35:
.LBB1_6:
	.cv_loc	1 1 407 0
	testb	$1, 71(%rbp)
	jne	.LBB1_11
.Ltmp36:
.LBB1_7:
	movq	-48(%rbp), %rax
	cmpq	$1, (%rax)
	je	.LBB1_13
	jmp	.LBB1_15
.Ltmp37:
.LBB1_11:
	movb	$0, 71(%rbp)
	jmp	.LBB1_7
.Ltmp38:
.LBB1_12:
	movq	-40(%rbp), %rax
	addq	$208, %rsp
	popq	%rbp
	retq
.LBB1_13:
.Ltmp39:
	testb	$1, 70(%rbp)
	je	.LBB1_12
.Ltmp40:
	movb	$0, 70(%rbp)
	jmp	.LBB1_12
.Ltmp41:
.LBB1_15:
	jmp	.LBB1_12
.Ltmp42:
.LBB1_1:
	.cv_loc	1 1 402 0
	addq	$32, %rsp
	popq	%rbp
.Ltmp43:
	retq
.LBB1_8:
.Ltmp44:
	.cv_loc	1 1 407 0
	testb	$1, 70(%rbp)
	je	.LBB1_1
.Ltmp45:
	movb	$0, 70(%rbp)
	jmp	.LBB1_1
.Ltmp46:
.LBB1_10:
	jmp	.LBB1_1
.Ltmp47:
	.seh_handlerdata
	.long	($cppxdata$_ZN38_$LT$core..option..Option$LT$T$GT$$GT$3map17h74e864a39d2df0cbE)@IMGREL
	.section	.text,"xr",one_only,_ZN38_$LT$core..option..Option$LT$T$GT$$GT$3map17h74e864a39d2df0cbE
.Lcfi16:
	.seh_endproc
	.def	 "?dtor$16@?0?_ZN38_$LT$core..option..Option$LT$T$GT$$GT$3map17h74e864a39d2df0cbE@4HA";
	.scl	3;
	.type	32;
	.endef
	.p2align	4, 0x90
"?dtor$16@?0?_ZN38_$LT$core..option..Option$LT$T$GT$$GT$3map17h74e864a39d2df0cbE@4HA":
.Lcfi17:
.seh_proc "?dtor$16@?0?_ZN38_$LT$core..option..Option$LT$T$GT$$GT$3map17h74e864a39d2df0cbE@4HA"
.LBB1_16:
	movq	%rdx, 16(%rsp)
	pushq	%rbp
.Lcfi18:
	.seh_pushreg 5
	subq	$32, %rsp
.Lcfi19:
	.seh_stackalloc 32
	leaq	128(%rdx), %rbp
.Ltmp48:
.Lcfi20:
	.seh_endprologue
	movq	-48(%rbp), %rax
	cmpq	$1, (%rax)
	je	.LBB1_8
	jmp	.LBB1_10
.Ltmp49:
.Lfunc_end1:
	.seh_handlerdata
	.section	.text,"xr",one_only,_ZN38_$LT$core..option..Option$LT$T$GT$$GT$3map17h74e864a39d2df0cbE
.Lcfi21:
	.seh_endproc
	.section	.xdata,"dr",associative,_ZN38_$LT$core..option..Option$LT$T$GT$$GT$3map17h74e864a39d2df0cbE
	.p2align	2
$cppxdata$_ZN38_$LT$core..option..Option$LT$T$GT$$GT$3map17h74e864a39d2df0cbE:
	.long	429065506
	.long	1
	.long	($stateUnwindMap$_ZN38_$LT$core..option..Option$LT$T$GT$$GT$3map17h74e864a39d2df0cbE)@IMGREL
	.long	0
	.long	0
	.long	3
	.long	($ip2state$_ZN38_$LT$core..option..Option$LT$T$GT$$GT$3map17h74e864a39d2df0cbE)@IMGREL
	.long	200
	.long	0
	.long	1
$stateUnwindMap$_ZN38_$LT$core..option..Option$LT$T$GT$$GT$3map17h74e864a39d2df0cbE:
	.long	-1
	.long	"?dtor$16@?0?_ZN38_$LT$core..option..Option$LT$T$GT$$GT$3map17h74e864a39d2df0cbE@4HA"@IMGREL
$ip2state$_ZN38_$LT$core..option..Option$LT$T$GT$$GT$3map17h74e864a39d2df0cbE:
	.long	.Lfunc_begin1@IMGREL
	.long	-1
	.long	.Ltmp25@IMGREL+1
	.long	0
	.long	.Ltmp26@IMGREL+1
	.long	-1
	.section	.text,"xr",one_only,_ZN38_$LT$core..option..Option$LT$T$GT$$GT$3map17h74e864a39d2df0cbE

	.def	 _ZN38_$LT$core..option..Option$LT$T$GT$$GT$3map17ha8ea4e4544920cedE;
	.scl	2;
	.type	32;
	.endef
	.section	.text,"xr",one_only,_ZN38_$LT$core..option..Option$LT$T$GT$$GT$3map17ha8ea4e4544920cedE
	.globl	_ZN38_$LT$core..option..Option$LT$T$GT$$GT$3map17ha8ea4e4544920cedE
	.p2align	4, 0x90
_ZN38_$LT$core..option..Option$LT$T$GT$$GT$3map17ha8ea4e4544920cedE:
.Lfunc_begin2:
	.cv_func_id 2
	.cv_loc	2 1 402 0
.Lcfi22:
.seh_proc _ZN38_$LT$core..option..Option$LT$T$GT$$GT$3map17ha8ea4e4544920cedE
	.seh_handler __CxxFrameHandler3, @unwind, @except
	pushq	%rbp
.Lcfi23:
	.seh_pushreg 5
	subq	$112, %rsp
.Lcfi24:
	.seh_stackalloc 112
	leaq	112(%rsp), %rbp
.Lcfi25:
	.seh_setframe 5, 112
.Lcfi26:
	.seh_endprologue
	movq	$-2, -8(%rbp)
	movq	%rcx, %rax
	movq	%rdx, -40(%rbp)
.Ltmp52:
	.cv_loc	2 1 404 0
	movb	$0, -10(%rbp)
	movb	$0, -9(%rbp)
	movb	$1, -10(%rbp)
	movb	$1, -9(%rbp)
	movq	-40(%rbp), %rdx
	testq	%rdx, %rdx
	setne	%r8b
	movzbl	%r8b, %r9d
	movl	%r9d, %edx
	movq	%rax, -48(%rbp)
	movq	%rcx, -56(%rbp)
	movq	%rdx, -64(%rbp)
	je	.LBB2_2
	jmp	.LBB2_17
.Ltmp53:
.LBB2_17:
	movq	-64(%rbp), %rax
	subq	$1, %rax
	movq	%rax, -72(%rbp)
	je	.LBB2_4
	jmp	.LBB2_3
.Ltmp54:
.LBB2_2:
	.cv_loc	2 1 405 0
	movq	-56(%rbp), %rax
	movq	$0, (%rax)
	.cv_loc	2 1 403 0
	jmp	.LBB2_6
.Ltmp55:
.LBB2_3:
	.cv_loc	2 1 407 0
	ud2
.Ltmp56:
.LBB2_4:
	.cv_loc	2 1 404 0
	movb	$0, -10(%rbp)
	movq	-40(%rbp), %rax
	movq	%rax, -32(%rbp)
.Ltmp57:
	.cv_loc	2 1 404 0
	movb	$0, -9(%rbp)
	movq	-32(%rbp), %rax
	movq	%rax, -24(%rbp)
	movq	-24(%rbp), %rcx
.Ltmp50:
	callq	_ZN38_$LT$sdl2..render..Canvas$LT$T$GT$$GT$9fill_rect28_$u7b$$u7b$closure$u7d$$u7d$17h24fbd5b2d8158cbdE
.Ltmp51:
	movq	%rax, -80(%rbp)
	jmp	.LBB2_5
.Ltmp58:
.LBB2_5:
	movq	-56(%rbp), %rax
	movq	$1, (%rax)
	movq	-80(%rbp), %rcx
	movq	%rcx, 8(%rax)
.Ltmp59:
.LBB2_6:
	.cv_loc	2 1 407 0
	testb	$1, -9(%rbp)
	jne	.LBB2_11
.Ltmp60:
.LBB2_7:
	movl	$1, %eax
	movl	%eax, %ecx
	xorl	%eax, %eax
	movl	%eax, %edx
	cmpq	$0, -40(%rbp)
	cmoveq	%rdx, %rcx
	cmpq	$1, %rcx
	je	.LBB2_13
	jmp	.LBB2_15
.Ltmp61:
.LBB2_11:
	movb	$0, -9(%rbp)
	jmp	.LBB2_7
.Ltmp62:
.LBB2_12:
	movq	-48(%rbp), %rax
	addq	$112, %rsp
	popq	%rbp
	retq
.LBB2_13:
.Ltmp63:
	testb	$1, -10(%rbp)
	je	.LBB2_12
.Ltmp64:
	movb	$0, -10(%rbp)
	jmp	.LBB2_12
.Ltmp65:
.LBB2_15:
	jmp	.LBB2_12
.Ltmp66:
.LBB2_1:
	.cv_loc	2 1 402 0
	addq	$32, %rsp
	popq	%rbp
.Ltmp67:
	retq
.LBB2_8:
.Ltmp68:
	.cv_loc	2 1 407 0
	testb	$1, -10(%rbp)
	je	.LBB2_1
.Ltmp69:
	movb	$0, -10(%rbp)
	jmp	.LBB2_1
.Ltmp70:
.LBB2_10:
	jmp	.LBB2_1
.Ltmp71:
	.seh_handlerdata
	.long	($cppxdata$_ZN38_$LT$core..option..Option$LT$T$GT$$GT$3map17ha8ea4e4544920cedE)@IMGREL
	.section	.text,"xr",one_only,_ZN38_$LT$core..option..Option$LT$T$GT$$GT$3map17ha8ea4e4544920cedE
.Lcfi27:
	.seh_endproc
	.def	 "?dtor$16@?0?_ZN38_$LT$core..option..Option$LT$T$GT$$GT$3map17ha8ea4e4544920cedE@4HA";
	.scl	3;
	.type	32;
	.endef
	.p2align	4, 0x90
"?dtor$16@?0?_ZN38_$LT$core..option..Option$LT$T$GT$$GT$3map17ha8ea4e4544920cedE@4HA":
.Lcfi28:
.seh_proc "?dtor$16@?0?_ZN38_$LT$core..option..Option$LT$T$GT$$GT$3map17ha8ea4e4544920cedE@4HA"
.LBB2_16:
	movq	%rdx, 16(%rsp)
	pushq	%rbp
.Lcfi29:
	.seh_pushreg 5
	subq	$32, %rsp
.Lcfi30:
	.seh_stackalloc 32
	leaq	112(%rdx), %rbp
.Ltmp72:
.Lcfi31:
	.seh_endprologue
	movl	$1, %eax
	movl	%eax, %ecx
	xorl	%eax, %eax
	movl	%eax, %edx
	cmpq	$0, -40(%rbp)
	cmoveq	%rdx, %rcx
	cmpq	$1, %rcx
	je	.LBB2_8
	jmp	.LBB2_10
.Ltmp73:
.Lfunc_end2:
	.seh_handlerdata
	.section	.text,"xr",one_only,_ZN38_$LT$core..option..Option$LT$T$GT$$GT$3map17ha8ea4e4544920cedE
.Lcfi32:
	.seh_endproc
	.section	.xdata,"dr",associative,_ZN38_$LT$core..option..Option$LT$T$GT$$GT$3map17ha8ea4e4544920cedE
	.p2align	2
$cppxdata$_ZN38_$LT$core..option..Option$LT$T$GT$$GT$3map17ha8ea4e4544920cedE:
	.long	429065506
	.long	1
	.long	($stateUnwindMap$_ZN38_$LT$core..option..Option$LT$T$GT$$GT$3map17ha8ea4e4544920cedE)@IMGREL
	.long	0
	.long	0
	.long	3
	.long	($ip2state$_ZN38_$LT$core..option..Option$LT$T$GT$$GT$3map17ha8ea4e4544920cedE)@IMGREL
	.long	104
	.long	0
	.long	1
$stateUnwindMap$_ZN38_$LT$core..option..Option$LT$T$GT$$GT$3map17ha8ea4e4544920cedE:
	.long	-1
	.long	"?dtor$16@?0?_ZN38_$LT$core..option..Option$LT$T$GT$$GT$3map17ha8ea4e4544920cedE@4HA"@IMGREL
$ip2state$_ZN38_$LT$core..option..Option$LT$T$GT$$GT$3map17ha8ea4e4544920cedE:
	.long	.Lfunc_begin2@IMGREL
	.long	-1
	.long	.Ltmp50@IMGREL+1
	.long	0
	.long	.Ltmp51@IMGREL+1
	.long	-1
	.section	.text,"xr",one_only,_ZN38_$LT$core..option..Option$LT$T$GT$$GT$3map17ha8ea4e4544920cedE

	.def	 _ZN38_$LT$core..option..Option$LT$T$GT$$GT$3map17hd18842da73548acbE;
	.scl	2;
	.type	32;
	.endef
	.section	.text,"xr",one_only,_ZN38_$LT$core..option..Option$LT$T$GT$$GT$3map17hd18842da73548acbE
	.globl	_ZN38_$LT$core..option..Option$LT$T$GT$$GT$3map17hd18842da73548acbE
	.p2align	4, 0x90
_ZN38_$LT$core..option..Option$LT$T$GT$$GT$3map17hd18842da73548acbE:
.Lfunc_begin3:
	.cv_func_id 3
	.cv_loc	3 1 402 0
.Lcfi33:
.seh_proc _ZN38_$LT$core..option..Option$LT$T$GT$$GT$3map17hd18842da73548acbE
	.seh_handler __CxxFrameHandler3, @unwind, @except
	pushq	%rbp
.Lcfi34:
	.seh_pushreg 5
.Ltmp76:
	subq	$192, %rsp
.Lcfi35:
	.seh_stackalloc 192
	leaq	128(%rsp), %rbp
.Lcfi36:
	.seh_setframe 5, 128
.Lcfi37:
	.seh_endprologue
	.cv_loc	3 1 404 0
	movq	$-2, 56(%rbp)
	movb	$0, 54(%rbp)
	movb	$0, 55(%rbp)
	movb	$1, 54(%rbp)
	movb	$1, 55(%rbp)
	movq	24(%rcx), %rax
	testq	%rax, %rax
	setne	%dl
	movzbl	%dl, %r8d
	movl	%r8d, %eax
	movq	%rcx, -64(%rbp)
.Ltmp77:
	movq	%rax, -72(%rbp)
	je	.LBB3_2
	jmp	.LBB3_17
.Ltmp78:
.LBB3_17:
	movq	-72(%rbp), %rax
	subq	$1, %rax
	movq	%rax, -80(%rbp)
	je	.LBB3_4
	jmp	.LBB3_3
.Ltmp79:
.LBB3_2:
	.cv_loc	3 1 405 0
	movq	$0, -56(%rbp)
	.cv_loc	3 1 403 0
	jmp	.LBB3_6
.Ltmp80:
.LBB3_3:
	.cv_loc	3 1 407 0
	ud2
.Ltmp81:
.LBB3_4:
	.cv_loc	3 1 404 0
	movb	$0, 54(%rbp)
	movq	-64(%rbp), %rax
	movups	(%rax), %xmm0
	movups	16(%rax), %xmm1
	movaps	%xmm1, -32(%rbp)
	movaps	%xmm0, -48(%rbp)
.Ltmp82:
	.cv_loc	3 1 404 0
	movb	$0, 55(%rbp)
	movaps	-48(%rbp), %xmm0
	movaps	-32(%rbp), %xmm1
	movaps	%xmm1, 32(%rbp)
	movaps	%xmm0, 16(%rbp)
	movaps	16(%rbp), %xmm0
	movaps	32(%rbp), %xmm1
	movaps	%xmm1, (%rbp)
	movaps	%xmm0, -16(%rbp)
.Ltmp74:
	leaq	-16(%rbp), %rcx
	callq	_ZN72_$LT$std..collections..hash..map..HashMap$LT$K$C$$u20$V$C$$u20$S$GT$$GT$3get28_$u7b$$u7b$closure$u7d$$u7d$17h8fb5dabd52658004E
.Ltmp75:
	movq	%rax, -88(%rbp)
	jmp	.LBB3_5
.Ltmp83:
.LBB3_5:
	movq	-88(%rbp), %rax
	movq	%rax, -56(%rbp)
.Ltmp84:
.LBB3_6:
	.cv_loc	3 1 407 0
	testb	$1, 55(%rbp)
	jne	.LBB3_11
.Ltmp85:
.LBB3_7:
	movl	$1, %eax
	movl	%eax, %ecx
	xorl	%eax, %eax
	movl	%eax, %edx
	movq	-64(%rbp), %r8
	cmpq	$0, 24(%r8)
	cmoveq	%rdx, %rcx
	cmpq	$1, %rcx
	je	.LBB3_13
	jmp	.LBB3_15
.Ltmp86:
.LBB3_11:
	movb	$0, 55(%rbp)
	jmp	.LBB3_7
.Ltmp87:
.LBB3_12:
	movq	-56(%rbp), %rax
	addq	$192, %rsp
	popq	%rbp
	retq
.LBB3_13:
.Ltmp88:
	testb	$1, 54(%rbp)
	je	.LBB3_12
.Ltmp89:
	movb	$0, 54(%rbp)
	jmp	.LBB3_12
.Ltmp90:
.LBB3_15:
	jmp	.LBB3_12
.Ltmp91:
.LBB3_1:
	.cv_loc	3 1 402 0
	addq	$32, %rsp
	popq	%rbp
.Ltmp92:
	retq
.LBB3_8:
.Ltmp93:
	.cv_loc	3 1 407 0
	testb	$1, 54(%rbp)
	je	.LBB3_1
.Ltmp94:
	movb	$0, 54(%rbp)
	jmp	.LBB3_1
.Ltmp95:
.LBB3_10:
	jmp	.LBB3_1
.Ltmp96:
	.seh_handlerdata
	.long	($cppxdata$_ZN38_$LT$core..option..Option$LT$T$GT$$GT$3map17hd18842da73548acbE)@IMGREL
	.section	.text,"xr",one_only,_ZN38_$LT$core..option..Option$LT$T$GT$$GT$3map17hd18842da73548acbE
.Lcfi38:
	.seh_endproc
	.def	 "?dtor$16@?0?_ZN38_$LT$core..option..Option$LT$T$GT$$GT$3map17hd18842da73548acbE@4HA";
	.scl	3;
	.type	32;
	.endef
	.p2align	4, 0x90
"?dtor$16@?0?_ZN38_$LT$core..option..Option$LT$T$GT$$GT$3map17hd18842da73548acbE@4HA":
.Lcfi39:
.seh_proc "?dtor$16@?0?_ZN38_$LT$core..option..Option$LT$T$GT$$GT$3map17hd18842da73548acbE@4HA"
.LBB3_16:
	movq	%rdx, 16(%rsp)
	pushq	%rbp
.Lcfi40:
	.seh_pushreg 5
	subq	$32, %rsp
.Lcfi41:
	.seh_stackalloc 32
	leaq	128(%rdx), %rbp
.Ltmp97:
.Lcfi42:
	.seh_endprologue
	movl	$1, %eax
	movl	%eax, %ecx
	xorl	%eax, %eax
	movl	%eax, %edx
	movq	-64(%rbp), %r8
	cmpq	$0, 24(%r8)
	cmoveq	%rdx, %rcx
	cmpq	$1, %rcx
	je	.LBB3_8
	jmp	.LBB3_10
.Ltmp98:
.Lfunc_end3:
	.seh_handlerdata
	.section	.text,"xr",one_only,_ZN38_$LT$core..option..Option$LT$T$GT$$GT$3map17hd18842da73548acbE
.Lcfi43:
	.seh_endproc
	.section	.xdata,"dr",associative,_ZN38_$LT$core..option..Option$LT$T$GT$$GT$3map17hd18842da73548acbE
	.p2align	2
$cppxdata$_ZN38_$LT$core..option..Option$LT$T$GT$$GT$3map17hd18842da73548acbE:
	.long	429065506
	.long	1
	.long	($stateUnwindMap$_ZN38_$LT$core..option..Option$LT$T$GT$$GT$3map17hd18842da73548acbE)@IMGREL
	.long	0
	.long	0
	.long	3
	.long	($ip2state$_ZN38_$LT$core..option..Option$LT$T$GT$$GT$3map17hd18842da73548acbE)@IMGREL
	.long	184
	.long	0
	.long	1
$stateUnwindMap$_ZN38_$LT$core..option..Option$LT$T$GT$$GT$3map17hd18842da73548acbE:
	.long	-1
	.long	"?dtor$16@?0?_ZN38_$LT$core..option..Option$LT$T$GT$$GT$3map17hd18842da73548acbE@4HA"@IMGREL
$ip2state$_ZN38_$LT$core..option..Option$LT$T$GT$$GT$3map17hd18842da73548acbE:
	.long	.Lfunc_begin3@IMGREL
	.long	-1
	.long	.Ltmp74@IMGREL+1
	.long	0
	.long	.Ltmp75@IMGREL+1
	.long	-1
	.section	.text,"xr",one_only,_ZN38_$LT$core..option..Option$LT$T$GT$$GT$3map17hd18842da73548acbE

	.def	 _ZN38_$LT$core..option..Option$LT$T$GT$$GT$5ok_or17h8bafa7b8d46ceda2E;
	.scl	2;
	.type	32;
	.endef
	.section	.text,"xr",one_only,_ZN38_$LT$core..option..Option$LT$T$GT$$GT$5ok_or17h8bafa7b8d46ceda2E
	.globl	_ZN38_$LT$core..option..Option$LT$T$GT$$GT$5ok_or17h8bafa7b8d46ceda2E
	.p2align	4, 0x90
_ZN38_$LT$core..option..Option$LT$T$GT$$GT$5ok_or17h8bafa7b8d46ceda2E:
.Lfunc_begin4:
	.cv_func_id 4
	.cv_loc	4 1 478 0
.Lcfi44:
.seh_proc _ZN38_$LT$core..option..Option$LT$T$GT$$GT$5ok_or17h8bafa7b8d46ceda2E
	pushq	%rbp
.Lcfi45:
	.seh_pushreg 5
	subq	$48, %rsp
.Lcfi46:
	.seh_stackalloc 48
	leaq	48(%rsp), %rbp
.Lcfi47:
	.seh_setframe 5, 48
.Lcfi48:
	.seh_endprologue
	movq	%rcx, -32(%rbp)
.Ltmp99:
	.cv_loc	4 1 480 0
	movb	$0, -2(%rbp)
	movb	$0, -1(%rbp)
	movb	$1, -2(%rbp)
	movb	$1, -1(%rbp)
	movq	-32(%rbp), %rcx
	testq	%rcx, %rcx
	setne	%al
	movzbl	%al, %edx
	movl	%edx, %ecx
	movq	%rcx, -40(%rbp)
	je	.LBB4_1
	jmp	.LBB4_11
.Ltmp100:
.LBB4_11:
	movq	-40(%rbp), %rax
	subq	$1, %rax
	movq	%rax, -48(%rbp)
	je	.LBB4_3
	jmp	.LBB4_2
.Ltmp101:
.LBB4_1:
	.cv_loc	4 1 481 0
	movb	$0, -1(%rbp)
	movq	$0, -24(%rbp)
	.cv_loc	4 1 479 0
	jmp	.LBB4_4
.Ltmp102:
.LBB4_2:
	.cv_loc	4 1 483 0
	ud2
.Ltmp103:
.LBB4_3:
	.cv_loc	4 1 480 0
	movb	$0, -2(%rbp)
	movq	-32(%rbp), %rax
	movq	%rax, -16(%rbp)
.Ltmp104:
	.cv_loc	4 1 480 0
	movq	-16(%rbp), %rax
	movq	%rax, -24(%rbp)
.Ltmp105:
.LBB4_4:
	.cv_loc	4 1 483 0
	testb	$1, -1(%rbp)
	jne	.LBB4_6
.Ltmp106:
.LBB4_5:
	movl	$1, %eax
	movl	%eax, %ecx
	xorl	%eax, %eax
	movl	%eax, %edx
	cmpq	$0, -32(%rbp)
	cmoveq	%rdx, %rcx
	cmpq	$1, %rcx
	je	.LBB4_8
	jmp	.LBB4_10
.Ltmp107:
.LBB4_6:
	movb	$0, -1(%rbp)
	jmp	.LBB4_5
.Ltmp108:
.LBB4_7:
	movq	-24(%rbp), %rax
	addq	$48, %rsp
	popq	%rbp
.Ltmp109:
	retq
.LBB4_8:
.Ltmp110:
	testb	$1, -2(%rbp)
	je	.LBB4_7
.Ltmp111:
	movb	$0, -2(%rbp)
	jmp	.LBB4_7
.Ltmp112:
.LBB4_10:
	jmp	.LBB4_7
.Ltmp113:
.Lfunc_end4:
	.seh_handlerdata
	.section	.text,"xr",one_only,_ZN38_$LT$core..option..Option$LT$T$GT$$GT$5ok_or17h8bafa7b8d46ceda2E
.Lcfi49:
	.seh_endproc

	.def	 _ZN38_$LT$core..option..Option$LT$T$GT$$GT$5ok_or17hcdde621994ee6013E;
	.scl	3;
	.type	32;
	.endef
	.section	.text,"xr",one_only,_ZN38_$LT$core..option..Option$LT$T$GT$$GT$5ok_or17hcdde621994ee6013E
	.p2align	4, 0x90
_ZN38_$LT$core..option..Option$LT$T$GT$$GT$5ok_or17hcdde621994ee6013E:
.Lfunc_begin5:
	.cv_func_id 5
	.cv_loc	5 1 478 0
.Lcfi50:
.seh_proc _ZN38_$LT$core..option..Option$LT$T$GT$$GT$5ok_or17hcdde621994ee6013E
	pushq	%rbp
.Lcfi51:
	.seh_pushreg 5
	subq	$56, %rsp
.Lcfi52:
	.seh_stackalloc 56
	leaq	48(%rsp), %rbp
.Lcfi53:
	.seh_setframe 5, 48
.Lcfi54:
	.seh_endprologue
	movq	%rcx, %rax
.Ltmp114:
	.cv_loc	5 1 480 0
	movb	$0, 6(%rbp)
	movb	$0, 7(%rbp)
	movb	$1, 6(%rbp)
	movb	$1, 7(%rbp)
	movq	(%rdx), %r8
	testq	%r8, %r8
	movq	%rax, -16(%rbp)
	movq	%rdx, -24(%rbp)
.Ltmp115:
	movq	%rcx, -32(%rbp)
	movq	%r8, -40(%rbp)
	je	.LBB5_1
	jmp	.LBB5_11
.Ltmp116:
.LBB5_11:
	movq	-40(%rbp), %rax
	subq	$1, %rax
	movq	%rax, -48(%rbp)
	je	.LBB5_3
	jmp	.LBB5_2
.Ltmp117:
.LBB5_1:
	.cv_loc	5 1 481 0
	movb	$0, 7(%rbp)
	movq	-32(%rbp), %rax
	movq	$1, (%rax)
	.cv_loc	5 1 479 0
	jmp	.LBB5_4
.Ltmp118:
.LBB5_2:
	.cv_loc	5 1 483 0
	ud2
.Ltmp119:
.LBB5_3:
	.cv_loc	5 1 480 0
	movb	$0, 6(%rbp)
	movq	-24(%rbp), %rax
	movq	8(%rax), %rcx
	movq	%rcx, -8(%rbp)
.Ltmp120:
	.cv_loc	5 1 480 0
	movq	-8(%rbp), %rcx
	movq	-32(%rbp), %rdx
	movq	$0, (%rdx)
	movq	%rcx, 8(%rdx)
.Ltmp121:
.LBB5_4:
	.cv_loc	5 1 483 0
	testb	$1, 7(%rbp)
	jne	.LBB5_6
.Ltmp122:
.LBB5_5:
	movq	-24(%rbp), %rax
	cmpq	$1, (%rax)
	je	.LBB5_8
	jmp	.LBB5_10
.Ltmp123:
.LBB5_6:
	movb	$0, 7(%rbp)
	jmp	.LBB5_5
.Ltmp124:
.LBB5_7:
	movq	-16(%rbp), %rax
	addq	$56, %rsp
	popq	%rbp
.Ltmp125:
	retq
.LBB5_8:
.Ltmp126:
	testb	$1, 6(%rbp)
	je	.LBB5_7
.Ltmp127:
	movb	$0, 6(%rbp)
	jmp	.LBB5_7
.Ltmp128:
.LBB5_10:
	jmp	.LBB5_7
.Ltmp129:
.Lfunc_end5:
	.seh_handlerdata
	.section	.text,"xr",one_only,_ZN38_$LT$core..option..Option$LT$T$GT$$GT$5ok_or17hcdde621994ee6013E
.Lcfi55:
	.seh_endproc

	.def	 _ZN38_$LT$core..option..Option$LT$T$GT$$GT$6as_ref17h976aac3cda136c4bE;
	.scl	2;
	.type	32;
	.endef
	.section	.text,"xr",one_only,_ZN38_$LT$core..option..Option$LT$T$GT$$GT$6as_ref17h976aac3cda136c4bE
	.globl	_ZN38_$LT$core..option..Option$LT$T$GT$$GT$6as_ref17h976aac3cda136c4bE
	.p2align	4, 0x90
_ZN38_$LT$core..option..Option$LT$T$GT$$GT$6as_ref17h976aac3cda136c4bE:
.Lfunc_begin6:
	.cv_func_id 6
	.cv_loc	6 1 244 0
.Lcfi56:
.seh_proc _ZN38_$LT$core..option..Option$LT$T$GT$$GT$6as_ref17h976aac3cda136c4bE
	pushq	%rbp
.Lcfi57:
	.seh_pushreg 5
	subq	$40, %rsp
.Lcfi58:
	.seh_stackalloc 40
	leaq	32(%rsp), %rbp
.Lcfi59:
	.seh_setframe 5, 32
.Lcfi60:
	.seh_endprologue
	movq	%rcx, -16(%rbp)
.Ltmp130:
	.cv_loc	6 1 246 0
	movq	-16(%rbp), %rcx
	movl	(%rcx), %eax
	movl	%eax, %ecx
	testq	%rcx, %rcx
	movq	%rcx, -24(%rbp)
	je	.LBB6_1
	jmp	.LBB6_5
.Ltmp131:
.LBB6_5:
	movq	-24(%rbp), %rax
	subq	$1, %rax
	movq	%rax, -32(%rbp)
	je	.LBB6_3
	jmp	.LBB6_2
.Ltmp132:
.LBB6_1:
	.cv_loc	6 1 247 0
	movq	$0, -8(%rbp)
	.cv_loc	6 1 245 0
	jmp	.LBB6_4
.Ltmp133:
.LBB6_2:
	.cv_loc	6 1 249 0
	ud2
.Ltmp134:
.LBB6_3:
	.cv_loc	6 1 246 0
	movq	-16(%rbp), %rax
	addq	$4, %rax
	movq	%rax, (%rbp)
.Ltmp135:
	.cv_loc	6 1 246 0
	movq	(%rbp), %rax
	movq	%rax, -8(%rbp)
.Ltmp136:
.LBB6_4:
	.cv_loc	6 1 249 0
	movq	-8(%rbp), %rax
	addq	$40, %rsp
	popq	%rbp
.Ltmp137:
	retq
.Ltmp138:
.Lfunc_end6:
	.seh_handlerdata
	.section	.text,"xr",one_only,_ZN38_$LT$core..option..Option$LT$T$GT$$GT$6as_ref17h976aac3cda136c4bE
.Lcfi61:
	.seh_endproc

	.def	 _ZN38_$LT$core..option..Option$LT$T$GT$$GT$6as_ref17hcbfeb21b5e25cdc6E;
	.scl	2;
	.type	32;
	.endef
	.section	.text,"xr",one_only,_ZN38_$LT$core..option..Option$LT$T$GT$$GT$6as_ref17hcbfeb21b5e25cdc6E
	.globl	_ZN38_$LT$core..option..Option$LT$T$GT$$GT$6as_ref17hcbfeb21b5e25cdc6E
	.p2align	4, 0x90
_ZN38_$LT$core..option..Option$LT$T$GT$$GT$6as_ref17hcbfeb21b5e25cdc6E:
.Lfunc_begin7:
	.cv_func_id 7
	.cv_loc	7 1 244 0
.Lcfi62:
.seh_proc _ZN38_$LT$core..option..Option$LT$T$GT$$GT$6as_ref17hcbfeb21b5e25cdc6E
	pushq	%rbp
.Lcfi63:
	.seh_pushreg 5
	subq	$40, %rsp
.Lcfi64:
	.seh_stackalloc 40
	leaq	32(%rsp), %rbp
.Lcfi65:
	.seh_setframe 5, 32
.Lcfi66:
	.seh_endprologue
	movq	%rcx, -16(%rbp)
.Ltmp139:
	.cv_loc	7 1 246 0
	movq	-16(%rbp), %rcx
	movq	(%rcx), %rcx
	testq	%rcx, %rcx
	movq	%rcx, -24(%rbp)
	je	.LBB7_1
	jmp	.LBB7_5
.Ltmp140:
.LBB7_5:
	movq	-24(%rbp), %rax
	subq	$1, %rax
	movq	%rax, -32(%rbp)
	je	.LBB7_3
	jmp	.LBB7_2
.Ltmp141:
.LBB7_1:
	.cv_loc	7 1 247 0
	movq	$0, -8(%rbp)
	.cv_loc	7 1 245 0
	jmp	.LBB7_4
.Ltmp142:
.LBB7_2:
	.cv_loc	7 1 249 0
	ud2
.Ltmp143:
.LBB7_3:
	.cv_loc	7 1 246 0
	movq	-16(%rbp), %rax
	addq	$8, %rax
	movq	%rax, (%rbp)
.Ltmp144:
	.cv_loc	7 1 246 0
	movq	(%rbp), %rax
	movq	%rax, -8(%rbp)
.Ltmp145:
.LBB7_4:
	.cv_loc	7 1 249 0
	movq	-8(%rbp), %rax
	addq	$40, %rsp
	popq	%rbp
.Ltmp146:
	retq
.Ltmp147:
.Lfunc_end7:
	.seh_handlerdata
	.section	.text,"xr",one_only,_ZN38_$LT$core..option..Option$LT$T$GT$$GT$6as_ref17hcbfeb21b5e25cdc6E
.Lcfi67:
	.seh_endproc

	.def	 _ZN38_$LT$core..option..Option$LT$T$GT$$GT$6expect17hccd3d6bd46d363aaE;
	.scl	2;
	.type	32;
	.endef
	.section	.text,"xr",one_only,_ZN38_$LT$core..option..Option$LT$T$GT$$GT$6expect17hccd3d6bd46d363aaE
	.globl	_ZN38_$LT$core..option..Option$LT$T$GT$$GT$6expect17hccd3d6bd46d363aaE
	.p2align	4, 0x90
_ZN38_$LT$core..option..Option$LT$T$GT$$GT$6expect17hccd3d6bd46d363aaE:
.Lfunc_begin8:
	.cv_func_id 8
	.cv_loc	8 1 299 0
.Lcfi68:
.seh_proc _ZN38_$LT$core..option..Option$LT$T$GT$$GT$6expect17hccd3d6bd46d363aaE
	.seh_handler __CxxFrameHandler3, @unwind, @except
	pushq	%rbp
.Lcfi69:
	.seh_pushreg 5
	subq	$96, %rsp
.Lcfi70:
	.seh_stackalloc 96
	leaq	96(%rsp), %rbp
.Lcfi71:
	.seh_setframe 5, 96
.Lcfi72:
	.seh_endprologue
	movq	$-2, -8(%rbp)
	movq	%rdx, -32(%rbp)
	movq	%r8, -24(%rbp)
.Ltmp150:
	.cv_loc	8 1 301 0
	movq	(%rcx), %rdx
	testq	%rdx, %rdx
	movq	%rcx, -40(%rbp)
.Ltmp151:
	movq	%rdx, -48(%rbp)
	je	.LBB8_1
	jmp	.LBB8_8
.Ltmp152:
.LBB8_8:
	movq	-48(%rbp), %rax
	subq	$1, %rax
	movq	%rax, -56(%rbp)
	je	.LBB8_3
	jmp	.LBB8_2
.Ltmp153:
.LBB8_1:
	.cv_loc	8 1 302 0
	movq	-32(%rbp), %rcx
	movq	-24(%rbp), %rdx
.Ltmp148:
	callq	_ZN4core6option13expect_failed17h6a66a4b89b30addeE
.Ltmp149:
	jmp	.LBB8_7
.Ltmp154:
.LBB8_2:
	.cv_loc	8 1 304 0
	ud2
.Ltmp155:
.LBB8_3:
	.cv_loc	8 1 301 0
	movq	-40(%rbp), %rax
	movq	8(%rax), %rcx
	movq	%rcx, -16(%rbp)
.Ltmp156:
	.cv_loc	8 1 301 0
	movq	-16(%rbp), %rax
.Ltmp157:
	.cv_loc	8 1 304 0
	movq	-40(%rbp), %rcx
	cmpq	$1, (%rcx)
	movq	%rax, -64(%rbp)
	jne	.LBB8_5
.Ltmp158:
.LBB8_4:
	movq	-64(%rbp), %rax
	addq	$96, %rsp
	popq	%rbp
.Ltmp159:
	retq
.LBB8_5:
.Ltmp160:
	jmp	.LBB8_4
.Ltmp161:
.LBB8_7:
	ud2
.Ltmp162:
	.seh_handlerdata
	.long	($cppxdata$_ZN38_$LT$core..option..Option$LT$T$GT$$GT$6expect17hccd3d6bd46d363aaE)@IMGREL
	.section	.text,"xr",one_only,_ZN38_$LT$core..option..Option$LT$T$GT$$GT$6expect17hccd3d6bd46d363aaE
.Lcfi73:
	.seh_endproc
	.def	 "?dtor$6@?0?_ZN38_$LT$core..option..Option$LT$T$GT$$GT$6expect17hccd3d6bd46d363aaE@4HA";
	.scl	3;
	.type	32;
	.endef
	.p2align	4, 0x90
"?dtor$6@?0?_ZN38_$LT$core..option..Option$LT$T$GT$$GT$6expect17hccd3d6bd46d363aaE@4HA":
.Lcfi74:
.seh_proc "?dtor$6@?0?_ZN38_$LT$core..option..Option$LT$T$GT$$GT$6expect17hccd3d6bd46d363aaE@4HA"
.LBB8_6:
	movq	%rdx, 16(%rsp)
	pushq	%rbp
.Lcfi75:
	.seh_pushreg 5
	subq	$32, %rsp
.Lcfi76:
	.seh_stackalloc 32
	leaq	96(%rdx), %rbp
.Ltmp163:
.Lcfi77:
	.seh_endprologue
	.cv_loc	8 1 299 0
	addq	$32, %rsp
	popq	%rbp
	retq
.Ltmp164:
.Lfunc_end8:
	.seh_handlerdata
	.section	.text,"xr",one_only,_ZN38_$LT$core..option..Option$LT$T$GT$$GT$6expect17hccd3d6bd46d363aaE
.Lcfi78:
	.seh_endproc
	.section	.xdata,"dr",associative,_ZN38_$LT$core..option..Option$LT$T$GT$$GT$6expect17hccd3d6bd46d363aaE
	.p2align	2
$cppxdata$_ZN38_$LT$core..option..Option$LT$T$GT$$GT$6expect17hccd3d6bd46d363aaE:
	.long	429065506
	.long	1
	.long	($stateUnwindMap$_ZN38_$LT$core..option..Option$LT$T$GT$$GT$6expect17hccd3d6bd46d363aaE)@IMGREL
	.long	0
	.long	0
	.long	3
	.long	($ip2state$_ZN38_$LT$core..option..Option$LT$T$GT$$GT$6expect17hccd3d6bd46d363aaE)@IMGREL
	.long	88
	.long	0
	.long	1
$stateUnwindMap$_ZN38_$LT$core..option..Option$LT$T$GT$$GT$6expect17hccd3d6bd46d363aaE:
	.long	-1
	.long	"?dtor$6@?0?_ZN38_$LT$core..option..Option$LT$T$GT$$GT$6expect17hccd3d6bd46d363aaE@4HA"@IMGREL
$ip2state$_ZN38_$LT$core..option..Option$LT$T$GT$$GT$6expect17hccd3d6bd46d363aaE:
	.long	.Lfunc_begin8@IMGREL
	.long	-1
	.long	.Ltmp148@IMGREL+1
	.long	0
	.long	.Ltmp149@IMGREL+1
	.long	-1
	.section	.text,"xr",one_only,_ZN38_$LT$core..option..Option$LT$T$GT$$GT$6expect17hccd3d6bd46d363aaE

	.def	 _ZN38_$LT$core..option..Option$LT$T$GT$$GT$6unwrap17h6a86c8b846900e3eE;
	.scl	2;
	.type	32;
	.endef
	.section	.text,"xr",one_only,_ZN38_$LT$core..option..Option$LT$T$GT$$GT$6unwrap17h6a86c8b846900e3eE
	.globl	_ZN38_$LT$core..option..Option$LT$T$GT$$GT$6unwrap17h6a86c8b846900e3eE
	.p2align	4, 0x90
_ZN38_$LT$core..option..Option$LT$T$GT$$GT$6unwrap17h6a86c8b846900e3eE:
.Lfunc_begin9:
	.cv_func_id 9
	.cv_loc	9 1 332 0
.Lcfi79:
.seh_proc _ZN38_$LT$core..option..Option$LT$T$GT$$GT$6unwrap17h6a86c8b846900e3eE
	.seh_handler __CxxFrameHandler3, @unwind, @except
	pushq	%rbp
.Lcfi80:
	.seh_pushreg 5
.Ltmp167:
	subq	$80, %rsp
.Lcfi81:
	.seh_stackalloc 80
	leaq	80(%rsp), %rbp
.Lcfi82:
	.seh_setframe 5, 80
.Lcfi83:
	.seh_endprologue
	.cv_loc	9 1 334 0
	movq	$-2, -8(%rbp)
	movq	(%rcx), %rax
	testq	%rax, %rax
	movq	%rcx, -24(%rbp)
.Ltmp168:
	movq	%rax, -32(%rbp)
	je	.LBB9_1
	jmp	.LBB9_8
.Ltmp169:
.LBB9_8:
	movq	-32(%rbp), %rax
	subq	$1, %rax
	movq	%rax, -40(%rbp)
	je	.LBB9_3
	jmp	.LBB9_2
.Ltmp170:
.LBB9_1:
	.cv_file	2 "C:\\projects\\rust\\src\\libcore\\macros.rs"
	.cv_loc	9 2 20 0
.Ltmp165:
	leaq	ref.2(%rip), %rcx
	callq	_ZN4core9panicking5panic17hb14241805eba0fdcE
.Ltmp166:
	jmp	.LBB9_7
.Ltmp171:
.LBB9_2:
	.cv_loc	9 1 337 0
	ud2
.Ltmp172:
.LBB9_3:
	.cv_loc	9 1 334 0
	movq	-24(%rbp), %rax
	movq	8(%rax), %rcx
	movq	%rcx, -16(%rbp)
.Ltmp173:
	.cv_loc	9 1 334 0
	movq	-16(%rbp), %rax
.Ltmp174:
	.cv_loc	9 1 337 0
	movq	-24(%rbp), %rcx
	cmpq	$1, (%rcx)
	movq	%rax, -48(%rbp)
	jne	.LBB9_5
.Ltmp175:
.LBB9_4:
	movq	-48(%rbp), %rax
	addq	$80, %rsp
	popq	%rbp
.Ltmp176:
	retq
.LBB9_5:
.Ltmp177:
	jmp	.LBB9_4
.Ltmp178:
.LBB9_7:
	ud2
.Ltmp179:
	.seh_handlerdata
	.long	($cppxdata$_ZN38_$LT$core..option..Option$LT$T$GT$$GT$6unwrap17h6a86c8b846900e3eE)@IMGREL
	.section	.text,"xr",one_only,_ZN38_$LT$core..option..Option$LT$T$GT$$GT$6unwrap17h6a86c8b846900e3eE
.Lcfi84:
	.seh_endproc
	.def	 "?dtor$6@?0?_ZN38_$LT$core..option..Option$LT$T$GT$$GT$6unwrap17h6a86c8b846900e3eE@4HA";
	.scl	3;
	.type	32;
	.endef
	.p2align	4, 0x90
"?dtor$6@?0?_ZN38_$LT$core..option..Option$LT$T$GT$$GT$6unwrap17h6a86c8b846900e3eE@4HA":
.Lcfi85:
.seh_proc "?dtor$6@?0?_ZN38_$LT$core..option..Option$LT$T$GT$$GT$6unwrap17h6a86c8b846900e3eE@4HA"
.LBB9_6:
	movq	%rdx, 16(%rsp)
	pushq	%rbp
.Lcfi86:
	.seh_pushreg 5
	subq	$32, %rsp
.Lcfi87:
	.seh_stackalloc 32
	leaq	80(%rdx), %rbp
.Ltmp180:
.Lcfi88:
	.seh_endprologue
	.cv_loc	9 1 332 0
	addq	$32, %rsp
	popq	%rbp
	retq
.Ltmp181:
.Lfunc_end9:
	.seh_handlerdata
	.section	.text,"xr",one_only,_ZN38_$LT$core..option..Option$LT$T$GT$$GT$6unwrap17h6a86c8b846900e3eE
.Lcfi89:
	.seh_endproc
	.section	.xdata,"dr",associative,_ZN38_$LT$core..option..Option$LT$T$GT$$GT$6unwrap17h6a86c8b846900e3eE
	.p2align	2
$cppxdata$_ZN38_$LT$core..option..Option$LT$T$GT$$GT$6unwrap17h6a86c8b846900e3eE:
	.long	429065506
	.long	1
	.long	($stateUnwindMap$_ZN38_$LT$core..option..Option$LT$T$GT$$GT$6unwrap17h6a86c8b846900e3eE)@IMGREL
	.long	0
	.long	0
	.long	3
	.long	($ip2state$_ZN38_$LT$core..option..Option$LT$T$GT$$GT$6unwrap17h6a86c8b846900e3eE)@IMGREL
	.long	72
	.long	0
	.long	1
$stateUnwindMap$_ZN38_$LT$core..option..Option$LT$T$GT$$GT$6unwrap17h6a86c8b846900e3eE:
	.long	-1
	.long	"?dtor$6@?0?_ZN38_$LT$core..option..Option$LT$T$GT$$GT$6unwrap17h6a86c8b846900e3eE@4HA"@IMGREL
$ip2state$_ZN38_$LT$core..option..Option$LT$T$GT$$GT$6unwrap17h6a86c8b846900e3eE:
	.long	.Lfunc_begin9@IMGREL
	.long	-1
	.long	.Ltmp165@IMGREL+1
	.long	0
	.long	.Ltmp166@IMGREL+1
	.long	-1
	.section	.text,"xr",one_only,_ZN38_$LT$core..option..Option$LT$T$GT$$GT$6unwrap17h6a86c8b846900e3eE

	.def	 _ZN38_$LT$core..option..Option$LT$T$GT$$GT$6unwrap17h76a171d4d771dee7E;
	.scl	2;
	.type	32;
	.endef
	.section	.text,"xr",one_only,_ZN38_$LT$core..option..Option$LT$T$GT$$GT$6unwrap17h76a171d4d771dee7E
	.globl	_ZN38_$LT$core..option..Option$LT$T$GT$$GT$6unwrap17h76a171d4d771dee7E
	.p2align	4, 0x90
_ZN38_$LT$core..option..Option$LT$T$GT$$GT$6unwrap17h76a171d4d771dee7E:
.Lfunc_begin10:
	.cv_func_id 10
	.cv_loc	10 1 332 0
.Lcfi90:
.seh_proc _ZN38_$LT$core..option..Option$LT$T$GT$$GT$6unwrap17h76a171d4d771dee7E
	.seh_handler __CxxFrameHandler3, @unwind, @except
	pushq	%rbp
.Lcfi91:
	.seh_pushreg 5
	subq	$160, %rsp
.Lcfi92:
	.seh_stackalloc 160
	leaq	128(%rsp), %rbp
.Lcfi93:
	.seh_setframe 5, 128
.Lcfi94:
	.seh_endprologue
	movq	$-2, 24(%rbp)
	movq	%rcx, %rax
.Ltmp184:
	.cv_loc	10 1 334 0
	movb	24(%rdx), %r8b
	subb	$2, %r8b
	setne	%r9b
	movzbl	%r9b, %r10d
	movl	%r10d, %r11d
	movq	%rax, -48(%rbp)
	movq	%rdx, -56(%rbp)
.Ltmp185:
	movq	%rcx, -64(%rbp)
	movb	%r8b, -65(%rbp)
	movq	%r11, -80(%rbp)
	je	.LBB10_1
	jmp	.LBB10_8
.Ltmp186:
.LBB10_8:
	movq	-80(%rbp), %rax
	subq	$1, %rax
	movq	%rax, -88(%rbp)
	je	.LBB10_3
	jmp	.LBB10_2
.Ltmp187:
.LBB10_1:
	.cv_loc	10 2 20 0
.Ltmp182:
	leaq	ref.2(%rip), %rcx
	callq	_ZN4core9panicking5panic17hb14241805eba0fdcE
.Ltmp183:
	jmp	.LBB10_7
.Ltmp188:
.LBB10_2:
	.cv_loc	10 1 337 0
	ud2
.Ltmp189:
.LBB10_3:
	movl	$1, %eax
	movl	%eax, %ecx
	xorl	%eax, %eax
	movl	%eax, %edx
	.cv_loc	10 1 334 0
	movq	-56(%rbp), %r8
	movq	(%r8), %r9
	movq	%r9, -40(%rbp)
	movq	8(%r8), %r9
	movq	%r9, -32(%rbp)
	movq	16(%r8), %r9
	movq	%r9, -24(%rbp)
	movq	24(%r8), %r9
	movq	%r9, -16(%rbp)
.Ltmp190:
	.cv_loc	10 1 334 0
	movq	-40(%rbp), %r9
	movq	%r9, -8(%rbp)
	movq	-32(%rbp), %r9
	movq	%r9, (%rbp)
	movq	-24(%rbp), %r9
	movq	%r9, 8(%rbp)
	movq	-16(%rbp), %r9
	movq	%r9, 16(%rbp)
	movq	-8(%rbp), %r9
	movq	-64(%rbp), %r10
	movq	%r9, (%r10)
	movq	(%rbp), %r9
	movq	%r9, 8(%r10)
	movq	8(%rbp), %r9
	movq	%r9, 16(%r10)
	movq	16(%rbp), %r9
	movq	%r9, 24(%r10)
.Ltmp191:
	.cv_loc	10 1 337 0
	cmpb	$2, 24(%r8)
	cmoveq	%rdx, %rcx
	cmpq	$1, %rcx
	jne	.LBB10_5
.Ltmp192:
.LBB10_4:
	movq	-48(%rbp), %rax
	addq	$160, %rsp
	popq	%rbp
.Ltmp193:
	retq
.LBB10_5:
.Ltmp194:
	movq	-56(%rbp), %rcx
	callq	_ZN4core3ptr13drop_in_place17h5bfb803e786f258cE
	jmp	.LBB10_4
.Ltmp195:
.LBB10_7:
	ud2
.Ltmp196:
	.seh_handlerdata
	.long	($cppxdata$_ZN38_$LT$core..option..Option$LT$T$GT$$GT$6unwrap17h76a171d4d771dee7E)@IMGREL
	.section	.text,"xr",one_only,_ZN38_$LT$core..option..Option$LT$T$GT$$GT$6unwrap17h76a171d4d771dee7E
.Lcfi95:
	.seh_endproc
	.def	 "?dtor$6@?0?_ZN38_$LT$core..option..Option$LT$T$GT$$GT$6unwrap17h76a171d4d771dee7E@4HA";
	.scl	3;
	.type	32;
	.endef
	.p2align	4, 0x90
"?dtor$6@?0?_ZN38_$LT$core..option..Option$LT$T$GT$$GT$6unwrap17h76a171d4d771dee7E@4HA":
.Lcfi96:
.seh_proc "?dtor$6@?0?_ZN38_$LT$core..option..Option$LT$T$GT$$GT$6unwrap17h76a171d4d771dee7E@4HA"
.LBB10_6:
	movq	%rdx, 16(%rsp)
	pushq	%rbp
.Lcfi97:
	.seh_pushreg 5
	subq	$32, %rsp
.Lcfi98:
	.seh_stackalloc 32
	leaq	128(%rdx), %rbp
.Ltmp197:
.Lcfi99:
	.seh_endprologue
	movq	-56(%rbp), %rcx
	callq	_ZN4core3ptr13drop_in_place17h5bfb803e786f258cE
	.cv_loc	10 1 332 0
	nop
	addq	$32, %rsp
	popq	%rbp
	retq
.Ltmp198:
.Lfunc_end10:
	.seh_handlerdata
	.section	.text,"xr",one_only,_ZN38_$LT$core..option..Option$LT$T$GT$$GT$6unwrap17h76a171d4d771dee7E
.Lcfi100:
	.seh_endproc
	.section	.xdata,"dr",associative,_ZN38_$LT$core..option..Option$LT$T$GT$$GT$6unwrap17h76a171d4d771dee7E
	.p2align	2
$cppxdata$_ZN38_$LT$core..option..Option$LT$T$GT$$GT$6unwrap17h76a171d4d771dee7E:
	.long	429065506
	.long	1
	.long	($stateUnwindMap$_ZN38_$LT$core..option..Option$LT$T$GT$$GT$6unwrap17h76a171d4d771dee7E)@IMGREL
	.long	0
	.long	0
	.long	3
	.long	($ip2state$_ZN38_$LT$core..option..Option$LT$T$GT$$GT$6unwrap17h76a171d4d771dee7E)@IMGREL
	.long	152
	.long	0
	.long	1
$stateUnwindMap$_ZN38_$LT$core..option..Option$LT$T$GT$$GT$6unwrap17h76a171d4d771dee7E:
	.long	-1
	.long	"?dtor$6@?0?_ZN38_$LT$core..option..Option$LT$T$GT$$GT$6unwrap17h76a171d4d771dee7E@4HA"@IMGREL
$ip2state$_ZN38_$LT$core..option..Option$LT$T$GT$$GT$6unwrap17h76a171d4d771dee7E:
	.long	.Lfunc_begin10@IMGREL
	.long	-1
	.long	.Ltmp182@IMGREL+1
	.long	0
	.long	.Ltmp183@IMGREL+1
	.long	-1
	.section	.text,"xr",one_only,_ZN38_$LT$core..option..Option$LT$T$GT$$GT$6unwrap17h76a171d4d771dee7E

	.def	 _ZN38_$LT$core..option..Option$LT$T$GT$$GT$6unwrap17hbc899c9fc81cc1ccE;
	.scl	2;
	.type	32;
	.endef
	.section	.text,"xr",one_only,_ZN38_$LT$core..option..Option$LT$T$GT$$GT$6unwrap17hbc899c9fc81cc1ccE
	.globl	_ZN38_$LT$core..option..Option$LT$T$GT$$GT$6unwrap17hbc899c9fc81cc1ccE
	.p2align	4, 0x90
_ZN38_$LT$core..option..Option$LT$T$GT$$GT$6unwrap17hbc899c9fc81cc1ccE:
.Lfunc_begin11:
	.cv_func_id 11
	.cv_loc	11 1 332 0
.Lcfi101:
.seh_proc _ZN38_$LT$core..option..Option$LT$T$GT$$GT$6unwrap17hbc899c9fc81cc1ccE
	.seh_handler __CxxFrameHandler3, @unwind, @except
	pushq	%rbp
.Lcfi102:
	.seh_pushreg 5
.Ltmp201:
	subq	$96, %rsp
.Lcfi103:
	.seh_stackalloc 96
	leaq	96(%rsp), %rbp
.Lcfi104:
	.seh_setframe 5, 96
.Lcfi105:
	.seh_endprologue
	.cv_loc	11 1 334 0
	movq	$-2, -8(%rbp)
	movq	(%rcx), %rax
	testq	%rax, %rax
	movq	%rcx, -32(%rbp)
.Ltmp202:
	movq	%rax, -40(%rbp)
	je	.LBB11_1
	jmp	.LBB11_8
.Ltmp203:
.LBB11_8:
	movq	-40(%rbp), %rax
	subq	$1, %rax
	movq	%rax, -48(%rbp)
	je	.LBB11_3
	jmp	.LBB11_2
.Ltmp204:
.LBB11_1:
	.cv_loc	11 2 20 0
.Ltmp199:
	leaq	ref.2(%rip), %rcx
	callq	_ZN4core9panicking5panic17hb14241805eba0fdcE
.Ltmp200:
	jmp	.LBB11_7
.Ltmp205:
.LBB11_2:
	.cv_loc	11 1 337 0
	ud2
.Ltmp206:
.LBB11_3:
	.cv_loc	11 1 334 0
	movq	-32(%rbp), %rax
	movq	8(%rax), %rcx
	movq	16(%rax), %rdx
	movq	%rcx, -24(%rbp)
	movq	%rdx, -16(%rbp)
.Ltmp207:
	.cv_loc	11 1 334 0
	movq	-24(%rbp), %rax
	movq	-16(%rbp), %rdx
.Ltmp208:
	.cv_loc	11 1 337 0
	movq	-32(%rbp), %rcx
	cmpq	$1, (%rcx)
	movq	%rax, -56(%rbp)
	movq	%rdx, -64(%rbp)
	jne	.LBB11_5
.Ltmp209:
.LBB11_4:
	movq	-56(%rbp), %rax
	movq	-64(%rbp), %rdx
	addq	$96, %rsp
	popq	%rbp
.Ltmp210:
	retq
.LBB11_5:
.Ltmp211:
	jmp	.LBB11_4
.Ltmp212:
.LBB11_7:
	ud2
.Ltmp213:
	.seh_handlerdata
	.long	($cppxdata$_ZN38_$LT$core..option..Option$LT$T$GT$$GT$6unwrap17hbc899c9fc81cc1ccE)@IMGREL
	.section	.text,"xr",one_only,_ZN38_$LT$core..option..Option$LT$T$GT$$GT$6unwrap17hbc899c9fc81cc1ccE
.Lcfi106:
	.seh_endproc
	.def	 "?dtor$6@?0?_ZN38_$LT$core..option..Option$LT$T$GT$$GT$6unwrap17hbc899c9fc81cc1ccE@4HA";
	.scl	3;
	.type	32;
	.endef
	.p2align	4, 0x90
"?dtor$6@?0?_ZN38_$LT$core..option..Option$LT$T$GT$$GT$6unwrap17hbc899c9fc81cc1ccE@4HA":
.Lcfi107:
.seh_proc "?dtor$6@?0?_ZN38_$LT$core..option..Option$LT$T$GT$$GT$6unwrap17hbc899c9fc81cc1ccE@4HA"
.LBB11_6:
	movq	%rdx, 16(%rsp)
	pushq	%rbp
.Lcfi108:
	.seh_pushreg 5
	subq	$32, %rsp
.Lcfi109:
	.seh_stackalloc 32
	leaq	96(%rdx), %rbp
.Ltmp214:
.Lcfi110:
	.seh_endprologue
	.cv_loc	11 1 332 0
	addq	$32, %rsp
	popq	%rbp
	retq
.Ltmp215:
.Lfunc_end11:
	.seh_handlerdata
	.section	.text,"xr",one_only,_ZN38_$LT$core..option..Option$LT$T$GT$$GT$6unwrap17hbc899c9fc81cc1ccE
.Lcfi111:
	.seh_endproc
	.section	.xdata,"dr",associative,_ZN38_$LT$core..option..Option$LT$T$GT$$GT$6unwrap17hbc899c9fc81cc1ccE
	.p2align	2
$cppxdata$_ZN38_$LT$core..option..Option$LT$T$GT$$GT$6unwrap17hbc899c9fc81cc1ccE:
	.long	429065506
	.long	1
	.long	($stateUnwindMap$_ZN38_$LT$core..option..Option$LT$T$GT$$GT$6unwrap17hbc899c9fc81cc1ccE)@IMGREL
	.long	0
	.long	0
	.long	3
	.long	($ip2state$_ZN38_$LT$core..option..Option$LT$T$GT$$GT$6unwrap17hbc899c9fc81cc1ccE)@IMGREL
	.long	88
	.long	0
	.long	1
$stateUnwindMap$_ZN38_$LT$core..option..Option$LT$T$GT$$GT$6unwrap17hbc899c9fc81cc1ccE:
	.long	-1
	.long	"?dtor$6@?0?_ZN38_$LT$core..option..Option$LT$T$GT$$GT$6unwrap17hbc899c9fc81cc1ccE@4HA"@IMGREL
$ip2state$_ZN38_$LT$core..option..Option$LT$T$GT$$GT$6unwrap17hbc899c9fc81cc1ccE:
	.long	.Lfunc_begin11@IMGREL
	.long	-1
	.long	.Ltmp199@IMGREL+1
	.long	0
	.long	.Ltmp200@IMGREL+1
	.long	-1
	.section	.text,"xr",one_only,_ZN38_$LT$core..option..Option$LT$T$GT$$GT$6unwrap17hbc899c9fc81cc1ccE

	.def	 _ZN38_$LT$core..option..Option$LT$T$GT$$GT$6unwrap17he604a8a38af1cc83E;
	.scl	2;
	.type	32;
	.endef
	.section	.text,"xr",one_only,_ZN38_$LT$core..option..Option$LT$T$GT$$GT$6unwrap17he604a8a38af1cc83E
	.globl	_ZN38_$LT$core..option..Option$LT$T$GT$$GT$6unwrap17he604a8a38af1cc83E
	.p2align	4, 0x90
_ZN38_$LT$core..option..Option$LT$T$GT$$GT$6unwrap17he604a8a38af1cc83E:
.Lfunc_begin12:
	.cv_func_id 12
	.cv_loc	12 1 332 0
.Lcfi112:
.seh_proc _ZN38_$LT$core..option..Option$LT$T$GT$$GT$6unwrap17he604a8a38af1cc83E
	.seh_handler __CxxFrameHandler3, @unwind, @except
	pushq	%rbp
.Lcfi113:
	.seh_pushreg 5
	subq	$80, %rsp
.Lcfi114:
	.seh_stackalloc 80
	leaq	80(%rsp), %rbp
.Lcfi115:
	.seh_setframe 5, 80
.Lcfi116:
	.seh_endprologue
	movq	$-2, -8(%rbp)
	movq	%rcx, -24(%rbp)
.Ltmp218:
	.cv_loc	12 1 334 0
	movq	-24(%rbp), %rcx
	testq	%rcx, %rcx
	setne	%al
	movzbl	%al, %edx
	movl	%edx, %ecx
	movq	%rcx, -32(%rbp)
	je	.LBB12_1
	jmp	.LBB12_8
.Ltmp219:
.LBB12_8:
	movq	-32(%rbp), %rax
	subq	$1, %rax
	movq	%rax, -40(%rbp)
	je	.LBB12_3
	jmp	.LBB12_2
.Ltmp220:
.LBB12_1:
	.cv_loc	12 2 20 0
.Ltmp216:
	leaq	ref.2(%rip), %rcx
	callq	_ZN4core9panicking5panic17hb14241805eba0fdcE
.Ltmp217:
	jmp	.LBB12_7
.Ltmp221:
.LBB12_2:
	.cv_loc	12 1 337 0
	ud2
.Ltmp222:
.LBB12_3:
	movl	$1, %eax
	movl	%eax, %ecx
	xorl	%eax, %eax
	movl	%eax, %edx
	.cv_loc	12 1 334 0
	movq	-24(%rbp), %r8
	movq	%r8, -16(%rbp)
.Ltmp223:
	.cv_loc	12 1 334 0
	movq	-16(%rbp), %rax
.Ltmp224:
	.cv_loc	12 1 337 0
	cmpq	$0, -24(%rbp)
	cmoveq	%rdx, %rcx
	cmpq	$1, %rcx
	movq	%rax, -48(%rbp)
	jne	.LBB12_5
.Ltmp225:
.LBB12_4:
	movq	-48(%rbp), %rax
	addq	$80, %rsp
	popq	%rbp
.Ltmp226:
	retq
.LBB12_5:
.Ltmp227:
	jmp	.LBB12_4
.Ltmp228:
.LBB12_7:
	ud2
.Ltmp229:
	.seh_handlerdata
	.long	($cppxdata$_ZN38_$LT$core..option..Option$LT$T$GT$$GT$6unwrap17he604a8a38af1cc83E)@IMGREL
	.section	.text,"xr",one_only,_ZN38_$LT$core..option..Option$LT$T$GT$$GT$6unwrap17he604a8a38af1cc83E
.Lcfi117:
	.seh_endproc
	.def	 "?dtor$6@?0?_ZN38_$LT$core..option..Option$LT$T$GT$$GT$6unwrap17he604a8a38af1cc83E@4HA";
	.scl	3;
	.type	32;
	.endef
	.p2align	4, 0x90
"?dtor$6@?0?_ZN38_$LT$core..option..Option$LT$T$GT$$GT$6unwrap17he604a8a38af1cc83E@4HA":
.Lcfi118:
.seh_proc "?dtor$6@?0?_ZN38_$LT$core..option..Option$LT$T$GT$$GT$6unwrap17he604a8a38af1cc83E@4HA"
.LBB12_6:
	movq	%rdx, 16(%rsp)
	pushq	%rbp
.Lcfi119:
	.seh_pushreg 5
	subq	$32, %rsp
.Lcfi120:
	.seh_stackalloc 32
	leaq	80(%rdx), %rbp
.Ltmp230:
.Lcfi121:
	.seh_endprologue
	.cv_loc	12 1 332 0
	addq	$32, %rsp
	popq	%rbp
	retq
.Ltmp231:
.Lfunc_end12:
	.seh_handlerdata
	.section	.text,"xr",one_only,_ZN38_$LT$core..option..Option$LT$T$GT$$GT$6unwrap17he604a8a38af1cc83E
.Lcfi122:
	.seh_endproc
	.section	.xdata,"dr",associative,_ZN38_$LT$core..option..Option$LT$T$GT$$GT$6unwrap17he604a8a38af1cc83E
	.p2align	2
$cppxdata$_ZN38_$LT$core..option..Option$LT$T$GT$$GT$6unwrap17he604a8a38af1cc83E:
	.long	429065506
	.long	1
	.long	($stateUnwindMap$_ZN38_$LT$core..option..Option$LT$T$GT$$GT$6unwrap17he604a8a38af1cc83E)@IMGREL
	.long	0
	.long	0
	.long	3
	.long	($ip2state$_ZN38_$LT$core..option..Option$LT$T$GT$$GT$6unwrap17he604a8a38af1cc83E)@IMGREL
	.long	72
	.long	0
	.long	1
$stateUnwindMap$_ZN38_$LT$core..option..Option$LT$T$GT$$GT$6unwrap17he604a8a38af1cc83E:
	.long	-1
	.long	"?dtor$6@?0?_ZN38_$LT$core..option..Option$LT$T$GT$$GT$6unwrap17he604a8a38af1cc83E@4HA"@IMGREL
$ip2state$_ZN38_$LT$core..option..Option$LT$T$GT$$GT$6unwrap17he604a8a38af1cc83E:
	.long	.Lfunc_begin12@IMGREL
	.long	-1
	.long	.Ltmp216@IMGREL+1
	.long	0
	.long	.Ltmp217@IMGREL+1
	.long	-1
	.section	.text,"xr",one_only,_ZN38_$LT$core..option..Option$LT$T$GT$$GT$6unwrap17he604a8a38af1cc83E

	.def	 _ZN38_$LT$core..option..Option$LT$T$GT$$GT$7is_none17h10fa9e9975bb3bd8E;
	.scl	2;
	.type	32;
	.endef
	.section	.text,"xr",one_only,_ZN38_$LT$core..option..Option$LT$T$GT$$GT$7is_none17h10fa9e9975bb3bd8E
	.globl	_ZN38_$LT$core..option..Option$LT$T$GT$$GT$7is_none17h10fa9e9975bb3bd8E
	.p2align	4, 0x90
_ZN38_$LT$core..option..Option$LT$T$GT$$GT$7is_none17h10fa9e9975bb3bd8E:
.Lfunc_begin13:
	.cv_func_id 13
	.cv_loc	13 1 214 0
.Lcfi123:
.seh_proc _ZN38_$LT$core..option..Option$LT$T$GT$$GT$7is_none17h10fa9e9975bb3bd8E
	pushq	%rbp
.Lcfi124:
	.seh_pushreg 5
	subq	$48, %rsp
.Lcfi125:
	.seh_stackalloc 48
	leaq	48(%rsp), %rbp
.Lcfi126:
	.seh_setframe 5, 48
.Lcfi127:
	.seh_endprologue
	movq	%rcx, -8(%rbp)
.Ltmp232:
	.cv_loc	13 1 215 0
	movq	-8(%rbp), %rcx
	callq	_ZN38_$LT$core..option..Option$LT$T$GT$$GT$7is_some17h5a5898f66e242df0E
	movb	%al, -9(%rbp)
	movb	-9(%rbp), %al
	xorb	$-1, %al
	.cv_loc	13 1 216 0
	andb	$1, %al
	movzbl	%al, %eax
	addq	$48, %rsp
	popq	%rbp
	retq
.Ltmp233:
.Lfunc_end13:
	.seh_handlerdata
	.section	.text,"xr",one_only,_ZN38_$LT$core..option..Option$LT$T$GT$$GT$7is_none17h10fa9e9975bb3bd8E
.Lcfi128:
	.seh_endproc

	.def	 _ZN38_$LT$core..option..Option$LT$T$GT$$GT$7is_some17h5a5898f66e242df0E;
	.scl	3;
	.type	32;
	.endef
	.section	.text,"xr",one_only,_ZN38_$LT$core..option..Option$LT$T$GT$$GT$7is_some17h5a5898f66e242df0E
	.p2align	4, 0x90
_ZN38_$LT$core..option..Option$LT$T$GT$$GT$7is_some17h5a5898f66e242df0E:
.Lfunc_begin14:
	.cv_func_id 14
	.cv_loc	14 1 192 0
.Lcfi129:
.seh_proc _ZN38_$LT$core..option..Option$LT$T$GT$$GT$7is_some17h5a5898f66e242df0E
	pushq	%rbp
.Lcfi130:
	.seh_pushreg 5
	subq	$40, %rsp
.Lcfi131:
	.seh_stackalloc 40
	leaq	32(%rsp), %rbp
.Lcfi132:
	.seh_setframe 5, 32
.Lcfi133:
	.seh_endprologue
	movq	%rcx, -8(%rbp)
.Ltmp234:
	.cv_loc	14 1 194 0
	movq	-8(%rbp), %rcx
	movb	24(%rcx), %al
	subb	$2, %al
	setne	%dl
	movzbl	%dl, %r8d
	movl	%r8d, %ecx
	movb	%al, -9(%rbp)
	movq	%rcx, -24(%rbp)
	je	.LBB14_2
	jmp	.LBB14_5
.Ltmp235:
.LBB14_5:
	movq	-24(%rbp), %rax
	subq	$1, %rax
	movq	%rax, -32(%rbp)
	jne	.LBB14_3
	jmp	.LBB14_1
.Ltmp236:
.LBB14_1:
	movb	$1, 7(%rbp)
	.cv_loc	14 1 193 0
	jmp	.LBB14_4
.Ltmp237:
.LBB14_2:
	.cv_loc	14 1 195 0
	movb	$0, 7(%rbp)
	.cv_loc	14 1 193 0
	jmp	.LBB14_4
.Ltmp238:
.LBB14_3:
	.cv_loc	14 1 197 0
	ud2
.Ltmp239:
.LBB14_4:
	movb	7(%rbp), %al
	andb	$1, %al
	movzbl	%al, %eax
	addq	$40, %rsp
	popq	%rbp
.Ltmp240:
	retq
.Ltmp241:
.Lfunc_end14:
	.seh_handlerdata
	.section	.text,"xr",one_only,_ZN38_$LT$core..option..Option$LT$T$GT$$GT$7is_some17h5a5898f66e242df0E
.Lcfi134:
	.seh_endproc

	.def	 _ZN38_$LT$core..option..Option$LT$T$GT$$GT$9unwrap_or17h3fb47e26adfdb868E;
	.scl	2;
	.type	32;
	.endef
	.section	.text,"xr",one_only,_ZN38_$LT$core..option..Option$LT$T$GT$$GT$9unwrap_or17h3fb47e26adfdb868E
	.globl	_ZN38_$LT$core..option..Option$LT$T$GT$$GT$9unwrap_or17h3fb47e26adfdb868E
	.p2align	4, 0x90
_ZN38_$LT$core..option..Option$LT$T$GT$$GT$9unwrap_or17h3fb47e26adfdb868E:
.Lfunc_begin15:
	.cv_func_id 15
	.cv_loc	15 1 355 0
.Lcfi135:
.seh_proc _ZN38_$LT$core..option..Option$LT$T$GT$$GT$9unwrap_or17h3fb47e26adfdb868E
	pushq	%rbp
.Lcfi136:
	.seh_pushreg 5
	subq	$56, %rsp
.Lcfi137:
	.seh_stackalloc 56
	leaq	48(%rsp), %rbp
.Lcfi138:
	.seh_setframe 5, 48
.Lcfi139:
	.seh_endprologue
	movq	%rdx, -24(%rbp)
.Ltmp242:
	.cv_loc	15 1 357 0
	movb	$0, 6(%rbp)
	movb	$0, 7(%rbp)
	movb	$1, 6(%rbp)
	movb	$1, 7(%rbp)
	movq	(%rcx), %rdx
	testq	%rdx, %rdx
	movq	%rcx, -32(%rbp)
.Ltmp243:
	movq	%rdx, -40(%rbp)
	je	.LBB15_1
	jmp	.LBB15_11
.Ltmp244:
.LBB15_11:
	movq	-40(%rbp), %rax
	subq	$1, %rax
	movq	%rax, -48(%rbp)
	je	.LBB15_3
	jmp	.LBB15_2
.Ltmp245:
.LBB15_1:
	.cv_loc	15 1 358 0
	movb	$0, 7(%rbp)
	movq	-24(%rbp), %rax
	movq	%rax, -16(%rbp)
	.cv_loc	15 1 356 0
	jmp	.LBB15_4
.Ltmp246:
.LBB15_2:
	.cv_loc	15 1 360 0
	ud2
.Ltmp247:
.LBB15_3:
	.cv_loc	15 1 357 0
	movb	$0, 6(%rbp)
	movq	-32(%rbp), %rax
	movq	8(%rax), %rcx
	movq	%rcx, -8(%rbp)
.Ltmp248:
	.cv_loc	15 1 357 0
	movq	-8(%rbp), %rcx
	movq	%rcx, -16(%rbp)
.Ltmp249:
.LBB15_4:
	.cv_loc	15 1 360 0
	testb	$1, 7(%rbp)
	jne	.LBB15_6
.Ltmp250:
.LBB15_5:
	movq	-32(%rbp), %rax
	cmpq	$1, (%rax)
	je	.LBB15_8
	jmp	.LBB15_10
.Ltmp251:
.LBB15_6:
	movb	$0, 7(%rbp)
	jmp	.LBB15_5
.Ltmp252:
.LBB15_7:
	movq	-16(%rbp), %rax
	addq	$56, %rsp
	popq	%rbp
.Ltmp253:
	retq
.LBB15_8:
.Ltmp254:
	testb	$1, 6(%rbp)
	je	.LBB15_7
.Ltmp255:
	movb	$0, 6(%rbp)
	jmp	.LBB15_7
.Ltmp256:
.LBB15_10:
	jmp	.LBB15_7
.Ltmp257:
.Lfunc_end15:
	.seh_handlerdata
	.section	.text,"xr",one_only,_ZN38_$LT$core..option..Option$LT$T$GT$$GT$9unwrap_or17h3fb47e26adfdb868E
.Lcfi140:
	.seh_endproc

	.def	 _ZN38_$LT$core..option..Option$LT$T$GT$$GT$9unwrap_or17h4c414916fa6ec589E;
	.scl	2;
	.type	32;
	.endef
	.section	.text,"xr",one_only,_ZN38_$LT$core..option..Option$LT$T$GT$$GT$9unwrap_or17h4c414916fa6ec589E
	.globl	_ZN38_$LT$core..option..Option$LT$T$GT$$GT$9unwrap_or17h4c414916fa6ec589E
	.p2align	4, 0x90
_ZN38_$LT$core..option..Option$LT$T$GT$$GT$9unwrap_or17h4c414916fa6ec589E:
.Lfunc_begin16:
	.cv_func_id 16
	.cv_loc	16 1 355 0
.Lcfi141:
.seh_proc _ZN38_$LT$core..option..Option$LT$T$GT$$GT$9unwrap_or17h4c414916fa6ec589E
	pushq	%rbp
.Lcfi142:
	.seh_pushreg 5
	subq	$24, %rsp
.Lcfi143:
	.seh_stackalloc 24
	leaq	16(%rsp), %rbp
.Lcfi144:
	.seh_setframe 5, 16
.Lcfi145:
	.seh_endprologue
	movb	%dl, %al
	movb	%cl, %r8b
	movb	%r8b, 2(%rbp)
	andb	$1, %al
	movb	%al, 3(%rbp)
.Ltmp258:
	.cv_loc	16 1 357 0
	movb	$0, 6(%rbp)
	movb	$0, 7(%rbp)
	movb	$1, 6(%rbp)
	movb	$1, 7(%rbp)
	movb	2(%rbp), %al
	subb	$2, %al
	setne	%r8b
	movzbl	%r8b, %ecx
	movl	%ecx, %r9d
	movb	%al, 1(%rbp)
	movq	%r9, -8(%rbp)
	je	.LBB16_1
	jmp	.LBB16_11
.Ltmp259:
.LBB16_11:
	movq	-8(%rbp), %rax
	subq	$1, %rax
	movq	%rax, -16(%rbp)
	je	.LBB16_3
	jmp	.LBB16_2
.Ltmp260:
.LBB16_1:
	.cv_loc	16 1 358 0
	movb	$0, 7(%rbp)
	movb	3(%rbp), %al
	andb	$1, %al
	movb	%al, 4(%rbp)
	.cv_loc	16 1 356 0
	jmp	.LBB16_4
.Ltmp261:
.LBB16_2:
	.cv_loc	16 1 360 0
	ud2
.Ltmp262:
.LBB16_3:
	.cv_loc	16 1 357 0
	movb	$0, 6(%rbp)
	movb	2(%rbp), %al
	andb	$1, %al
	movb	%al, 5(%rbp)
.Ltmp263:
	.cv_loc	16 1 357 0
	movb	5(%rbp), %al
	andb	$1, %al
	movb	%al, 4(%rbp)
.Ltmp264:
.LBB16_4:
	.cv_loc	16 1 360 0
	testb	$1, 7(%rbp)
	jne	.LBB16_6
.Ltmp265:
.LBB16_5:
	movl	$1, %eax
	movl	%eax, %ecx
	xorl	%eax, %eax
	movl	%eax, %edx
	cmpb	$2, 2(%rbp)
	cmoveq	%rdx, %rcx
	cmpq	$1, %rcx
	je	.LBB16_8
	jmp	.LBB16_10
.Ltmp266:
.LBB16_6:
	movb	$0, 7(%rbp)
	jmp	.LBB16_5
.Ltmp267:
.LBB16_7:
	movb	4(%rbp), %al
	andb	$1, %al
	movzbl	%al, %eax
	addq	$24, %rsp
	popq	%rbp
.Ltmp268:
	retq
.LBB16_8:
.Ltmp269:
	testb	$1, 6(%rbp)
	je	.LBB16_7
.Ltmp270:
	movb	$0, 6(%rbp)
	jmp	.LBB16_7
.Ltmp271:
.LBB16_10:
	jmp	.LBB16_7
.Ltmp272:
.Lfunc_end16:
	.seh_handlerdata
	.section	.text,"xr",one_only,_ZN38_$LT$core..option..Option$LT$T$GT$$GT$9unwrap_or17h4c414916fa6ec589E
.Lcfi146:
	.seh_endproc

	.def	 _ZN38_$LT$core..option..Option$LT$T$GT$$GT$9unwrap_or17h9356d97b30a62671E;
	.scl	2;
	.type	32;
	.endef
	.section	.text,"xr",one_only,_ZN38_$LT$core..option..Option$LT$T$GT$$GT$9unwrap_or17h9356d97b30a62671E
	.globl	_ZN38_$LT$core..option..Option$LT$T$GT$$GT$9unwrap_or17h9356d97b30a62671E
	.p2align	4, 0x90
_ZN38_$LT$core..option..Option$LT$T$GT$$GT$9unwrap_or17h9356d97b30a62671E:
.Lfunc_begin17:
	.cv_func_id 17
	.cv_loc	17 1 355 0
.Lcfi147:
.seh_proc _ZN38_$LT$core..option..Option$LT$T$GT$$GT$9unwrap_or17h9356d97b30a62671E
	pushq	%rbp
.Lcfi148:
	.seh_pushreg 5
	subq	$56, %rsp
.Lcfi149:
	.seh_stackalloc 56
	leaq	48(%rsp), %rbp
.Lcfi150:
	.seh_setframe 5, 48
.Lcfi151:
	.seh_endprologue
	movq	%rcx, -32(%rbp)
	movq	%rdx, -24(%rbp)
.Ltmp273:
	.cv_loc	17 1 357 0
	movb	$0, 6(%rbp)
	movb	$0, 7(%rbp)
	movb	$1, 6(%rbp)
	movb	$1, 7(%rbp)
	movq	-32(%rbp), %rcx
	testq	%rcx, %rcx
	setne	%al
	movzbl	%al, %r8d
	movl	%r8d, %ecx
	movq	%rcx, -40(%rbp)
	je	.LBB17_1
	jmp	.LBB17_11
.Ltmp274:
.LBB17_11:
	movq	-40(%rbp), %rax
	subq	$1, %rax
	movq	%rax, -48(%rbp)
	je	.LBB17_3
	jmp	.LBB17_2
.Ltmp275:
.LBB17_1:
	.cv_loc	17 1 358 0
	movb	$0, 7(%rbp)
	movq	-24(%rbp), %rax
	movq	%rax, -16(%rbp)
	.cv_loc	17 1 356 0
	jmp	.LBB17_4
.Ltmp276:
.LBB17_2:
	.cv_loc	17 1 360 0
	ud2
.Ltmp277:
.LBB17_3:
	.cv_loc	17 1 357 0
	movb	$0, 6(%rbp)
	movq	-32(%rbp), %rax
	movq	%rax, -8(%rbp)
.Ltmp278:
	.cv_loc	17 1 357 0
	movq	-8(%rbp), %rax
	movq	%rax, -16(%rbp)
.Ltmp279:
.LBB17_4:
	.cv_loc	17 1 360 0
	testb	$1, 7(%rbp)
	jne	.LBB17_6
.Ltmp280:
.LBB17_5:
	movl	$1, %eax
	movl	%eax, %ecx
	xorl	%eax, %eax
	movl	%eax, %edx
	cmpq	$0, -32(%rbp)
	cmoveq	%rdx, %rcx
	cmpq	$1, %rcx
	je	.LBB17_8
	jmp	.LBB17_10
.Ltmp281:
.LBB17_6:
	movb	$0, 7(%rbp)
	jmp	.LBB17_5
.Ltmp282:
.LBB17_7:
	movq	-16(%rbp), %rax
	addq	$56, %rsp
	popq	%rbp
.Ltmp283:
	retq
.LBB17_8:
.Ltmp284:
	testb	$1, 6(%rbp)
	je	.LBB17_7
.Ltmp285:
	movb	$0, 6(%rbp)
	jmp	.LBB17_7
.Ltmp286:
.LBB17_10:
	jmp	.LBB17_7
.Ltmp287:
.Lfunc_end17:
	.seh_handlerdata
	.section	.text,"xr",one_only,_ZN38_$LT$core..option..Option$LT$T$GT$$GT$9unwrap_or17h9356d97b30a62671E
.Lcfi152:
	.seh_endproc

	.def	 _ZN38_$LT$core..option..Option$LT$T$GT$$GT$9unwrap_or17h96dfb5224951b285E;
	.scl	2;
	.type	32;
	.endef
	.section	.text,"xr",one_only,_ZN38_$LT$core..option..Option$LT$T$GT$$GT$9unwrap_or17h96dfb5224951b285E
	.globl	_ZN38_$LT$core..option..Option$LT$T$GT$$GT$9unwrap_or17h96dfb5224951b285E
	.p2align	4, 0x90
_ZN38_$LT$core..option..Option$LT$T$GT$$GT$9unwrap_or17h96dfb5224951b285E:
.Lfunc_begin18:
	.cv_func_id 18
	.cv_loc	18 1 355 0
.Lcfi153:
.seh_proc _ZN38_$LT$core..option..Option$LT$T$GT$$GT$9unwrap_or17h96dfb5224951b285E
	pushq	%rbp
.Lcfi154:
	.seh_pushreg 5
	subq	$48, %rsp
.Lcfi155:
	.seh_stackalloc 48
	leaq	48(%rsp), %rbp
.Lcfi156:
	.seh_setframe 5, 48
.Lcfi157:
	.seh_endprologue
	movq	%rcx, -24(%rbp)
	movq	-24(%rbp), %rcx
	movq	%rcx, -32(%rbp)
	movl	%edx, -16(%rbp)
.Ltmp288:
	.cv_loc	18 1 357 0
	movb	$0, -2(%rbp)
	movb	$0, -1(%rbp)
	movb	$1, -2(%rbp)
	movb	$1, -1(%rbp)
	movl	-32(%rbp), %edx
	movl	%edx, %ecx
	testq	%rcx, %rcx
	movq	%rcx, -40(%rbp)
	je	.LBB18_1
	jmp	.LBB18_11
.Ltmp289:
.LBB18_11:
	movq	-40(%rbp), %rax
	subq	$1, %rax
	movq	%rax, -48(%rbp)
	je	.LBB18_3
	jmp	.LBB18_2
.Ltmp290:
.LBB18_1:
	.cv_loc	18 1 358 0
	movb	$0, -1(%rbp)
	movl	-16(%rbp), %eax
	movl	%eax, -12(%rbp)
	.cv_loc	18 1 356 0
	jmp	.LBB18_4
.Ltmp291:
.LBB18_2:
	.cv_loc	18 1 360 0
	ud2
.Ltmp292:
.LBB18_3:
	.cv_loc	18 1 357 0
	movb	$0, -2(%rbp)
	movl	-28(%rbp), %eax
	movl	%eax, -8(%rbp)
.Ltmp293:
	.cv_loc	18 1 357 0
	movl	-8(%rbp), %eax
	movl	%eax, -12(%rbp)
.Ltmp294:
.LBB18_4:
	.cv_loc	18 1 360 0
	testb	$1, -1(%rbp)
	jne	.LBB18_6
.Ltmp295:
.LBB18_5:
	movl	-32(%rbp), %eax
	movl	%eax, %ecx
	cmpq	$1, %rcx
	je	.LBB18_8
	jmp	.LBB18_10
.Ltmp296:
.LBB18_6:
	movb	$0, -1(%rbp)
	jmp	.LBB18_5
.Ltmp297:
.LBB18_7:
	movl	-12(%rbp), %eax
	addq	$48, %rsp
	popq	%rbp
.Ltmp298:
	retq
.LBB18_8:
.Ltmp299:
	testb	$1, -2(%rbp)
	je	.LBB18_7
.Ltmp300:
	movb	$0, -2(%rbp)
	jmp	.LBB18_7
.Ltmp301:
.LBB18_10:
	jmp	.LBB18_7
.Ltmp302:
.Lfunc_end18:
	.seh_handlerdata
	.section	.text,"xr",one_only,_ZN38_$LT$core..option..Option$LT$T$GT$$GT$9unwrap_or17h96dfb5224951b285E
.Lcfi158:
	.seh_endproc

	.def	 _ZN38_$LT$core..option..Option$LT$T$GT$$GT$9unwrap_or17he829138cf4c97badE;
	.scl	2;
	.type	32;
	.endef
	.section	.text,"xr",one_only,_ZN38_$LT$core..option..Option$LT$T$GT$$GT$9unwrap_or17he829138cf4c97badE
	.globl	_ZN38_$LT$core..option..Option$LT$T$GT$$GT$9unwrap_or17he829138cf4c97badE
	.p2align	4, 0x90
_ZN38_$LT$core..option..Option$LT$T$GT$$GT$9unwrap_or17he829138cf4c97badE:
.Lfunc_begin19:
	.cv_func_id 19
	.cv_loc	19 1 355 0
.Lcfi159:
.seh_proc _ZN38_$LT$core..option..Option$LT$T$GT$$GT$9unwrap_or17he829138cf4c97badE
	.seh_handler __CxxFrameHandler3, @unwind, @except
	pushq	%rbp
.Lcfi160:
	.seh_pushreg 5
	subq	$176, %rsp
.Lcfi161:
	.seh_stackalloc 176
	leaq	128(%rsp), %rbp
.Lcfi162:
	.seh_setframe 5, 128
.Lcfi163:
	.seh_endprologue
	movq	$-2, 40(%rbp)
	movq	%rcx, %rax
.Ltmp305:
	.cv_loc	19 1 357 0
	movb	$0, 38(%rbp)
	movb	$0, 39(%rbp)
	movb	$1, 38(%rbp)
	movb	$1, 39(%rbp)
	movq	(%rdx), %r9
	testq	%r9, %r9
	setne	%r10b
	movzbl	%r10b, %r11d
	movl	%r11d, %r9d
	movq	%rax, -48(%rbp)
	movq	%r8, -56(%rbp)
.Ltmp306:
	movq	%rdx, -64(%rbp)
.Ltmp307:
	movq	%rcx, -72(%rbp)
	movq	%r9, -80(%rbp)
	je	.LBB19_2
	jmp	.LBB19_16
.Ltmp308:
.LBB19_16:
	movq	-80(%rbp), %rax
	subq	$1, %rax
	movq	%rax, -88(%rbp)
	je	.LBB19_4
	jmp	.LBB19_3
.Ltmp309:
.LBB19_2:
	.cv_loc	19 1 358 0
	movb	$0, 39(%rbp)
	movq	-56(%rbp), %rax
	movq	(%rax), %rcx
	movq	%rcx, 8(%rbp)
	movq	8(%rax), %rcx
	movq	%rcx, 16(%rbp)
	movq	16(%rax), %rcx
	movq	%rcx, 24(%rbp)
	movq	8(%rbp), %rcx
	movq	-72(%rbp), %rdx
	movq	%rcx, (%rdx)
	movq	16(%rbp), %rcx
	movq	%rcx, 8(%rdx)
	movq	24(%rbp), %rcx
	movq	%rcx, 16(%rdx)
	.cv_loc	19 1 356 0
	jmp	.LBB19_5
.Ltmp310:
.LBB19_3:
	.cv_loc	19 1 360 0
	ud2
.Ltmp311:
.LBB19_4:
	.cv_loc	19 1 357 0
	movb	$0, 38(%rbp)
	movq	-64(%rbp), %rax
	movq	(%rax), %rcx
	movq	%rcx, -40(%rbp)
	movq	8(%rax), %rcx
	movq	%rcx, -32(%rbp)
	movq	16(%rax), %rcx
	movq	%rcx, -24(%rbp)
.Ltmp312:
	.cv_loc	19 1 357 0
	movq	-40(%rbp), %rcx
	movq	%rcx, -16(%rbp)
	movq	-32(%rbp), %rcx
	movq	%rcx, -8(%rbp)
	movq	-24(%rbp), %rcx
	movq	%rcx, (%rbp)
	movq	-16(%rbp), %rcx
	movq	-72(%rbp), %rdx
	movq	%rcx, (%rdx)
	movq	-8(%rbp), %rcx
	movq	%rcx, 8(%rdx)
	movq	(%rbp), %rcx
	movq	%rcx, 16(%rdx)
.Ltmp313:
.LBB19_5:
	.cv_loc	19 1 360 0
	testb	$1, 39(%rbp)
	jne	.LBB19_10
.Ltmp314:
.LBB19_6:
	movl	$1, %eax
	movl	%eax, %ecx
	xorl	%eax, %eax
	movl	%eax, %edx
	movq	-64(%rbp), %r8
	cmpq	$0, (%r8)
	cmoveq	%rdx, %rcx
	cmpq	$1, %rcx
	je	.LBB19_12
	jmp	.LBB19_14
.Ltmp315:
.LBB19_10:
	movb	$0, 39(%rbp)
.Ltmp303:
	movq	-56(%rbp), %rcx
	callq	_ZN4core3ptr13drop_in_place17h7c1ed1e97a94da88E
.Ltmp304:
	jmp	.LBB19_6
.Ltmp316:
.LBB19_11:
	movq	-48(%rbp), %rax
	addq	$176, %rsp
	popq	%rbp
.Ltmp317:
	retq
.LBB19_12:
.Ltmp318:
	testb	$1, 38(%rbp)
	je	.LBB19_11
.Ltmp319:
	movb	$0, 38(%rbp)
	movq	-64(%rbp), %rax
	movq	%rax, %rcx
	callq	_ZN4core3ptr13drop_in_place17h7c1ed1e97a94da88E
	jmp	.LBB19_11
.Ltmp320:
.LBB19_14:
	movq	-64(%rbp), %rcx
	callq	_ZN4core3ptr13drop_in_place17he6f7d486b9358812E
	jmp	.LBB19_11
.Ltmp321:
.LBB19_1:
	.cv_loc	19 1 355 0
	addq	$32, %rsp
	popq	%rbp
.Ltmp322:
	retq
.LBB19_7:
.Ltmp323:
	.cv_loc	19 1 360 0
	testb	$1, 38(%rbp)
	je	.LBB19_1
.Ltmp324:
	movb	$0, 38(%rbp)
	movq	-64(%rbp), %rax
	movq	%rax, %rcx
	callq	_ZN4core3ptr13drop_in_place17h7c1ed1e97a94da88E
	jmp	.LBB19_1
.Ltmp325:
.LBB19_9:
	movq	-64(%rbp), %rcx
	callq	_ZN4core3ptr13drop_in_place17he6f7d486b9358812E
	jmp	.LBB19_1
.Ltmp326:
	.seh_handlerdata
	.long	($cppxdata$_ZN38_$LT$core..option..Option$LT$T$GT$$GT$9unwrap_or17he829138cf4c97badE)@IMGREL
	.section	.text,"xr",one_only,_ZN38_$LT$core..option..Option$LT$T$GT$$GT$9unwrap_or17he829138cf4c97badE
.Lcfi164:
	.seh_endproc
	.def	 "?dtor$15@?0?_ZN38_$LT$core..option..Option$LT$T$GT$$GT$9unwrap_or17he829138cf4c97badE@4HA";
	.scl	3;
	.type	32;
	.endef
	.p2align	4, 0x90
"?dtor$15@?0?_ZN38_$LT$core..option..Option$LT$T$GT$$GT$9unwrap_or17he829138cf4c97badE@4HA":
.Lcfi165:
.seh_proc "?dtor$15@?0?_ZN38_$LT$core..option..Option$LT$T$GT$$GT$9unwrap_or17he829138cf4c97badE@4HA"
.LBB19_15:
	movq	%rdx, 16(%rsp)
	pushq	%rbp
.Lcfi166:
	.seh_pushreg 5
	subq	$32, %rsp
.Lcfi167:
	.seh_stackalloc 32
	leaq	128(%rdx), %rbp
.Ltmp327:
.Lcfi168:
	.seh_endprologue
	movl	$1, %eax
	movl	%eax, %ecx
	xorl	%eax, %eax
	movl	%eax, %edx
	movq	-64(%rbp), %r8
	cmpq	$0, (%r8)
	cmoveq	%rdx, %rcx
	cmpq	$1, %rcx
	je	.LBB19_7
	jmp	.LBB19_9
.Ltmp328:
.Lfunc_end19:
	.seh_handlerdata
	.section	.text,"xr",one_only,_ZN38_$LT$core..option..Option$LT$T$GT$$GT$9unwrap_or17he829138cf4c97badE
.Lcfi169:
	.seh_endproc
	.section	.xdata,"dr",associative,_ZN38_$LT$core..option..Option$LT$T$GT$$GT$9unwrap_or17he829138cf4c97badE
	.p2align	2
$cppxdata$_ZN38_$LT$core..option..Option$LT$T$GT$$GT$9unwrap_or17he829138cf4c97badE:
	.long	429065506
	.long	1
	.long	($stateUnwindMap$_ZN38_$LT$core..option..Option$LT$T$GT$$GT$9unwrap_or17he829138cf4c97badE)@IMGREL
	.long	0
	.long	0
	.long	3
	.long	($ip2state$_ZN38_$LT$core..option..Option$LT$T$GT$$GT$9unwrap_or17he829138cf4c97badE)@IMGREL
	.long	168
	.long	0
	.long	1
$stateUnwindMap$_ZN38_$LT$core..option..Option$LT$T$GT$$GT$9unwrap_or17he829138cf4c97badE:
	.long	-1
	.long	"?dtor$15@?0?_ZN38_$LT$core..option..Option$LT$T$GT$$GT$9unwrap_or17he829138cf4c97badE@4HA"@IMGREL
$ip2state$_ZN38_$LT$core..option..Option$LT$T$GT$$GT$9unwrap_or17he829138cf4c97badE:
	.long	.Lfunc_begin19@IMGREL
	.long	-1
	.long	.Ltmp303@IMGREL+1
	.long	0
	.long	.Ltmp304@IMGREL+1
	.long	-1
	.section	.text,"xr",one_only,_ZN38_$LT$core..option..Option$LT$T$GT$$GT$9unwrap_or17he829138cf4c97badE

	.def	 _ZN50_$LT$T$u20$as$u20$core..convert..From$LT$T$GT$$GT$4from17h90c9c9b673a89381E;
	.scl	2;
	.type	32;
	.endef
	.section	.text,"xr",one_only,_ZN50_$LT$T$u20$as$u20$core..convert..From$LT$T$GT$$GT$4from17h90c9c9b673a89381E
	.globl	_ZN50_$LT$T$u20$as$u20$core..convert..From$LT$T$GT$$GT$4from17h90c9c9b673a89381E
	.p2align	4, 0x90
_ZN50_$LT$T$u20$as$u20$core..convert..From$LT$T$GT$$GT$4from17h90c9c9b673a89381E:
.Lfunc_begin20:
	.cv_func_id 20
	.cv_file	3 "C:\\projects\\rust\\src\\libcore\\convert.rs"
	.cv_loc	20 3 422 0
.Lcfi170:
.seh_proc _ZN50_$LT$T$u20$as$u20$core..convert..From$LT$T$GT$$GT$4from17h90c9c9b673a89381E
	pushq	%rbp
.Lcfi171:
	.seh_pushreg 5
.Ltmp329:
	pushq	%rax
.Lcfi172:
	.seh_stackalloc 8
	movq	%rsp, %rbp
.Lcfi173:
	.seh_setframe 5, 0
.Lcfi174:
	.seh_endprologue
	addq	$8, %rsp
	popq	%rbp
	retq
.Ltmp330:
.Lfunc_end20:
	.seh_handlerdata
	.section	.text,"xr",one_only,_ZN50_$LT$T$u20$as$u20$core..convert..From$LT$T$GT$$GT$4from17h90c9c9b673a89381E
.Lcfi175:
	.seh_endproc

	.def	 _ZN69_$LT$core..option..Option$LT$T$GT$$u20$as$u20$core..ops..try..Try$GT$10from_error17h55d47ca88a0e4cb7E;
	.scl	2;
	.type	32;
	.endef
	.section	.text,"xr",one_only,_ZN69_$LT$core..option..Option$LT$T$GT$$u20$as$u20$core..ops..try..Try$GT$10from_error17h55d47ca88a0e4cb7E
	.globl	_ZN69_$LT$core..option..Option$LT$T$GT$$u20$as$u20$core..ops..try..Try$GT$10from_error17h55d47ca88a0e4cb7E
	.p2align	4, 0x90
_ZN69_$LT$core..option..Option$LT$T$GT$$u20$as$u20$core..ops..try..Try$GT$10from_error17h55d47ca88a0e4cb7E:
.Lfunc_begin21:
	.cv_func_id 21
	.cv_loc	21 1 1197 0
.Lcfi176:
.seh_proc _ZN69_$LT$core..option..Option$LT$T$GT$$u20$as$u20$core..ops..try..Try$GT$10from_error17h55d47ca88a0e4cb7E
	pushq	%rbp
.Lcfi177:
	.seh_pushreg 5
	pushq	%rax
.Lcfi178:
	.seh_stackalloc 8
	movq	%rsp, %rbp
.Lcfi179:
	.seh_setframe 5, 0
.Lcfi180:
	.seh_endprologue
	movq	%rcx, %rax
.Ltmp331:
	.cv_loc	21 1 1198 0
	movq	$0, (%rcx)
	.cv_loc	21 1 1199 0
	addq	$8, %rsp
	popq	%rbp
	retq
.Ltmp332:
.Lfunc_end21:
	.seh_handlerdata
	.section	.text,"xr",one_only,_ZN69_$LT$core..option..Option$LT$T$GT$$u20$as$u20$core..ops..try..Try$GT$10from_error17h55d47ca88a0e4cb7E
.Lcfi181:
	.seh_endproc

	.def	 _ZN69_$LT$core..option..Option$LT$T$GT$$u20$as$u20$core..ops..try..Try$GT$11into_result17hc1b29322cd4275aaE;
	.scl	2;
	.type	32;
	.endef
	.section	.text,"xr",one_only,_ZN69_$LT$core..option..Option$LT$T$GT$$u20$as$u20$core..ops..try..Try$GT$11into_result17hc1b29322cd4275aaE
	.globl	_ZN69_$LT$core..option..Option$LT$T$GT$$u20$as$u20$core..ops..try..Try$GT$11into_result17hc1b29322cd4275aaE
	.p2align	4, 0x90
_ZN69_$LT$core..option..Option$LT$T$GT$$u20$as$u20$core..ops..try..Try$GT$11into_result17hc1b29322cd4275aaE:
.Lfunc_begin22:
	.cv_func_id 22
	.cv_loc	22 1 1189 0
.Lcfi182:
.seh_proc _ZN69_$LT$core..option..Option$LT$T$GT$$u20$as$u20$core..ops..try..Try$GT$11into_result17hc1b29322cd4275aaE
	pushq	%rbp
.Lcfi183:
	.seh_pushreg 5
	subq	$64, %rsp
.Lcfi184:
	.seh_stackalloc 64
	leaq	64(%rsp), %rbp
.Lcfi185:
	.seh_setframe 5, 64
.Lcfi186:
	.seh_endprologue
	movq	%rcx, %rax
	leaq	-16(%rbp), %r8
.Ltmp333:
	.cv_loc	22 1 1190 0
	movq	(%rdx), %r9
	movq	%r9, -16(%rbp)
	movq	8(%rdx), %rdx
.Ltmp334:
	movq	%rdx, -8(%rbp)
	movq	%r8, %rdx
	movq	%rax, -24(%rbp)
	callq	_ZN38_$LT$core..option..Option$LT$T$GT$$GT$5ok_or17hcdde621994ee6013E
	.cv_loc	22 1 1191 0
	movq	-24(%rbp), %rax
	addq	$64, %rsp
	popq	%rbp
	retq
.Ltmp335:
.Lfunc_end22:
	.seh_handlerdata
	.section	.text,"xr",one_only,_ZN69_$LT$core..option..Option$LT$T$GT$$u20$as$u20$core..ops..try..Try$GT$11into_result17hc1b29322cd4275aaE
.Lcfi187:
	.seh_endproc

	.def	 _ZN78_$LT$core..option..Option$LT$T$GT$$u20$as$u20$core..convert..From$LT$T$GT$$GT$4from17h8bc0d700de343110E;
	.scl	2;
	.type	32;
	.endef
	.section	.text,"xr",one_only,_ZN78_$LT$core..option..Option$LT$T$GT$$u20$as$u20$core..convert..From$LT$T$GT$$GT$4from17h8bc0d700de343110E
	.globl	_ZN78_$LT$core..option..Option$LT$T$GT$$u20$as$u20$core..convert..From$LT$T$GT$$GT$4from17h8bc0d700de343110E
	.p2align	4, 0x90
_ZN78_$LT$core..option..Option$LT$T$GT$$u20$as$u20$core..convert..From$LT$T$GT$$GT$4from17h8bc0d700de343110E:
.Lfunc_begin23:
	.cv_func_id 23
	.cv_loc	23 1 951 0
.Lcfi188:
.seh_proc _ZN78_$LT$core..option..Option$LT$T$GT$$u20$as$u20$core..convert..From$LT$T$GT$$GT$4from17h8bc0d700de343110E
	pushq	%rbp
.Lcfi189:
	.seh_pushreg 5
	subq	$16, %rsp
.Lcfi190:
	.seh_stackalloc 16
	leaq	16(%rsp), %rbp
.Lcfi191:
	.seh_setframe 5, 16
.Lcfi192:
	.seh_endprologue
	movq	%rcx, %rax
.Ltmp336:
	.cv_loc	23 1 952 0
	movq	(%rdx), %r8
	movq	%r8, -16(%rbp)
	movq	8(%rdx), %rdx
.Ltmp337:
	movq	%rdx, -8(%rbp)
	movl	$1, (%rcx)
	movq	-16(%rbp), %rdx
	movq	%rdx, 4(%rcx)
	movq	-8(%rbp), %rdx
	movq	%rdx, 12(%rcx)
	.cv_loc	23 1 953 0
	addq	$16, %rsp
	popq	%rbp
	retq
.Ltmp338:
.Lfunc_end23:
	.seh_handlerdata
	.section	.text,"xr",one_only,_ZN78_$LT$core..option..Option$LT$T$GT$$u20$as$u20$core..convert..From$LT$T$GT$$GT$4from17h8bc0d700de343110E
.Lcfi193:
	.seh_endproc

	.section	.rdata,"dr",one_only,str.0
	.p2align	4
str.0:
	.ascii	"called `Option::unwrap()` on a `None` value"

	.section	.rdata,"dr",one_only,str.1
	.p2align	4
str.1:
	.ascii	"libcore\\option.rs"

	.section	.rdata,"dr",one_only,ref.2
	.p2align	3
ref.2:
	.quad	str.0
	.quad	43
	.quad	str.1
	.quad	17
	.long	335
	.long	21

	.section	.rdata,"dr",one_only,const.3
	.p2align	3
const.3:
	.quad	ref.2
