	.text
	.def	 _ZN112_$LT$std..collections..hash..table..FullBucket$LT$K$C$$u20$V$C$$u20$M$GT$$u20$as$u20$core..ops..deref..Deref$GT$5deref17h9694ce54fdca90f3E;
	.scl	3;
	.type	32;
	.endef
	.section	.text,"xr",one_only,_ZN112_$LT$std..collections..hash..table..FullBucket$LT$K$C$$u20$V$C$$u20$M$GT$$u20$as$u20$core..ops..deref..Deref$GT$5deref17h9694ce54fdca90f3E
	.p2align	4, 0x90
_ZN112_$LT$std..collections..hash..table..FullBucket$LT$K$C$$u20$V$C$$u20$M$GT$$u20$as$u20$core..ops..deref..Deref$GT$5deref17h9694ce54fdca90f3E:
.Lfunc_begin0:
	.cv_func_id 0
	.cv_file	1 "C:\\projects\\rust\\src\\libstd\\collections\\hash\\table.rs"
	.cv_loc	0 1 297 0 is_stmt 0
.Lcfi0:
.seh_proc _ZN112_$LT$std..collections..hash..table..FullBucket$LT$K$C$$u20$V$C$$u20$M$GT$$u20$as$u20$core..ops..deref..Deref$GT$5deref17h9694ce54fdca90f3E
	pushq	%rbp
.Lcfi1:
	.seh_pushreg 5
	subq	$48, %rsp
.Lcfi2:
	.seh_stackalloc 48
	leaq	48(%rsp), %rbp
.Lcfi3:
	.seh_setframe 5, 48
.Lcfi4:
	.seh_endprologue
	movq	%rcx, -8(%rbp)
.Ltmp0:
	.cv_loc	0 1 298 0
	movq	-8(%rbp), %rcx
	addq	$24, %rcx
	callq	_ZN68_$LT$$RF$$u27$a$u20$mut$u20$T$u20$as$u20$core..ops..deref..Deref$GT$5deref17h1222be5803b425fbE
	movq	%rax, -16(%rbp)
	.cv_loc	0 1 299 0
	movq	-16(%rbp), %rax
	addq	$48, %rsp
	popq	%rbp
	retq
.Ltmp1:
.Lfunc_end0:
	.seh_handlerdata
	.section	.text,"xr",one_only,_ZN112_$LT$std..collections..hash..table..FullBucket$LT$K$C$$u20$V$C$$u20$M$GT$$u20$as$u20$core..ops..deref..Deref$GT$5deref17h9694ce54fdca90f3E
.Lcfi5:
	.seh_endproc

	.def	 _ZN141_$LT$std..collections..hash..table..FullBucket$LT$K$C$$u20$V$C$$u20$M$GT$$u20$as$u20$std..collections..hash..table..Put$LT$K$C$$u20$V$GT$$GT$16borrow_table_mut17h466a01ce9a580cfeE;
	.scl	3;
	.type	32;
	.endef
	.section	.text,"xr",one_only,_ZN141_$LT$std..collections..hash..table..FullBucket$LT$K$C$$u20$V$C$$u20$M$GT$$u20$as$u20$std..collections..hash..table..Put$LT$K$C$$u20$V$GT$$GT$16borrow_table_mut17h466a01ce9a580cfeE
	.p2align	4, 0x90
_ZN141_$LT$std..collections..hash..table..FullBucket$LT$K$C$$u20$V$C$$u20$M$GT$$u20$as$u20$std..collections..hash..table..Put$LT$K$C$$u20$V$GT$$GT$16borrow_table_mut17h466a01ce9a580cfeE:
.Lfunc_begin1:
	.cv_func_id 1
	.cv_loc	1 1 326 0
.Lcfi6:
.seh_proc _ZN141_$LT$std..collections..hash..table..FullBucket$LT$K$C$$u20$V$C$$u20$M$GT$$u20$as$u20$std..collections..hash..table..Put$LT$K$C$$u20$V$GT$$GT$16borrow_table_mut17h466a01ce9a580cfeE
	pushq	%rbp
.Lcfi7:
	.seh_pushreg 5
	subq	$48, %rsp
.Lcfi8:
	.seh_stackalloc 48
	leaq	48(%rsp), %rbp
.Lcfi9:
	.seh_setframe 5, 48
.Lcfi10:
	.seh_endprologue
	movq	%rcx, -8(%rbp)
.Ltmp2:
	.cv_loc	1 1 327 0
	movq	-8(%rbp), %rcx
	addq	$24, %rcx
	callq	_ZN153_$LT$$RF$$u27$t$u20$mut$u20$std..collections..hash..table..RawTable$LT$K$C$$u20$V$GT$$u20$as$u20$std..collections..hash..table..Put$LT$K$C$$u20$V$GT$$GT$16borrow_table_mut17h92aece9be998c8deE
	movq	%rax, -16(%rbp)
	.cv_loc	1 1 328 0
	movq	-16(%rbp), %rax
	addq	$48, %rsp
	popq	%rbp
	retq
.Ltmp3:
.Lfunc_end1:
	.seh_handlerdata
	.section	.text,"xr",one_only,_ZN141_$LT$std..collections..hash..table..FullBucket$LT$K$C$$u20$V$C$$u20$M$GT$$u20$as$u20$std..collections..hash..table..Put$LT$K$C$$u20$V$GT$$GT$16borrow_table_mut17h466a01ce9a580cfeE
.Lcfi11:
	.seh_endproc

	.def	 _ZN153_$LT$$RF$$u27$t$u20$mut$u20$std..collections..hash..table..RawTable$LT$K$C$$u20$V$GT$$u20$as$u20$std..collections..hash..table..Put$LT$K$C$$u20$V$GT$$GT$16borrow_table_mut17h92aece9be998c8deE;
	.scl	3;
	.type	32;
	.endef
	.section	.text,"xr",one_only,_ZN153_$LT$$RF$$u27$t$u20$mut$u20$std..collections..hash..table..RawTable$LT$K$C$$u20$V$GT$$u20$as$u20$std..collections..hash..table..Put$LT$K$C$$u20$V$GT$$GT$16borrow_table_mut17h92aece9be998c8deE
	.p2align	4, 0x90
_ZN153_$LT$$RF$$u27$t$u20$mut$u20$std..collections..hash..table..RawTable$LT$K$C$$u20$V$GT$$u20$as$u20$std..collections..hash..table..Put$LT$K$C$$u20$V$GT$$GT$16borrow_table_mut17h92aece9be998c8deE:
.Lfunc_begin2:
	.cv_func_id 2
	.cv_loc	2 1 310 0
.Lcfi12:
.seh_proc _ZN153_$LT$$RF$$u27$t$u20$mut$u20$std..collections..hash..table..RawTable$LT$K$C$$u20$V$GT$$u20$as$u20$std..collections..hash..table..Put$LT$K$C$$u20$V$GT$$GT$16borrow_table_mut17h92aece9be998c8deE
	pushq	%rbp
.Lcfi13:
	.seh_pushreg 5
	pushq	%rax
.Lcfi14:
	.seh_stackalloc 8
	movq	%rsp, %rbp
.Lcfi15:
	.seh_setframe 5, 0
.Lcfi16:
	.seh_endprologue
	movq	%rcx, (%rbp)
.Ltmp4:
	.cv_loc	2 1 311 0
	movq	(%rbp), %rcx
	movq	(%rcx), %rax
	.cv_loc	2 1 312 0
	addq	$8, %rsp
	popq	%rbp
	retq
.Ltmp5:
.Lfunc_end2:
	.seh_handlerdata
	.section	.text,"xr",one_only,_ZN153_$LT$$RF$$u27$t$u20$mut$u20$std..collections..hash..table..RawTable$LT$K$C$$u20$V$GT$$u20$as$u20$std..collections..hash..table..Put$LT$K$C$$u20$V$GT$$GT$16borrow_table_mut17h92aece9be998c8deE
.Lcfi17:
	.seh_endproc

	.def	 _ZN156_$LT$std..collections..hash..table..FullBucket$LT$K$C$$u20$V$C$$u20$$RF$$u27$t$u20$mut$u20$std..collections..hash..table..RawTable$LT$K$C$$u20$V$GT$$GT$$GT$4take17hffade6f3ae41e95dE;
	.scl	2;
	.type	32;
	.endef
	.section	.text,"xr",one_only,_ZN156_$LT$std..collections..hash..table..FullBucket$LT$K$C$$u20$V$C$$u20$$RF$$u27$t$u20$mut$u20$std..collections..hash..table..RawTable$LT$K$C$$u20$V$GT$$GT$$GT$4take17hffade6f3ae41e95dE
	.globl	_ZN156_$LT$std..collections..hash..table..FullBucket$LT$K$C$$u20$V$C$$u20$$RF$$u27$t$u20$mut$u20$std..collections..hash..table..RawTable$LT$K$C$$u20$V$GT$$GT$$GT$4take17hffade6f3ae41e95dE
	.p2align	4, 0x90
_ZN156_$LT$std..collections..hash..table..FullBucket$LT$K$C$$u20$V$C$$u20$$RF$$u27$t$u20$mut$u20$std..collections..hash..table..RawTable$LT$K$C$$u20$V$GT$$GT$$GT$4take17hffade6f3ae41e95dE:
.Lfunc_begin3:
	.cv_func_id 3
	.cv_loc	3 1 563 0
.Lcfi18:
.seh_proc _ZN156_$LT$std..collections..hash..table..FullBucket$LT$K$C$$u20$V$C$$u20$$RF$$u27$t$u20$mut$u20$std..collections..hash..table..RawTable$LT$K$C$$u20$V$GT$$GT$$GT$4take17hffade6f3ae41e95dE
	pushq	%rbp
.Lcfi19:
	.seh_pushreg 5
	subq	$144, %rsp
.Lcfi20:
	.seh_stackalloc 144
	leaq	128(%rsp), %rbp
.Lcfi21:
	.seh_setframe 5, 128
.Lcfi22:
	.seh_endprologue
	movq	%rcx, %rax
.Ltmp6:
	.cv_loc	3 1 564 0
	movq	24(%rdx), %r8
	movq	24(%rdx), %r9
	movq	8(%r9), %r9
	subq	$1, %r9
	movq	%r9, 8(%r8)
.Ltmp7:
	.cv_loc	3 1 567 0
	movq	%rdx, %r8
	movq	%rcx, -56(%rbp)
	movq	%r8, %rcx
	movq	%rax, -64(%rbp)
	movq	%rdx, -72(%rbp)
.Ltmp8:
	callq	_ZN67_$LT$std..collections..hash..table..RawBucket$LT$K$C$$u20$V$GT$$GT$4hash17h98fac13dbff89709E
	movq	%rax, -80(%rbp)
.Ltmp9:
	movq	-80(%rbp), %rax
	movq	$0, (%rax)
	.cv_loc	3 1 568 0
	movq	-72(%rbp), %rcx
	callq	_ZN67_$LT$std..collections..hash..table..RawBucket$LT$K$C$$u20$V$GT$$GT$4pair17hf189d80471132fc1E
	movq	%rax, -88(%rbp)
.Ltmp10:
	movq	-88(%rbp), %rcx
	callq	_ZN4core3ptr4read17h2e43306768fe4e33E
	movl	%eax, -92(%rbp)
	movb	%dl, -93(%rbp)
.Ltmp11:
	movl	-92(%rbp), %eax
	movl	%eax, -48(%rbp)
	movb	-93(%rbp), %cl
	andb	$1, %cl
	movb	%cl, -41(%rbp)
.Ltmp12:
	.cv_loc	3 1 570 0
	movq	-72(%rbp), %rdx
	movq	(%rdx), %r8
	movq	%r8, -8(%rbp)
	movq	8(%rdx), %r8
	movq	%r8, (%rbp)
	movq	16(%rdx), %r8
	movq	%r8, 8(%rbp)
	.cv_loc	3 1 571 0
	movq	24(%rdx), %r8
	.cv_loc	3 1 569 0
	movq	-8(%rbp), %r9
	movq	%r9, -40(%rbp)
	movq	(%rbp), %r9
	movq	%r9, -32(%rbp)
	movq	8(%rbp), %r9
	movq	%r9, -24(%rbp)
	movq	%r8, -16(%rbp)
	.cv_loc	3 1 573 0
	movl	-48(%rbp), %r10d
	.cv_loc	3 1 574 0
	movb	-41(%rbp), %cl
	.cv_loc	3 1 569 0
	movq	-40(%rbp), %r8
	movq	-56(%rbp), %r9
	movq	%r8, (%r9)
	movq	-32(%rbp), %r8
	movq	%r8, 8(%r9)
	movq	-24(%rbp), %r8
	movq	%r8, 16(%r9)
	movq	-16(%rbp), %r8
	movq	%r8, 24(%r9)
	movl	%r10d, 32(%r9)
	andb	$1, %cl
	movb	%cl, 36(%r9)
.Ltmp13:
	.cv_loc	3 1 576 0
	movq	-64(%rbp), %rax
	addq	$144, %rsp
	popq	%rbp
.Ltmp14:
	retq
.Ltmp15:
.Lfunc_end3:
	.seh_handlerdata
	.section	.text,"xr",one_only,_ZN156_$LT$std..collections..hash..table..FullBucket$LT$K$C$$u20$V$C$$u20$$RF$$u27$t$u20$mut$u20$std..collections..hash..table..RawTable$LT$K$C$$u20$V$GT$$GT$$GT$4take17hffade6f3ae41e95dE
.Lcfi23:
	.seh_endproc

	.def	 _ZN3std11collections4hash5table9make_hash17h132789cdb0e07793E;
	.scl	2;
	.type	32;
	.endef
	.section	.text,"xr",one_only,_ZN3std11collections4hash5table9make_hash17h132789cdb0e07793E
	.globl	_ZN3std11collections4hash5table9make_hash17h132789cdb0e07793E
	.p2align	4, 0x90
_ZN3std11collections4hash5table9make_hash17h132789cdb0e07793E:
.Lfunc_begin4:
	.cv_func_id 4
	.cv_loc	4 1 210 0
.Lcfi24:
.seh_proc _ZN3std11collections4hash5table9make_hash17h132789cdb0e07793E
	.seh_handler __CxxFrameHandler3, @unwind, @except
	pushq	%rbp
.Lcfi25:
	.seh_pushreg 5
	subq	$192, %rsp
.Lcfi26:
	.seh_stackalloc 192
	leaq	128(%rsp), %rbp
.Lcfi27:
	.seh_setframe 5, 128
.Lcfi28:
	.seh_endprologue
	movq	$-2, 56(%rbp)
	movq	%rcx, -56(%rbp)
	movq	%rdx, -48(%rbp)
.Ltmp22:
	.cv_loc	4 1 214 0
	movq	-56(%rbp), %rdx
	leaq	-40(%rbp), %rcx
	movq	%rcx, -64(%rbp)
	callq	_ZN84_$LT$std..collections..hash..map..RandomState$u20$as$u20$core..hash..BuildHasher$GT$12build_hasher17h0634234ecb2a8a5dE
.Ltmp23:
	.cv_loc	4 1 215 0
	movq	-48(%rbp), %rcx
.Ltmp16:
	movq	-64(%rbp), %rdx
	callq	_ZN69_$LT$sdl2..keyboard..keycode..Keycode$u20$as$u20$core..hash..Hash$GT$4hash17h9c8aae8c0b4801c8E
.Ltmp17:
	jmp	.LBB4_1
.Ltmp24:
.LBB4_1:
	.cv_loc	4 1 216 0
.Ltmp18:
	leaq	-40(%rbp), %rcx
	callq	_ZN81_$LT$std..collections..hash..map..DefaultHasher$u20$as$u20$core..hash..Hasher$GT$6finish17hebda5a34e0ef8e46E
.Ltmp19:
	movq	%rax, -72(%rbp)
	jmp	.LBB4_2
.Ltmp25:
.LBB4_2:
	movq	-72(%rbp), %rax
	movq	%rax, 32(%rbp)
.Ltmp26:
	.cv_inline_site_id 5 within 4 inlined_at 1 216 0
	.cv_loc	5 1 202 0
.Ltmp20:
	callq	_ZN4core3mem7size_of17h4ae4183d94813f8fE
.Ltmp21:
	movq	%rax, -80(%rbp)
	jmp	.LBB4_3
.Ltmp27:
.LBB4_3:
	movl	$1, %eax
	movl	%eax, %ecx
	movq	-80(%rbp), %rdx
	shlq	$3, %rdx
	movq	%rdx, 48(%rbp)
.Ltmp28:
	.cv_loc	5 1 203 0
	movq	48(%rbp), %rdx
	subq	$1, %rdx
	andq	$63, %rdx
	movq	%rcx, -88(%rbp)
	movq	%rdx, %rcx
	movq	-88(%rbp), %rdx
	shlq	%cl, %rdx
	orq	32(%rbp), %rdx
	movq	%rdx, 40(%rbp)
.Ltmp29:
	.cv_loc	5 1 204 0
	movq	40(%rbp), %rax
.Ltmp30:
	.cv_loc	4 1 217 0
	addq	$192, %rsp
	popq	%rbp
.Ltmp31:
	retq
	.seh_handlerdata
	.long	($cppxdata$_ZN3std11collections4hash5table9make_hash17h132789cdb0e07793E)@IMGREL
	.section	.text,"xr",one_only,_ZN3std11collections4hash5table9make_hash17h132789cdb0e07793E
.Lcfi29:
	.seh_endproc
	.def	 "?dtor$4@?0?_ZN3std11collections4hash5table9make_hash17h132789cdb0e07793E@4HA";
	.scl	3;
	.type	32;
	.endef
	.p2align	4, 0x90
"?dtor$4@?0?_ZN3std11collections4hash5table9make_hash17h132789cdb0e07793E@4HA":
.Lcfi30:
.seh_proc "?dtor$4@?0?_ZN3std11collections4hash5table9make_hash17h132789cdb0e07793E@4HA"
.LBB4_4:
	movq	%rdx, 16(%rsp)
	pushq	%rbp
.Lcfi31:
	.seh_pushreg 5
	subq	$32, %rsp
.Lcfi32:
	.seh_stackalloc 32
	leaq	128(%rdx), %rbp
.Lcfi33:
	.seh_endprologue
	.cv_loc	4 1 210 0
	addq	$32, %rsp
	popq	%rbp
	retq
.Ltmp32:
.Lfunc_end4:
	.seh_handlerdata
	.section	.text,"xr",one_only,_ZN3std11collections4hash5table9make_hash17h132789cdb0e07793E
.Lcfi34:
	.seh_endproc
	.section	.xdata,"dr",associative,_ZN3std11collections4hash5table9make_hash17h132789cdb0e07793E
	.p2align	2
$cppxdata$_ZN3std11collections4hash5table9make_hash17h132789cdb0e07793E:
	.long	429065506
	.long	1
	.long	($stateUnwindMap$_ZN3std11collections4hash5table9make_hash17h132789cdb0e07793E)@IMGREL
	.long	0
	.long	0
	.long	3
	.long	($ip2state$_ZN3std11collections4hash5table9make_hash17h132789cdb0e07793E)@IMGREL
	.long	184
	.long	0
	.long	1
$stateUnwindMap$_ZN3std11collections4hash5table9make_hash17h132789cdb0e07793E:
	.long	-1
	.long	"?dtor$4@?0?_ZN3std11collections4hash5table9make_hash17h132789cdb0e07793E@4HA"@IMGREL
$ip2state$_ZN3std11collections4hash5table9make_hash17h132789cdb0e07793E:
	.long	.Lfunc_begin4@IMGREL
	.long	-1
	.long	.Ltmp16@IMGREL+1
	.long	0
	.long	.Ltmp21@IMGREL+1
	.long	-1
	.section	.text,"xr",one_only,_ZN3std11collections4hash5table9make_hash17h132789cdb0e07793E

	.def	 _ZN60_$LT$$RF$$u27$a$u20$T$u20$as$u20$core..ops..deref..Deref$GT$5deref17h631e8b36ec28d214E;
	.scl	2;
	.type	32;
	.endef
	.section	.text,"xr",one_only,_ZN60_$LT$$RF$$u27$a$u20$T$u20$as$u20$core..ops..deref..Deref$GT$5deref17h631e8b36ec28d214E
	.globl	_ZN60_$LT$$RF$$u27$a$u20$T$u20$as$u20$core..ops..deref..Deref$GT$5deref17h631e8b36ec28d214E
	.p2align	4, 0x90
_ZN60_$LT$$RF$$u27$a$u20$T$u20$as$u20$core..ops..deref..Deref$GT$5deref17h631e8b36ec28d214E:
.Lfunc_begin5:
	.cv_func_id 6
	.cv_file	2 "C:\\projects\\rust\\src\\libcore\\ops\\deref.rs"
	.cv_loc	6 2 86 0
.Lcfi35:
.seh_proc _ZN60_$LT$$RF$$u27$a$u20$T$u20$as$u20$core..ops..deref..Deref$GT$5deref17h631e8b36ec28d214E
	pushq	%rbp
.Lcfi36:
	.seh_pushreg 5
	pushq	%rax
.Lcfi37:
	.seh_stackalloc 8
	movq	%rsp, %rbp
.Lcfi38:
	.seh_setframe 5, 0
.Lcfi39:
	.seh_endprologue
	movq	%rcx, (%rbp)
.Ltmp33:
	movq	(%rbp), %rcx
	movq	(%rcx), %rax
	addq	$8, %rsp
	popq	%rbp
	retq
.Ltmp34:
.Lfunc_end5:
	.seh_handlerdata
	.section	.text,"xr",one_only,_ZN60_$LT$$RF$$u27$a$u20$T$u20$as$u20$core..ops..deref..Deref$GT$5deref17h631e8b36ec28d214E
.Lcfi40:
	.seh_endproc

	.def	 _ZN66_$LT$std..collections..hash..table..RawTable$LT$K$C$$u20$V$GT$$GT$13raw_bucket_at17h86b384cb27162049E;
	.scl	3;
	.type	32;
	.endef
	.section	.text,"xr",one_only,_ZN66_$LT$std..collections..hash..table..RawTable$LT$K$C$$u20$V$GT$$GT$13raw_bucket_at17h86b384cb27162049E
	.p2align	4, 0x90
_ZN66_$LT$std..collections..hash..table..RawTable$LT$K$C$$u20$V$GT$$GT$13raw_bucket_at17h86b384cb27162049E:
.Lfunc_begin6:
	.cv_func_id 7
	.cv_loc	7 1 793 0
.Lcfi41:
.seh_proc _ZN66_$LT$std..collections..hash..table..RawTable$LT$K$C$$u20$V$GT$$GT$13raw_bucket_at17h86b384cb27162049E
	pushq	%rbp
.Lcfi42:
	.seh_pushreg 5
	subq	$208, %rsp
.Lcfi43:
	.seh_stackalloc 208
	leaq	128(%rsp), %rbp
.Lcfi44:
	.seh_setframe 5, 128
.Lcfi45:
	.seh_endprologue
	movq	%rcx, %rax
	movq	%rdx, (%rbp)
	movq	%r8, 8(%rbp)
.Ltmp35:
	.cv_loc	7 1 794 0
	movq	(%rbp), %rdx
	movq	%rcx, -8(%rbp)
	movq	%rdx, %rcx
	movq	%rax, -16(%rbp)
	callq	_ZN66_$LT$std..collections..hash..table..RawTable$LT$K$C$$u20$V$GT$$GT$8capacity17h98f7540f40b98664E
	movq	%rax, -24(%rbp)
	callq	_ZN4core3mem7size_of17h4ae4183d94813f8fE
	movq	%rax, -32(%rbp)
	movq	-24(%rbp), %rax
	movq	-32(%rbp), %rcx
	imulq	%rcx, %rax
	movq	%rax, 16(%rbp)
.Ltmp36:
	.cv_loc	7 1 795 0
	movq	(%rbp), %rcx
	callq	_ZN66_$LT$std..collections..hash..table..RawTable$LT$K$C$$u20$V$GT$$GT$8capacity17h98f7540f40b98664E
	movq	%rax, -40(%rbp)
	callq	_ZN4core3mem7size_of17h6fc3a79eb596635dE
	movq	%rax, -48(%rbp)
	movq	-40(%rbp), %rax
	movq	-48(%rbp), %rcx
	imulq	%rcx, %rax
	movq	%rax, 24(%rbp)
.Ltmp37:
	.cv_loc	7 1 798 0
	movq	16(%rbp), %rdx
	movq	24(%rbp), %r8
	movq	%rdx, -56(%rbp)
	movq	%r8, -64(%rbp)
	callq	_ZN4core3mem8align_of17h1d727f7529154bfeE
	movq	%rax, -72(%rbp)
	leaq	48(%rbp), %rcx
	movq	-56(%rbp), %rdx
	movq	-64(%rbp), %r8
	movq	-72(%rbp), %r9
	callq	_ZN3std11collections4hash5table17calculate_offsets17h5a22d05ee840de45E
	.cv_loc	7 1 797 0
	movq	48(%rbp), %rax
	movq	%rax, 32(%rbp)
	movb	64(%rbp), %cl
	andb	$1, %cl
	movb	%cl, 47(%rbp)
.Ltmp38:
	.cv_loc	7 1 801 0
	movq	(%rbp), %rax
	addq	$16, %rax
	movq	%rax, %rcx
	callq	_ZN3std11collections4hash5table17TaggedHashUintPtr3ptr17h919960a4778dd7e4E
	movq	%rax, -80(%rbp)
	movq	-80(%rbp), %rax
	movq	%rax, 72(%rbp)
.Ltmp39:
	.cv_loc	7 1 804 0
	movq	72(%rbp), %rax
	.cv_loc	7 1 805 0
	movq	72(%rbp), %rcx
	movq	32(%rbp), %rdx
	movq	%rax, -88(%rbp)
	callq	_ZN4core3ptr31_$LT$impl$u20$$BP$mut$u20$T$GT$6offset17h0456ce4d0e380147E
	movq	%rax, -96(%rbp)
	movq	-96(%rbp), %rax
	.cv_loc	7 1 806 0
	movq	8(%rbp), %rcx
	.cv_loc	7 1 803 0
	movq	-8(%rbp), %rdx
	movq	-88(%rbp), %r8
	movq	%r8, (%rdx)
	movq	%rax, 8(%rdx)
	movq	%rcx, 16(%rdx)
.Ltmp40:
	.cv_loc	7 1 810 0
	movq	-16(%rbp), %rax
	addq	$208, %rsp
	popq	%rbp
	retq
.Ltmp41:
.Lfunc_end6:
	.seh_handlerdata
	.section	.text,"xr",one_only,_ZN66_$LT$std..collections..hash..table..RawTable$LT$K$C$$u20$V$GT$$GT$13raw_bucket_at17h86b384cb27162049E
.Lcfi46:
	.seh_endproc

	.def	 _ZN66_$LT$std..collections..hash..table..RawTable$LT$K$C$$u20$V$GT$$GT$16rev_drop_buckets17he9629f6a2338fea6E;
	.scl	3;
	.type	32;
	.endef
	.section	.text,"xr",one_only,_ZN66_$LT$std..collections..hash..table..RawTable$LT$K$C$$u20$V$GT$$GT$16rev_drop_buckets17he9629f6a2338fea6E
	.p2align	4, 0x90
_ZN66_$LT$std..collections..hash..table..RawTable$LT$K$C$$u20$V$GT$$GT$16rev_drop_buckets17he9629f6a2338fea6E:
.Lfunc_begin7:
	.cv_func_id 8
	.cv_loc	8 1 884 0
.Lcfi47:
.seh_proc _ZN66_$LT$std..collections..hash..table..RawTable$LT$K$C$$u20$V$GT$$GT$16rev_drop_buckets17he9629f6a2338fea6E
	pushq	%rbp
.Lcfi48:
	.seh_pushreg 5
	subq	$112, %rsp
.Lcfi49:
	.seh_stackalloc 112
	leaq	112(%rsp), %rbp
.Lcfi50:
	.seh_setframe 5, 112
.Lcfi51:
	.seh_endprologue
	movq	%rcx, -48(%rbp)
.Ltmp42:
	.cv_loc	8 1 886 0
	movq	-48(%rbp), %rdx
	movq	-48(%rbp), %rcx
	movq	%rdx, -56(%rbp)
	callq	_ZN66_$LT$std..collections..hash..table..RawTable$LT$K$C$$u20$V$GT$$GT$8capacity17h98f7540f40b98664E
	movq	%rax, -64(%rbp)
	leaq	-40(%rbp), %rcx
	movq	-56(%rbp), %rdx
	movq	-64(%rbp), %r8
	callq	_ZN66_$LT$std..collections..hash..table..RawTable$LT$K$C$$u20$V$GT$$GT$13raw_bucket_at17h86b384cb27162049E
.Ltmp43:
	.cv_loc	8 1 887 0
	movq	-48(%rbp), %rax
	movq	8(%rax), %rax
	movq	%rax, -16(%rbp)
.LBB7_3:
.Ltmp44:
	.cv_loc	8 1 889 0
	cmpq	$0, -16(%rbp)
	jne	.LBB7_5
.Ltmp45:
	.cv_loc	8 1 897 0
	addq	$112, %rsp
	popq	%rbp
	retq
.LBB7_5:
	leaq	-40(%rbp), %rcx
.Ltmp46:
	.cv_loc	8 1 890 0
	movq	-24(%rbp), %rax
	subq	$1, %rax
	movq	%rax, -24(%rbp)
	.cv_loc	8 1 892 0
	callq	_ZN67_$LT$std..collections..hash..table..RawBucket$LT$K$C$$u20$V$GT$$GT$4hash17h98fac13dbff89709E
	movq	%rax, -72(%rbp)
	movq	-72(%rbp), %rax
	cmpq	$0, (%rax)
	je	.LBB7_8
	leaq	-40(%rbp), %rcx
	.cv_loc	8 1 893 0
	movq	-16(%rbp), %rax
	subq	$1, %rax
	movq	%rax, -16(%rbp)
	.cv_loc	8 1 894 0
	callq	_ZN67_$LT$std..collections..hash..table..RawBucket$LT$K$C$$u20$V$GT$$GT$4pair17hf189d80471132fc1E
	movq	%rax, -80(%rbp)
	jmp	.LBB7_9
.LBB7_8:
	.cv_loc	8 1 892 0
	jmp	.LBB7_11
.LBB7_9:
	.cv_loc	8 1 894 0
	jmp	.LBB7_10
.LBB7_10:
	.cv_loc	8 1 892 0
	jmp	.LBB7_11
.LBB7_11:
	.cv_loc	8 1 889 0
	jmp	.LBB7_3
.Ltmp47:
.Lfunc_end7:
	.seh_handlerdata
	.section	.text,"xr",one_only,_ZN66_$LT$std..collections..hash..table..RawTable$LT$K$C$$u20$V$GT$$GT$16rev_drop_buckets17he9629f6a2338fea6E
.Lcfi52:
	.seh_endproc

	.def	 _ZN66_$LT$std..collections..hash..table..RawTable$LT$K$C$$u20$V$GT$$GT$17new_uninitialized17hac4cb15265ebef87E;
	.scl	3;
	.type	32;
	.endef
	.section	.text,"xr",one_only,_ZN66_$LT$std..collections..hash..table..RawTable$LT$K$C$$u20$V$GT$$GT$17new_uninitialized17hac4cb15265ebef87E
	.p2align	4, 0x90
_ZN66_$LT$std..collections..hash..table..RawTable$LT$K$C$$u20$V$GT$$GT$17new_uninitialized17hac4cb15265ebef87E:
.Lfunc_begin8:
	.cv_func_id 9
	.cv_loc	9 1 744 0
.Lcfi53:
.seh_proc _ZN66_$LT$std..collections..hash..table..RawTable$LT$K$C$$u20$V$GT$$GT$17new_uninitialized17hac4cb15265ebef87E
	pushq	%rbp
.Lcfi54:
	.seh_pushreg 5
	subq	$400, %rsp
.Lcfi55:
	.seh_stackalloc 400
	leaq	128(%rsp), %rbp
.Lcfi56:
	.seh_setframe 5, 128
.Lcfi57:
	.seh_endprologue
	movq	%rcx, %rax
	movq	%rdx, 80(%rbp)
.Ltmp48:
	.cv_loc	9 1 745 0
	cmpq	$0, 80(%rbp)
	movq	%rax, 72(%rbp)
	movq	%rcx, 64(%rbp)
	jne	.LBB8_2
	movl	$1, %eax
	movl	%eax, %edx
	.cv_loc	9 1 748 0
	movq	80(%rbp), %rcx
	callq	_ZN4core3num23_$LT$impl$u20$usize$GT$12wrapping_sub17hcdbad80dcddfbfa4E
	movq	%rax, 56(%rbp)
	jmp	.LBB8_3
.LBB8_2:
	.cv_loc	9 1 756 0
	movq	80(%rbp), %rcx
	movq	%rcx, 48(%rbp)
	callq	_ZN4core3mem7size_of17h4ae4183d94813f8fE
	movq	%rax, 40(%rbp)
	jmp	.LBB8_6
.LBB8_3:
	movl	$1, %eax
	movl	%eax, %ecx
	.cv_loc	9 1 749 0
	callq	_ZN3std11collections4hash5table17TaggedHashUintPtr3new17hee80b70ebe128e89E
	movq	%rax, 32(%rbp)
	.cv_loc	9 1 746 0
	movq	64(%rbp), %rax
	movq	56(%rbp), %rcx
	movq	%rcx, (%rax)
	movq	$0, 8(%rax)
	movq	32(%rbp), %rdx
	movq	%rdx, 16(%rax)
.LBB8_5:
	.cv_loc	9 1 791 0
	movq	72(%rbp), %rax
	addq	$400, %rsp
	popq	%rbp
	retq
.LBB8_6:
	.cv_loc	9 1 756 0
	movq	48(%rbp), %rcx
	movq	40(%rbp), %rdx
	callq	_ZN4core3num23_$LT$impl$u20$usize$GT$12wrapping_mul17hbfff3ceafe74be04E
	movq	%rax, 88(%rbp)
.Ltmp49:
	.cv_loc	9 1 757 0
	movq	80(%rbp), %rcx
	movq	%rcx, 24(%rbp)
	callq	_ZN4core3mem7size_of17h6fc3a79eb596635dE
	movq	%rax, 16(%rbp)
	movq	24(%rbp), %rcx
	movq	16(%rbp), %rdx
	callq	_ZN4core3num23_$LT$impl$u20$usize$GT$12wrapping_mul17hbfff3ceafe74be04E
	movq	%rax, 96(%rbp)
.Ltmp50:
	.cv_loc	9 1 767 0
	movq	88(%rbp), %rdx
	.cv_loc	9 1 768 0
	movq	%rdx, 8(%rbp)
	callq	_ZN4core3mem8align_of17h48eecfaa3838ae49E
	movq	%rax, (%rbp)
	.cv_loc	9 1 769 0
	movq	96(%rbp), %r9
	.cv_loc	9 1 770 0
	movq	%r9, -8(%rbp)
	callq	_ZN4core3mem8align_of17h1d727f7529154bfeE
	movq	%rax, -16(%rbp)
	leaq	128(%rbp), %rcx
	.cv_loc	9 1 767 0
	movq	8(%rbp), %rdx
	movq	(%rbp), %r8
	movq	-8(%rbp), %r9
	movq	-16(%rbp), %rax
	movq	%rax, 32(%rsp)
	callq	_ZN3std11collections4hash5table20calculate_allocation17h0e9ade833885b4d1E
	movq	128(%rbp), %rax
	movq	%rax, 104(%rbp)
	movq	136(%rbp), %rax
	movq	%rax, 112(%rbp)
	movb	144(%rbp), %cl
	andb	$1, %cl
	movb	%cl, 127(%rbp)
.Ltmp51:
	.cv_loc	9 1 771 0
	movb	127(%rbp), %cl
	xorb	$-1, %cl
	.cv_file	3 "\\<assert macros>"
	.cv_loc	9 3 5 0
	xorb	$-1, %cl
	testb	$1, %cl
	jne	.LBB8_13
	jmp	.LBB8_14
.LBB8_13:
	.cv_file	4 "C:\\projects\\rust\\src\\libstd\\macros.rs"
	.cv_loc	9 4 69 0
	movq	const.2(%rip), %r8
	leaq	str.3(%rip), %rcx
	movl	$17, %eax
	movl	%eax, %edx
	callq	_ZN3std9panicking11begin_panic17h83790f2ca815c643E
	ud2
.LBB8_14:
	.cv_loc	9 1 774 0
	callq	_ZN4core3mem7size_of17h4ae4183d94813f8fE
	movq	%rax, -24(%rbp)
	callq	_ZN4core3mem7size_of17h6fc3a79eb596635dE
	movq	%rax, -32(%rbp)
	leaq	160(%rbp), %rcx
	movq	-24(%rbp), %rdx
	movq	-32(%rbp), %r8
	callq	_ZN4core3num23_$LT$impl$u20$usize$GT$11checked_add17h2595e4725e9ad1d8E
	leaq	160(%rbp), %rcx
	callq	_ZN38_$LT$core..option..Option$LT$T$GT$$GT$6unwrap17h6a86c8b846900e3eE
	movq	%rax, 152(%rbp)
	leaq	176(%rbp), %rcx
.Ltmp52:
	.cv_loc	9 1 775 0
	movq	112(%rbp), %rax
	.cv_loc	9 1 776 0
	movq	80(%rbp), %rdx
	movq	152(%rbp), %r8
	movq	%rax, -40(%rbp)
	callq	_ZN4core3num23_$LT$impl$u20$usize$GT$11checked_mul17he54b40f9f4f9b5c4E
	leaq	176(%rbp), %rcx
	leaq	str.3(%rip), %rax
	movl	$17, %edx
	movl	%edx, %r8d
	movq	%rax, %rdx
	callq	_ZN38_$LT$core..option..Option$LT$T$GT$$GT$6expect17hccd3d6bd46d363aaE
	movq	%rax, -48(%rbp)
	.cv_loc	9 1 775 0
	movq	-40(%rbp), %rax
	movq	-48(%rbp), %rcx
	cmpq	%rcx, %rax
	setae	%dl
	.cv_loc	9 3 5 0
	xorb	$-1, %dl
	testb	$1, %dl
	jne	.LBB8_21
	jmp	.LBB8_22
.LBB8_21:
	.cv_loc	9 4 69 0
	movq	const.5(%rip), %r8
	leaq	str.3(%rip), %rcx
	movl	$17, %eax
	movl	%eax, %edx
	callq	_ZN3std9panicking11begin_panic17h83790f2ca815c643E
	ud2
.LBB8_22:
	leaq	240(%rbp), %rcx
	.cv_loc	9 1 780 0
	movq	112(%rbp), %rdx
	movq	104(%rbp), %r8
	callq	_ZN5alloc9allocator6Layout15from_size_align17hab64bbdbc929b8bbE
	leaq	240(%rbp), %rcx
	callq	_ZN38_$LT$core..option..Option$LT$T$GT$$GT$6unwrap17hbc899c9fc81cc1ccE
	movq	%rax, -56(%rbp)
	movq	%rdx, -64(%rbp)
	leaq	200(%rbp), %rcx
	leaq	232(%rbp), %rdx
	movq	-56(%rbp), %r8
	movq	-64(%rbp), %r9
	callq	_ZN61_$LT$alloc..heap..Heap$u20$as$u20$alloc..allocator..Alloc$GT$5alloc17h039b41712ea8f7dfE
	leaq	200(%rbp), %rcx
	callq	_ZN47_$LT$core..result..Result$LT$T$C$$u20$E$GT$$GT$14unwrap_or_else17h4a7435d4cb9fc104E
	movq	%rax, 192(%rbp)
	movl	$1, %eax
	movl	%eax, %edx
.Ltmp53:
	.cv_loc	9 1 783 0
	movq	192(%rbp), %rcx
	movq	%rcx, 264(%rbp)
.Ltmp54:
	.cv_loc	9 1 786 0
	movq	80(%rbp), %rcx
	callq	_ZN4core3num23_$LT$impl$u20$usize$GT$12wrapping_sub17hcdbad80dcddfbfa4E
	movq	%rax, -72(%rbp)
	.cv_loc	9 1 788 0
	movq	264(%rbp), %rcx
	callq	_ZN3std11collections4hash5table17TaggedHashUintPtr3new17hee80b70ebe128e89E
	movq	%rax, -80(%rbp)
	.cv_loc	9 1 785 0
	movq	64(%rbp), %rax
	movq	-72(%rbp), %rcx
	movq	%rcx, (%rax)
	movq	$0, 8(%rax)
	movq	-80(%rbp), %rdx
	movq	%rdx, 16(%rax)
.Ltmp55:
	.cv_loc	9 1 791 0
	jmp	.LBB8_5
.Ltmp56:
.Lfunc_end8:
	.seh_handlerdata
	.section	.text,"xr",one_only,_ZN66_$LT$std..collections..hash..table..RawTable$LT$K$C$$u20$V$GT$$GT$17new_uninitialized17hac4cb15265ebef87E
.Lcfi58:
	.seh_endproc

	.def	 _ZN66_$LT$std..collections..hash..table..RawTable$LT$K$C$$u20$V$GT$$GT$17new_uninitialized28_$u7b$$u7b$closure$u7d$$u7d$17ha77e4e575d2835dfE;
	.scl	2;
	.type	32;
	.endef
	.section	.text,"xr",one_only,_ZN66_$LT$std..collections..hash..table..RawTable$LT$K$C$$u20$V$GT$$GT$17new_uninitialized28_$u7b$$u7b$closure$u7d$$u7d$17ha77e4e575d2835dfE
	.globl	_ZN66_$LT$std..collections..hash..table..RawTable$LT$K$C$$u20$V$GT$$GT$17new_uninitialized28_$u7b$$u7b$closure$u7d$$u7d$17ha77e4e575d2835dfE
	.p2align	4, 0x90
_ZN66_$LT$std..collections..hash..table..RawTable$LT$K$C$$u20$V$GT$$GT$17new_uninitialized28_$u7b$$u7b$closure$u7d$$u7d$17ha77e4e575d2835dfE:
.Lfunc_begin9:
	.cv_func_id 10
	.cv_loc	10 1 781 0
.Lcfi59:
.seh_proc _ZN66_$LT$std..collections..hash..table..RawTable$LT$K$C$$u20$V$GT$$GT$17new_uninitialized28_$u7b$$u7b$closure$u7d$$u7d$17ha77e4e575d2835dfE
	pushq	%rbp
.Lcfi60:
	.seh_pushreg 5
.Ltmp57:
	subq	$80, %rsp
.Lcfi61:
	.seh_stackalloc 80
	leaq	80(%rsp), %rbp
.Lcfi62:
	.seh_setframe 5, 80
.Lcfi63:
	.seh_endprologue
	movq	16(%rcx), %rax
	movq	%rax, -16(%rbp)
	movups	(%rcx), %xmm0
	movaps	%xmm0, -32(%rbp)
	leaq	-40(%rbp), %rcx
.Ltmp58:
	leaq	-32(%rbp), %rdx
	callq	_ZN61_$LT$alloc..heap..Heap$u20$as$u20$alloc..allocator..Alloc$GT$3oom17h179880119db49d40E
	ud2
.Ltmp59:
.Lfunc_end9:
	.seh_handlerdata
	.section	.text,"xr",one_only,_ZN66_$LT$std..collections..hash..table..RawTable$LT$K$C$$u20$V$GT$$GT$17new_uninitialized28_$u7b$$u7b$closure$u7d$$u7d$17ha77e4e575d2835dfE
.Lcfi64:
	.seh_endproc

	.def	 _ZN66_$LT$std..collections..hash..table..RawTable$LT$K$C$$u20$V$GT$$GT$3new17h92a68725afda94c1E;
	.scl	2;
	.type	32;
	.endef
	.section	.text,"xr",one_only,_ZN66_$LT$std..collections..hash..table..RawTable$LT$K$C$$u20$V$GT$$GT$3new17h92a68725afda94c1E
	.globl	_ZN66_$LT$std..collections..hash..table..RawTable$LT$K$C$$u20$V$GT$$GT$3new17h92a68725afda94c1E
	.p2align	4, 0x90
_ZN66_$LT$std..collections..hash..table..RawTable$LT$K$C$$u20$V$GT$$GT$3new17h92a68725afda94c1E:
.Lfunc_begin10:
	.cv_func_id 11
	.cv_loc	11 1 814 0
.Lcfi65:
.seh_proc _ZN66_$LT$std..collections..hash..table..RawTable$LT$K$C$$u20$V$GT$$GT$3new17h92a68725afda94c1E
	.seh_handler __CxxFrameHandler3, @unwind, @except
	pushq	%rbp
.Lcfi66:
	.seh_pushreg 5
	subq	$128, %rsp
.Lcfi67:
	.seh_stackalloc 128
	leaq	128(%rsp), %rbp
.Lcfi68:
	.seh_setframe 5, 128
.Lcfi69:
	.seh_endprologue
	movq	$-2, -8(%rbp)
	movq	%rcx, %rax
	movq	%rdx, -64(%rbp)
.Ltmp62:
	.cv_loc	11 1 816 0
	movq	-64(%rbp), %rdx
	leaq	-56(%rbp), %r8
	movq	%rcx, -72(%rbp)
	movq	%r8, %rcx
	movq	%rax, -80(%rbp)
	callq	_ZN66_$LT$std..collections..hash..table..RawTable$LT$K$C$$u20$V$GT$$GT$17new_uninitialized17hac4cb15265ebef87E
.Ltmp63:
	.cv_loc	11 1 817 0
	leaq	-40(%rbp), %rcx
.Ltmp60:
	callq	_ZN3std11collections4hash5table17TaggedHashUintPtr3ptr17h919960a4778dd7e4E
.Ltmp61:
	movq	%rax, -88(%rbp)
	jmp	.LBB10_1
.Ltmp64:
.LBB10_1:
	xorl	%edx, %edx
	movq	-64(%rbp), %rax
	movq	-88(%rbp), %rcx
	shlq	$3, %rax
	movq	%rax, %r8
	callq	memset
	.cv_loc	11 1 818 0
	movq	-56(%rbp), %rax
	movq	%rax, -32(%rbp)
	movq	-48(%rbp), %rax
	movq	%rax, -24(%rbp)
	movq	-40(%rbp), %rax
	movq	%rax, -16(%rbp)
	movq	-32(%rbp), %rax
	movq	-72(%rbp), %rcx
	movq	%rax, (%rcx)
	movq	-24(%rbp), %rax
	movq	%rax, 8(%rcx)
	movq	-16(%rbp), %rax
	movq	%rax, 16(%rcx)
.Ltmp65:
	.cv_loc	11 1 820 0
	movq	-80(%rbp), %rax
	addq	$128, %rsp
	popq	%rbp
.Ltmp66:
	retq
	.seh_handlerdata
	.long	($cppxdata$_ZN66_$LT$std..collections..hash..table..RawTable$LT$K$C$$u20$V$GT$$GT$3new17h92a68725afda94c1E)@IMGREL
	.section	.text,"xr",one_only,_ZN66_$LT$std..collections..hash..table..RawTable$LT$K$C$$u20$V$GT$$GT$3new17h92a68725afda94c1E
.Lcfi70:
	.seh_endproc
	.def	 "?dtor$2@?0?_ZN66_$LT$std..collections..hash..table..RawTable$LT$K$C$$u20$V$GT$$GT$3new17h92a68725afda94c1E@4HA";
	.scl	3;
	.type	32;
	.endef
	.p2align	4, 0x90
"?dtor$2@?0?_ZN66_$LT$std..collections..hash..table..RawTable$LT$K$C$$u20$V$GT$$GT$3new17h92a68725afda94c1E@4HA":
.Lcfi71:
.seh_proc "?dtor$2@?0?_ZN66_$LT$std..collections..hash..table..RawTable$LT$K$C$$u20$V$GT$$GT$3new17h92a68725afda94c1E@4HA"
.LBB10_2:
.Ltmp67:
	movq	%rdx, 16(%rsp)
	pushq	%rbp
.Lcfi72:
	.seh_pushreg 5
	subq	$32, %rsp
.Lcfi73:
	.seh_stackalloc 32
	leaq	128(%rdx), %rbp
.Ltmp68:
.Lcfi74:
	.seh_endprologue
	leaq	-56(%rbp), %rcx
.Ltmp69:
	.cv_loc	11 1 819 0
	callq	_ZN4core3ptr13drop_in_place17h67760d014c257544E
.Ltmp70:
	.cv_loc	11 1 814 0
	nop
	addq	$32, %rsp
	popq	%rbp
	retq
.Ltmp71:
.Lfunc_end10:
	.seh_handlerdata
	.section	.text,"xr",one_only,_ZN66_$LT$std..collections..hash..table..RawTable$LT$K$C$$u20$V$GT$$GT$3new17h92a68725afda94c1E
.Lcfi75:
	.seh_endproc
	.section	.xdata,"dr",associative,_ZN66_$LT$std..collections..hash..table..RawTable$LT$K$C$$u20$V$GT$$GT$3new17h92a68725afda94c1E
	.p2align	2
$cppxdata$_ZN66_$LT$std..collections..hash..table..RawTable$LT$K$C$$u20$V$GT$$GT$3new17h92a68725afda94c1E:
	.long	429065506
	.long	1
	.long	($stateUnwindMap$_ZN66_$LT$std..collections..hash..table..RawTable$LT$K$C$$u20$V$GT$$GT$3new17h92a68725afda94c1E)@IMGREL
	.long	0
	.long	0
	.long	3
	.long	($ip2state$_ZN66_$LT$std..collections..hash..table..RawTable$LT$K$C$$u20$V$GT$$GT$3new17h92a68725afda94c1E)@IMGREL
	.long	120
	.long	0
	.long	1
$stateUnwindMap$_ZN66_$LT$std..collections..hash..table..RawTable$LT$K$C$$u20$V$GT$$GT$3new17h92a68725afda94c1E:
	.long	-1
	.long	"?dtor$2@?0?_ZN66_$LT$std..collections..hash..table..RawTable$LT$K$C$$u20$V$GT$$GT$3new17h92a68725afda94c1E@4HA"@IMGREL
$ip2state$_ZN66_$LT$std..collections..hash..table..RawTable$LT$K$C$$u20$V$GT$$GT$3new17h92a68725afda94c1E:
	.long	.Lfunc_begin10@IMGREL
	.long	-1
	.long	.Ltmp60@IMGREL+1
	.long	0
	.long	.Ltmp61@IMGREL+1
	.long	-1
	.section	.text,"xr",one_only,_ZN66_$LT$std..collections..hash..table..RawTable$LT$K$C$$u20$V$GT$$GT$3new17h92a68725afda94c1E

	.def	 _ZN66_$LT$std..collections..hash..table..RawTable$LT$K$C$$u20$V$GT$$GT$3tag17h21fcfb1fdc4a261aE;
	.scl	2;
	.type	32;
	.endef
	.section	.text,"xr",one_only,_ZN66_$LT$std..collections..hash..table..RawTable$LT$K$C$$u20$V$GT$$GT$3tag17h21fcfb1fdc4a261aE
	.globl	_ZN66_$LT$std..collections..hash..table..RawTable$LT$K$C$$u20$V$GT$$GT$3tag17h21fcfb1fdc4a261aE
	.p2align	4, 0x90
_ZN66_$LT$std..collections..hash..table..RawTable$LT$K$C$$u20$V$GT$$GT$3tag17h21fcfb1fdc4a261aE:
.Lfunc_begin11:
	.cv_func_id 12
	.cv_loc	12 1 905 0
.Lcfi76:
.seh_proc _ZN66_$LT$std..collections..hash..table..RawTable$LT$K$C$$u20$V$GT$$GT$3tag17h21fcfb1fdc4a261aE
	pushq	%rbp
.Lcfi77:
	.seh_pushreg 5
	subq	$48, %rsp
.Lcfi78:
	.seh_stackalloc 48
	leaq	48(%rsp), %rbp
.Lcfi79:
	.seh_setframe 5, 48
.Lcfi80:
	.seh_endprologue
	movq	%rcx, -8(%rbp)
.Ltmp72:
	.cv_loc	12 1 906 0
	movq	-8(%rbp), %rcx
	addq	$16, %rcx
	callq	_ZN3std11collections4hash5table17TaggedHashUintPtr3tag17hc8be96f06832bf13E
	movb	%al, -9(%rbp)
	.cv_loc	12 1 907 0
	movb	-9(%rbp), %al
	andb	$1, %al
	movzbl	%al, %eax
	addq	$48, %rsp
	popq	%rbp
	retq
.Ltmp73:
.Lfunc_end11:
	.seh_handlerdata
	.section	.text,"xr",one_only,_ZN66_$LT$std..collections..hash..table..RawTable$LT$K$C$$u20$V$GT$$GT$3tag17h21fcfb1fdc4a261aE
.Lcfi81:
	.seh_endproc

	.def	 _ZN66_$LT$std..collections..hash..table..RawTable$LT$K$C$$u20$V$GT$$GT$4size17hf0c4ba37d587adacE;
	.scl	2;
	.type	32;
	.endef
	.section	.text,"xr",one_only,_ZN66_$LT$std..collections..hash..table..RawTable$LT$K$C$$u20$V$GT$$GT$4size17hf0c4ba37d587adacE
	.globl	_ZN66_$LT$std..collections..hash..table..RawTable$LT$K$C$$u20$V$GT$$GT$4size17hf0c4ba37d587adacE
	.p2align	4, 0x90
_ZN66_$LT$std..collections..hash..table..RawTable$LT$K$C$$u20$V$GT$$GT$4size17hf0c4ba37d587adacE:
.Lfunc_begin12:
	.cv_func_id 13
	.cv_loc	13 1 829 0
.Lcfi82:
.seh_proc _ZN66_$LT$std..collections..hash..table..RawTable$LT$K$C$$u20$V$GT$$GT$4size17hf0c4ba37d587adacE
	pushq	%rbp
.Lcfi83:
	.seh_pushreg 5
	pushq	%rax
.Lcfi84:
	.seh_stackalloc 8
	movq	%rsp, %rbp
.Lcfi85:
	.seh_setframe 5, 0
.Lcfi86:
	.seh_endprologue
	movq	%rcx, (%rbp)
.Ltmp74:
	.cv_loc	13 1 830 0
	movq	(%rbp), %rcx
	movq	8(%rcx), %rax
	.cv_loc	13 1 831 0
	addq	$8, %rsp
	popq	%rbp
	retq
.Ltmp75:
.Lfunc_end12:
	.seh_handlerdata
	.section	.text,"xr",one_only,_ZN66_$LT$std..collections..hash..table..RawTable$LT$K$C$$u20$V$GT$$GT$4size17hf0c4ba37d587adacE
.Lcfi87:
	.seh_endproc

	.def	 _ZN66_$LT$std..collections..hash..table..RawTable$LT$K$C$$u20$V$GT$$GT$7set_tag17h7818c92e8a2fab2dE;
	.scl	2;
	.type	32;
	.endef
	.section	.text,"xr",one_only,_ZN66_$LT$std..collections..hash..table..RawTable$LT$K$C$$u20$V$GT$$GT$7set_tag17h7818c92e8a2fab2dE
	.globl	_ZN66_$LT$std..collections..hash..table..RawTable$LT$K$C$$u20$V$GT$$GT$7set_tag17h7818c92e8a2fab2dE
	.p2align	4, 0x90
_ZN66_$LT$std..collections..hash..table..RawTable$LT$K$C$$u20$V$GT$$GT$7set_tag17h7818c92e8a2fab2dE:
.Lfunc_begin13:
	.cv_func_id 14
	.cv_loc	14 1 900 0
.Lcfi88:
.seh_proc _ZN66_$LT$std..collections..hash..table..RawTable$LT$K$C$$u20$V$GT$$GT$7set_tag17h7818c92e8a2fab2dE
	pushq	%rbp
.Lcfi89:
	.seh_pushreg 5
	subq	$48, %rsp
.Lcfi90:
	.seh_stackalloc 48
	leaq	48(%rsp), %rbp
.Lcfi91:
	.seh_setframe 5, 48
.Lcfi92:
	.seh_endprologue
	movb	%dl, %al
	movq	%rcx, -16(%rbp)
	andb	$1, %al
	movb	%al, -1(%rbp)
.Ltmp76:
	.cv_loc	14 1 901 0
	movq	-16(%rbp), %rcx
	addq	$16, %rcx
	movb	-1(%rbp), %al
	andb	$1, %al
	movzbl	%al, %edx
	callq	_ZN3std11collections4hash5table17TaggedHashUintPtr7set_tag17h5cd6c89267ce31a5E
	.cv_loc	14 1 902 0
	nop
	addq	$48, %rsp
	popq	%rbp
	retq
.Ltmp77:
.Lfunc_end13:
	.seh_handlerdata
	.section	.text,"xr",one_only,_ZN66_$LT$std..collections..hash..table..RawTable$LT$K$C$$u20$V$GT$$GT$7set_tag17h7818c92e8a2fab2dE
.Lcfi93:
	.seh_endproc

	.def	 _ZN66_$LT$std..collections..hash..table..RawTable$LT$K$C$$u20$V$GT$$GT$8capacity17h98f7540f40b98664E;
	.scl	2;
	.type	32;
	.endef
	.section	.text,"xr",one_only,_ZN66_$LT$std..collections..hash..table..RawTable$LT$K$C$$u20$V$GT$$GT$8capacity17h98f7540f40b98664E
	.globl	_ZN66_$LT$std..collections..hash..table..RawTable$LT$K$C$$u20$V$GT$$GT$8capacity17h98f7540f40b98664E
	.p2align	4, 0x90
_ZN66_$LT$std..collections..hash..table..RawTable$LT$K$C$$u20$V$GT$$GT$8capacity17h98f7540f40b98664E:
.Lfunc_begin14:
	.cv_func_id 15
	.cv_loc	15 1 823 0
.Lcfi94:
.seh_proc _ZN66_$LT$std..collections..hash..table..RawTable$LT$K$C$$u20$V$GT$$GT$8capacity17h98f7540f40b98664E
	pushq	%rbp
.Lcfi95:
	.seh_pushreg 5
	subq	$48, %rsp
.Lcfi96:
	.seh_stackalloc 48
	leaq	48(%rsp), %rbp
.Lcfi97:
	.seh_setframe 5, 48
.Lcfi98:
	.seh_endprologue
	movl	$1, %eax
	movl	%eax, %edx
	movq	%rcx, -8(%rbp)
.Ltmp78:
	.cv_loc	15 1 824 0
	movq	-8(%rbp), %rcx
	movq	(%rcx), %rcx
	callq	_ZN4core3num23_$LT$impl$u20$usize$GT$12wrapping_add17hb5013636858df802E
	movq	%rax, -16(%rbp)
	.cv_loc	15 1 825 0
	movq	-16(%rbp), %rax
	addq	$48, %rsp
	popq	%rbp
	retq
.Ltmp79:
.Lfunc_end14:
	.seh_handlerdata
	.section	.text,"xr",one_only,_ZN66_$LT$std..collections..hash..table..RawTable$LT$K$C$$u20$V$GT$$GT$8capacity17h98f7540f40b98664E
.Lcfi99:
	.seh_endproc

	.def	 _ZN67_$LT$std..collections..hash..table..RawBucket$LT$K$C$$u20$V$GT$$GT$4hash17h98fac13dbff89709E;
	.scl	3;
	.type	32;
	.endef
	.section	.text,"xr",one_only,_ZN67_$LT$std..collections..hash..table..RawBucket$LT$K$C$$u20$V$GT$$GT$4hash17h98fac13dbff89709E
	.p2align	4, 0x90
_ZN67_$LT$std..collections..hash..table..RawBucket$LT$K$C$$u20$V$GT$$GT$4hash17h98fac13dbff89709E:
.Lfunc_begin15:
	.cv_func_id 16
	.cv_loc	16 1 236 0
.Lcfi100:
.seh_proc _ZN67_$LT$std..collections..hash..table..RawBucket$LT$K$C$$u20$V$GT$$GT$4hash17h98fac13dbff89709E
	pushq	%rbp
.Lcfi101:
	.seh_pushreg 5
	subq	$48, %rsp
.Lcfi102:
	.seh_stackalloc 48
	leaq	48(%rsp), %rbp
.Lcfi103:
	.seh_setframe 5, 48
.Lcfi104:
	.seh_endprologue
	movq	%rcx, -8(%rbp)
.Ltmp80:
	.cv_loc	16 1 237 0
	movq	-8(%rbp), %rcx
	movq	(%rcx), %rcx
	movq	-8(%rbp), %rax
	movq	16(%rax), %rdx
	callq	_ZN4core3ptr31_$LT$impl$u20$$BP$mut$u20$T$GT$6offset17h940bd719a5e434b1E
	movq	%rax, -16(%rbp)
	.cv_loc	16 1 238 0
	movq	-16(%rbp), %rax
	addq	$48, %rsp
	popq	%rbp
	retq
.Ltmp81:
.Lfunc_end15:
	.seh_handlerdata
	.section	.text,"xr",one_only,_ZN67_$LT$std..collections..hash..table..RawBucket$LT$K$C$$u20$V$GT$$GT$4hash17h98fac13dbff89709E
.Lcfi105:
	.seh_endproc

	.def	 _ZN67_$LT$std..collections..hash..table..RawBucket$LT$K$C$$u20$V$GT$$GT$4pair17hf189d80471132fc1E;
	.scl	3;
	.type	32;
	.endef
	.section	.text,"xr",one_only,_ZN67_$LT$std..collections..hash..table..RawBucket$LT$K$C$$u20$V$GT$$GT$4pair17hf189d80471132fc1E
	.p2align	4, 0x90
_ZN67_$LT$std..collections..hash..table..RawBucket$LT$K$C$$u20$V$GT$$GT$4pair17hf189d80471132fc1E:
.Lfunc_begin16:
	.cv_func_id 17
	.cv_loc	17 1 239 0
.Lcfi106:
.seh_proc _ZN67_$LT$std..collections..hash..table..RawBucket$LT$K$C$$u20$V$GT$$GT$4pair17hf189d80471132fc1E
	pushq	%rbp
.Lcfi107:
	.seh_pushreg 5
	subq	$48, %rsp
.Lcfi108:
	.seh_stackalloc 48
	leaq	48(%rsp), %rbp
.Lcfi109:
	.seh_setframe 5, 48
.Lcfi110:
	.seh_endprologue
	movq	%rcx, -8(%rbp)
.Ltmp82:
	.cv_loc	17 1 240 0
	movq	-8(%rbp), %rcx
	movq	8(%rcx), %rcx
	movq	-8(%rbp), %rax
	movq	16(%rax), %rdx
	callq	_ZN4core3ptr33_$LT$impl$u20$$BP$const$u20$T$GT$6offset17he20fa56a42dc415bE
	movq	%rax, -16(%rbp)
	.cv_loc	17 1 241 0
	movq	-16(%rbp), %rax
	addq	$48, %rsp
	popq	%rbp
	retq
.Ltmp83:
.Lfunc_end16:
	.seh_handlerdata
	.section	.text,"xr",one_only,_ZN67_$LT$std..collections..hash..table..RawBucket$LT$K$C$$u20$V$GT$$GT$4pair17hf189d80471132fc1E
.Lcfi111:
	.seh_endproc

	.def	 _ZN68_$LT$$RF$$u27$a$u20$mut$u20$T$u20$as$u20$core..ops..deref..Deref$GT$5deref17h1222be5803b425fbE;
	.scl	2;
	.type	32;
	.endef
	.section	.text,"xr",one_only,_ZN68_$LT$$RF$$u27$a$u20$mut$u20$T$u20$as$u20$core..ops..deref..Deref$GT$5deref17h1222be5803b425fbE
	.globl	_ZN68_$LT$$RF$$u27$a$u20$mut$u20$T$u20$as$u20$core..ops..deref..Deref$GT$5deref17h1222be5803b425fbE
	.p2align	4, 0x90
_ZN68_$LT$$RF$$u27$a$u20$mut$u20$T$u20$as$u20$core..ops..deref..Deref$GT$5deref17h1222be5803b425fbE:
.Lfunc_begin17:
	.cv_func_id 18
	.cv_loc	18 2 93 0
.Lcfi112:
.seh_proc _ZN68_$LT$$RF$$u27$a$u20$mut$u20$T$u20$as$u20$core..ops..deref..Deref$GT$5deref17h1222be5803b425fbE
	pushq	%rbp
.Lcfi113:
	.seh_pushreg 5
	pushq	%rax
.Lcfi114:
	.seh_stackalloc 8
	movq	%rsp, %rbp
.Lcfi115:
	.seh_setframe 5, 0
.Lcfi116:
	.seh_endprologue
	movq	%rcx, (%rbp)
.Ltmp84:
	movq	(%rbp), %rcx
	movq	(%rcx), %rax
	addq	$8, %rsp
	popq	%rbp
	retq
.Ltmp85:
.Lfunc_end17:
	.seh_handlerdata
	.section	.text,"xr",one_only,_ZN68_$LT$$RF$$u27$a$u20$mut$u20$T$u20$as$u20$core..ops..deref..Deref$GT$5deref17h1222be5803b425fbE
.Lcfi117:
	.seh_endproc

	.def	 _ZN73_$LT$std..collections..hash..table..Bucket$LT$K$C$$u20$V$C$$u20$M$GT$$GT$11head_bucket17h8476d49b81e3a91bE;
	.scl	2;
	.type	32;
	.endef
	.section	.text,"xr",one_only,_ZN73_$LT$std..collections..hash..table..Bucket$LT$K$C$$u20$V$C$$u20$M$GT$$GT$11head_bucket17h8476d49b81e3a91bE
	.globl	_ZN73_$LT$std..collections..hash..table..Bucket$LT$K$C$$u20$V$C$$u20$M$GT$$GT$11head_bucket17h8476d49b81e3a91bE
	.p2align	4, 0x90
_ZN73_$LT$std..collections..hash..table..Bucket$LT$K$C$$u20$V$C$$u20$M$GT$$GT$11head_bucket17h8476d49b81e3a91bE:
.Lfunc_begin18:
	.cv_func_id 19
	.cv_loc	19 1 373 0
.Lcfi118:
.seh_proc _ZN73_$LT$std..collections..hash..table..Bucket$LT$K$C$$u20$V$C$$u20$M$GT$$GT$11head_bucket17h8476d49b81e3a91bE
	.seh_handler __CxxFrameHandler3, @unwind, @except
	pushq	%rbp
.Lcfi119:
	.seh_pushreg 5
	subq	$464, %rsp
.Lcfi120:
	.seh_stackalloc 464
	leaq	128(%rsp), %rbp
.Lcfi121:
	.seh_setframe 5, 128
.Lcfi122:
	.seh_endprologue
	movq	$-2, 328(%rbp)
	movq	%rcx, %rax
	leaq	-40(%rbp), %r8
	movq	%rdx, -48(%rbp)
.Ltmp98:
	.cv_loc	19 1 374 0
	movb	$0, 326(%rbp)
	movb	$0, 325(%rbp)
	movb	$0, 327(%rbp)
	movb	$0, 324(%rbp)
	movq	-48(%rbp), %rdx
	movq	%rcx, -56(%rbp)
	movq	%r8, %rcx
	movq	%rax, -64(%rbp)
	callq	_ZN73_$LT$std..collections..hash..table..Bucket$LT$K$C$$u20$V$C$$u20$M$GT$$GT$5first17h77289135b0b047f2E
.Ltmp99:
	movb	$1, 324(%rbp)
.Ltmp100:
	.cv_loc	19 1 376 0
	jmp	.LBB18_2
.LBB18_2:
	.cv_loc	19 1 377 0
	movb	$0, 324(%rbp)
	movups	-40(%rbp), %xmm0
	movups	-24(%rbp), %xmm1
	movaps	%xmm1, 80(%rbp)
	movaps	%xmm0, 64(%rbp)
.Ltmp86:
	leaq	24(%rbp), %rcx
	leaq	64(%rbp), %rdx
	callq	_ZN73_$LT$std..collections..hash..table..Bucket$LT$K$C$$u20$V$C$$u20$M$GT$$GT$4peek17h77e6c3a10af2ac2fE
.Ltmp87:
	jmp	.LBB18_3
.LBB18_3:
	movb	$1, 325(%rbp)
	movb	$1, 326(%rbp)
	.cv_loc	19 1 378 0
	movq	24(%rbp), %rax
	testq	%rax, %rax
	movq	%rax, -72(%rbp)
	je	.LBB18_5
	jmp	.LBB18_33
.Ltmp101:
.LBB18_33:
	movq	-72(%rbp), %rax
	subq	$1, %rax
	movq	%rax, -80(%rbp)
	je	.LBB18_6
	jmp	.LBB18_4
.LBB18_4:
	.cv_loc	19 1 396 0
	ud2
.LBB18_5:
.Ltmp102:
	.cv_loc	19 1 388 0
	movb	$0, 326(%rbp)
	movups	32(%rbp), %xmm0
	movups	48(%rbp), %xmm1
	movaps	%xmm1, 144(%rbp)
	movaps	%xmm0, 128(%rbp)
.Ltmp103:
	.cv_loc	19 1 390 0
	movaps	128(%rbp), %xmm0
	movaps	144(%rbp), %xmm1
	movaps	%xmm1, 272(%rbp)
	movaps	%xmm0, 256(%rbp)
.Ltmp94:
	leaq	-8(%rbp), %rcx
	leaq	256(%rbp), %rdx
	callq	_ZN78_$LT$std..collections..hash..table..EmptyBucket$LT$K$C$$u20$V$C$$u20$M$GT$$GT$11into_bucket17h489d34636e49b8baE
.Ltmp95:
	jmp	.LBB18_14
.Ltmp104:
.LBB18_6:
	.cv_loc	19 1 378 0
	movb	$0, 325(%rbp)
	movb	$1, 327(%rbp)
	movups	32(%rbp), %xmm0
	movups	48(%rbp), %xmm1
	movaps	%xmm1, 112(%rbp)
	movaps	%xmm0, 96(%rbp)
.Ltmp105:
	.cv_loc	19 1 379 0
.Ltmp88:
	leaq	96(%rbp), %rcx
	callq	_ZN77_$LT$std..collections..hash..table..FullBucket$LT$K$C$$u20$V$C$$u20$M$GT$$GT$12displacement17h92146762f2c0ef19E
.Ltmp89:
	movq	%rax, -88(%rbp)
	jmp	.LBB18_8
.Ltmp106:
.LBB18_7:
	.cv_loc	19 1 392 0
	movb	$0, 327(%rbp)
	.cv_loc	19 1 377 0
	movb	$1, 324(%rbp)
	movq	-8(%rbp), %rax
	movq	%rax, -40(%rbp)
	movq	(%rbp), %rax
	movq	%rax, -32(%rbp)
	movq	8(%rbp), %rax
	movq	%rax, -24(%rbp)
	movq	16(%rbp), %rax
	movq	%rax, -16(%rbp)
	.cv_loc	19 1 392 0
	cmpq	$0, 24(%rbp)
	je	.LBB18_25
	jmp	.LBB18_27
.LBB18_8:
.Ltmp107:
	.cv_loc	19 1 379 0
	movq	-88(%rbp), %rax
	cmpq	$0, %rax
	je	.LBB18_10
	jmp	.LBB18_11
.LBB18_10:
	.cv_loc	19 1 382 0
	movb	$0, 327(%rbp)
	movaps	96(%rbp), %xmm0
	movaps	112(%rbp), %xmm1
	movaps	%xmm1, 208(%rbp)
	movaps	%xmm0, 192(%rbp)
.Ltmp92:
	leaq	160(%rbp), %rcx
	leaq	192(%rbp), %rdx
	callq	_ZN77_$LT$std..collections..hash..table..FullBucket$LT$K$C$$u20$V$C$$u20$M$GT$$GT$11into_bucket17h5c95ad361474a578E
.Ltmp93:
	jmp	.LBB18_12
.LBB18_11:
	.cv_loc	19 1 386 0
	movb	$0, 327(%rbp)
	movaps	96(%rbp), %xmm0
	movaps	112(%rbp), %xmm1
	movaps	%xmm1, 240(%rbp)
	movaps	%xmm0, 224(%rbp)
.Ltmp90:
	leaq	-8(%rbp), %rcx
	leaq	224(%rbp), %rdx
	callq	_ZN77_$LT$std..collections..hash..table..FullBucket$LT$K$C$$u20$V$C$$u20$M$GT$$GT$11into_bucket17h5c95ad361474a578E
.Ltmp91:
	jmp	.LBB18_13
.LBB18_12:
	.cv_loc	19 1 382 0
	movb	$1, 324(%rbp)
	movq	160(%rbp), %rax
	movq	%rax, -40(%rbp)
	movq	168(%rbp), %rax
	movq	%rax, -32(%rbp)
	movq	176(%rbp), %rax
	movq	%rax, -24(%rbp)
	movq	184(%rbp), %rax
	movq	%rax, -16(%rbp)
.Ltmp108:
	.cv_loc	19 1 392 0
	movb	$0, 327(%rbp)
	cmpq	$0, 24(%rbp)
	je	.LBB18_23
	jmp	.LBB18_22
.LBB18_13:
	.cv_loc	19 1 377 0
	jmp	.LBB18_7
.LBB18_14:
	jmp	.LBB18_7
.LBB18_15:
	.cv_loc	19 1 376 0
	jmp	.LBB18_2
.LBB18_22:
	.cv_loc	19 1 392 0
	movb	$0, 325(%rbp)
	movb	$0, 326(%rbp)
	.cv_loc	19 1 395 0
	movb	$0, 324(%rbp)
	movq	-40(%rbp), %rax
	movq	%rax, 288(%rbp)
	movq	-32(%rbp), %rax
	movq	%rax, 296(%rbp)
	movq	-24(%rbp), %rax
	movq	%rax, 304(%rbp)
	movq	-16(%rbp), %rax
	movq	%rax, 312(%rbp)
	movq	288(%rbp), %rax
	movq	-56(%rbp), %rcx
	movq	%rax, (%rcx)
	movq	296(%rbp), %rax
	movq	%rax, 8(%rcx)
	movq	304(%rbp), %rax
	movq	%rax, 16(%rcx)
	movq	312(%rbp), %rax
	movq	%rax, 24(%rcx)
.Ltmp109:
	.cv_loc	19 1 396 0
	movb	$0, 324(%rbp)
	movq	-64(%rbp), %rax
	addq	$464, %rsp
	popq	%rbp
	retq
.LBB18_23:
.Ltmp110:
	.cv_loc	19 1 392 0
	movb	$0, 326(%rbp)
	jmp	.LBB18_22
.LBB18_24:
	movb	$0, 325(%rbp)
	movb	$0, 326(%rbp)
	.cv_loc	19 1 393 0
.Ltmp96:
	leaq	-40(%rbp), %rcx
	callq	_ZN73_$LT$std..collections..hash..table..Bucket$LT$K$C$$u20$V$C$$u20$M$GT$$GT$4next17h13c47ff36d9a07cbE
.Ltmp97:
	jmp	.LBB18_15
.LBB18_25:
	.cv_loc	19 1 392 0
	testb	$1, 326(%rbp)
	je	.LBB18_24
	movb	$0, 326(%rbp)
	jmp	.LBB18_24
.LBB18_27:
	testb	$1, 325(%rbp)
	je	.LBB18_24
	movb	$0, 325(%rbp)
	jmp	.LBB18_24
.Ltmp111:
.LBB18_1:
	.cv_loc	19 1 373 0
	addq	$32, %rsp
	popq	%rbp
	retq
.LBB18_16:
	.cv_loc	19 1 396 0
	movb	$0, 324(%rbp)
	jmp	.LBB18_1
	.seh_handlerdata
	.long	($cppxdata$_ZN73_$LT$std..collections..hash..table..Bucket$LT$K$C$$u20$V$C$$u20$M$GT$$GT$11head_bucket17h8476d49b81e3a91bE)@IMGREL
	.section	.text,"xr",one_only,_ZN73_$LT$std..collections..hash..table..Bucket$LT$K$C$$u20$V$C$$u20$M$GT$$GT$11head_bucket17h8476d49b81e3a91bE
.Lcfi123:
	.seh_endproc
	.def	 "?dtor$29@?0?_ZN73_$LT$std..collections..hash..table..Bucket$LT$K$C$$u20$V$C$$u20$M$GT$$GT$11head_bucket17h8476d49b81e3a91bE@4HA";
	.scl	3;
	.type	32;
	.endef
	.p2align	4, 0x90
"?dtor$29@?0?_ZN73_$LT$std..collections..hash..table..Bucket$LT$K$C$$u20$V$C$$u20$M$GT$$GT$11head_bucket17h8476d49b81e3a91bE@4HA":
.Lcfi124:
.seh_proc "?dtor$29@?0?_ZN73_$LT$std..collections..hash..table..Bucket$LT$K$C$$u20$V$C$$u20$M$GT$$GT$11head_bucket17h8476d49b81e3a91bE@4HA"
.LBB18_29:
	movq	%rdx, 16(%rsp)
	pushq	%rbp
.Lcfi125:
	.seh_pushreg 5
	subq	$32, %rsp
.Lcfi126:
	.seh_stackalloc 32
	leaq	128(%rdx), %rbp
.Lcfi127:
	.seh_endprologue
	testb	$1, 324(%rbp)
	jne	.LBB18_16
	jmp	.LBB18_1
.LBB18_9:
.Ltmp112:
	.cv_loc	19 1 392 0
	cmpq	$0, 24(%rbp)
	je	.LBB18_17
	jmp	.LBB18_19
.LBB18_17:
	testb	$1, 326(%rbp)
	je	.LBB18_32
	movb	$0, 326(%rbp)
	addq	$32, %rsp
	popq	%rbp
	retq
.LBB18_19:
	testb	$1, 325(%rbp)
	je	.LBB18_31
	movb	$0, 325(%rbp)
	addq	$32, %rsp
	popq	%rbp
	retq
.LBB18_21:
	movb	$0, 327(%rbp)
	jmp	.LBB18_9
	.seh_handlerdata
	.section	.text,"xr",one_only,_ZN73_$LT$std..collections..hash..table..Bucket$LT$K$C$$u20$V$C$$u20$M$GT$$GT$11head_bucket17h8476d49b81e3a91bE
.Lcfi128:
	.seh_endproc
	.def	 "?dtor$30@?0?_ZN73_$LT$std..collections..hash..table..Bucket$LT$K$C$$u20$V$C$$u20$M$GT$$GT$11head_bucket17h8476d49b81e3a91bE@4HA";
	.scl	3;
	.type	32;
	.endef
	.p2align	4, 0x90
"?dtor$30@?0?_ZN73_$LT$std..collections..hash..table..Bucket$LT$K$C$$u20$V$C$$u20$M$GT$$GT$11head_bucket17h8476d49b81e3a91bE@4HA":
.Lcfi129:
.seh_proc "?dtor$30@?0?_ZN73_$LT$std..collections..hash..table..Bucket$LT$K$C$$u20$V$C$$u20$M$GT$$GT$11head_bucket17h8476d49b81e3a91bE@4HA"
.LBB18_30:
	movq	%rdx, 16(%rsp)
	pushq	%rbp
.Lcfi130:
	.seh_pushreg 5
	subq	$32, %rsp
.Lcfi131:
	.seh_stackalloc 32
	leaq	128(%rdx), %rbp
.Lcfi132:
	.seh_endprologue
	testb	$1, 327(%rbp)
	jne	.LBB18_21
	jmp	.LBB18_9
.Ltmp113:
.LBB18_31:
	addq	$32, %rsp
	popq	%rbp
	retq
.LBB18_32:
	addq	$32, %rsp
	popq	%rbp
	retq
.Lfunc_end18:
	.seh_handlerdata
	.section	.text,"xr",one_only,_ZN73_$LT$std..collections..hash..table..Bucket$LT$K$C$$u20$V$C$$u20$M$GT$$GT$11head_bucket17h8476d49b81e3a91bE
.Lcfi133:
	.seh_endproc
	.section	.xdata,"dr",associative,_ZN73_$LT$std..collections..hash..table..Bucket$LT$K$C$$u20$V$C$$u20$M$GT$$GT$11head_bucket17h8476d49b81e3a91bE
	.p2align	2
$cppxdata$_ZN73_$LT$std..collections..hash..table..Bucket$LT$K$C$$u20$V$C$$u20$M$GT$$GT$11head_bucket17h8476d49b81e3a91bE:
	.long	429065506
	.long	2
	.long	($stateUnwindMap$_ZN73_$LT$std..collections..hash..table..Bucket$LT$K$C$$u20$V$C$$u20$M$GT$$GT$11head_bucket17h8476d49b81e3a91bE)@IMGREL
	.long	0
	.long	0
	.long	5
	.long	($ip2state$_ZN73_$LT$std..collections..hash..table..Bucket$LT$K$C$$u20$V$C$$u20$M$GT$$GT$11head_bucket17h8476d49b81e3a91bE)@IMGREL
	.long	456
	.long	0
	.long	1
$stateUnwindMap$_ZN73_$LT$std..collections..hash..table..Bucket$LT$K$C$$u20$V$C$$u20$M$GT$$GT$11head_bucket17h8476d49b81e3a91bE:
	.long	-1
	.long	"?dtor$29@?0?_ZN73_$LT$std..collections..hash..table..Bucket$LT$K$C$$u20$V$C$$u20$M$GT$$GT$11head_bucket17h8476d49b81e3a91bE@4HA"@IMGREL
	.long	0
	.long	"?dtor$30@?0?_ZN73_$LT$std..collections..hash..table..Bucket$LT$K$C$$u20$V$C$$u20$M$GT$$GT$11head_bucket17h8476d49b81e3a91bE@4HA"@IMGREL
$ip2state$_ZN73_$LT$std..collections..hash..table..Bucket$LT$K$C$$u20$V$C$$u20$M$GT$$GT$11head_bucket17h8476d49b81e3a91bE:
	.long	.Lfunc_begin18@IMGREL
	.long	-1
	.long	.Ltmp86@IMGREL+1
	.long	0
	.long	.Ltmp94@IMGREL+1
	.long	1
	.long	.Ltmp96@IMGREL+1
	.long	0
	.long	.Ltmp97@IMGREL+1
	.long	-1
	.section	.text,"xr",one_only,_ZN73_$LT$std..collections..hash..table..Bucket$LT$K$C$$u20$V$C$$u20$M$GT$$GT$11head_bucket17h8476d49b81e3a91bE

	.def	 _ZN73_$LT$std..collections..hash..table..Bucket$LT$K$C$$u20$V$C$$u20$M$GT$$GT$3new17h42c4b5742678c041E;
	.scl	2;
	.type	32;
	.endef
	.section	.text,"xr",one_only,_ZN73_$LT$std..collections..hash..table..Bucket$LT$K$C$$u20$V$C$$u20$M$GT$$GT$3new17h42c4b5742678c041E
	.globl	_ZN73_$LT$std..collections..hash..table..Bucket$LT$K$C$$u20$V$C$$u20$M$GT$$GT$3new17h42c4b5742678c041E
	.p2align	4, 0x90
_ZN73_$LT$std..collections..hash..table..Bucket$LT$K$C$$u20$V$C$$u20$M$GT$$GT$3new17h42c4b5742678c041E:
.Lfunc_begin19:
	.cv_func_id 20
	.cv_loc	20 1 332 0
.Lcfi134:
.seh_proc _ZN73_$LT$std..collections..hash..table..Bucket$LT$K$C$$u20$V$C$$u20$M$GT$$GT$3new17h42c4b5742678c041E
	.seh_handler __CxxFrameHandler3, @unwind, @except
	pushq	%rbp
.Lcfi135:
	.seh_pushreg 5
	subq	$80, %rsp
.Lcfi136:
	.seh_stackalloc 80
	leaq	80(%rsp), %rbp
.Lcfi137:
	.seh_setframe 5, 80
.Lcfi138:
	.seh_endprologue
	movq	$-2, -8(%rbp)
	movq	%rcx, %rax
	movq	%rdx, -40(%rbp)
	movq	%r8, -32(%rbp)
.Ltmp116:
	.cv_loc	20 1 333 0
	movb	$0, -17(%rbp)
	movb	$1, -17(%rbp)
	movq	-40(%rbp), %rdx
	leaq	-32(%rbp), %r8
	movq	%r8, -16(%rbp)
.Ltmp117:
	.cv_inline_site_id 21 within 20 inlined_at 1 333 0
	.cv_loc	21 1 191 0
	movq	-16(%rbp), %r8
	movq	(%r8), %r8
.Ltmp118:
	.cv_loc	20 1 333 0
	movb	$0, -17(%rbp)
.Ltmp114:
	movq	%rax, -48(%rbp)
	callq	_ZN73_$LT$std..collections..hash..table..Bucket$LT$K$C$$u20$V$C$$u20$M$GT$$GT$8at_index17hdf1962604c1a7c0bE
.Ltmp115:
	jmp	.LBB19_2
.Ltmp119:
.LBB19_2:
	movb	$0, -17(%rbp)
	.cv_loc	20 1 334 0
	movq	-48(%rbp), %rax
	addq	$80, %rsp
	popq	%rbp
.Ltmp120:
	retq
.LBB19_1:
.Ltmp121:
	.cv_loc	20 1 332 0
	addq	$32, %rsp
	popq	%rbp
.Ltmp122:
	retq
.LBB19_3:
.Ltmp123:
	.cv_loc	20 1 333 0
	movb	$0, -17(%rbp)
	jmp	.LBB19_1
.Ltmp124:
	.seh_handlerdata
	.long	($cppxdata$_ZN73_$LT$std..collections..hash..table..Bucket$LT$K$C$$u20$V$C$$u20$M$GT$$GT$3new17h42c4b5742678c041E)@IMGREL
	.section	.text,"xr",one_only,_ZN73_$LT$std..collections..hash..table..Bucket$LT$K$C$$u20$V$C$$u20$M$GT$$GT$3new17h42c4b5742678c041E
.Lcfi139:
	.seh_endproc
	.def	 "?dtor$4@?0?_ZN73_$LT$std..collections..hash..table..Bucket$LT$K$C$$u20$V$C$$u20$M$GT$$GT$3new17h42c4b5742678c041E@4HA";
	.scl	3;
	.type	32;
	.endef
	.p2align	4, 0x90
"?dtor$4@?0?_ZN73_$LT$std..collections..hash..table..Bucket$LT$K$C$$u20$V$C$$u20$M$GT$$GT$3new17h42c4b5742678c041E@4HA":
.Lcfi140:
.seh_proc "?dtor$4@?0?_ZN73_$LT$std..collections..hash..table..Bucket$LT$K$C$$u20$V$C$$u20$M$GT$$GT$3new17h42c4b5742678c041E@4HA"
.LBB19_4:
	movq	%rdx, 16(%rsp)
	pushq	%rbp
.Lcfi141:
	.seh_pushreg 5
	subq	$32, %rsp
.Lcfi142:
	.seh_stackalloc 32
	leaq	80(%rdx), %rbp
.Ltmp125:
.Lcfi143:
	.seh_endprologue
	testb	$1, -17(%rbp)
	jne	.LBB19_3
	jmp	.LBB19_1
.Ltmp126:
.Lfunc_end19:
	.seh_handlerdata
	.section	.text,"xr",one_only,_ZN73_$LT$std..collections..hash..table..Bucket$LT$K$C$$u20$V$C$$u20$M$GT$$GT$3new17h42c4b5742678c041E
.Lcfi144:
	.seh_endproc
	.section	.xdata,"dr",associative,_ZN73_$LT$std..collections..hash..table..Bucket$LT$K$C$$u20$V$C$$u20$M$GT$$GT$3new17h42c4b5742678c041E
	.p2align	2
$cppxdata$_ZN73_$LT$std..collections..hash..table..Bucket$LT$K$C$$u20$V$C$$u20$M$GT$$GT$3new17h42c4b5742678c041E:
	.long	429065506
	.long	1
	.long	($stateUnwindMap$_ZN73_$LT$std..collections..hash..table..Bucket$LT$K$C$$u20$V$C$$u20$M$GT$$GT$3new17h42c4b5742678c041E)@IMGREL
	.long	0
	.long	0
	.long	3
	.long	($ip2state$_ZN73_$LT$std..collections..hash..table..Bucket$LT$K$C$$u20$V$C$$u20$M$GT$$GT$3new17h42c4b5742678c041E)@IMGREL
	.long	72
	.long	0
	.long	1
$stateUnwindMap$_ZN73_$LT$std..collections..hash..table..Bucket$LT$K$C$$u20$V$C$$u20$M$GT$$GT$3new17h42c4b5742678c041E:
	.long	-1
	.long	"?dtor$4@?0?_ZN73_$LT$std..collections..hash..table..Bucket$LT$K$C$$u20$V$C$$u20$M$GT$$GT$3new17h42c4b5742678c041E@4HA"@IMGREL
$ip2state$_ZN73_$LT$std..collections..hash..table..Bucket$LT$K$C$$u20$V$C$$u20$M$GT$$GT$3new17h42c4b5742678c041E:
	.long	.Lfunc_begin19@IMGREL
	.long	-1
	.long	.Ltmp114@IMGREL+1
	.long	0
	.long	.Ltmp115@IMGREL+1
	.long	-1
	.section	.text,"xr",one_only,_ZN73_$LT$std..collections..hash..table..Bucket$LT$K$C$$u20$V$C$$u20$M$GT$$GT$3new17h42c4b5742678c041E

	.def	 _ZN73_$LT$std..collections..hash..table..Bucket$LT$K$C$$u20$V$C$$u20$M$GT$$GT$3new17h77efa9c80bece2edE;
	.scl	2;
	.type	32;
	.endef
	.section	.text,"xr",one_only,_ZN73_$LT$std..collections..hash..table..Bucket$LT$K$C$$u20$V$C$$u20$M$GT$$GT$3new17h77efa9c80bece2edE
	.globl	_ZN73_$LT$std..collections..hash..table..Bucket$LT$K$C$$u20$V$C$$u20$M$GT$$GT$3new17h77efa9c80bece2edE
	.p2align	4, 0x90
_ZN73_$LT$std..collections..hash..table..Bucket$LT$K$C$$u20$V$C$$u20$M$GT$$GT$3new17h77efa9c80bece2edE:
.Lfunc_begin20:
	.cv_func_id 22
	.cv_loc	22 1 332 0
.Lcfi145:
.seh_proc _ZN73_$LT$std..collections..hash..table..Bucket$LT$K$C$$u20$V$C$$u20$M$GT$$GT$3new17h77efa9c80bece2edE
	.seh_handler __CxxFrameHandler3, @unwind, @except
	pushq	%rbp
.Lcfi146:
	.seh_pushreg 5
	subq	$80, %rsp
.Lcfi147:
	.seh_stackalloc 80
	leaq	80(%rsp), %rbp
.Lcfi148:
	.seh_setframe 5, 80
.Lcfi149:
	.seh_endprologue
	movq	$-2, -8(%rbp)
	movq	%rcx, %rax
	movq	%rdx, -40(%rbp)
	movq	%r8, -32(%rbp)
.Ltmp129:
	.cv_loc	22 1 333 0
	movb	$0, -17(%rbp)
	movb	$1, -17(%rbp)
	movq	-40(%rbp), %rdx
	leaq	-32(%rbp), %r8
	movq	%r8, -16(%rbp)
.Ltmp130:
	.cv_inline_site_id 23 within 22 inlined_at 1 333 0
	.cv_loc	23 1 191 0
	movq	-16(%rbp), %r8
	movq	(%r8), %r8
.Ltmp131:
	.cv_loc	22 1 333 0
	movb	$0, -17(%rbp)
.Ltmp127:
	movq	%rax, -48(%rbp)
	callq	_ZN73_$LT$std..collections..hash..table..Bucket$LT$K$C$$u20$V$C$$u20$M$GT$$GT$8at_index17h7f9e9d530074ddc1E
.Ltmp128:
	jmp	.LBB20_2
.Ltmp132:
.LBB20_2:
	movb	$0, -17(%rbp)
	.cv_loc	22 1 334 0
	movq	-48(%rbp), %rax
	addq	$80, %rsp
	popq	%rbp
.Ltmp133:
	retq
.LBB20_1:
.Ltmp134:
	.cv_loc	22 1 332 0
	addq	$32, %rsp
	popq	%rbp
.Ltmp135:
	retq
.LBB20_3:
.Ltmp136:
	.cv_loc	22 1 333 0
	movb	$0, -17(%rbp)
	jmp	.LBB20_1
.Ltmp137:
	.seh_handlerdata
	.long	($cppxdata$_ZN73_$LT$std..collections..hash..table..Bucket$LT$K$C$$u20$V$C$$u20$M$GT$$GT$3new17h77efa9c80bece2edE)@IMGREL
	.section	.text,"xr",one_only,_ZN73_$LT$std..collections..hash..table..Bucket$LT$K$C$$u20$V$C$$u20$M$GT$$GT$3new17h77efa9c80bece2edE
.Lcfi150:
	.seh_endproc
	.def	 "?dtor$4@?0?_ZN73_$LT$std..collections..hash..table..Bucket$LT$K$C$$u20$V$C$$u20$M$GT$$GT$3new17h77efa9c80bece2edE@4HA";
	.scl	3;
	.type	32;
	.endef
	.p2align	4, 0x90
"?dtor$4@?0?_ZN73_$LT$std..collections..hash..table..Bucket$LT$K$C$$u20$V$C$$u20$M$GT$$GT$3new17h77efa9c80bece2edE@4HA":
.Lcfi151:
.seh_proc "?dtor$4@?0?_ZN73_$LT$std..collections..hash..table..Bucket$LT$K$C$$u20$V$C$$u20$M$GT$$GT$3new17h77efa9c80bece2edE@4HA"
.LBB20_4:
	movq	%rdx, 16(%rsp)
	pushq	%rbp
.Lcfi152:
	.seh_pushreg 5
	subq	$32, %rsp
.Lcfi153:
	.seh_stackalloc 32
	leaq	80(%rdx), %rbp
.Ltmp138:
.Lcfi154:
	.seh_endprologue
	testb	$1, -17(%rbp)
	jne	.LBB20_3
	jmp	.LBB20_1
.Ltmp139:
.Lfunc_end20:
	.seh_handlerdata
	.section	.text,"xr",one_only,_ZN73_$LT$std..collections..hash..table..Bucket$LT$K$C$$u20$V$C$$u20$M$GT$$GT$3new17h77efa9c80bece2edE
.Lcfi155:
	.seh_endproc
	.section	.xdata,"dr",associative,_ZN73_$LT$std..collections..hash..table..Bucket$LT$K$C$$u20$V$C$$u20$M$GT$$GT$3new17h77efa9c80bece2edE
	.p2align	2
$cppxdata$_ZN73_$LT$std..collections..hash..table..Bucket$LT$K$C$$u20$V$C$$u20$M$GT$$GT$3new17h77efa9c80bece2edE:
	.long	429065506
	.long	1
	.long	($stateUnwindMap$_ZN73_$LT$std..collections..hash..table..Bucket$LT$K$C$$u20$V$C$$u20$M$GT$$GT$3new17h77efa9c80bece2edE)@IMGREL
	.long	0
	.long	0
	.long	3
	.long	($ip2state$_ZN73_$LT$std..collections..hash..table..Bucket$LT$K$C$$u20$V$C$$u20$M$GT$$GT$3new17h77efa9c80bece2edE)@IMGREL
	.long	72
	.long	0
	.long	1
$stateUnwindMap$_ZN73_$LT$std..collections..hash..table..Bucket$LT$K$C$$u20$V$C$$u20$M$GT$$GT$3new17h77efa9c80bece2edE:
	.long	-1
	.long	"?dtor$4@?0?_ZN73_$LT$std..collections..hash..table..Bucket$LT$K$C$$u20$V$C$$u20$M$GT$$GT$3new17h77efa9c80bece2edE@4HA"@IMGREL
$ip2state$_ZN73_$LT$std..collections..hash..table..Bucket$LT$K$C$$u20$V$C$$u20$M$GT$$GT$3new17h77efa9c80bece2edE:
	.long	.Lfunc_begin20@IMGREL
	.long	-1
	.long	.Ltmp127@IMGREL+1
	.long	0
	.long	.Ltmp128@IMGREL+1
	.long	-1
	.section	.text,"xr",one_only,_ZN73_$LT$std..collections..hash..table..Bucket$LT$K$C$$u20$V$C$$u20$M$GT$$GT$3new17h77efa9c80bece2edE

	.def	 _ZN73_$LT$std..collections..hash..table..Bucket$LT$K$C$$u20$V$C$$u20$M$GT$$GT$4next17h13c47ff36d9a07cbE;
	.scl	2;
	.type	32;
	.endef
	.section	.text,"xr",one_only,_ZN73_$LT$std..collections..hash..table..Bucket$LT$K$C$$u20$V$C$$u20$M$GT$$GT$4next17h13c47ff36d9a07cbE
	.globl	_ZN73_$LT$std..collections..hash..table..Bucket$LT$K$C$$u20$V$C$$u20$M$GT$$GT$4next17h13c47ff36d9a07cbE
	.p2align	4, 0x90
_ZN73_$LT$std..collections..hash..table..Bucket$LT$K$C$$u20$V$C$$u20$M$GT$$GT$4next17h13c47ff36d9a07cbE:
.Lfunc_begin21:
	.cv_func_id 24
	.cv_loc	24 1 420 0
.Lcfi156:
.seh_proc _ZN73_$LT$std..collections..hash..table..Bucket$LT$K$C$$u20$V$C$$u20$M$GT$$GT$4next17h13c47ff36d9a07cbE
	pushq	%rbp
.Lcfi157:
	.seh_pushreg 5
	subq	$64, %rsp
.Lcfi158:
	.seh_stackalloc 64
	leaq	64(%rsp), %rbp
.Lcfi159:
	.seh_setframe 5, 64
.Lcfi160:
	.seh_endprologue
	movl	$1, %eax
	movl	%eax, %edx
	movq	%rcx, -8(%rbp)
.Ltmp140:
	.cv_loc	24 1 421 0
	movq	-8(%rbp), %rcx
	movq	16(%rcx), %rcx
	callq	_ZN4core3num23_$LT$impl$u20$usize$GT$12wrapping_add17hb5013636858df802E
	movq	%rax, -16(%rbp)
	movq	-8(%rbp), %rax
	addq	$24, %rax
	movq	%rax, %rcx
	callq	_ZN68_$LT$$RF$$u27$a$u20$mut$u20$T$u20$as$u20$core..ops..deref..Deref$GT$5deref17h1222be5803b425fbE
	movq	%rax, -24(%rbp)
	movq	-24(%rbp), %rax
	movq	(%rax), %rcx
	movq	-8(%rbp), %rdx
	movq	-16(%rbp), %r8
	andq	%rcx, %r8
	movq	%r8, 16(%rdx)
	.cv_loc	24 1 422 0
	addq	$64, %rsp
	popq	%rbp
	retq
.Ltmp141:
.Lfunc_end21:
	.seh_handlerdata
	.section	.text,"xr",one_only,_ZN73_$LT$std..collections..hash..table..Bucket$LT$K$C$$u20$V$C$$u20$M$GT$$GT$4next17h13c47ff36d9a07cbE
.Lcfi161:
	.seh_endproc

	.def	 _ZN73_$LT$std..collections..hash..table..Bucket$LT$K$C$$u20$V$C$$u20$M$GT$$GT$4next17hc12989584804e2c2E;
	.scl	3;
	.type	32;
	.endef
	.section	.text,"xr",one_only,_ZN73_$LT$std..collections..hash..table..Bucket$LT$K$C$$u20$V$C$$u20$M$GT$$GT$4next17hc12989584804e2c2E
	.p2align	4, 0x90
_ZN73_$LT$std..collections..hash..table..Bucket$LT$K$C$$u20$V$C$$u20$M$GT$$GT$4next17hc12989584804e2c2E:
.Lfunc_begin22:
	.cv_func_id 25
	.cv_loc	25 1 420 0
.Lcfi162:
.seh_proc _ZN73_$LT$std..collections..hash..table..Bucket$LT$K$C$$u20$V$C$$u20$M$GT$$GT$4next17hc12989584804e2c2E
	pushq	%rbp
.Lcfi163:
	.seh_pushreg 5
	subq	$64, %rsp
.Lcfi164:
	.seh_stackalloc 64
	leaq	64(%rsp), %rbp
.Lcfi165:
	.seh_setframe 5, 64
.Lcfi166:
	.seh_endprologue
	movl	$1, %eax
	movl	%eax, %edx
	movq	%rcx, -8(%rbp)
.Ltmp142:
	.cv_loc	25 1 421 0
	movq	-8(%rbp), %rcx
	movq	16(%rcx), %rcx
	callq	_ZN4core3num23_$LT$impl$u20$usize$GT$12wrapping_add17hb5013636858df802E
	movq	%rax, -16(%rbp)
	movq	-8(%rbp), %rax
	addq	$24, %rax
	movq	%rax, %rcx
	callq	_ZN112_$LT$std..collections..hash..table..FullBucket$LT$K$C$$u20$V$C$$u20$M$GT$$u20$as$u20$core..ops..deref..Deref$GT$5deref17h9694ce54fdca90f3E
	movq	%rax, -24(%rbp)
	movq	-24(%rbp), %rax
	movq	(%rax), %rcx
	movq	-8(%rbp), %rdx
	movq	-16(%rbp), %r8
	andq	%rcx, %r8
	movq	%r8, 16(%rdx)
	.cv_loc	25 1 422 0
	addq	$64, %rsp
	popq	%rbp
	retq
.Ltmp143:
.Lfunc_end22:
	.seh_handlerdata
	.section	.text,"xr",one_only,_ZN73_$LT$std..collections..hash..table..Bucket$LT$K$C$$u20$V$C$$u20$M$GT$$GT$4next17hc12989584804e2c2E
.Lcfi167:
	.seh_endproc

	.def	 _ZN73_$LT$std..collections..hash..table..Bucket$LT$K$C$$u20$V$C$$u20$M$GT$$GT$4next17hdc2af9d3c5cebf3eE;
	.scl	3;
	.type	32;
	.endef
	.section	.text,"xr",one_only,_ZN73_$LT$std..collections..hash..table..Bucket$LT$K$C$$u20$V$C$$u20$M$GT$$GT$4next17hdc2af9d3c5cebf3eE
	.p2align	4, 0x90
_ZN73_$LT$std..collections..hash..table..Bucket$LT$K$C$$u20$V$C$$u20$M$GT$$GT$4next17hdc2af9d3c5cebf3eE:
.Lfunc_begin23:
	.cv_func_id 26
	.cv_loc	26 1 420 0
.Lcfi168:
.seh_proc _ZN73_$LT$std..collections..hash..table..Bucket$LT$K$C$$u20$V$C$$u20$M$GT$$GT$4next17hdc2af9d3c5cebf3eE
	pushq	%rbp
.Lcfi169:
	.seh_pushreg 5
	subq	$64, %rsp
.Lcfi170:
	.seh_stackalloc 64
	leaq	64(%rsp), %rbp
.Lcfi171:
	.seh_setframe 5, 64
.Lcfi172:
	.seh_endprologue
	movl	$1, %eax
	movl	%eax, %edx
	movq	%rcx, -8(%rbp)
.Ltmp144:
	.cv_loc	26 1 421 0
	movq	-8(%rbp), %rcx
	movq	16(%rcx), %rcx
	callq	_ZN4core3num23_$LT$impl$u20$usize$GT$12wrapping_add17hb5013636858df802E
	movq	%rax, -16(%rbp)
	movq	-8(%rbp), %rax
	addq	$24, %rax
	movq	%rax, %rcx
	callq	_ZN60_$LT$$RF$$u27$a$u20$T$u20$as$u20$core..ops..deref..Deref$GT$5deref17h631e8b36ec28d214E
	movq	%rax, -24(%rbp)
	movq	-24(%rbp), %rax
	movq	(%rax), %rcx
	movq	-8(%rbp), %rdx
	movq	-16(%rbp), %r8
	andq	%rcx, %r8
	movq	%r8, 16(%rdx)
	.cv_loc	26 1 422 0
	addq	$64, %rsp
	popq	%rbp
	retq
.Ltmp145:
.Lfunc_end23:
	.seh_handlerdata
	.section	.text,"xr",one_only,_ZN73_$LT$std..collections..hash..table..Bucket$LT$K$C$$u20$V$C$$u20$M$GT$$GT$4next17hdc2af9d3c5cebf3eE
.Lcfi173:
	.seh_endproc

	.def	 _ZN73_$LT$std..collections..hash..table..Bucket$LT$K$C$$u20$V$C$$u20$M$GT$$GT$4peek17h6782f2a97ec871c0E;
	.scl	2;
	.type	32;
	.endef
	.section	.text,"xr",one_only,_ZN73_$LT$std..collections..hash..table..Bucket$LT$K$C$$u20$V$C$$u20$M$GT$$GT$4peek17h6782f2a97ec871c0E
	.globl	_ZN73_$LT$std..collections..hash..table..Bucket$LT$K$C$$u20$V$C$$u20$M$GT$$GT$4peek17h6782f2a97ec871c0E
	.p2align	4, 0x90
_ZN73_$LT$std..collections..hash..table..Bucket$LT$K$C$$u20$V$C$$u20$M$GT$$GT$4peek17h6782f2a97ec871c0E:
.Lfunc_begin24:
	.cv_func_id 27
	.cv_loc	27 1 402 0
.Lcfi174:
.seh_proc _ZN73_$LT$std..collections..hash..table..Bucket$LT$K$C$$u20$V$C$$u20$M$GT$$GT$4peek17h6782f2a97ec871c0E
	.seh_handler __CxxFrameHandler3, @unwind, @except
	pushq	%rbp
.Lcfi175:
	.seh_pushreg 5
	subq	$192, %rsp
.Lcfi176:
	.seh_stackalloc 192
	leaq	128(%rsp), %rbp
.Lcfi177:
	.seh_setframe 5, 128
.Lcfi178:
	.seh_endprologue
	movq	$-2, 56(%rbp)
	movq	%rcx, %rax
.Ltmp148:
	.cv_loc	27 1 403 0
.Ltmp146:
	movq	%rcx, -64(%rbp)
	movq	%rdx, %rcx
	movq	%rax, -72(%rbp)
	movq	%rdx, -80(%rbp)
.Ltmp149:
	callq	_ZN67_$LT$std..collections..hash..table..RawBucket$LT$K$C$$u20$V$GT$$GT$4hash17h98fac13dbff89709E
.Ltmp147:
	movq	%rax, -88(%rbp)
	jmp	.LBB24_1
.Ltmp150:
.LBB24_1:
	.cv_loc	27 1 404 0
	movq	-88(%rbp), %rax
	cmpq	$0, (%rax)
	jne	.LBB24_3
.Ltmp151:
	.cv_loc	27 1 406 0
	movq	-80(%rbp), %rax
	movq	(%rax), %rcx
	movq	%rcx, -24(%rbp)
	movq	8(%rax), %rcx
	movq	%rcx, -16(%rbp)
	movq	16(%rax), %rcx
	movq	%rcx, -8(%rbp)
	.cv_loc	27 1 407 0
	movq	24(%rax), %rcx
	.cv_loc	27 1 405 0
	movq	-24(%rbp), %rdx
	movq	%rdx, -56(%rbp)
	movq	-16(%rbp), %rdx
	movq	%rdx, -48(%rbp)
	movq	-8(%rbp), %rdx
	movq	%rdx, -40(%rbp)
	movq	%rcx, -32(%rbp)
	movq	-64(%rbp), %rcx
	movq	$0, (%rcx)
	movq	-56(%rbp), %rdx
	movq	%rdx, 8(%rcx)
	movq	-48(%rbp), %rdx
	movq	%rdx, 16(%rcx)
	movq	-40(%rbp), %rdx
	movq	%rdx, 24(%rcx)
	movq	-32(%rbp), %rdx
	movq	%rdx, 32(%rcx)
	.cv_loc	27 1 403 0
	jmp	.LBB24_4
.Ltmp152:
.LBB24_3:
	.cv_loc	27 1 412 0
	movq	-80(%rbp), %rax
	movq	(%rax), %rcx
	movq	%rcx, 32(%rbp)
	movq	8(%rax), %rcx
	movq	%rcx, 40(%rbp)
	movq	16(%rax), %rcx
	movq	%rcx, 48(%rbp)
	.cv_loc	27 1 413 0
	movq	24(%rax), %rcx
	.cv_loc	27 1 411 0
	movq	32(%rbp), %rdx
	movq	%rdx, (%rbp)
	movq	40(%rbp), %rdx
	movq	%rdx, 8(%rbp)
	movq	48(%rbp), %rdx
	movq	%rdx, 16(%rbp)
	movq	%rcx, 24(%rbp)
	movq	-64(%rbp), %rcx
	movq	$1, (%rcx)
	movq	(%rbp), %rdx
	movq	%rdx, 8(%rcx)
	movq	8(%rbp), %rdx
	movq	%rdx, 16(%rcx)
	movq	16(%rbp), %rdx
	movq	%rdx, 24(%rcx)
	movq	24(%rbp), %rdx
	movq	%rdx, 32(%rcx)
.Ltmp153:
.LBB24_4:
	.cv_loc	27 1 417 0
	movq	-72(%rbp), %rax
	addq	$192, %rsp
	popq	%rbp
.Ltmp154:
	retq
	.seh_handlerdata
	.long	($cppxdata$_ZN73_$LT$std..collections..hash..table..Bucket$LT$K$C$$u20$V$C$$u20$M$GT$$GT$4peek17h6782f2a97ec871c0E)@IMGREL
	.section	.text,"xr",one_only,_ZN73_$LT$std..collections..hash..table..Bucket$LT$K$C$$u20$V$C$$u20$M$GT$$GT$4peek17h6782f2a97ec871c0E
.Lcfi179:
	.seh_endproc
	.def	 "?dtor$5@?0?_ZN73_$LT$std..collections..hash..table..Bucket$LT$K$C$$u20$V$C$$u20$M$GT$$GT$4peek17h6782f2a97ec871c0E@4HA";
	.scl	3;
	.type	32;
	.endef
	.p2align	4, 0x90
"?dtor$5@?0?_ZN73_$LT$std..collections..hash..table..Bucket$LT$K$C$$u20$V$C$$u20$M$GT$$GT$4peek17h6782f2a97ec871c0E@4HA":
.Lcfi180:
.seh_proc "?dtor$5@?0?_ZN73_$LT$std..collections..hash..table..Bucket$LT$K$C$$u20$V$C$$u20$M$GT$$GT$4peek17h6782f2a97ec871c0E@4HA"
.LBB24_5:
.Ltmp155:
	movq	%rdx, 16(%rsp)
	pushq	%rbp
.Lcfi181:
	.seh_pushreg 5
	subq	$32, %rsp
.Lcfi182:
	.seh_stackalloc 32
	leaq	128(%rdx), %rbp
.Ltmp156:
.Lcfi183:
	.seh_endprologue
	.cv_loc	27 1 402 0
	addq	$32, %rsp
	popq	%rbp
	retq
.Ltmp157:
.Lfunc_end24:
	.seh_handlerdata
	.section	.text,"xr",one_only,_ZN73_$LT$std..collections..hash..table..Bucket$LT$K$C$$u20$V$C$$u20$M$GT$$GT$4peek17h6782f2a97ec871c0E
.Lcfi184:
	.seh_endproc
	.section	.xdata,"dr",associative,_ZN73_$LT$std..collections..hash..table..Bucket$LT$K$C$$u20$V$C$$u20$M$GT$$GT$4peek17h6782f2a97ec871c0E
	.p2align	2
$cppxdata$_ZN73_$LT$std..collections..hash..table..Bucket$LT$K$C$$u20$V$C$$u20$M$GT$$GT$4peek17h6782f2a97ec871c0E:
	.long	429065506
	.long	1
	.long	($stateUnwindMap$_ZN73_$LT$std..collections..hash..table..Bucket$LT$K$C$$u20$V$C$$u20$M$GT$$GT$4peek17h6782f2a97ec871c0E)@IMGREL
	.long	0
	.long	0
	.long	3
	.long	($ip2state$_ZN73_$LT$std..collections..hash..table..Bucket$LT$K$C$$u20$V$C$$u20$M$GT$$GT$4peek17h6782f2a97ec871c0E)@IMGREL
	.long	184
	.long	0
	.long	1
$stateUnwindMap$_ZN73_$LT$std..collections..hash..table..Bucket$LT$K$C$$u20$V$C$$u20$M$GT$$GT$4peek17h6782f2a97ec871c0E:
	.long	-1
	.long	"?dtor$5@?0?_ZN73_$LT$std..collections..hash..table..Bucket$LT$K$C$$u20$V$C$$u20$M$GT$$GT$4peek17h6782f2a97ec871c0E@4HA"@IMGREL
$ip2state$_ZN73_$LT$std..collections..hash..table..Bucket$LT$K$C$$u20$V$C$$u20$M$GT$$GT$4peek17h6782f2a97ec871c0E:
	.long	.Lfunc_begin24@IMGREL
	.long	-1
	.long	.Ltmp146@IMGREL+1
	.long	0
	.long	.Ltmp147@IMGREL+1
	.long	-1
	.section	.text,"xr",one_only,_ZN73_$LT$std..collections..hash..table..Bucket$LT$K$C$$u20$V$C$$u20$M$GT$$GT$4peek17h6782f2a97ec871c0E

	.def	 _ZN73_$LT$std..collections..hash..table..Bucket$LT$K$C$$u20$V$C$$u20$M$GT$$GT$4peek17h77e6c3a10af2ac2fE;
	.scl	2;
	.type	32;
	.endef
	.section	.text,"xr",one_only,_ZN73_$LT$std..collections..hash..table..Bucket$LT$K$C$$u20$V$C$$u20$M$GT$$GT$4peek17h77e6c3a10af2ac2fE
	.globl	_ZN73_$LT$std..collections..hash..table..Bucket$LT$K$C$$u20$V$C$$u20$M$GT$$GT$4peek17h77e6c3a10af2ac2fE
	.p2align	4, 0x90
_ZN73_$LT$std..collections..hash..table..Bucket$LT$K$C$$u20$V$C$$u20$M$GT$$GT$4peek17h77e6c3a10af2ac2fE:
.Lfunc_begin25:
	.cv_func_id 28
	.cv_loc	28 1 402 0
.Lcfi185:
.seh_proc _ZN73_$LT$std..collections..hash..table..Bucket$LT$K$C$$u20$V$C$$u20$M$GT$$GT$4peek17h77e6c3a10af2ac2fE
	.seh_handler __CxxFrameHandler3, @unwind, @except
	pushq	%rbp
.Lcfi186:
	.seh_pushreg 5
	subq	$192, %rsp
.Lcfi187:
	.seh_stackalloc 192
	leaq	128(%rsp), %rbp
.Lcfi188:
	.seh_setframe 5, 128
.Lcfi189:
	.seh_endprologue
	movq	$-2, 56(%rbp)
	movq	%rcx, %rax
.Ltmp160:
	.cv_loc	28 1 403 0
.Ltmp158:
	movq	%rcx, -64(%rbp)
	movq	%rdx, %rcx
	movq	%rax, -72(%rbp)
	movq	%rdx, -80(%rbp)
.Ltmp161:
	callq	_ZN67_$LT$std..collections..hash..table..RawBucket$LT$K$C$$u20$V$GT$$GT$4hash17h98fac13dbff89709E
.Ltmp159:
	movq	%rax, -88(%rbp)
	jmp	.LBB25_1
.Ltmp162:
.LBB25_1:
	.cv_loc	28 1 404 0
	movq	-88(%rbp), %rax
	cmpq	$0, (%rax)
	jne	.LBB25_3
.Ltmp163:
	.cv_loc	28 1 406 0
	movq	-80(%rbp), %rax
	movq	(%rax), %rcx
	movq	%rcx, -24(%rbp)
	movq	8(%rax), %rcx
	movq	%rcx, -16(%rbp)
	movq	16(%rax), %rcx
	movq	%rcx, -8(%rbp)
	.cv_loc	28 1 407 0
	movq	24(%rax), %rcx
	.cv_loc	28 1 405 0
	movq	-24(%rbp), %rdx
	movq	%rdx, -56(%rbp)
	movq	-16(%rbp), %rdx
	movq	%rdx, -48(%rbp)
	movq	-8(%rbp), %rdx
	movq	%rdx, -40(%rbp)
	movq	%rcx, -32(%rbp)
	movq	-64(%rbp), %rcx
	movq	$0, (%rcx)
	movq	-56(%rbp), %rdx
	movq	%rdx, 8(%rcx)
	movq	-48(%rbp), %rdx
	movq	%rdx, 16(%rcx)
	movq	-40(%rbp), %rdx
	movq	%rdx, 24(%rcx)
	movq	-32(%rbp), %rdx
	movq	%rdx, 32(%rcx)
	.cv_loc	28 1 403 0
	jmp	.LBB25_4
.Ltmp164:
.LBB25_3:
	.cv_loc	28 1 412 0
	movq	-80(%rbp), %rax
	movq	(%rax), %rcx
	movq	%rcx, 32(%rbp)
	movq	8(%rax), %rcx
	movq	%rcx, 40(%rbp)
	movq	16(%rax), %rcx
	movq	%rcx, 48(%rbp)
	.cv_loc	28 1 413 0
	movq	24(%rax), %rcx
	.cv_loc	28 1 411 0
	movq	32(%rbp), %rdx
	movq	%rdx, (%rbp)
	movq	40(%rbp), %rdx
	movq	%rdx, 8(%rbp)
	movq	48(%rbp), %rdx
	movq	%rdx, 16(%rbp)
	movq	%rcx, 24(%rbp)
	movq	-64(%rbp), %rcx
	movq	$1, (%rcx)
	movq	(%rbp), %rdx
	movq	%rdx, 8(%rcx)
	movq	8(%rbp), %rdx
	movq	%rdx, 16(%rcx)
	movq	16(%rbp), %rdx
	movq	%rdx, 24(%rcx)
	movq	24(%rbp), %rdx
	movq	%rdx, 32(%rcx)
.Ltmp165:
.LBB25_4:
	.cv_loc	28 1 417 0
	movq	-72(%rbp), %rax
	addq	$192, %rsp
	popq	%rbp
.Ltmp166:
	retq
	.seh_handlerdata
	.long	($cppxdata$_ZN73_$LT$std..collections..hash..table..Bucket$LT$K$C$$u20$V$C$$u20$M$GT$$GT$4peek17h77e6c3a10af2ac2fE)@IMGREL
	.section	.text,"xr",one_only,_ZN73_$LT$std..collections..hash..table..Bucket$LT$K$C$$u20$V$C$$u20$M$GT$$GT$4peek17h77e6c3a10af2ac2fE
.Lcfi190:
	.seh_endproc
	.def	 "?dtor$5@?0?_ZN73_$LT$std..collections..hash..table..Bucket$LT$K$C$$u20$V$C$$u20$M$GT$$GT$4peek17h77e6c3a10af2ac2fE@4HA";
	.scl	3;
	.type	32;
	.endef
	.p2align	4, 0x90
"?dtor$5@?0?_ZN73_$LT$std..collections..hash..table..Bucket$LT$K$C$$u20$V$C$$u20$M$GT$$GT$4peek17h77e6c3a10af2ac2fE@4HA":
.Lcfi191:
.seh_proc "?dtor$5@?0?_ZN73_$LT$std..collections..hash..table..Bucket$LT$K$C$$u20$V$C$$u20$M$GT$$GT$4peek17h77e6c3a10af2ac2fE@4HA"
.LBB25_5:
.Ltmp167:
	movq	%rdx, 16(%rsp)
	pushq	%rbp
.Lcfi192:
	.seh_pushreg 5
	subq	$32, %rsp
.Lcfi193:
	.seh_stackalloc 32
	leaq	128(%rdx), %rbp
.Ltmp168:
.Lcfi194:
	.seh_endprologue
	.cv_loc	28 1 402 0
	addq	$32, %rsp
	popq	%rbp
	retq
.Ltmp169:
.Lfunc_end25:
	.seh_handlerdata
	.section	.text,"xr",one_only,_ZN73_$LT$std..collections..hash..table..Bucket$LT$K$C$$u20$V$C$$u20$M$GT$$GT$4peek17h77e6c3a10af2ac2fE
.Lcfi195:
	.seh_endproc
	.section	.xdata,"dr",associative,_ZN73_$LT$std..collections..hash..table..Bucket$LT$K$C$$u20$V$C$$u20$M$GT$$GT$4peek17h77e6c3a10af2ac2fE
	.p2align	2
$cppxdata$_ZN73_$LT$std..collections..hash..table..Bucket$LT$K$C$$u20$V$C$$u20$M$GT$$GT$4peek17h77e6c3a10af2ac2fE:
	.long	429065506
	.long	1
	.long	($stateUnwindMap$_ZN73_$LT$std..collections..hash..table..Bucket$LT$K$C$$u20$V$C$$u20$M$GT$$GT$4peek17h77e6c3a10af2ac2fE)@IMGREL
	.long	0
	.long	0
	.long	3
	.long	($ip2state$_ZN73_$LT$std..collections..hash..table..Bucket$LT$K$C$$u20$V$C$$u20$M$GT$$GT$4peek17h77e6c3a10af2ac2fE)@IMGREL
	.long	184
	.long	0
	.long	1
$stateUnwindMap$_ZN73_$LT$std..collections..hash..table..Bucket$LT$K$C$$u20$V$C$$u20$M$GT$$GT$4peek17h77e6c3a10af2ac2fE:
	.long	-1
	.long	"?dtor$5@?0?_ZN73_$LT$std..collections..hash..table..Bucket$LT$K$C$$u20$V$C$$u20$M$GT$$GT$4peek17h77e6c3a10af2ac2fE@4HA"@IMGREL
$ip2state$_ZN73_$LT$std..collections..hash..table..Bucket$LT$K$C$$u20$V$C$$u20$M$GT$$GT$4peek17h77e6c3a10af2ac2fE:
	.long	.Lfunc_begin25@IMGREL
	.long	-1
	.long	.Ltmp158@IMGREL+1
	.long	0
	.long	.Ltmp159@IMGREL+1
	.long	-1
	.section	.text,"xr",one_only,_ZN73_$LT$std..collections..hash..table..Bucket$LT$K$C$$u20$V$C$$u20$M$GT$$GT$4peek17h77e6c3a10af2ac2fE

	.def	 _ZN73_$LT$std..collections..hash..table..Bucket$LT$K$C$$u20$V$C$$u20$M$GT$$GT$4peek17hbbd04980444a0a31E;
	.scl	2;
	.type	32;
	.endef
	.section	.text,"xr",one_only,_ZN73_$LT$std..collections..hash..table..Bucket$LT$K$C$$u20$V$C$$u20$M$GT$$GT$4peek17hbbd04980444a0a31E
	.globl	_ZN73_$LT$std..collections..hash..table..Bucket$LT$K$C$$u20$V$C$$u20$M$GT$$GT$4peek17hbbd04980444a0a31E
	.p2align	4, 0x90
_ZN73_$LT$std..collections..hash..table..Bucket$LT$K$C$$u20$V$C$$u20$M$GT$$GT$4peek17hbbd04980444a0a31E:
.Lfunc_begin26:
	.cv_func_id 29
	.cv_loc	29 1 402 0
.Lcfi196:
.seh_proc _ZN73_$LT$std..collections..hash..table..Bucket$LT$K$C$$u20$V$C$$u20$M$GT$$GT$4peek17hbbd04980444a0a31E
	.seh_handler __CxxFrameHandler3, @unwind, @except
	pushq	%rbp
.Lcfi197:
	.seh_pushreg 5
	subq	$320, %rsp
.Lcfi198:
	.seh_stackalloc 320
	leaq	128(%rsp), %rbp
.Lcfi199:
	.seh_setframe 5, 128
.Lcfi200:
	.seh_endprologue
	movq	$-2, 184(%rbp)
	movq	%rcx, %rax
.Ltmp172:
	.cv_loc	29 1 403 0
.Ltmp170:
	movq	%rcx, -48(%rbp)
	movq	%rdx, %rcx
	movq	%rax, -56(%rbp)
	movq	%rdx, -64(%rbp)
.Ltmp173:
	callq	_ZN67_$LT$std..collections..hash..table..RawBucket$LT$K$C$$u20$V$GT$$GT$4hash17h98fac13dbff89709E
.Ltmp171:
	movq	%rax, -72(%rbp)
	jmp	.LBB26_1
.Ltmp174:
.LBB26_1:
	.cv_loc	29 1 404 0
	movq	-72(%rbp), %rax
	cmpq	$0, (%rax)
	jne	.LBB26_3
.Ltmp175:
	movl	$56, %eax
	movl	%eax, %r8d
	leaq	-40(%rbp), %rcx
	.cv_loc	29 1 406 0
	movq	-64(%rbp), %rdx
	movq	(%rdx), %r9
	movq	%r9, 16(%rbp)
	movq	8(%rdx), %r9
	movq	%r9, 24(%rbp)
	movq	16(%rdx), %r9
	movq	%r9, 32(%rbp)
	.cv_loc	29 1 407 0
	movq	24(%rdx), %r9
	movq	%r9, 40(%rbp)
	movq	32(%rdx), %r9
	movq	%r9, 48(%rbp)
	movq	40(%rdx), %r9
	movq	%r9, 56(%rbp)
	movq	48(%rdx), %r9
	movq	%r9, 64(%rbp)
	.cv_loc	29 1 405 0
	movq	16(%rbp), %r9
	movq	%r9, -40(%rbp)
	movq	24(%rbp), %r9
	movq	%r9, -32(%rbp)
	movq	32(%rbp), %r9
	movq	%r9, -24(%rbp)
	movq	40(%rbp), %r9
	movq	%r9, -16(%rbp)
	movq	48(%rbp), %r9
	movq	%r9, -8(%rbp)
	movq	56(%rbp), %r9
	movq	%r9, (%rbp)
	movq	64(%rbp), %r9
	movq	%r9, 8(%rbp)
	movq	-48(%rbp), %r9
	movq	$0, (%r9)
	addq	$8, %r9
	movq	%rcx, -80(%rbp)
	movq	%r9, %rcx
	movq	-80(%rbp), %rdx
	callq	memcpy
	.cv_loc	29 1 403 0
	jmp	.LBB26_4
.Ltmp176:
.LBB26_3:
	movl	$56, %eax
	movl	%eax, %r8d
	leaq	72(%rbp), %rcx
	.cv_loc	29 1 412 0
	movq	-64(%rbp), %rdx
	movq	(%rdx), %r9
	movq	%r9, 128(%rbp)
	movq	8(%rdx), %r9
	movq	%r9, 136(%rbp)
	movq	16(%rdx), %r9
	movq	%r9, 144(%rbp)
	.cv_loc	29 1 413 0
	movq	24(%rdx), %r9
	movq	%r9, 152(%rbp)
	movq	32(%rdx), %r9
	movq	%r9, 160(%rbp)
	movq	40(%rdx), %r9
	movq	%r9, 168(%rbp)
	movq	48(%rdx), %r9
	movq	%r9, 176(%rbp)
	.cv_loc	29 1 411 0
	movq	128(%rbp), %r9
	movq	%r9, 72(%rbp)
	movq	136(%rbp), %r9
	movq	%r9, 80(%rbp)
	movq	144(%rbp), %r9
	movq	%r9, 88(%rbp)
	movq	152(%rbp), %r9
	movq	%r9, 96(%rbp)
	movq	160(%rbp), %r9
	movq	%r9, 104(%rbp)
	movq	168(%rbp), %r9
	movq	%r9, 112(%rbp)
	movq	176(%rbp), %r9
	movq	%r9, 120(%rbp)
	movq	-48(%rbp), %r9
	movq	$1, (%r9)
	addq	$8, %r9
	movq	%rcx, -88(%rbp)
	movq	%r9, %rcx
	movq	-88(%rbp), %rdx
	callq	memcpy
.Ltmp177:
.LBB26_4:
	.cv_loc	29 1 417 0
	movq	-56(%rbp), %rax
	addq	$320, %rsp
	popq	%rbp
.Ltmp178:
	retq
	.seh_handlerdata
	.long	($cppxdata$_ZN73_$LT$std..collections..hash..table..Bucket$LT$K$C$$u20$V$C$$u20$M$GT$$GT$4peek17hbbd04980444a0a31E)@IMGREL
	.section	.text,"xr",one_only,_ZN73_$LT$std..collections..hash..table..Bucket$LT$K$C$$u20$V$C$$u20$M$GT$$GT$4peek17hbbd04980444a0a31E
.Lcfi201:
	.seh_endproc
	.def	 "?dtor$5@?0?_ZN73_$LT$std..collections..hash..table..Bucket$LT$K$C$$u20$V$C$$u20$M$GT$$GT$4peek17hbbd04980444a0a31E@4HA";
	.scl	3;
	.type	32;
	.endef
	.p2align	4, 0x90
"?dtor$5@?0?_ZN73_$LT$std..collections..hash..table..Bucket$LT$K$C$$u20$V$C$$u20$M$GT$$GT$4peek17hbbd04980444a0a31E@4HA":
.Lcfi202:
.seh_proc "?dtor$5@?0?_ZN73_$LT$std..collections..hash..table..Bucket$LT$K$C$$u20$V$C$$u20$M$GT$$GT$4peek17hbbd04980444a0a31E@4HA"
.LBB26_5:
.Ltmp179:
	movq	%rdx, 16(%rsp)
	pushq	%rbp
.Lcfi203:
	.seh_pushreg 5
	subq	$32, %rsp
.Lcfi204:
	.seh_stackalloc 32
	leaq	128(%rdx), %rbp
.Ltmp180:
.Lcfi205:
	.seh_endprologue
	.cv_loc	29 1 402 0
	addq	$32, %rsp
	popq	%rbp
	retq
.Ltmp181:
.Lfunc_end26:
	.seh_handlerdata
	.section	.text,"xr",one_only,_ZN73_$LT$std..collections..hash..table..Bucket$LT$K$C$$u20$V$C$$u20$M$GT$$GT$4peek17hbbd04980444a0a31E
.Lcfi206:
	.seh_endproc
	.section	.xdata,"dr",associative,_ZN73_$LT$std..collections..hash..table..Bucket$LT$K$C$$u20$V$C$$u20$M$GT$$GT$4peek17hbbd04980444a0a31E
	.p2align	2
$cppxdata$_ZN73_$LT$std..collections..hash..table..Bucket$LT$K$C$$u20$V$C$$u20$M$GT$$GT$4peek17hbbd04980444a0a31E:
	.long	429065506
	.long	1
	.long	($stateUnwindMap$_ZN73_$LT$std..collections..hash..table..Bucket$LT$K$C$$u20$V$C$$u20$M$GT$$GT$4peek17hbbd04980444a0a31E)@IMGREL
	.long	0
	.long	0
	.long	3
	.long	($ip2state$_ZN73_$LT$std..collections..hash..table..Bucket$LT$K$C$$u20$V$C$$u20$M$GT$$GT$4peek17hbbd04980444a0a31E)@IMGREL
	.long	312
	.long	0
	.long	1
$stateUnwindMap$_ZN73_$LT$std..collections..hash..table..Bucket$LT$K$C$$u20$V$C$$u20$M$GT$$GT$4peek17hbbd04980444a0a31E:
	.long	-1
	.long	"?dtor$5@?0?_ZN73_$LT$std..collections..hash..table..Bucket$LT$K$C$$u20$V$C$$u20$M$GT$$GT$4peek17hbbd04980444a0a31E@4HA"@IMGREL
$ip2state$_ZN73_$LT$std..collections..hash..table..Bucket$LT$K$C$$u20$V$C$$u20$M$GT$$GT$4peek17hbbd04980444a0a31E:
	.long	.Lfunc_begin26@IMGREL
	.long	-1
	.long	.Ltmp170@IMGREL+1
	.long	0
	.long	.Ltmp171@IMGREL+1
	.long	-1
	.section	.text,"xr",one_only,_ZN73_$LT$std..collections..hash..table..Bucket$LT$K$C$$u20$V$C$$u20$M$GT$$GT$4peek17hbbd04980444a0a31E

	.def	 _ZN73_$LT$std..collections..hash..table..Bucket$LT$K$C$$u20$V$C$$u20$M$GT$$GT$5first17h77289135b0b047f2E;
	.scl	3;
	.type	32;
	.endef
	.section	.text,"xr",one_only,_ZN73_$LT$std..collections..hash..table..Bucket$LT$K$C$$u20$V$C$$u20$M$GT$$GT$5first17h77289135b0b047f2E
	.p2align	4, 0x90
_ZN73_$LT$std..collections..hash..table..Bucket$LT$K$C$$u20$V$C$$u20$M$GT$$GT$5first17h77289135b0b047f2E:
.Lfunc_begin27:
	.cv_func_id 30
	.cv_loc	30 1 357 0
.Lcfi207:
.seh_proc _ZN73_$LT$std..collections..hash..table..Bucket$LT$K$C$$u20$V$C$$u20$M$GT$$GT$5first17h77289135b0b047f2E
	.seh_handler __CxxFrameHandler3, @unwind, @except
	pushq	%rbp
.Lcfi208:
	.seh_pushreg 5
	subq	$96, %rsp
.Lcfi209:
	.seh_stackalloc 96
	leaq	96(%rsp), %rbp
.Lcfi210:
	.seh_setframe 5, 96
.Lcfi211:
	.seh_endprologue
	movq	$-2, -8(%rbp)
	movq	%rcx, %rax
	movq	%rdx, -40(%rbp)
.Ltmp186:
	.cv_loc	30 1 359 0
.Ltmp182:
	leaq	-40(%rbp), %rdx
	movq	%rcx, -48(%rbp)
	movq	%rdx, %rcx
	movq	%rax, -56(%rbp)
	callq	_ZN68_$LT$$RF$$u27$a$u20$mut$u20$T$u20$as$u20$core..ops..deref..Deref$GT$5deref17h1222be5803b425fbE
.Ltmp183:
	movq	%rax, -64(%rbp)
	jmp	.LBB27_1
.Ltmp187:
.LBB27_1:
.Ltmp184:
	xorl	%eax, %eax
	movl	%eax, %r8d
	leaq	-32(%rbp), %rcx
	movq	-64(%rbp), %rdx
	callq	_ZN66_$LT$std..collections..hash..table..RawTable$LT$K$C$$u20$V$GT$$GT$13raw_bucket_at17h86b384cb27162049E
.Ltmp185:
	jmp	.LBB27_2
.Ltmp188:
.LBB27_2:
	.cv_loc	30 1 360 0
	movq	-40(%rbp), %rax
	.cv_loc	30 1 358 0
	movq	-32(%rbp), %rcx
	movq	-48(%rbp), %rdx
	movq	%rcx, (%rdx)
	movq	-24(%rbp), %rcx
	movq	%rcx, 8(%rdx)
	movq	-16(%rbp), %rcx
	movq	%rcx, 16(%rdx)
	movq	%rax, 24(%rdx)
	.cv_loc	30 1 362 0
	movq	-56(%rbp), %rax
	addq	$96, %rsp
	popq	%rbp
.Ltmp189:
	retq
	.seh_handlerdata
	.long	($cppxdata$_ZN73_$LT$std..collections..hash..table..Bucket$LT$K$C$$u20$V$C$$u20$M$GT$$GT$5first17h77289135b0b047f2E)@IMGREL
	.section	.text,"xr",one_only,_ZN73_$LT$std..collections..hash..table..Bucket$LT$K$C$$u20$V$C$$u20$M$GT$$GT$5first17h77289135b0b047f2E
.Lcfi212:
	.seh_endproc
	.def	 "?dtor$3@?0?_ZN73_$LT$std..collections..hash..table..Bucket$LT$K$C$$u20$V$C$$u20$M$GT$$GT$5first17h77289135b0b047f2E@4HA";
	.scl	3;
	.type	32;
	.endef
	.p2align	4, 0x90
"?dtor$3@?0?_ZN73_$LT$std..collections..hash..table..Bucket$LT$K$C$$u20$V$C$$u20$M$GT$$GT$5first17h77289135b0b047f2E@4HA":
.Lcfi213:
.seh_proc "?dtor$3@?0?_ZN73_$LT$std..collections..hash..table..Bucket$LT$K$C$$u20$V$C$$u20$M$GT$$GT$5first17h77289135b0b047f2E@4HA"
.LBB27_3:
	movq	%rdx, 16(%rsp)
	pushq	%rbp
.Lcfi214:
	.seh_pushreg 5
	subq	$32, %rsp
.Lcfi215:
	.seh_stackalloc 32
	leaq	96(%rdx), %rbp
.Lcfi216:
	.seh_endprologue
	.cv_loc	30 1 357 0
	addq	$32, %rsp
	popq	%rbp
	retq
.Ltmp190:
.Lfunc_end27:
	.seh_handlerdata
	.section	.text,"xr",one_only,_ZN73_$LT$std..collections..hash..table..Bucket$LT$K$C$$u20$V$C$$u20$M$GT$$GT$5first17h77289135b0b047f2E
.Lcfi217:
	.seh_endproc
	.section	.xdata,"dr",associative,_ZN73_$LT$std..collections..hash..table..Bucket$LT$K$C$$u20$V$C$$u20$M$GT$$GT$5first17h77289135b0b047f2E
	.p2align	2
$cppxdata$_ZN73_$LT$std..collections..hash..table..Bucket$LT$K$C$$u20$V$C$$u20$M$GT$$GT$5first17h77289135b0b047f2E:
	.long	429065506
	.long	1
	.long	($stateUnwindMap$_ZN73_$LT$std..collections..hash..table..Bucket$LT$K$C$$u20$V$C$$u20$M$GT$$GT$5first17h77289135b0b047f2E)@IMGREL
	.long	0
	.long	0
	.long	3
	.long	($ip2state$_ZN73_$LT$std..collections..hash..table..Bucket$LT$K$C$$u20$V$C$$u20$M$GT$$GT$5first17h77289135b0b047f2E)@IMGREL
	.long	88
	.long	0
	.long	1
$stateUnwindMap$_ZN73_$LT$std..collections..hash..table..Bucket$LT$K$C$$u20$V$C$$u20$M$GT$$GT$5first17h77289135b0b047f2E:
	.long	-1
	.long	"?dtor$3@?0?_ZN73_$LT$std..collections..hash..table..Bucket$LT$K$C$$u20$V$C$$u20$M$GT$$GT$5first17h77289135b0b047f2E@4HA"@IMGREL
$ip2state$_ZN73_$LT$std..collections..hash..table..Bucket$LT$K$C$$u20$V$C$$u20$M$GT$$GT$5first17h77289135b0b047f2E:
	.long	.Lfunc_begin27@IMGREL
	.long	-1
	.long	.Ltmp182@IMGREL+1
	.long	0
	.long	.Ltmp185@IMGREL+1
	.long	-1
	.section	.text,"xr",one_only,_ZN73_$LT$std..collections..hash..table..Bucket$LT$K$C$$u20$V$C$$u20$M$GT$$GT$5first17h77289135b0b047f2E

	.def	 _ZN73_$LT$std..collections..hash..table..Bucket$LT$K$C$$u20$V$C$$u20$M$GT$$GT$5index17h91b07e122ac833faE;
	.scl	2;
	.type	32;
	.endef
	.section	.text,"xr",one_only,_ZN73_$LT$std..collections..hash..table..Bucket$LT$K$C$$u20$V$C$$u20$M$GT$$GT$5index17h91b07e122ac833faE
	.globl	_ZN73_$LT$std..collections..hash..table..Bucket$LT$K$C$$u20$V$C$$u20$M$GT$$GT$5index17h91b07e122ac833faE
	.p2align	4, 0x90
_ZN73_$LT$std..collections..hash..table..Bucket$LT$K$C$$u20$V$C$$u20$M$GT$$GT$5index17h91b07e122ac833faE:
.Lfunc_begin28:
	.cv_func_id 31
	.cv_loc	31 1 284 0
.Lcfi218:
.seh_proc _ZN73_$LT$std..collections..hash..table..Bucket$LT$K$C$$u20$V$C$$u20$M$GT$$GT$5index17h91b07e122ac833faE
	pushq	%rbp
.Lcfi219:
	.seh_pushreg 5
	pushq	%rax
.Lcfi220:
	.seh_stackalloc 8
	movq	%rsp, %rbp
.Lcfi221:
	.seh_setframe 5, 0
.Lcfi222:
	.seh_endprologue
	movq	%rcx, (%rbp)
.Ltmp191:
	.cv_loc	31 1 285 0
	movq	(%rbp), %rcx
	movq	16(%rcx), %rax
	.cv_loc	31 1 286 0
	addq	$8, %rsp
	popq	%rbp
	retq
.Ltmp192:
.Lfunc_end28:
	.seh_handlerdata
	.section	.text,"xr",one_only,_ZN73_$LT$std..collections..hash..table..Bucket$LT$K$C$$u20$V$C$$u20$M$GT$$GT$5index17h91b07e122ac833faE
.Lcfi223:
	.seh_endproc

	.def	 _ZN73_$LT$std..collections..hash..table..Bucket$LT$K$C$$u20$V$C$$u20$M$GT$$GT$8at_index17h7f9e9d530074ddc1E;
	.scl	3;
	.type	32;
	.endef
	.section	.text,"xr",one_only,_ZN73_$LT$std..collections..hash..table..Bucket$LT$K$C$$u20$V$C$$u20$M$GT$$GT$8at_index17h7f9e9d530074ddc1E
	.p2align	4, 0x90
_ZN73_$LT$std..collections..hash..table..Bucket$LT$K$C$$u20$V$C$$u20$M$GT$$GT$8at_index17h7f9e9d530074ddc1E:
.Lfunc_begin29:
	.cv_func_id 32
	.cv_loc	32 1 345 0
.Lcfi224:
.seh_proc _ZN73_$LT$std..collections..hash..table..Bucket$LT$K$C$$u20$V$C$$u20$M$GT$$GT$8at_index17h7f9e9d530074ddc1E
	.seh_handler __CxxFrameHandler3, @unwind, @except
	pushq	%rbp
.Lcfi225:
	.seh_pushreg 5
	subq	$128, %rsp
.Lcfi226:
	.seh_stackalloc 128
	leaq	128(%rsp), %rbp
.Lcfi227:
	.seh_setframe 5, 128
.Lcfi228:
	.seh_endprologue
	movq	$-2, -8(%rbp)
	movq	%rcx, %rax
	movq	%rdx, -56(%rbp)
	movq	%r8, -48(%rbp)
.Ltmp199:
	.cv_loc	32 1 350 0
	movq	-48(%rbp), %rdx
.Ltmp193:
	leaq	-56(%rbp), %r8
	movq	%rcx, -64(%rbp)
	movq	%r8, %rcx
	movq	%rax, -72(%rbp)
	movq	%rdx, -80(%rbp)
	callq	_ZN60_$LT$$RF$$u27$a$u20$T$u20$as$u20$core..ops..deref..Deref$GT$5deref17h631e8b36ec28d214E
.Ltmp194:
	movq	%rax, -88(%rbp)
	jmp	.LBB29_1
.Ltmp200:
.LBB29_1:
	movq	-88(%rbp), %rax
	movq	(%rax), %rcx
	movq	-80(%rbp), %rdx
	andq	%rcx, %rdx
	movq	%rdx, -40(%rbp)
.Ltmp201:
	.cv_loc	32 1 352 0
.Ltmp195:
	leaq	-56(%rbp), %rcx
	callq	_ZN60_$LT$$RF$$u27$a$u20$T$u20$as$u20$core..ops..deref..Deref$GT$5deref17h631e8b36ec28d214E
.Ltmp196:
	movq	%rax, -96(%rbp)
	jmp	.LBB29_2
.Ltmp202:
.LBB29_2:
	movq	-40(%rbp), %r8
.Ltmp197:
	leaq	-32(%rbp), %rcx
	movq	-96(%rbp), %rdx
	callq	_ZN66_$LT$std..collections..hash..table..RawTable$LT$K$C$$u20$V$GT$$GT$13raw_bucket_at17h86b384cb27162049E
.Ltmp198:
	jmp	.LBB29_3
.Ltmp203:
.LBB29_3:
	.cv_loc	32 1 353 0
	movq	-56(%rbp), %rax
	.cv_loc	32 1 351 0
	movq	-32(%rbp), %rcx
	movq	-64(%rbp), %rdx
	movq	%rcx, (%rdx)
	movq	-24(%rbp), %rcx
	movq	%rcx, 8(%rdx)
	movq	-16(%rbp), %rcx
	movq	%rcx, 16(%rdx)
	movq	%rax, 24(%rdx)
.Ltmp204:
	.cv_loc	32 1 355 0
	movq	-72(%rbp), %rax
	addq	$128, %rsp
	popq	%rbp
.Ltmp205:
	retq
	.seh_handlerdata
	.long	($cppxdata$_ZN73_$LT$std..collections..hash..table..Bucket$LT$K$C$$u20$V$C$$u20$M$GT$$GT$8at_index17h7f9e9d530074ddc1E)@IMGREL
	.section	.text,"xr",one_only,_ZN73_$LT$std..collections..hash..table..Bucket$LT$K$C$$u20$V$C$$u20$M$GT$$GT$8at_index17h7f9e9d530074ddc1E
.Lcfi229:
	.seh_endproc
	.def	 "?dtor$4@?0?_ZN73_$LT$std..collections..hash..table..Bucket$LT$K$C$$u20$V$C$$u20$M$GT$$GT$8at_index17h7f9e9d530074ddc1E@4HA";
	.scl	3;
	.type	32;
	.endef
	.p2align	4, 0x90
"?dtor$4@?0?_ZN73_$LT$std..collections..hash..table..Bucket$LT$K$C$$u20$V$C$$u20$M$GT$$GT$8at_index17h7f9e9d530074ddc1E@4HA":
.Lcfi230:
.seh_proc "?dtor$4@?0?_ZN73_$LT$std..collections..hash..table..Bucket$LT$K$C$$u20$V$C$$u20$M$GT$$GT$8at_index17h7f9e9d530074ddc1E@4HA"
.LBB29_4:
	movq	%rdx, 16(%rsp)
	pushq	%rbp
.Lcfi231:
	.seh_pushreg 5
	subq	$32, %rsp
.Lcfi232:
	.seh_stackalloc 32
	leaq	128(%rdx), %rbp
.Lcfi233:
	.seh_endprologue
	.cv_loc	32 1 345 0
	addq	$32, %rsp
	popq	%rbp
	retq
.Ltmp206:
.Lfunc_end29:
	.seh_handlerdata
	.section	.text,"xr",one_only,_ZN73_$LT$std..collections..hash..table..Bucket$LT$K$C$$u20$V$C$$u20$M$GT$$GT$8at_index17h7f9e9d530074ddc1E
.Lcfi234:
	.seh_endproc
	.section	.xdata,"dr",associative,_ZN73_$LT$std..collections..hash..table..Bucket$LT$K$C$$u20$V$C$$u20$M$GT$$GT$8at_index17h7f9e9d530074ddc1E
	.p2align	2
$cppxdata$_ZN73_$LT$std..collections..hash..table..Bucket$LT$K$C$$u20$V$C$$u20$M$GT$$GT$8at_index17h7f9e9d530074ddc1E:
	.long	429065506
	.long	1
	.long	($stateUnwindMap$_ZN73_$LT$std..collections..hash..table..Bucket$LT$K$C$$u20$V$C$$u20$M$GT$$GT$8at_index17h7f9e9d530074ddc1E)@IMGREL
	.long	0
	.long	0
	.long	3
	.long	($ip2state$_ZN73_$LT$std..collections..hash..table..Bucket$LT$K$C$$u20$V$C$$u20$M$GT$$GT$8at_index17h7f9e9d530074ddc1E)@IMGREL
	.long	120
	.long	0
	.long	1
$stateUnwindMap$_ZN73_$LT$std..collections..hash..table..Bucket$LT$K$C$$u20$V$C$$u20$M$GT$$GT$8at_index17h7f9e9d530074ddc1E:
	.long	-1
	.long	"?dtor$4@?0?_ZN73_$LT$std..collections..hash..table..Bucket$LT$K$C$$u20$V$C$$u20$M$GT$$GT$8at_index17h7f9e9d530074ddc1E@4HA"@IMGREL
$ip2state$_ZN73_$LT$std..collections..hash..table..Bucket$LT$K$C$$u20$V$C$$u20$M$GT$$GT$8at_index17h7f9e9d530074ddc1E:
	.long	.Lfunc_begin29@IMGREL
	.long	-1
	.long	.Ltmp193@IMGREL+1
	.long	0
	.long	.Ltmp198@IMGREL+1
	.long	-1
	.section	.text,"xr",one_only,_ZN73_$LT$std..collections..hash..table..Bucket$LT$K$C$$u20$V$C$$u20$M$GT$$GT$8at_index17h7f9e9d530074ddc1E

	.def	 _ZN73_$LT$std..collections..hash..table..Bucket$LT$K$C$$u20$V$C$$u20$M$GT$$GT$8at_index17hdf1962604c1a7c0bE;
	.scl	3;
	.type	32;
	.endef
	.section	.text,"xr",one_only,_ZN73_$LT$std..collections..hash..table..Bucket$LT$K$C$$u20$V$C$$u20$M$GT$$GT$8at_index17hdf1962604c1a7c0bE
	.p2align	4, 0x90
_ZN73_$LT$std..collections..hash..table..Bucket$LT$K$C$$u20$V$C$$u20$M$GT$$GT$8at_index17hdf1962604c1a7c0bE:
.Lfunc_begin30:
	.cv_func_id 33
	.cv_loc	33 1 345 0
.Lcfi235:
.seh_proc _ZN73_$LT$std..collections..hash..table..Bucket$LT$K$C$$u20$V$C$$u20$M$GT$$GT$8at_index17hdf1962604c1a7c0bE
	.seh_handler __CxxFrameHandler3, @unwind, @except
	pushq	%rbp
.Lcfi236:
	.seh_pushreg 5
	subq	$128, %rsp
.Lcfi237:
	.seh_stackalloc 128
	leaq	128(%rsp), %rbp
.Lcfi238:
	.seh_setframe 5, 128
.Lcfi239:
	.seh_endprologue
	movq	$-2, -8(%rbp)
	movq	%rcx, %rax
	movq	%rdx, -56(%rbp)
	movq	%r8, -48(%rbp)
.Ltmp213:
	.cv_loc	33 1 350 0
	movq	-48(%rbp), %rdx
.Ltmp207:
	leaq	-56(%rbp), %r8
	movq	%rcx, -64(%rbp)
	movq	%r8, %rcx
	movq	%rax, -72(%rbp)
	movq	%rdx, -80(%rbp)
	callq	_ZN68_$LT$$RF$$u27$a$u20$mut$u20$T$u20$as$u20$core..ops..deref..Deref$GT$5deref17h1222be5803b425fbE
.Ltmp208:
	movq	%rax, -88(%rbp)
	jmp	.LBB30_1
.Ltmp214:
.LBB30_1:
	movq	-88(%rbp), %rax
	movq	(%rax), %rcx
	movq	-80(%rbp), %rdx
	andq	%rcx, %rdx
	movq	%rdx, -40(%rbp)
.Ltmp215:
	.cv_loc	33 1 352 0
.Ltmp209:
	leaq	-56(%rbp), %rcx
	callq	_ZN68_$LT$$RF$$u27$a$u20$mut$u20$T$u20$as$u20$core..ops..deref..Deref$GT$5deref17h1222be5803b425fbE
.Ltmp210:
	movq	%rax, -96(%rbp)
	jmp	.LBB30_2
.Ltmp216:
.LBB30_2:
	movq	-40(%rbp), %r8
.Ltmp211:
	leaq	-32(%rbp), %rcx
	movq	-96(%rbp), %rdx
	callq	_ZN66_$LT$std..collections..hash..table..RawTable$LT$K$C$$u20$V$GT$$GT$13raw_bucket_at17h86b384cb27162049E
.Ltmp212:
	jmp	.LBB30_3
.Ltmp217:
.LBB30_3:
	.cv_loc	33 1 353 0
	movq	-56(%rbp), %rax
	.cv_loc	33 1 351 0
	movq	-32(%rbp), %rcx
	movq	-64(%rbp), %rdx
	movq	%rcx, (%rdx)
	movq	-24(%rbp), %rcx
	movq	%rcx, 8(%rdx)
	movq	-16(%rbp), %rcx
	movq	%rcx, 16(%rdx)
	movq	%rax, 24(%rdx)
.Ltmp218:
	.cv_loc	33 1 355 0
	movq	-72(%rbp), %rax
	addq	$128, %rsp
	popq	%rbp
.Ltmp219:
	retq
	.seh_handlerdata
	.long	($cppxdata$_ZN73_$LT$std..collections..hash..table..Bucket$LT$K$C$$u20$V$C$$u20$M$GT$$GT$8at_index17hdf1962604c1a7c0bE)@IMGREL
	.section	.text,"xr",one_only,_ZN73_$LT$std..collections..hash..table..Bucket$LT$K$C$$u20$V$C$$u20$M$GT$$GT$8at_index17hdf1962604c1a7c0bE
.Lcfi240:
	.seh_endproc
	.def	 "?dtor$4@?0?_ZN73_$LT$std..collections..hash..table..Bucket$LT$K$C$$u20$V$C$$u20$M$GT$$GT$8at_index17hdf1962604c1a7c0bE@4HA";
	.scl	3;
	.type	32;
	.endef
	.p2align	4, 0x90
"?dtor$4@?0?_ZN73_$LT$std..collections..hash..table..Bucket$LT$K$C$$u20$V$C$$u20$M$GT$$GT$8at_index17hdf1962604c1a7c0bE@4HA":
.Lcfi241:
.seh_proc "?dtor$4@?0?_ZN73_$LT$std..collections..hash..table..Bucket$LT$K$C$$u20$V$C$$u20$M$GT$$GT$8at_index17hdf1962604c1a7c0bE@4HA"
.LBB30_4:
	movq	%rdx, 16(%rsp)
	pushq	%rbp
.Lcfi242:
	.seh_pushreg 5
	subq	$32, %rsp
.Lcfi243:
	.seh_stackalloc 32
	leaq	128(%rdx), %rbp
.Lcfi244:
	.seh_endprologue
	.cv_loc	33 1 345 0
	addq	$32, %rsp
	popq	%rbp
	retq
.Ltmp220:
.Lfunc_end30:
	.seh_handlerdata
	.section	.text,"xr",one_only,_ZN73_$LT$std..collections..hash..table..Bucket$LT$K$C$$u20$V$C$$u20$M$GT$$GT$8at_index17hdf1962604c1a7c0bE
.Lcfi245:
	.seh_endproc
	.section	.xdata,"dr",associative,_ZN73_$LT$std..collections..hash..table..Bucket$LT$K$C$$u20$V$C$$u20$M$GT$$GT$8at_index17hdf1962604c1a7c0bE
	.p2align	2
$cppxdata$_ZN73_$LT$std..collections..hash..table..Bucket$LT$K$C$$u20$V$C$$u20$M$GT$$GT$8at_index17hdf1962604c1a7c0bE:
	.long	429065506
	.long	1
	.long	($stateUnwindMap$_ZN73_$LT$std..collections..hash..table..Bucket$LT$K$C$$u20$V$C$$u20$M$GT$$GT$8at_index17hdf1962604c1a7c0bE)@IMGREL
	.long	0
	.long	0
	.long	3
	.long	($ip2state$_ZN73_$LT$std..collections..hash..table..Bucket$LT$K$C$$u20$V$C$$u20$M$GT$$GT$8at_index17hdf1962604c1a7c0bE)@IMGREL
	.long	120
	.long	0
	.long	1
$stateUnwindMap$_ZN73_$LT$std..collections..hash..table..Bucket$LT$K$C$$u20$V$C$$u20$M$GT$$GT$8at_index17hdf1962604c1a7c0bE:
	.long	-1
	.long	"?dtor$4@?0?_ZN73_$LT$std..collections..hash..table..Bucket$LT$K$C$$u20$V$C$$u20$M$GT$$GT$8at_index17hdf1962604c1a7c0bE@4HA"@IMGREL
$ip2state$_ZN73_$LT$std..collections..hash..table..Bucket$LT$K$C$$u20$V$C$$u20$M$GT$$GT$8at_index17hdf1962604c1a7c0bE:
	.long	.Lfunc_begin30@IMGREL
	.long	-1
	.long	.Ltmp207@IMGREL+1
	.long	0
	.long	.Ltmp212@IMGREL+1
	.long	-1
	.section	.text,"xr",one_only,_ZN73_$LT$std..collections..hash..table..Bucket$LT$K$C$$u20$V$C$$u20$M$GT$$GT$8at_index17hdf1962604c1a7c0bE

	.def	 _ZN77_$LT$std..collections..hash..table..FullBucket$LT$K$C$$u20$V$C$$u20$M$GT$$GT$10into_table17h40fd98ddf8cf4734E;
	.scl	2;
	.type	32;
	.endef
	.section	.text,"xr",one_only,_ZN77_$LT$std..collections..hash..table..FullBucket$LT$K$C$$u20$V$C$$u20$M$GT$$GT$10into_table17h40fd98ddf8cf4734E
	.globl	_ZN77_$LT$std..collections..hash..table..FullBucket$LT$K$C$$u20$V$C$$u20$M$GT$$GT$10into_table17h40fd98ddf8cf4734E
	.p2align	4, 0x90
_ZN77_$LT$std..collections..hash..table..FullBucket$LT$K$C$$u20$V$C$$u20$M$GT$$GT$10into_table17h40fd98ddf8cf4734E:
.Lfunc_begin31:
	.cv_func_id 34
	.cv_loc	34 1 258 0
.Lcfi246:
.seh_proc _ZN77_$LT$std..collections..hash..table..FullBucket$LT$K$C$$u20$V$C$$u20$M$GT$$GT$10into_table17h40fd98ddf8cf4734E
	pushq	%rbp
.Lcfi247:
	.seh_pushreg 5
	subq	$32, %rsp
.Lcfi248:
	.seh_stackalloc 32
	leaq	32(%rsp), %rbp
.Lcfi249:
	.seh_setframe 5, 32
.Lcfi250:
	.seh_endprologue
	movq	%rcx, %rax
.Ltmp221:
	.cv_loc	34 1 259 0
	movq	24(%rdx), %r8
	movq	%r8, -32(%rbp)
	movq	32(%rdx), %r8
	movq	%r8, -24(%rbp)
	movq	40(%rdx), %r8
	movq	%r8, -16(%rbp)
	movq	48(%rdx), %rdx
.Ltmp222:
	movq	%rdx, -8(%rbp)
	movq	-32(%rbp), %rdx
	movq	%rdx, (%rcx)
	movq	-24(%rbp), %rdx
	movq	%rdx, 8(%rcx)
	movq	-16(%rbp), %rdx
	movq	%rdx, 16(%rcx)
	movq	-8(%rbp), %rdx
	movq	%rdx, 24(%rcx)
	.cv_loc	34 1 260 0
	addq	$32, %rsp
	popq	%rbp
	retq
.Ltmp223:
.Lfunc_end31:
	.seh_handlerdata
	.section	.text,"xr",one_only,_ZN77_$LT$std..collections..hash..table..FullBucket$LT$K$C$$u20$V$C$$u20$M$GT$$GT$10into_table17h40fd98ddf8cf4734E
.Lcfi251:
	.seh_endproc

	.def	 _ZN77_$LT$std..collections..hash..table..FullBucket$LT$K$C$$u20$V$C$$u20$M$GT$$GT$11into_bucket17h0e5064cba5aed4adE;
	.scl	3;
	.type	32;
	.endef
	.section	.text,"xr",one_only,_ZN77_$LT$std..collections..hash..table..FullBucket$LT$K$C$$u20$V$C$$u20$M$GT$$GT$11into_bucket17h0e5064cba5aed4adE
	.p2align	4, 0x90
_ZN77_$LT$std..collections..hash..table..FullBucket$LT$K$C$$u20$V$C$$u20$M$GT$$GT$11into_bucket17h0e5064cba5aed4adE:
.Lfunc_begin32:
	.cv_func_id 35
	.cv_loc	35 1 513 0
.Lcfi252:
.seh_proc _ZN77_$LT$std..collections..hash..table..FullBucket$LT$K$C$$u20$V$C$$u20$M$GT$$GT$11into_bucket17h0e5064cba5aed4adE
	pushq	%rbp
.Lcfi253:
	.seh_pushreg 5
	subq	$56, %rsp
.Lcfi254:
	.seh_stackalloc 56
	leaq	48(%rsp), %rbp
.Lcfi255:
	.seh_setframe 5, 48
.Lcfi256:
	.seh_endprologue
	movq	%rcx, %rax
.Ltmp224:
	.cv_loc	35 1 515 0
	movq	(%rdx), %r8
	movq	%r8, -48(%rbp)
	movq	8(%rdx), %r8
	movq	%r8, -40(%rbp)
	movq	16(%rdx), %r8
	movq	%r8, -32(%rbp)
	.cv_loc	35 1 516 0
	movq	24(%rdx), %r8
	movq	%r8, -24(%rbp)
	movq	32(%rdx), %r8
	movq	%r8, -16(%rbp)
	movq	40(%rdx), %r8
	movq	%r8, -8(%rbp)
	movq	48(%rdx), %rdx
.Ltmp225:
	movq	%rdx, (%rbp)
	.cv_loc	35 1 514 0
	movq	-48(%rbp), %rdx
	movq	%rdx, (%rcx)
	movq	-40(%rbp), %rdx
	movq	%rdx, 8(%rcx)
	movq	-32(%rbp), %rdx
	movq	%rdx, 16(%rcx)
	movq	-24(%rbp), %rdx
	movq	%rdx, 24(%rcx)
	movq	-16(%rbp), %rdx
	movq	%rdx, 32(%rcx)
	movq	-8(%rbp), %rdx
	movq	%rdx, 40(%rcx)
	movq	(%rbp), %rdx
	movq	%rdx, 48(%rcx)
	.cv_loc	35 1 518 0
	addq	$56, %rsp
	popq	%rbp
	retq
.Ltmp226:
.Lfunc_end32:
	.seh_handlerdata
	.section	.text,"xr",one_only,_ZN77_$LT$std..collections..hash..table..FullBucket$LT$K$C$$u20$V$C$$u20$M$GT$$GT$11into_bucket17h0e5064cba5aed4adE
.Lcfi257:
	.seh_endproc

	.def	 _ZN77_$LT$std..collections..hash..table..FullBucket$LT$K$C$$u20$V$C$$u20$M$GT$$GT$11into_bucket17h127e9755584d2125E;
	.scl	3;
	.type	32;
	.endef
	.section	.text,"xr",one_only,_ZN77_$LT$std..collections..hash..table..FullBucket$LT$K$C$$u20$V$C$$u20$M$GT$$GT$11into_bucket17h127e9755584d2125E
	.p2align	4, 0x90
_ZN77_$LT$std..collections..hash..table..FullBucket$LT$K$C$$u20$V$C$$u20$M$GT$$GT$11into_bucket17h127e9755584d2125E:
.Lfunc_begin33:
	.cv_func_id 36
	.cv_loc	36 1 513 0
.Lcfi258:
.seh_proc _ZN77_$LT$std..collections..hash..table..FullBucket$LT$K$C$$u20$V$C$$u20$M$GT$$GT$11into_bucket17h127e9755584d2125E
	pushq	%rbp
.Lcfi259:
	.seh_pushreg 5
	subq	$24, %rsp
.Lcfi260:
	.seh_stackalloc 24
	leaq	16(%rsp), %rbp
.Lcfi261:
	.seh_setframe 5, 16
.Lcfi262:
	.seh_endprologue
	movq	%rcx, %rax
.Ltmp227:
	.cv_loc	36 1 515 0
	movq	(%rdx), %r8
	movq	%r8, -16(%rbp)
	movq	8(%rdx), %r8
	movq	%r8, -8(%rbp)
	movq	16(%rdx), %r8
	movq	%r8, (%rbp)
	.cv_loc	36 1 516 0
	movq	24(%rdx), %rdx
.Ltmp228:
	.cv_loc	36 1 514 0
	movq	-16(%rbp), %r8
	movq	%r8, (%rcx)
	movq	-8(%rbp), %r8
	movq	%r8, 8(%rcx)
	movq	(%rbp), %r8
	movq	%r8, 16(%rcx)
	movq	%rdx, 24(%rcx)
	.cv_loc	36 1 518 0
	addq	$24, %rsp
	popq	%rbp
	retq
.Ltmp229:
.Lfunc_end33:
	.seh_handlerdata
	.section	.text,"xr",one_only,_ZN77_$LT$std..collections..hash..table..FullBucket$LT$K$C$$u20$V$C$$u20$M$GT$$GT$11into_bucket17h127e9755584d2125E
.Lcfi263:
	.seh_endproc

	.def	 _ZN77_$LT$std..collections..hash..table..FullBucket$LT$K$C$$u20$V$C$$u20$M$GT$$GT$11into_bucket17h5c95ad361474a578E;
	.scl	2;
	.type	32;
	.endef
	.section	.text,"xr",one_only,_ZN77_$LT$std..collections..hash..table..FullBucket$LT$K$C$$u20$V$C$$u20$M$GT$$GT$11into_bucket17h5c95ad361474a578E
	.globl	_ZN77_$LT$std..collections..hash..table..FullBucket$LT$K$C$$u20$V$C$$u20$M$GT$$GT$11into_bucket17h5c95ad361474a578E
	.p2align	4, 0x90
_ZN77_$LT$std..collections..hash..table..FullBucket$LT$K$C$$u20$V$C$$u20$M$GT$$GT$11into_bucket17h5c95ad361474a578E:
.Lfunc_begin34:
	.cv_func_id 37
	.cv_loc	37 1 513 0
.Lcfi264:
.seh_proc _ZN77_$LT$std..collections..hash..table..FullBucket$LT$K$C$$u20$V$C$$u20$M$GT$$GT$11into_bucket17h5c95ad361474a578E
	pushq	%rbp
.Lcfi265:
	.seh_pushreg 5
	subq	$24, %rsp
.Lcfi266:
	.seh_stackalloc 24
	leaq	16(%rsp), %rbp
.Lcfi267:
	.seh_setframe 5, 16
.Lcfi268:
	.seh_endprologue
	movq	%rcx, %rax
.Ltmp230:
	.cv_loc	37 1 515 0
	movq	(%rdx), %r8
	movq	%r8, -16(%rbp)
	movq	8(%rdx), %r8
	movq	%r8, -8(%rbp)
	movq	16(%rdx), %r8
	movq	%r8, (%rbp)
	.cv_loc	37 1 516 0
	movq	24(%rdx), %rdx
.Ltmp231:
	.cv_loc	37 1 514 0
	movq	-16(%rbp), %r8
	movq	%r8, (%rcx)
	movq	-8(%rbp), %r8
	movq	%r8, 8(%rcx)
	movq	(%rbp), %r8
	movq	%r8, 16(%rcx)
	movq	%rdx, 24(%rcx)
	.cv_loc	37 1 518 0
	addq	$24, %rsp
	popq	%rbp
	retq
.Ltmp232:
.Lfunc_end34:
	.seh_handlerdata
	.section	.text,"xr",one_only,_ZN77_$LT$std..collections..hash..table..FullBucket$LT$K$C$$u20$V$C$$u20$M$GT$$GT$11into_bucket17h5c95ad361474a578E
.Lcfi269:
	.seh_endproc

	.def	 _ZN77_$LT$std..collections..hash..table..FullBucket$LT$K$C$$u20$V$C$$u20$M$GT$$GT$12displacement17h92146762f2c0ef19E;
	.scl	2;
	.type	32;
	.endef
	.section	.text,"xr",one_only,_ZN77_$LT$std..collections..hash..table..FullBucket$LT$K$C$$u20$V$C$$u20$M$GT$$GT$12displacement17h92146762f2c0ef19E
	.globl	_ZN77_$LT$std..collections..hash..table..FullBucket$LT$K$C$$u20$V$C$$u20$M$GT$$GT$12displacement17h92146762f2c0ef19E
	.p2align	4, 0x90
_ZN77_$LT$std..collections..hash..table..FullBucket$LT$K$C$$u20$V$C$$u20$M$GT$$GT$12displacement17h92146762f2c0ef19E:
.Lfunc_begin35:
	.cv_func_id 38
	.cv_loc	38 1 534 0
.Lcfi270:
.seh_proc _ZN77_$LT$std..collections..hash..table..FullBucket$LT$K$C$$u20$V$C$$u20$M$GT$$GT$12displacement17h92146762f2c0ef19E
	pushq	%rbp
.Lcfi271:
	.seh_pushreg 5
	subq	$96, %rsp
.Lcfi272:
	.seh_stackalloc 96
	leaq	96(%rsp), %rbp
.Lcfi273:
	.seh_setframe 5, 96
.Lcfi274:
	.seh_endprologue
	movq	%rcx, -24(%rbp)
.Ltmp233:
	.cv_loc	38 1 538 0
	movq	-24(%rbp), %rcx
	movq	16(%rcx), %rcx
	movq	-24(%rbp), %rax
	movq	%rcx, -32(%rbp)
	movq	%rax, %rcx
	callq	_ZN77_$LT$std..collections..hash..table..FullBucket$LT$K$C$$u20$V$C$$u20$M$GT$$GT$4hash17hb65c324c71e1c7f3E
	movq	%rax, -16(%rbp)
	leaq	-16(%rbp), %rax
	movq	%rax, -8(%rbp)
.Ltmp234:
	.cv_inline_site_id 39 within 38 inlined_at 1 538 0
	.cv_loc	39 1 191 0
	movq	-8(%rbp), %rax
	movq	(%rax), %rdx
	movq	%rdx, -40(%rbp)
.Ltmp235:
	.cv_loc	38 1 538 0
	movq	-32(%rbp), %rcx
	movq	-40(%rbp), %rdx
	callq	_ZN4core3num23_$LT$impl$u20$usize$GT$12wrapping_sub17hcdbad80dcddfbfa4E
	movq	%rax, -48(%rbp)
	movq	-24(%rbp), %rax
	addq	$24, %rax
	movq	%rax, %rcx
	callq	_ZN68_$LT$$RF$$u27$a$u20$mut$u20$T$u20$as$u20$core..ops..deref..Deref$GT$5deref17h1222be5803b425fbE
	movq	%rax, -56(%rbp)
	movq	-48(%rbp), %rax
	movq	-56(%rbp), %rcx
	andq	(%rcx), %rax
	.cv_loc	38 1 539 0
	addq	$96, %rsp
	popq	%rbp
	retq
.Ltmp236:
.Lfunc_end35:
	.seh_handlerdata
	.section	.text,"xr",one_only,_ZN77_$LT$std..collections..hash..table..FullBucket$LT$K$C$$u20$V$C$$u20$M$GT$$GT$12displacement17h92146762f2c0ef19E
.Lcfi275:
	.seh_endproc

	.def	 _ZN77_$LT$std..collections..hash..table..FullBucket$LT$K$C$$u20$V$C$$u20$M$GT$$GT$12displacement17h94190e77b773f9d4E;
	.scl	2;
	.type	32;
	.endef
	.section	.text,"xr",one_only,_ZN77_$LT$std..collections..hash..table..FullBucket$LT$K$C$$u20$V$C$$u20$M$GT$$GT$12displacement17h94190e77b773f9d4E
	.globl	_ZN77_$LT$std..collections..hash..table..FullBucket$LT$K$C$$u20$V$C$$u20$M$GT$$GT$12displacement17h94190e77b773f9d4E
	.p2align	4, 0x90
_ZN77_$LT$std..collections..hash..table..FullBucket$LT$K$C$$u20$V$C$$u20$M$GT$$GT$12displacement17h94190e77b773f9d4E:
.Lfunc_begin36:
	.cv_func_id 40
	.cv_loc	40 1 534 0
.Lcfi276:
.seh_proc _ZN77_$LT$std..collections..hash..table..FullBucket$LT$K$C$$u20$V$C$$u20$M$GT$$GT$12displacement17h94190e77b773f9d4E
	pushq	%rbp
.Lcfi277:
	.seh_pushreg 5
	subq	$96, %rsp
.Lcfi278:
	.seh_stackalloc 96
	leaq	96(%rsp), %rbp
.Lcfi279:
	.seh_setframe 5, 96
.Lcfi280:
	.seh_endprologue
	movq	%rcx, -24(%rbp)
.Ltmp237:
	.cv_loc	40 1 538 0
	movq	-24(%rbp), %rcx
	movq	16(%rcx), %rcx
	movq	-24(%rbp), %rax
	movq	%rcx, -32(%rbp)
	movq	%rax, %rcx
	callq	_ZN77_$LT$std..collections..hash..table..FullBucket$LT$K$C$$u20$V$C$$u20$M$GT$$GT$4hash17h338edd354fc85a08E
	movq	%rax, -16(%rbp)
	leaq	-16(%rbp), %rax
	movq	%rax, -8(%rbp)
.Ltmp238:
	.cv_inline_site_id 41 within 40 inlined_at 1 538 0
	.cv_loc	41 1 191 0
	movq	-8(%rbp), %rax
	movq	(%rax), %rdx
	movq	%rdx, -40(%rbp)
.Ltmp239:
	.cv_loc	40 1 538 0
	movq	-32(%rbp), %rcx
	movq	-40(%rbp), %rdx
	callq	_ZN4core3num23_$LT$impl$u20$usize$GT$12wrapping_sub17hcdbad80dcddfbfa4E
	movq	%rax, -48(%rbp)
	movq	-24(%rbp), %rax
	addq	$24, %rax
	movq	%rax, %rcx
	callq	_ZN112_$LT$std..collections..hash..table..FullBucket$LT$K$C$$u20$V$C$$u20$M$GT$$u20$as$u20$core..ops..deref..Deref$GT$5deref17h9694ce54fdca90f3E
	movq	%rax, -56(%rbp)
	movq	-48(%rbp), %rax
	movq	-56(%rbp), %rcx
	andq	(%rcx), %rax
	.cv_loc	40 1 539 0
	addq	$96, %rsp
	popq	%rbp
	retq
.Ltmp240:
.Lfunc_end36:
	.seh_handlerdata
	.section	.text,"xr",one_only,_ZN77_$LT$std..collections..hash..table..FullBucket$LT$K$C$$u20$V$C$$u20$M$GT$$GT$12displacement17h94190e77b773f9d4E
.Lcfi281:
	.seh_endproc

	.def	 _ZN77_$LT$std..collections..hash..table..FullBucket$LT$K$C$$u20$V$C$$u20$M$GT$$GT$12displacement17ha2bea1a4674ecbdfE;
	.scl	2;
	.type	32;
	.endef
	.section	.text,"xr",one_only,_ZN77_$LT$std..collections..hash..table..FullBucket$LT$K$C$$u20$V$C$$u20$M$GT$$GT$12displacement17ha2bea1a4674ecbdfE
	.globl	_ZN77_$LT$std..collections..hash..table..FullBucket$LT$K$C$$u20$V$C$$u20$M$GT$$GT$12displacement17ha2bea1a4674ecbdfE
	.p2align	4, 0x90
_ZN77_$LT$std..collections..hash..table..FullBucket$LT$K$C$$u20$V$C$$u20$M$GT$$GT$12displacement17ha2bea1a4674ecbdfE:
.Lfunc_begin37:
	.cv_func_id 42
	.cv_loc	42 1 534 0
.Lcfi282:
.seh_proc _ZN77_$LT$std..collections..hash..table..FullBucket$LT$K$C$$u20$V$C$$u20$M$GT$$GT$12displacement17ha2bea1a4674ecbdfE
	pushq	%rbp
.Lcfi283:
	.seh_pushreg 5
	subq	$96, %rsp
.Lcfi284:
	.seh_stackalloc 96
	leaq	96(%rsp), %rbp
.Lcfi285:
	.seh_setframe 5, 96
.Lcfi286:
	.seh_endprologue
	movq	%rcx, -24(%rbp)
.Ltmp241:
	.cv_loc	42 1 538 0
	movq	-24(%rbp), %rcx
	movq	16(%rcx), %rcx
	movq	-24(%rbp), %rax
	movq	%rcx, -32(%rbp)
	movq	%rax, %rcx
	callq	_ZN77_$LT$std..collections..hash..table..FullBucket$LT$K$C$$u20$V$C$$u20$M$GT$$GT$4hash17h5ff12acb1a46bfabE
	movq	%rax, -16(%rbp)
	leaq	-16(%rbp), %rax
	movq	%rax, -8(%rbp)
.Ltmp242:
	.cv_inline_site_id 43 within 42 inlined_at 1 538 0
	.cv_loc	43 1 191 0
	movq	-8(%rbp), %rax
	movq	(%rax), %rdx
	movq	%rdx, -40(%rbp)
.Ltmp243:
	.cv_loc	42 1 538 0
	movq	-32(%rbp), %rcx
	movq	-40(%rbp), %rdx
	callq	_ZN4core3num23_$LT$impl$u20$usize$GT$12wrapping_sub17hcdbad80dcddfbfa4E
	movq	%rax, -48(%rbp)
	movq	-24(%rbp), %rax
	addq	$24, %rax
	movq	%rax, %rcx
	callq	_ZN60_$LT$$RF$$u27$a$u20$T$u20$as$u20$core..ops..deref..Deref$GT$5deref17h631e8b36ec28d214E
	movq	%rax, -56(%rbp)
	movq	-48(%rbp), %rax
	movq	-56(%rbp), %rcx
	andq	(%rcx), %rax
	.cv_loc	42 1 539 0
	addq	$96, %rsp
	popq	%rbp
	retq
.Ltmp244:
.Lfunc_end37:
	.seh_handlerdata
	.section	.text,"xr",one_only,_ZN77_$LT$std..collections..hash..table..FullBucket$LT$K$C$$u20$V$C$$u20$M$GT$$GT$12displacement17ha2bea1a4674ecbdfE
.Lcfi287:
	.seh_endproc

	.def	 _ZN77_$LT$std..collections..hash..table..FullBucket$LT$K$C$$u20$V$C$$u20$M$GT$$GT$13into_mut_refs17h87889cb9843cf5c8E;
	.scl	2;
	.type	32;
	.endef
	.section	.text,"xr",one_only,_ZN77_$LT$std..collections..hash..table..FullBucket$LT$K$C$$u20$V$C$$u20$M$GT$$GT$13into_mut_refs17h87889cb9843cf5c8E
	.globl	_ZN77_$LT$std..collections..hash..table..FullBucket$LT$K$C$$u20$V$C$$u20$M$GT$$GT$13into_mut_refs17h87889cb9843cf5c8E
	.p2align	4, 0x90
_ZN77_$LT$std..collections..hash..table..FullBucket$LT$K$C$$u20$V$C$$u20$M$GT$$GT$13into_mut_refs17h87889cb9843cf5c8E:
.Lfunc_begin38:
	.cv_func_id 44
	.cv_loc	44 1 638 0
.Lcfi288:
.seh_proc _ZN77_$LT$std..collections..hash..table..FullBucket$LT$K$C$$u20$V$C$$u20$M$GT$$GT$13into_mut_refs17h87889cb9843cf5c8E
	.seh_handler __CxxFrameHandler3, @unwind, @except
	pushq	%rbp
.Lcfi289:
	.seh_pushreg 5
.Ltmp247:
	subq	$80, %rsp
.Lcfi290:
	.seh_stackalloc 80
	leaq	80(%rsp), %rbp
.Lcfi291:
	.seh_setframe 5, 80
.Lcfi292:
	.seh_endprologue
	.cv_loc	44 1 640 0
	movq	$-2, -8(%rbp)
.Ltmp245:
	callq	_ZN67_$LT$std..collections..hash..table..RawBucket$LT$K$C$$u20$V$GT$$GT$4pair17hf189d80471132fc1E
.Ltmp248:
.Ltmp246:
	movq	%rax, -40(%rbp)
	jmp	.LBB38_1
.LBB38_1:
	movq	-40(%rbp), %rax
	movq	%rax, -16(%rbp)
.Ltmp249:
	.cv_loc	44 1 641 0
	movq	-16(%rbp), %rcx
	movq	%rcx, %rdx
	addq	$4, %rdx
	movq	%rcx, -32(%rbp)
	movq	%rdx, -24(%rbp)
.Ltmp250:
	.cv_loc	44 1 643 0
	movq	-32(%rbp), %rax
	movq	-24(%rbp), %rdx
	addq	$80, %rsp
	popq	%rbp
	retq
	.seh_handlerdata
	.long	($cppxdata$_ZN77_$LT$std..collections..hash..table..FullBucket$LT$K$C$$u20$V$C$$u20$M$GT$$GT$13into_mut_refs17h87889cb9843cf5c8E)@IMGREL
	.section	.text,"xr",one_only,_ZN77_$LT$std..collections..hash..table..FullBucket$LT$K$C$$u20$V$C$$u20$M$GT$$GT$13into_mut_refs17h87889cb9843cf5c8E
.Lcfi293:
	.seh_endproc
	.def	 "?dtor$2@?0?_ZN77_$LT$std..collections..hash..table..FullBucket$LT$K$C$$u20$V$C$$u20$M$GT$$GT$13into_mut_refs17h87889cb9843cf5c8E@4HA";
	.scl	3;
	.type	32;
	.endef
	.p2align	4, 0x90
"?dtor$2@?0?_ZN77_$LT$std..collections..hash..table..FullBucket$LT$K$C$$u20$V$C$$u20$M$GT$$GT$13into_mut_refs17h87889cb9843cf5c8E@4HA":
.Lcfi294:
.seh_proc "?dtor$2@?0?_ZN77_$LT$std..collections..hash..table..FullBucket$LT$K$C$$u20$V$C$$u20$M$GT$$GT$13into_mut_refs17h87889cb9843cf5c8E@4HA"
.LBB38_2:
	movq	%rdx, 16(%rsp)
	pushq	%rbp
.Lcfi295:
	.seh_pushreg 5
	subq	$32, %rsp
.Lcfi296:
	.seh_stackalloc 32
	leaq	80(%rdx), %rbp
.Lcfi297:
	.seh_endprologue
	.cv_loc	44 1 638 0
	addq	$32, %rsp
	popq	%rbp
	retq
.Ltmp251:
.Lfunc_end38:
	.seh_handlerdata
	.section	.text,"xr",one_only,_ZN77_$LT$std..collections..hash..table..FullBucket$LT$K$C$$u20$V$C$$u20$M$GT$$GT$13into_mut_refs17h87889cb9843cf5c8E
.Lcfi298:
	.seh_endproc
	.section	.xdata,"dr",associative,_ZN77_$LT$std..collections..hash..table..FullBucket$LT$K$C$$u20$V$C$$u20$M$GT$$GT$13into_mut_refs17h87889cb9843cf5c8E
	.p2align	2
$cppxdata$_ZN77_$LT$std..collections..hash..table..FullBucket$LT$K$C$$u20$V$C$$u20$M$GT$$GT$13into_mut_refs17h87889cb9843cf5c8E:
	.long	429065506
	.long	1
	.long	($stateUnwindMap$_ZN77_$LT$std..collections..hash..table..FullBucket$LT$K$C$$u20$V$C$$u20$M$GT$$GT$13into_mut_refs17h87889cb9843cf5c8E)@IMGREL
	.long	0
	.long	0
	.long	3
	.long	($ip2state$_ZN77_$LT$std..collections..hash..table..FullBucket$LT$K$C$$u20$V$C$$u20$M$GT$$GT$13into_mut_refs17h87889cb9843cf5c8E)@IMGREL
	.long	72
	.long	0
	.long	1
$stateUnwindMap$_ZN77_$LT$std..collections..hash..table..FullBucket$LT$K$C$$u20$V$C$$u20$M$GT$$GT$13into_mut_refs17h87889cb9843cf5c8E:
	.long	-1
	.long	"?dtor$2@?0?_ZN77_$LT$std..collections..hash..table..FullBucket$LT$K$C$$u20$V$C$$u20$M$GT$$GT$13into_mut_refs17h87889cb9843cf5c8E@4HA"@IMGREL
$ip2state$_ZN77_$LT$std..collections..hash..table..FullBucket$LT$K$C$$u20$V$C$$u20$M$GT$$GT$13into_mut_refs17h87889cb9843cf5c8E:
	.long	.Lfunc_begin38@IMGREL
	.long	-1
	.long	.Ltmp245@IMGREL+1
	.long	0
	.long	.Ltmp246@IMGREL+1
	.long	-1
	.section	.text,"xr",one_only,_ZN77_$LT$std..collections..hash..table..FullBucket$LT$K$C$$u20$V$C$$u20$M$GT$$GT$13into_mut_refs17h87889cb9843cf5c8E

	.def	 _ZN77_$LT$std..collections..hash..table..FullBucket$LT$K$C$$u20$V$C$$u20$M$GT$$GT$4hash17h338edd354fc85a08E;
	.scl	3;
	.type	32;
	.endef
	.section	.text,"xr",one_only,_ZN77_$LT$std..collections..hash..table..FullBucket$LT$K$C$$u20$V$C$$u20$M$GT$$GT$4hash17h338edd354fc85a08E
	.p2align	4, 0x90
_ZN77_$LT$std..collections..hash..table..FullBucket$LT$K$C$$u20$V$C$$u20$M$GT$$GT$4hash17h338edd354fc85a08E:
.Lfunc_begin39:
	.cv_func_id 45
	.cv_loc	45 1 542 0
.Lcfi299:
.seh_proc _ZN77_$LT$std..collections..hash..table..FullBucket$LT$K$C$$u20$V$C$$u20$M$GT$$GT$4hash17h338edd354fc85a08E
	pushq	%rbp
.Lcfi300:
	.seh_pushreg 5
	subq	$64, %rsp
.Lcfi301:
	.seh_stackalloc 64
	leaq	64(%rsp), %rbp
.Lcfi302:
	.seh_setframe 5, 64
.Lcfi303:
	.seh_endprologue
	movq	%rcx, -16(%rbp)
.Ltmp252:
	.cv_loc	45 1 543 0
	movq	-16(%rbp), %rcx
	callq	_ZN67_$LT$std..collections..hash..table..RawBucket$LT$K$C$$u20$V$GT$$GT$4hash17h98fac13dbff89709E
	movq	%rax, -24(%rbp)
	movq	-24(%rbp), %rax
	movq	(%rax), %rcx
	movq	%rcx, -8(%rbp)
.Ltmp253:
	.cv_loc	45 1 544 0
	movq	-8(%rbp), %rax
	addq	$64, %rsp
	popq	%rbp
	retq
.Ltmp254:
.Lfunc_end39:
	.seh_handlerdata
	.section	.text,"xr",one_only,_ZN77_$LT$std..collections..hash..table..FullBucket$LT$K$C$$u20$V$C$$u20$M$GT$$GT$4hash17h338edd354fc85a08E
.Lcfi304:
	.seh_endproc

	.def	 _ZN77_$LT$std..collections..hash..table..FullBucket$LT$K$C$$u20$V$C$$u20$M$GT$$GT$4hash17h5ff12acb1a46bfabE;
	.scl	2;
	.type	32;
	.endef
	.section	.text,"xr",one_only,_ZN77_$LT$std..collections..hash..table..FullBucket$LT$K$C$$u20$V$C$$u20$M$GT$$GT$4hash17h5ff12acb1a46bfabE
	.globl	_ZN77_$LT$std..collections..hash..table..FullBucket$LT$K$C$$u20$V$C$$u20$M$GT$$GT$4hash17h5ff12acb1a46bfabE
	.p2align	4, 0x90
_ZN77_$LT$std..collections..hash..table..FullBucket$LT$K$C$$u20$V$C$$u20$M$GT$$GT$4hash17h5ff12acb1a46bfabE:
.Lfunc_begin40:
	.cv_func_id 46
	.cv_loc	46 1 542 0
.Lcfi305:
.seh_proc _ZN77_$LT$std..collections..hash..table..FullBucket$LT$K$C$$u20$V$C$$u20$M$GT$$GT$4hash17h5ff12acb1a46bfabE
	pushq	%rbp
.Lcfi306:
	.seh_pushreg 5
	subq	$64, %rsp
.Lcfi307:
	.seh_stackalloc 64
	leaq	64(%rsp), %rbp
.Lcfi308:
	.seh_setframe 5, 64
.Lcfi309:
	.seh_endprologue
	movq	%rcx, -16(%rbp)
.Ltmp255:
	.cv_loc	46 1 543 0
	movq	-16(%rbp), %rcx
	callq	_ZN67_$LT$std..collections..hash..table..RawBucket$LT$K$C$$u20$V$GT$$GT$4hash17h98fac13dbff89709E
	movq	%rax, -24(%rbp)
	movq	-24(%rbp), %rax
	movq	(%rax), %rcx
	movq	%rcx, -8(%rbp)
.Ltmp256:
	.cv_loc	46 1 544 0
	movq	-8(%rbp), %rax
	addq	$64, %rsp
	popq	%rbp
	retq
.Ltmp257:
.Lfunc_end40:
	.seh_handlerdata
	.section	.text,"xr",one_only,_ZN77_$LT$std..collections..hash..table..FullBucket$LT$K$C$$u20$V$C$$u20$M$GT$$GT$4hash17h5ff12acb1a46bfabE
.Lcfi310:
	.seh_endproc

	.def	 _ZN77_$LT$std..collections..hash..table..FullBucket$LT$K$C$$u20$V$C$$u20$M$GT$$GT$4hash17hb65c324c71e1c7f3E;
	.scl	2;
	.type	32;
	.endef
	.section	.text,"xr",one_only,_ZN77_$LT$std..collections..hash..table..FullBucket$LT$K$C$$u20$V$C$$u20$M$GT$$GT$4hash17hb65c324c71e1c7f3E
	.globl	_ZN77_$LT$std..collections..hash..table..FullBucket$LT$K$C$$u20$V$C$$u20$M$GT$$GT$4hash17hb65c324c71e1c7f3E
	.p2align	4, 0x90
_ZN77_$LT$std..collections..hash..table..FullBucket$LT$K$C$$u20$V$C$$u20$M$GT$$GT$4hash17hb65c324c71e1c7f3E:
.Lfunc_begin41:
	.cv_func_id 47
	.cv_loc	47 1 542 0
.Lcfi311:
.seh_proc _ZN77_$LT$std..collections..hash..table..FullBucket$LT$K$C$$u20$V$C$$u20$M$GT$$GT$4hash17hb65c324c71e1c7f3E
	pushq	%rbp
.Lcfi312:
	.seh_pushreg 5
	subq	$64, %rsp
.Lcfi313:
	.seh_stackalloc 64
	leaq	64(%rsp), %rbp
.Lcfi314:
	.seh_setframe 5, 64
.Lcfi315:
	.seh_endprologue
	movq	%rcx, -16(%rbp)
.Ltmp258:
	.cv_loc	47 1 543 0
	movq	-16(%rbp), %rcx
	callq	_ZN67_$LT$std..collections..hash..table..RawBucket$LT$K$C$$u20$V$GT$$GT$4hash17h98fac13dbff89709E
	movq	%rax, -24(%rbp)
	movq	-24(%rbp), %rax
	movq	(%rax), %rcx
	movq	%rcx, -8(%rbp)
.Ltmp259:
	.cv_loc	47 1 544 0
	movq	-8(%rbp), %rax
	addq	$64, %rsp
	popq	%rbp
	retq
.Ltmp260:
.Lfunc_end41:
	.seh_handlerdata
	.section	.text,"xr",one_only,_ZN77_$LT$std..collections..hash..table..FullBucket$LT$K$C$$u20$V$C$$u20$M$GT$$GT$4hash17hb65c324c71e1c7f3E
.Lcfi316:
	.seh_endproc

	.def	 _ZN77_$LT$std..collections..hash..table..FullBucket$LT$K$C$$u20$V$C$$u20$M$GT$$GT$4next17ha7685f06be2f15b9E;
	.scl	2;
	.type	32;
	.endef
	.section	.text,"xr",one_only,_ZN77_$LT$std..collections..hash..table..FullBucket$LT$K$C$$u20$V$C$$u20$M$GT$$GT$4next17ha7685f06be2f15b9E
	.globl	_ZN77_$LT$std..collections..hash..table..FullBucket$LT$K$C$$u20$V$C$$u20$M$GT$$GT$4next17ha7685f06be2f15b9E
	.p2align	4, 0x90
_ZN77_$LT$std..collections..hash..table..FullBucket$LT$K$C$$u20$V$C$$u20$M$GT$$GT$4next17ha7685f06be2f15b9E:
.Lfunc_begin42:
	.cv_func_id 48
	.cv_loc	48 1 506 0
.Lcfi317:
.seh_proc _ZN77_$LT$std..collections..hash..table..FullBucket$LT$K$C$$u20$V$C$$u20$M$GT$$GT$4next17ha7685f06be2f15b9E
	.seh_handler __CxxFrameHandler3, @unwind, @except
	pushq	%rbp
.Lcfi318:
	.seh_pushreg 5
	subq	$272, %rsp
.Lcfi319:
	.seh_stackalloc 272
	leaq	128(%rsp), %rbp
.Lcfi320:
	.seh_setframe 5, 128
.Lcfi321:
	.seh_endprologue
	movq	$-2, 136(%rbp)
	movq	%rcx, %rax
.Ltmp263:
	.cv_loc	48 1 507 0
	movq	48(%rdx), %r8
	movq	%r8, 64(%rbp)
	movups	(%rdx), %xmm0
	movups	16(%rdx), %xmm1
	movups	32(%rdx), %xmm2
	movaps	%xmm2, 48(%rbp)
	movaps	%xmm1, 32(%rbp)
	movaps	%xmm0, 16(%rbp)
	leaq	-40(%rbp), %rdx
.Ltmp264:
	leaq	16(%rbp), %r8
	movq	%rcx, -48(%rbp)
	movq	%rdx, %rcx
	movq	%rdx, -56(%rbp)
	movq	%r8, %rdx
	movq	%rax, -64(%rbp)
	callq	_ZN77_$LT$std..collections..hash..table..FullBucket$LT$K$C$$u20$V$C$$u20$M$GT$$GT$11into_bucket17h0e5064cba5aed4adE
.Ltmp265:
	.cv_loc	48 1 508 0
.Ltmp261:
	movq	-56(%rbp), %rcx
	callq	_ZN73_$LT$std..collections..hash..table..Bucket$LT$K$C$$u20$V$C$$u20$M$GT$$GT$4next17hc12989584804e2c2E
.Ltmp262:
	jmp	.LBB42_1
.LBB42_1:
	movl	$56, %eax
	movl	%eax, %ecx
	leaq	80(%rbp), %rdx
	leaq	-40(%rbp), %r8
	.cv_loc	48 1 509 0
	movq	%rdx, %r9
	movq	%rcx, -72(%rbp)
	movq	%r9, %rcx
	movq	%rdx, -80(%rbp)
	movq	%r8, %rdx
	movq	-72(%rbp), %r8
	callq	memcpy
	movq	-80(%rbp), %rcx
	movq	-48(%rbp), %rdx
	movq	%rcx, -88(%rbp)
	movq	%rdx, %rcx
	movq	-88(%rbp), %rdx
	movq	-72(%rbp), %r8
	callq	memcpy
.Ltmp266:
	.cv_loc	48 1 510 0
	movq	-64(%rbp), %rax
	addq	$272, %rsp
	popq	%rbp
	retq
	.seh_handlerdata
	.long	($cppxdata$_ZN77_$LT$std..collections..hash..table..FullBucket$LT$K$C$$u20$V$C$$u20$M$GT$$GT$4next17ha7685f06be2f15b9E)@IMGREL
	.section	.text,"xr",one_only,_ZN77_$LT$std..collections..hash..table..FullBucket$LT$K$C$$u20$V$C$$u20$M$GT$$GT$4next17ha7685f06be2f15b9E
.Lcfi322:
	.seh_endproc
	.def	 "?dtor$2@?0?_ZN77_$LT$std..collections..hash..table..FullBucket$LT$K$C$$u20$V$C$$u20$M$GT$$GT$4next17ha7685f06be2f15b9E@4HA";
	.scl	3;
	.type	32;
	.endef
	.p2align	4, 0x90
"?dtor$2@?0?_ZN77_$LT$std..collections..hash..table..FullBucket$LT$K$C$$u20$V$C$$u20$M$GT$$GT$4next17ha7685f06be2f15b9E@4HA":
.Lcfi323:
.seh_proc "?dtor$2@?0?_ZN77_$LT$std..collections..hash..table..FullBucket$LT$K$C$$u20$V$C$$u20$M$GT$$GT$4next17ha7685f06be2f15b9E@4HA"
.LBB42_2:
	movq	%rdx, 16(%rsp)
	pushq	%rbp
.Lcfi324:
	.seh_pushreg 5
	subq	$32, %rsp
.Lcfi325:
	.seh_stackalloc 32
	leaq	128(%rdx), %rbp
.Lcfi326:
	.seh_endprologue
	.cv_loc	48 1 506 0
	addq	$32, %rsp
	popq	%rbp
	retq
.Ltmp267:
.Lfunc_end42:
	.seh_handlerdata
	.section	.text,"xr",one_only,_ZN77_$LT$std..collections..hash..table..FullBucket$LT$K$C$$u20$V$C$$u20$M$GT$$GT$4next17ha7685f06be2f15b9E
.Lcfi327:
	.seh_endproc
	.section	.xdata,"dr",associative,_ZN77_$LT$std..collections..hash..table..FullBucket$LT$K$C$$u20$V$C$$u20$M$GT$$GT$4next17ha7685f06be2f15b9E
	.p2align	2
$cppxdata$_ZN77_$LT$std..collections..hash..table..FullBucket$LT$K$C$$u20$V$C$$u20$M$GT$$GT$4next17ha7685f06be2f15b9E:
	.long	429065506
	.long	1
	.long	($stateUnwindMap$_ZN77_$LT$std..collections..hash..table..FullBucket$LT$K$C$$u20$V$C$$u20$M$GT$$GT$4next17ha7685f06be2f15b9E)@IMGREL
	.long	0
	.long	0
	.long	3
	.long	($ip2state$_ZN77_$LT$std..collections..hash..table..FullBucket$LT$K$C$$u20$V$C$$u20$M$GT$$GT$4next17ha7685f06be2f15b9E)@IMGREL
	.long	264
	.long	0
	.long	1
$stateUnwindMap$_ZN77_$LT$std..collections..hash..table..FullBucket$LT$K$C$$u20$V$C$$u20$M$GT$$GT$4next17ha7685f06be2f15b9E:
	.long	-1
	.long	"?dtor$2@?0?_ZN77_$LT$std..collections..hash..table..FullBucket$LT$K$C$$u20$V$C$$u20$M$GT$$GT$4next17ha7685f06be2f15b9E@4HA"@IMGREL
$ip2state$_ZN77_$LT$std..collections..hash..table..FullBucket$LT$K$C$$u20$V$C$$u20$M$GT$$GT$4next17ha7685f06be2f15b9E:
	.long	.Lfunc_begin42@IMGREL
	.long	-1
	.long	.Ltmp261@IMGREL+1
	.long	0
	.long	.Ltmp262@IMGREL+1
	.long	-1
	.section	.text,"xr",one_only,_ZN77_$LT$std..collections..hash..table..FullBucket$LT$K$C$$u20$V$C$$u20$M$GT$$GT$4next17ha7685f06be2f15b9E

	.def	 _ZN77_$LT$std..collections..hash..table..FullBucket$LT$K$C$$u20$V$C$$u20$M$GT$$GT$4next17he6265f366e297300E;
	.scl	2;
	.type	32;
	.endef
	.section	.text,"xr",one_only,_ZN77_$LT$std..collections..hash..table..FullBucket$LT$K$C$$u20$V$C$$u20$M$GT$$GT$4next17he6265f366e297300E
	.globl	_ZN77_$LT$std..collections..hash..table..FullBucket$LT$K$C$$u20$V$C$$u20$M$GT$$GT$4next17he6265f366e297300E
	.p2align	4, 0x90
_ZN77_$LT$std..collections..hash..table..FullBucket$LT$K$C$$u20$V$C$$u20$M$GT$$GT$4next17he6265f366e297300E:
.Lfunc_begin43:
	.cv_func_id 49
	.cv_loc	49 1 506 0
.Lcfi328:
.seh_proc _ZN77_$LT$std..collections..hash..table..FullBucket$LT$K$C$$u20$V$C$$u20$M$GT$$GT$4next17he6265f366e297300E
	.seh_handler __CxxFrameHandler3, @unwind, @except
	pushq	%rbp
.Lcfi329:
	.seh_pushreg 5
	subq	$176, %rsp
.Lcfi330:
	.seh_stackalloc 176
	leaq	128(%rsp), %rbp
.Lcfi331:
	.seh_setframe 5, 128
.Lcfi332:
	.seh_endprologue
	movq	$-2, 40(%rbp)
	movq	%rcx, %rax
.Ltmp270:
	.cv_loc	49 1 507 0
	movups	(%rdx), %xmm0
	movups	16(%rdx), %xmm1
	movaps	%xmm1, -16(%rbp)
	movaps	%xmm0, -32(%rbp)
	leaq	-64(%rbp), %rdx
.Ltmp271:
	leaq	-32(%rbp), %r8
	movq	%rcx, -72(%rbp)
	movq	%rdx, %rcx
	movq	%rdx, -80(%rbp)
	movq	%r8, %rdx
	movq	%rax, -88(%rbp)
	callq	_ZN77_$LT$std..collections..hash..table..FullBucket$LT$K$C$$u20$V$C$$u20$M$GT$$GT$11into_bucket17h5c95ad361474a578E
.Ltmp272:
	.cv_loc	49 1 508 0
.Ltmp268:
	movq	-80(%rbp), %rcx
	callq	_ZN73_$LT$std..collections..hash..table..Bucket$LT$K$C$$u20$V$C$$u20$M$GT$$GT$4next17h13c47ff36d9a07cbE
.Ltmp269:
	jmp	.LBB43_1
.LBB43_1:
	.cv_loc	49 1 509 0
	movq	-64(%rbp), %rax
	movq	%rax, 8(%rbp)
	movq	-56(%rbp), %rax
	movq	%rax, 16(%rbp)
	movq	-48(%rbp), %rax
	movq	%rax, 24(%rbp)
	movq	-40(%rbp), %rax
	movq	%rax, 32(%rbp)
	movq	8(%rbp), %rax
	movq	-72(%rbp), %rcx
	movq	%rax, (%rcx)
	movq	16(%rbp), %rax
	movq	%rax, 8(%rcx)
	movq	24(%rbp), %rax
	movq	%rax, 16(%rcx)
	movq	32(%rbp), %rax
	movq	%rax, 24(%rcx)
.Ltmp273:
	.cv_loc	49 1 510 0
	movq	-88(%rbp), %rax
	addq	$176, %rsp
	popq	%rbp
	retq
	.seh_handlerdata
	.long	($cppxdata$_ZN77_$LT$std..collections..hash..table..FullBucket$LT$K$C$$u20$V$C$$u20$M$GT$$GT$4next17he6265f366e297300E)@IMGREL
	.section	.text,"xr",one_only,_ZN77_$LT$std..collections..hash..table..FullBucket$LT$K$C$$u20$V$C$$u20$M$GT$$GT$4next17he6265f366e297300E
.Lcfi333:
	.seh_endproc
	.def	 "?dtor$2@?0?_ZN77_$LT$std..collections..hash..table..FullBucket$LT$K$C$$u20$V$C$$u20$M$GT$$GT$4next17he6265f366e297300E@4HA";
	.scl	3;
	.type	32;
	.endef
	.p2align	4, 0x90
"?dtor$2@?0?_ZN77_$LT$std..collections..hash..table..FullBucket$LT$K$C$$u20$V$C$$u20$M$GT$$GT$4next17he6265f366e297300E@4HA":
.Lcfi334:
.seh_proc "?dtor$2@?0?_ZN77_$LT$std..collections..hash..table..FullBucket$LT$K$C$$u20$V$C$$u20$M$GT$$GT$4next17he6265f366e297300E@4HA"
.LBB43_2:
	movq	%rdx, 16(%rsp)
	pushq	%rbp
.Lcfi335:
	.seh_pushreg 5
	subq	$32, %rsp
.Lcfi336:
	.seh_stackalloc 32
	leaq	128(%rdx), %rbp
.Lcfi337:
	.seh_endprologue
	.cv_loc	49 1 506 0
	addq	$32, %rsp
	popq	%rbp
	retq
.Ltmp274:
.Lfunc_end43:
	.seh_handlerdata
	.section	.text,"xr",one_only,_ZN77_$LT$std..collections..hash..table..FullBucket$LT$K$C$$u20$V$C$$u20$M$GT$$GT$4next17he6265f366e297300E
.Lcfi338:
	.seh_endproc
	.section	.xdata,"dr",associative,_ZN77_$LT$std..collections..hash..table..FullBucket$LT$K$C$$u20$V$C$$u20$M$GT$$GT$4next17he6265f366e297300E
	.p2align	2
$cppxdata$_ZN77_$LT$std..collections..hash..table..FullBucket$LT$K$C$$u20$V$C$$u20$M$GT$$GT$4next17he6265f366e297300E:
	.long	429065506
	.long	1
	.long	($stateUnwindMap$_ZN77_$LT$std..collections..hash..table..FullBucket$LT$K$C$$u20$V$C$$u20$M$GT$$GT$4next17he6265f366e297300E)@IMGREL
	.long	0
	.long	0
	.long	3
	.long	($ip2state$_ZN77_$LT$std..collections..hash..table..FullBucket$LT$K$C$$u20$V$C$$u20$M$GT$$GT$4next17he6265f366e297300E)@IMGREL
	.long	168
	.long	0
	.long	1
$stateUnwindMap$_ZN77_$LT$std..collections..hash..table..FullBucket$LT$K$C$$u20$V$C$$u20$M$GT$$GT$4next17he6265f366e297300E:
	.long	-1
	.long	"?dtor$2@?0?_ZN77_$LT$std..collections..hash..table..FullBucket$LT$K$C$$u20$V$C$$u20$M$GT$$GT$4next17he6265f366e297300E@4HA"@IMGREL
$ip2state$_ZN77_$LT$std..collections..hash..table..FullBucket$LT$K$C$$u20$V$C$$u20$M$GT$$GT$4next17he6265f366e297300E:
	.long	.Lfunc_begin43@IMGREL
	.long	-1
	.long	.Ltmp268@IMGREL+1
	.long	0
	.long	.Ltmp269@IMGREL+1
	.long	-1
	.section	.text,"xr",one_only,_ZN77_$LT$std..collections..hash..table..FullBucket$LT$K$C$$u20$V$C$$u20$M$GT$$GT$4next17he6265f366e297300E

	.def	 _ZN77_$LT$std..collections..hash..table..FullBucket$LT$K$C$$u20$V$C$$u20$M$GT$$GT$4next17hf85bb41d9025e2c4E;
	.scl	2;
	.type	32;
	.endef
	.section	.text,"xr",one_only,_ZN77_$LT$std..collections..hash..table..FullBucket$LT$K$C$$u20$V$C$$u20$M$GT$$GT$4next17hf85bb41d9025e2c4E
	.globl	_ZN77_$LT$std..collections..hash..table..FullBucket$LT$K$C$$u20$V$C$$u20$M$GT$$GT$4next17hf85bb41d9025e2c4E
	.p2align	4, 0x90
_ZN77_$LT$std..collections..hash..table..FullBucket$LT$K$C$$u20$V$C$$u20$M$GT$$GT$4next17hf85bb41d9025e2c4E:
.Lfunc_begin44:
	.cv_func_id 50
	.cv_loc	50 1 506 0
.Lcfi339:
.seh_proc _ZN77_$LT$std..collections..hash..table..FullBucket$LT$K$C$$u20$V$C$$u20$M$GT$$GT$4next17hf85bb41d9025e2c4E
	.seh_handler __CxxFrameHandler3, @unwind, @except
	pushq	%rbp
.Lcfi340:
	.seh_pushreg 5
	subq	$176, %rsp
.Lcfi341:
	.seh_stackalloc 176
	leaq	128(%rsp), %rbp
.Lcfi342:
	.seh_setframe 5, 128
.Lcfi343:
	.seh_endprologue
	movq	$-2, 40(%rbp)
	movq	%rcx, %rax
.Ltmp277:
	.cv_loc	50 1 507 0
	movups	(%rdx), %xmm0
	movups	16(%rdx), %xmm1
	movaps	%xmm1, -16(%rbp)
	movaps	%xmm0, -32(%rbp)
	leaq	-64(%rbp), %rdx
.Ltmp278:
	leaq	-32(%rbp), %r8
	movq	%rcx, -72(%rbp)
	movq	%rdx, %rcx
	movq	%rdx, -80(%rbp)
	movq	%r8, %rdx
	movq	%rax, -88(%rbp)
	callq	_ZN77_$LT$std..collections..hash..table..FullBucket$LT$K$C$$u20$V$C$$u20$M$GT$$GT$11into_bucket17h127e9755584d2125E
.Ltmp279:
	.cv_loc	50 1 508 0
.Ltmp275:
	movq	-80(%rbp), %rcx
	callq	_ZN73_$LT$std..collections..hash..table..Bucket$LT$K$C$$u20$V$C$$u20$M$GT$$GT$4next17hdc2af9d3c5cebf3eE
.Ltmp276:
	jmp	.LBB44_1
.LBB44_1:
	.cv_loc	50 1 509 0
	movq	-64(%rbp), %rax
	movq	%rax, 8(%rbp)
	movq	-56(%rbp), %rax
	movq	%rax, 16(%rbp)
	movq	-48(%rbp), %rax
	movq	%rax, 24(%rbp)
	movq	-40(%rbp), %rax
	movq	%rax, 32(%rbp)
	movq	8(%rbp), %rax
	movq	-72(%rbp), %rcx
	movq	%rax, (%rcx)
	movq	16(%rbp), %rax
	movq	%rax, 8(%rcx)
	movq	24(%rbp), %rax
	movq	%rax, 16(%rcx)
	movq	32(%rbp), %rax
	movq	%rax, 24(%rcx)
.Ltmp280:
	.cv_loc	50 1 510 0
	movq	-88(%rbp), %rax
	addq	$176, %rsp
	popq	%rbp
	retq
	.seh_handlerdata
	.long	($cppxdata$_ZN77_$LT$std..collections..hash..table..FullBucket$LT$K$C$$u20$V$C$$u20$M$GT$$GT$4next17hf85bb41d9025e2c4E)@IMGREL
	.section	.text,"xr",one_only,_ZN77_$LT$std..collections..hash..table..FullBucket$LT$K$C$$u20$V$C$$u20$M$GT$$GT$4next17hf85bb41d9025e2c4E
.Lcfi344:
	.seh_endproc
	.def	 "?dtor$2@?0?_ZN77_$LT$std..collections..hash..table..FullBucket$LT$K$C$$u20$V$C$$u20$M$GT$$GT$4next17hf85bb41d9025e2c4E@4HA";
	.scl	3;
	.type	32;
	.endef
	.p2align	4, 0x90
"?dtor$2@?0?_ZN77_$LT$std..collections..hash..table..FullBucket$LT$K$C$$u20$V$C$$u20$M$GT$$GT$4next17hf85bb41d9025e2c4E@4HA":
.Lcfi345:
.seh_proc "?dtor$2@?0?_ZN77_$LT$std..collections..hash..table..FullBucket$LT$K$C$$u20$V$C$$u20$M$GT$$GT$4next17hf85bb41d9025e2c4E@4HA"
.LBB44_2:
	movq	%rdx, 16(%rsp)
	pushq	%rbp
.Lcfi346:
	.seh_pushreg 5
	subq	$32, %rsp
.Lcfi347:
	.seh_stackalloc 32
	leaq	128(%rdx), %rbp
.Lcfi348:
	.seh_endprologue
	.cv_loc	50 1 506 0
	addq	$32, %rsp
	popq	%rbp
	retq
.Ltmp281:
.Lfunc_end44:
	.seh_handlerdata
	.section	.text,"xr",one_only,_ZN77_$LT$std..collections..hash..table..FullBucket$LT$K$C$$u20$V$C$$u20$M$GT$$GT$4next17hf85bb41d9025e2c4E
.Lcfi349:
	.seh_endproc
	.section	.xdata,"dr",associative,_ZN77_$LT$std..collections..hash..table..FullBucket$LT$K$C$$u20$V$C$$u20$M$GT$$GT$4next17hf85bb41d9025e2c4E
	.p2align	2
$cppxdata$_ZN77_$LT$std..collections..hash..table..FullBucket$LT$K$C$$u20$V$C$$u20$M$GT$$GT$4next17hf85bb41d9025e2c4E:
	.long	429065506
	.long	1
	.long	($stateUnwindMap$_ZN77_$LT$std..collections..hash..table..FullBucket$LT$K$C$$u20$V$C$$u20$M$GT$$GT$4next17hf85bb41d9025e2c4E)@IMGREL
	.long	0
	.long	0
	.long	3
	.long	($ip2state$_ZN77_$LT$std..collections..hash..table..FullBucket$LT$K$C$$u20$V$C$$u20$M$GT$$GT$4next17hf85bb41d9025e2c4E)@IMGREL
	.long	168
	.long	0
	.long	1
$stateUnwindMap$_ZN77_$LT$std..collections..hash..table..FullBucket$LT$K$C$$u20$V$C$$u20$M$GT$$GT$4next17hf85bb41d9025e2c4E:
	.long	-1
	.long	"?dtor$2@?0?_ZN77_$LT$std..collections..hash..table..FullBucket$LT$K$C$$u20$V$C$$u20$M$GT$$GT$4next17hf85bb41d9025e2c4E@4HA"@IMGREL
$ip2state$_ZN77_$LT$std..collections..hash..table..FullBucket$LT$K$C$$u20$V$C$$u20$M$GT$$GT$4next17hf85bb41d9025e2c4E:
	.long	.Lfunc_begin44@IMGREL
	.long	-1
	.long	.Ltmp275@IMGREL+1
	.long	0
	.long	.Ltmp276@IMGREL+1
	.long	-1
	.section	.text,"xr",one_only,_ZN77_$LT$std..collections..hash..table..FullBucket$LT$K$C$$u20$V$C$$u20$M$GT$$GT$4next17hf85bb41d9025e2c4E

	.def	 _ZN77_$LT$std..collections..hash..table..FullBucket$LT$K$C$$u20$V$C$$u20$M$GT$$GT$4read17h376a0b44418693b0E;
	.scl	2;
	.type	32;
	.endef
	.section	.text,"xr",one_only,_ZN77_$LT$std..collections..hash..table..FullBucket$LT$K$C$$u20$V$C$$u20$M$GT$$GT$4read17h376a0b44418693b0E
	.globl	_ZN77_$LT$std..collections..hash..table..FullBucket$LT$K$C$$u20$V$C$$u20$M$GT$$GT$4read17h376a0b44418693b0E
	.p2align	4, 0x90
_ZN77_$LT$std..collections..hash..table..FullBucket$LT$K$C$$u20$V$C$$u20$M$GT$$GT$4read17h376a0b44418693b0E:
.Lfunc_begin45:
	.cv_func_id 51
	.cv_loc	51 1 547 0
.Lcfi350:
.seh_proc _ZN77_$LT$std..collections..hash..table..FullBucket$LT$K$C$$u20$V$C$$u20$M$GT$$GT$4read17h376a0b44418693b0E
	pushq	%rbp
.Lcfi351:
	.seh_pushreg 5
	subq	$64, %rsp
.Lcfi352:
	.seh_stackalloc 64
	leaq	64(%rsp), %rbp
.Lcfi353:
	.seh_setframe 5, 64
.Lcfi354:
	.seh_endprologue
	movq	%rcx, -32(%rbp)
.Ltmp282:
	.cv_loc	51 1 549 0
	movq	-32(%rbp), %rcx
	callq	_ZN67_$LT$std..collections..hash..table..RawBucket$LT$K$C$$u20$V$GT$$GT$4pair17hf189d80471132fc1E
	movq	%rax, -8(%rbp)
.Ltmp283:
	.cv_loc	51 1 550 0
	movq	-8(%rbp), %rax
	movq	%rax, %rcx
	addq	$4, %rcx
	movq	%rax, -24(%rbp)
	movq	%rcx, -16(%rbp)
.Ltmp284:
	.cv_loc	51 1 552 0
	movq	-24(%rbp), %rax
	movq	-16(%rbp), %rdx
	addq	$64, %rsp
	popq	%rbp
	retq
.Ltmp285:
.Lfunc_end45:
	.seh_handlerdata
	.section	.text,"xr",one_only,_ZN77_$LT$std..collections..hash..table..FullBucket$LT$K$C$$u20$V$C$$u20$M$GT$$GT$4read17h376a0b44418693b0E
.Lcfi355:
	.seh_endproc

	.def	 _ZN77_$LT$std..collections..hash..table..FullBucket$LT$K$C$$u20$V$C$$u20$M$GT$$GT$4read17h4ee38f005c205d33E;
	.scl	2;
	.type	32;
	.endef
	.section	.text,"xr",one_only,_ZN77_$LT$std..collections..hash..table..FullBucket$LT$K$C$$u20$V$C$$u20$M$GT$$GT$4read17h4ee38f005c205d33E
	.globl	_ZN77_$LT$std..collections..hash..table..FullBucket$LT$K$C$$u20$V$C$$u20$M$GT$$GT$4read17h4ee38f005c205d33E
	.p2align	4, 0x90
_ZN77_$LT$std..collections..hash..table..FullBucket$LT$K$C$$u20$V$C$$u20$M$GT$$GT$4read17h4ee38f005c205d33E:
.Lfunc_begin46:
	.cv_func_id 52
	.cv_loc	52 1 547 0
.Lcfi356:
.seh_proc _ZN77_$LT$std..collections..hash..table..FullBucket$LT$K$C$$u20$V$C$$u20$M$GT$$GT$4read17h4ee38f005c205d33E
	pushq	%rbp
.Lcfi357:
	.seh_pushreg 5
	subq	$64, %rsp
.Lcfi358:
	.seh_stackalloc 64
	leaq	64(%rsp), %rbp
.Lcfi359:
	.seh_setframe 5, 64
.Lcfi360:
	.seh_endprologue
	movq	%rcx, -32(%rbp)
.Ltmp286:
	.cv_loc	52 1 549 0
	movq	-32(%rbp), %rcx
	callq	_ZN67_$LT$std..collections..hash..table..RawBucket$LT$K$C$$u20$V$GT$$GT$4pair17hf189d80471132fc1E
	movq	%rax, -8(%rbp)
.Ltmp287:
	.cv_loc	52 1 550 0
	movq	-8(%rbp), %rax
	movq	%rax, %rcx
	addq	$4, %rcx
	movq	%rax, -24(%rbp)
	movq	%rcx, -16(%rbp)
.Ltmp288:
	.cv_loc	52 1 552 0
	movq	-24(%rbp), %rax
	movq	-16(%rbp), %rdx
	addq	$64, %rsp
	popq	%rbp
	retq
.Ltmp289:
.Lfunc_end46:
	.seh_handlerdata
	.section	.text,"xr",one_only,_ZN77_$LT$std..collections..hash..table..FullBucket$LT$K$C$$u20$V$C$$u20$M$GT$$GT$4read17h4ee38f005c205d33E
.Lcfi361:
	.seh_endproc

	.def	 _ZN77_$LT$std..collections..hash..table..FullBucket$LT$K$C$$u20$V$C$$u20$M$GT$$GT$5index17h3064344bfd381902E;
	.scl	2;
	.type	32;
	.endef
	.section	.text,"xr",one_only,_ZN77_$LT$std..collections..hash..table..FullBucket$LT$K$C$$u20$V$C$$u20$M$GT$$GT$5index17h3064344bfd381902E
	.globl	_ZN77_$LT$std..collections..hash..table..FullBucket$LT$K$C$$u20$V$C$$u20$M$GT$$GT$5index17h3064344bfd381902E
	.p2align	4, 0x90
_ZN77_$LT$std..collections..hash..table..FullBucket$LT$K$C$$u20$V$C$$u20$M$GT$$GT$5index17h3064344bfd381902E:
.Lfunc_begin47:
	.cv_func_id 53
	.cv_loc	53 1 262 0
.Lcfi362:
.seh_proc _ZN77_$LT$std..collections..hash..table..FullBucket$LT$K$C$$u20$V$C$$u20$M$GT$$GT$5index17h3064344bfd381902E
	pushq	%rbp
.Lcfi363:
	.seh_pushreg 5
	pushq	%rax
.Lcfi364:
	.seh_stackalloc 8
	movq	%rsp, %rbp
.Lcfi365:
	.seh_setframe 5, 0
.Lcfi366:
	.seh_endprologue
	movq	%rcx, (%rbp)
.Ltmp290:
	.cv_loc	53 1 263 0
	movq	(%rbp), %rcx
	movq	16(%rcx), %rax
	.cv_loc	53 1 264 0
	addq	$8, %rsp
	popq	%rbp
	retq
.Ltmp291:
.Lfunc_end47:
	.seh_handlerdata
	.section	.text,"xr",one_only,_ZN77_$LT$std..collections..hash..table..FullBucket$LT$K$C$$u20$V$C$$u20$M$GT$$GT$5index17h3064344bfd381902E
.Lcfi367:
	.seh_endproc

	.def	 _ZN77_$LT$std..collections..hash..table..FullBucket$LT$K$C$$u20$V$C$$u20$M$GT$$GT$5stash17ha0f95d62ee507a13E;
	.scl	2;
	.type	32;
	.endef
	.section	.text,"xr",one_only,_ZN77_$LT$std..collections..hash..table..FullBucket$LT$K$C$$u20$V$C$$u20$M$GT$$GT$5stash17ha0f95d62ee507a13E
	.globl	_ZN77_$LT$std..collections..hash..table..FullBucket$LT$K$C$$u20$V$C$$u20$M$GT$$GT$5stash17ha0f95d62ee507a13E
	.p2align	4, 0x90
_ZN77_$LT$std..collections..hash..table..FullBucket$LT$K$C$$u20$V$C$$u20$M$GT$$GT$5stash17ha0f95d62ee507a13E:
.Lfunc_begin48:
	.cv_func_id 54
	.cv_loc	54 1 522 0
.Lcfi368:
.seh_proc _ZN77_$LT$std..collections..hash..table..FullBucket$LT$K$C$$u20$V$C$$u20$M$GT$$GT$5stash17ha0f95d62ee507a13E
	pushq	%rbp
.Lcfi369:
	.seh_pushreg 5
	subq	$56, %rsp
.Lcfi370:
	.seh_stackalloc 56
	leaq	48(%rsp), %rbp
.Lcfi371:
	.seh_setframe 5, 48
.Lcfi372:
	.seh_endprologue
	movq	%rcx, %rax
.Ltmp292:
	.cv_loc	54 1 524 0
	movq	(%rdx), %r8
	movq	%r8, -48(%rbp)
	movq	8(%rdx), %r8
	movq	%r8, -40(%rbp)
	movq	16(%rdx), %r8
	movq	%r8, -32(%rbp)
	.cv_loc	54 1 525 0
	movq	(%rdx), %r8
	movq	%r8, -24(%rbp)
	movq	8(%rdx), %r8
	movq	%r8, -16(%rbp)
	movq	16(%rdx), %r8
	movq	%r8, -8(%rbp)
	movq	24(%rdx), %rdx
.Ltmp293:
	movq	%rdx, (%rbp)
	.cv_loc	54 1 523 0
	movq	-48(%rbp), %rdx
	movq	%rdx, (%rcx)
	movq	-40(%rbp), %rdx
	movq	%rdx, 8(%rcx)
	movq	-32(%rbp), %rdx
	movq	%rdx, 16(%rcx)
	movq	-24(%rbp), %rdx
	movq	%rdx, 24(%rcx)
	movq	-16(%rbp), %rdx
	movq	%rdx, 32(%rcx)
	movq	-8(%rbp), %rdx
	movq	%rdx, 40(%rcx)
	movq	(%rbp), %rdx
	movq	%rdx, 48(%rcx)
	.cv_loc	54 1 527 0
	addq	$56, %rsp
	popq	%rbp
	retq
.Ltmp294:
.Lfunc_end48:
	.seh_handlerdata
	.section	.text,"xr",one_only,_ZN77_$LT$std..collections..hash..table..FullBucket$LT$K$C$$u20$V$C$$u20$M$GT$$GT$5stash17ha0f95d62ee507a13E
.Lcfi373:
	.seh_endproc

	.def	 _ZN77_$LT$std..collections..hash..table..FullBucket$LT$K$C$$u20$V$C$$u20$M$GT$$GT$5table17ha3b7b6e66361b830E;
	.scl	2;
	.type	32;
	.endef
	.section	.text,"xr",one_only,_ZN77_$LT$std..collections..hash..table..FullBucket$LT$K$C$$u20$V$C$$u20$M$GT$$GT$5table17ha3b7b6e66361b830E
	.globl	_ZN77_$LT$std..collections..hash..table..FullBucket$LT$K$C$$u20$V$C$$u20$M$GT$$GT$5table17ha3b7b6e66361b830E
	.p2align	4, 0x90
_ZN77_$LT$std..collections..hash..table..FullBucket$LT$K$C$$u20$V$C$$u20$M$GT$$GT$5table17ha3b7b6e66361b830E:
.Lfunc_begin49:
	.cv_func_id 55
	.cv_loc	55 1 250 0
.Lcfi374:
.seh_proc _ZN77_$LT$std..collections..hash..table..FullBucket$LT$K$C$$u20$V$C$$u20$M$GT$$GT$5table17ha3b7b6e66361b830E
	pushq	%rbp
.Lcfi375:
	.seh_pushreg 5
	pushq	%rax
.Lcfi376:
	.seh_stackalloc 8
	movq	%rsp, %rbp
.Lcfi377:
	.seh_setframe 5, 0
.Lcfi378:
	.seh_endprologue
	movq	%rcx, (%rbp)
.Ltmp295:
	.cv_loc	55 1 251 0
	movq	(%rbp), %rcx
	addq	$24, %rcx
	.cv_loc	55 1 252 0
	movq	%rcx, %rax
	addq	$8, %rsp
	popq	%rbp
	retq
.Ltmp296:
.Lfunc_end49:
	.seh_handlerdata
	.section	.text,"xr",one_only,_ZN77_$LT$std..collections..hash..table..FullBucket$LT$K$C$$u20$V$C$$u20$M$GT$$GT$5table17ha3b7b6e66361b830E
.Lcfi379:
	.seh_endproc

	.def	 _ZN77_$LT$std..collections..hash..table..FullBucket$LT$K$C$$u20$V$C$$u20$M$GT$$GT$7replace17ha8a57240b4cf4ed9E;
	.scl	2;
	.type	32;
	.endef
	.section	.text,"xr",one_only,_ZN77_$LT$std..collections..hash..table..FullBucket$LT$K$C$$u20$V$C$$u20$M$GT$$GT$7replace17ha8a57240b4cf4ed9E
	.globl	_ZN77_$LT$std..collections..hash..table..FullBucket$LT$K$C$$u20$V$C$$u20$M$GT$$GT$7replace17ha8a57240b4cf4ed9E
	.p2align	4, 0x90
_ZN77_$LT$std..collections..hash..table..FullBucket$LT$K$C$$u20$V$C$$u20$M$GT$$GT$7replace17ha8a57240b4cf4ed9E:
.Lfunc_begin50:
	.cv_func_id 56
	.cv_loc	56 1 595 0
.Lcfi380:
.seh_proc _ZN77_$LT$std..collections..hash..table..FullBucket$LT$K$C$$u20$V$C$$u20$M$GT$$GT$7replace17ha8a57240b4cf4ed9E
	.seh_handler __CxxFrameHandler3, @unwind, @except
	pushq	%rbp
.Lcfi381:
	.seh_pushreg 5
	subq	$144, %rsp
.Lcfi382:
	.seh_stackalloc 144
	leaq	128(%rsp), %rbp
.Lcfi383:
	.seh_setframe 5, 128
.Lcfi384:
	.seh_endprologue
	movq	$-2, 8(%rbp)
	movq	%rcx, %rax
	movb	64(%rbp), %r10b
	movq	%rdx, -48(%rbp)
	movq	%r8, -40(%rbp)
	movl	%r9d, -32(%rbp)
	andb	$1, %r10b
	movb	%r10b, -25(%rbp)
.Ltmp305:
	.cv_loc	56 1 597 0
	movb	$0, 7(%rbp)
	movb	$0, 6(%rbp)
	movb	$1, 6(%rbp)
	movb	$1, 7(%rbp)
	movq	-48(%rbp), %rdx
.Ltmp297:
	movq	%rcx, -56(%rbp)
	movq	%rdx, %rcx
	movq	%rax, -64(%rbp)
	callq	_ZN67_$LT$std..collections..hash..table..RawBucket$LT$K$C$$u20$V$GT$$GT$4hash17h98fac13dbff89709E
.Ltmp298:
	movq	%rax, -72(%rbp)
	jmp	.LBB50_2
.Ltmp306:
.LBB50_2:
	movq	-40(%rbp), %rdx
.Ltmp299:
	movq	-72(%rbp), %rcx
	callq	_ZN4core3ptr7replace17hd3bbf7686cf7db04E
.Ltmp300:
	movq	%rax, -80(%rbp)
	jmp	.LBB50_4
.Ltmp307:
.LBB50_4:
	movq	-80(%rbp), %rax
	movq	%rax, -24(%rbp)
.Ltmp308:
	.cv_loc	56 1 598 0
	movq	-48(%rbp), %rcx
.Ltmp301:
	callq	_ZN67_$LT$std..collections..hash..table..RawBucket$LT$K$C$$u20$V$GT$$GT$4pair17hf189d80471132fc1E
.Ltmp302:
	movq	%rax, -88(%rbp)
	jmp	.LBB50_5
.Ltmp309:
.LBB50_5:
	movb	$0, 6(%rbp)
	movl	-32(%rbp), %eax
	movb	$0, 7(%rbp)
	movb	-25(%rbp), %cl
	movl	%eax, -8(%rbp)
	movb	%cl, -4(%rbp)
	movl	-8(%rbp), %edx
	movzbl	-4(%rbp), %r8d
.Ltmp303:
	movq	-88(%rbp), %rcx
	callq	_ZN4core3ptr7replace17h2d9a94e5fda1b09dE
.Ltmp304:
	movb	%dl, -89(%rbp)
	movl	%eax, -96(%rbp)
	jmp	.LBB50_6
.Ltmp310:
.LBB50_6:
	movl	-96(%rbp), %eax
	movl	%eax, -16(%rbp)
	movb	-89(%rbp), %cl
	andb	$1, %cl
	movb	%cl, -9(%rbp)
.Ltmp311:
	.cv_loc	56 1 600 0
	movq	-24(%rbp), %rdx
	movl	-16(%rbp), %eax
	movb	-9(%rbp), %cl
	movq	-56(%rbp), %r8
	movq	%rdx, (%r8)
	movl	%eax, 8(%r8)
	andb	$1, %cl
	movb	%cl, 12(%r8)
.Ltmp312:
	.cv_loc	56 1 602 0
	movq	-64(%rbp), %rax
	addq	$144, %rsp
	popq	%rbp
.Ltmp313:
	retq
.LBB50_1:
	.cv_loc	56 1 595 0
	addq	$32, %rsp
	popq	%rbp
	retq
.LBB50_3:
	.cv_loc	56 1 602 0
	testb	$1, 6(%rbp)
	jne	.LBB50_7
	jmp	.LBB50_1
.LBB50_7:
	movb	$0, 6(%rbp)
	jmp	.LBB50_1
.LBB50_8:
	movb	$0, 7(%rbp)
	jmp	.LBB50_3
	.seh_handlerdata
	.long	($cppxdata$_ZN77_$LT$std..collections..hash..table..FullBucket$LT$K$C$$u20$V$C$$u20$M$GT$$GT$7replace17ha8a57240b4cf4ed9E)@IMGREL
	.section	.text,"xr",one_only,_ZN77_$LT$std..collections..hash..table..FullBucket$LT$K$C$$u20$V$C$$u20$M$GT$$GT$7replace17ha8a57240b4cf4ed9E
.Lcfi385:
	.seh_endproc
	.def	 "?dtor$9@?0?_ZN77_$LT$std..collections..hash..table..FullBucket$LT$K$C$$u20$V$C$$u20$M$GT$$GT$7replace17ha8a57240b4cf4ed9E@4HA";
	.scl	3;
	.type	32;
	.endef
	.p2align	4, 0x90
"?dtor$9@?0?_ZN77_$LT$std..collections..hash..table..FullBucket$LT$K$C$$u20$V$C$$u20$M$GT$$GT$7replace17ha8a57240b4cf4ed9E@4HA":
.Lcfi386:
.seh_proc "?dtor$9@?0?_ZN77_$LT$std..collections..hash..table..FullBucket$LT$K$C$$u20$V$C$$u20$M$GT$$GT$7replace17ha8a57240b4cf4ed9E@4HA"
.LBB50_9:
	movq	%rdx, 16(%rsp)
	pushq	%rbp
.Lcfi387:
	.seh_pushreg 5
	subq	$32, %rsp
.Lcfi388:
	.seh_stackalloc 32
	leaq	128(%rdx), %rbp
.Lcfi389:
	.seh_endprologue
	testb	$1, 7(%rbp)
	jne	.LBB50_8
	jmp	.LBB50_3
.Ltmp314:
.Lfunc_end50:
	.seh_handlerdata
	.section	.text,"xr",one_only,_ZN77_$LT$std..collections..hash..table..FullBucket$LT$K$C$$u20$V$C$$u20$M$GT$$GT$7replace17ha8a57240b4cf4ed9E
.Lcfi390:
	.seh_endproc
	.section	.xdata,"dr",associative,_ZN77_$LT$std..collections..hash..table..FullBucket$LT$K$C$$u20$V$C$$u20$M$GT$$GT$7replace17ha8a57240b4cf4ed9E
	.p2align	2
$cppxdata$_ZN77_$LT$std..collections..hash..table..FullBucket$LT$K$C$$u20$V$C$$u20$M$GT$$GT$7replace17ha8a57240b4cf4ed9E:
	.long	429065506
	.long	1
	.long	($stateUnwindMap$_ZN77_$LT$std..collections..hash..table..FullBucket$LT$K$C$$u20$V$C$$u20$M$GT$$GT$7replace17ha8a57240b4cf4ed9E)@IMGREL
	.long	0
	.long	0
	.long	3
	.long	($ip2state$_ZN77_$LT$std..collections..hash..table..FullBucket$LT$K$C$$u20$V$C$$u20$M$GT$$GT$7replace17ha8a57240b4cf4ed9E)@IMGREL
	.long	136
	.long	0
	.long	1
$stateUnwindMap$_ZN77_$LT$std..collections..hash..table..FullBucket$LT$K$C$$u20$V$C$$u20$M$GT$$GT$7replace17ha8a57240b4cf4ed9E:
	.long	-1
	.long	"?dtor$9@?0?_ZN77_$LT$std..collections..hash..table..FullBucket$LT$K$C$$u20$V$C$$u20$M$GT$$GT$7replace17ha8a57240b4cf4ed9E@4HA"@IMGREL
$ip2state$_ZN77_$LT$std..collections..hash..table..FullBucket$LT$K$C$$u20$V$C$$u20$M$GT$$GT$7replace17ha8a57240b4cf4ed9E:
	.long	.Lfunc_begin50@IMGREL
	.long	-1
	.long	.Ltmp297@IMGREL+1
	.long	0
	.long	.Ltmp304@IMGREL+1
	.long	-1
	.section	.text,"xr",one_only,_ZN77_$LT$std..collections..hash..table..FullBucket$LT$K$C$$u20$V$C$$u20$M$GT$$GT$7replace17ha8a57240b4cf4ed9E

	.def	 _ZN77_$LT$std..collections..hash..table..FullBucket$LT$K$C$$u20$V$C$$u20$M$GT$$GT$8read_mut17h60712f8493f875b0E;
	.scl	2;
	.type	32;
	.endef
	.section	.text,"xr",one_only,_ZN77_$LT$std..collections..hash..table..FullBucket$LT$K$C$$u20$V$C$$u20$M$GT$$GT$8read_mut17h60712f8493f875b0E
	.globl	_ZN77_$LT$std..collections..hash..table..FullBucket$LT$K$C$$u20$V$C$$u20$M$GT$$GT$8read_mut17h60712f8493f875b0E
	.p2align	4, 0x90
_ZN77_$LT$std..collections..hash..table..FullBucket$LT$K$C$$u20$V$C$$u20$M$GT$$GT$8read_mut17h60712f8493f875b0E:
.Lfunc_begin51:
	.cv_func_id 57
	.cv_loc	57 1 609 0
.Lcfi391:
.seh_proc _ZN77_$LT$std..collections..hash..table..FullBucket$LT$K$C$$u20$V$C$$u20$M$GT$$GT$8read_mut17h60712f8493f875b0E
	pushq	%rbp
.Lcfi392:
	.seh_pushreg 5
	subq	$64, %rsp
.Lcfi393:
	.seh_stackalloc 64
	leaq	64(%rsp), %rbp
.Lcfi394:
	.seh_setframe 5, 64
.Lcfi395:
	.seh_endprologue
	movq	%rcx, -32(%rbp)
.Ltmp315:
	.cv_loc	57 1 611 0
	movq	-32(%rbp), %rcx
	callq	_ZN67_$LT$std..collections..hash..table..RawBucket$LT$K$C$$u20$V$GT$$GT$4pair17hf189d80471132fc1E
	movq	%rax, -8(%rbp)
.Ltmp316:
	.cv_loc	57 1 612 0
	movq	-8(%rbp), %rax
	movq	%rax, %rcx
	addq	$4, %rcx
	movq	%rax, -24(%rbp)
	movq	%rcx, -16(%rbp)
.Ltmp317:
	.cv_loc	57 1 614 0
	movq	-24(%rbp), %rax
	movq	-16(%rbp), %rdx
	addq	$64, %rsp
	popq	%rbp
	retq
.Ltmp318:
.Lfunc_end51:
	.seh_handlerdata
	.section	.text,"xr",one_only,_ZN77_$LT$std..collections..hash..table..FullBucket$LT$K$C$$u20$V$C$$u20$M$GT$$GT$8read_mut17h60712f8493f875b0E
.Lcfi396:
	.seh_endproc

	.def	 _ZN77_$LT$std..collections..hash..table..FullBucket$LT$K$C$$u20$V$C$$u20$M$GT$$GT$9into_refs17hf77f8bdf774de510E;
	.scl	2;
	.type	32;
	.endef
	.section	.text,"xr",one_only,_ZN77_$LT$std..collections..hash..table..FullBucket$LT$K$C$$u20$V$C$$u20$M$GT$$GT$9into_refs17hf77f8bdf774de510E
	.globl	_ZN77_$LT$std..collections..hash..table..FullBucket$LT$K$C$$u20$V$C$$u20$M$GT$$GT$9into_refs17hf77f8bdf774de510E
	.p2align	4, 0x90
_ZN77_$LT$std..collections..hash..table..FullBucket$LT$K$C$$u20$V$C$$u20$M$GT$$GT$9into_refs17hf77f8bdf774de510E:
.Lfunc_begin52:
	.cv_func_id 58
	.cv_loc	58 1 625 0
.Lcfi397:
.seh_proc _ZN77_$LT$std..collections..hash..table..FullBucket$LT$K$C$$u20$V$C$$u20$M$GT$$GT$9into_refs17hf77f8bdf774de510E
	.seh_handler __CxxFrameHandler3, @unwind, @except
	pushq	%rbp
.Lcfi398:
	.seh_pushreg 5
.Ltmp321:
	subq	$80, %rsp
.Lcfi399:
	.seh_stackalloc 80
	leaq	80(%rsp), %rbp
.Lcfi400:
	.seh_setframe 5, 80
.Lcfi401:
	.seh_endprologue
	.cv_loc	58 1 627 0
	movq	$-2, -8(%rbp)
.Ltmp319:
	callq	_ZN67_$LT$std..collections..hash..table..RawBucket$LT$K$C$$u20$V$GT$$GT$4pair17hf189d80471132fc1E
.Ltmp322:
.Ltmp320:
	movq	%rax, -40(%rbp)
	jmp	.LBB52_1
.LBB52_1:
	movq	-40(%rbp), %rax
	movq	%rax, -16(%rbp)
.Ltmp323:
	.cv_loc	58 1 628 0
	movq	-16(%rbp), %rcx
	movq	%rcx, %rdx
	addq	$4, %rdx
	movq	%rcx, -32(%rbp)
	movq	%rdx, -24(%rbp)
.Ltmp324:
	.cv_loc	58 1 630 0
	movq	-32(%rbp), %rax
	movq	-24(%rbp), %rdx
	addq	$80, %rsp
	popq	%rbp
	retq
	.seh_handlerdata
	.long	($cppxdata$_ZN77_$LT$std..collections..hash..table..FullBucket$LT$K$C$$u20$V$C$$u20$M$GT$$GT$9into_refs17hf77f8bdf774de510E)@IMGREL
	.section	.text,"xr",one_only,_ZN77_$LT$std..collections..hash..table..FullBucket$LT$K$C$$u20$V$C$$u20$M$GT$$GT$9into_refs17hf77f8bdf774de510E
.Lcfi402:
	.seh_endproc
	.def	 "?dtor$2@?0?_ZN77_$LT$std..collections..hash..table..FullBucket$LT$K$C$$u20$V$C$$u20$M$GT$$GT$9into_refs17hf77f8bdf774de510E@4HA";
	.scl	3;
	.type	32;
	.endef
	.p2align	4, 0x90
"?dtor$2@?0?_ZN77_$LT$std..collections..hash..table..FullBucket$LT$K$C$$u20$V$C$$u20$M$GT$$GT$9into_refs17hf77f8bdf774de510E@4HA":
.Lcfi403:
.seh_proc "?dtor$2@?0?_ZN77_$LT$std..collections..hash..table..FullBucket$LT$K$C$$u20$V$C$$u20$M$GT$$GT$9into_refs17hf77f8bdf774de510E@4HA"
.LBB52_2:
	movq	%rdx, 16(%rsp)
	pushq	%rbp
.Lcfi404:
	.seh_pushreg 5
	subq	$32, %rsp
.Lcfi405:
	.seh_stackalloc 32
	leaq	80(%rdx), %rbp
.Lcfi406:
	.seh_endprologue
	.cv_loc	58 1 625 0
	addq	$32, %rsp
	popq	%rbp
	retq
.Ltmp325:
.Lfunc_end52:
	.seh_handlerdata
	.section	.text,"xr",one_only,_ZN77_$LT$std..collections..hash..table..FullBucket$LT$K$C$$u20$V$C$$u20$M$GT$$GT$9into_refs17hf77f8bdf774de510E
.Lcfi407:
	.seh_endproc
	.section	.xdata,"dr",associative,_ZN77_$LT$std..collections..hash..table..FullBucket$LT$K$C$$u20$V$C$$u20$M$GT$$GT$9into_refs17hf77f8bdf774de510E
	.p2align	2
$cppxdata$_ZN77_$LT$std..collections..hash..table..FullBucket$LT$K$C$$u20$V$C$$u20$M$GT$$GT$9into_refs17hf77f8bdf774de510E:
	.long	429065506
	.long	1
	.long	($stateUnwindMap$_ZN77_$LT$std..collections..hash..table..FullBucket$LT$K$C$$u20$V$C$$u20$M$GT$$GT$9into_refs17hf77f8bdf774de510E)@IMGREL
	.long	0
	.long	0
	.long	3
	.long	($ip2state$_ZN77_$LT$std..collections..hash..table..FullBucket$LT$K$C$$u20$V$C$$u20$M$GT$$GT$9into_refs17hf77f8bdf774de510E)@IMGREL
	.long	72
	.long	0
	.long	1
$stateUnwindMap$_ZN77_$LT$std..collections..hash..table..FullBucket$LT$K$C$$u20$V$C$$u20$M$GT$$GT$9into_refs17hf77f8bdf774de510E:
	.long	-1
	.long	"?dtor$2@?0?_ZN77_$LT$std..collections..hash..table..FullBucket$LT$K$C$$u20$V$C$$u20$M$GT$$GT$9into_refs17hf77f8bdf774de510E@4HA"@IMGREL
$ip2state$_ZN77_$LT$std..collections..hash..table..FullBucket$LT$K$C$$u20$V$C$$u20$M$GT$$GT$9into_refs17hf77f8bdf774de510E:
	.long	.Lfunc_begin52@IMGREL
	.long	-1
	.long	.Ltmp319@IMGREL+1
	.long	0
	.long	.Ltmp320@IMGREL+1
	.long	-1
	.section	.text,"xr",one_only,_ZN77_$LT$std..collections..hash..table..FullBucket$LT$K$C$$u20$V$C$$u20$M$GT$$GT$9into_refs17hf77f8bdf774de510E

	.def	 _ZN77_$LT$std..collections..hash..table..FullBucket$LT$K$C$$u20$V$C$$u20$M$GT$$GT$9table_mut17hc00346f591e7230aE;
	.scl	2;
	.type	32;
	.endef
	.section	.text,"xr",one_only,_ZN77_$LT$std..collections..hash..table..FullBucket$LT$K$C$$u20$V$C$$u20$M$GT$$GT$9table_mut17hc00346f591e7230aE
	.globl	_ZN77_$LT$std..collections..hash..table..FullBucket$LT$K$C$$u20$V$C$$u20$M$GT$$GT$9table_mut17hc00346f591e7230aE
	.p2align	4, 0x90
_ZN77_$LT$std..collections..hash..table..FullBucket$LT$K$C$$u20$V$C$$u20$M$GT$$GT$9table_mut17hc00346f591e7230aE:
.Lfunc_begin53:
	.cv_func_id 59
	.cv_loc	59 1 254 0
.Lcfi408:
.seh_proc _ZN77_$LT$std..collections..hash..table..FullBucket$LT$K$C$$u20$V$C$$u20$M$GT$$GT$9table_mut17hc00346f591e7230aE
	pushq	%rbp
.Lcfi409:
	.seh_pushreg 5
	pushq	%rax
.Lcfi410:
	.seh_stackalloc 8
	movq	%rsp, %rbp
.Lcfi411:
	.seh_setframe 5, 0
.Lcfi412:
	.seh_endprologue
	movq	%rcx, (%rbp)
.Ltmp326:
	.cv_loc	59 1 255 0
	movq	(%rbp), %rcx
	addq	$24, %rcx
	.cv_loc	59 1 256 0
	movq	%rcx, %rax
	addq	$8, %rsp
	popq	%rbp
	retq
.Ltmp327:
.Lfunc_end53:
	.seh_handlerdata
	.section	.text,"xr",one_only,_ZN77_$LT$std..collections..hash..table..FullBucket$LT$K$C$$u20$V$C$$u20$M$GT$$GT$9table_mut17hc00346f591e7230aE
.Lcfi413:
	.seh_endproc

	.def	 _ZN78_$LT$std..collections..hash..table..EmptyBucket$LT$K$C$$u20$V$C$$u20$M$GT$$GT$11into_bucket17h489d34636e49b8baE;
	.scl	2;
	.type	32;
	.endef
	.section	.text,"xr",one_only,_ZN78_$LT$std..collections..hash..table..EmptyBucket$LT$K$C$$u20$V$C$$u20$M$GT$$GT$11into_bucket17h489d34636e49b8baE
	.globl	_ZN78_$LT$std..collections..hash..table..EmptyBucket$LT$K$C$$u20$V$C$$u20$M$GT$$GT$11into_bucket17h489d34636e49b8baE
	.p2align	4, 0x90
_ZN78_$LT$std..collections..hash..table..EmptyBucket$LT$K$C$$u20$V$C$$u20$M$GT$$GT$11into_bucket17h489d34636e49b8baE:
.Lfunc_begin54:
	.cv_func_id 60
	.cv_loc	60 1 439 0
.Lcfi414:
.seh_proc _ZN78_$LT$std..collections..hash..table..EmptyBucket$LT$K$C$$u20$V$C$$u20$M$GT$$GT$11into_bucket17h489d34636e49b8baE
	pushq	%rbp
.Lcfi415:
	.seh_pushreg 5
	subq	$24, %rsp
.Lcfi416:
	.seh_stackalloc 24
	leaq	16(%rsp), %rbp
.Lcfi417:
	.seh_setframe 5, 16
.Lcfi418:
	.seh_endprologue
	movq	%rcx, %rax
.Ltmp328:
	.cv_loc	60 1 441 0
	movq	(%rdx), %r8
	movq	%r8, -16(%rbp)
	movq	8(%rdx), %r8
	movq	%r8, -8(%rbp)
	movq	16(%rdx), %r8
	movq	%r8, (%rbp)
	.cv_loc	60 1 442 0
	movq	24(%rdx), %rdx
.Ltmp329:
	.cv_loc	60 1 440 0
	movq	-16(%rbp), %r8
	movq	%r8, (%rcx)
	movq	-8(%rbp), %r8
	movq	%r8, 8(%rcx)
	movq	(%rbp), %r8
	movq	%r8, 16(%rcx)
	movq	%rdx, 24(%rcx)
	.cv_loc	60 1 444 0
	addq	$24, %rsp
	popq	%rbp
	retq
.Ltmp330:
.Lfunc_end54:
	.seh_handlerdata
	.section	.text,"xr",one_only,_ZN78_$LT$std..collections..hash..table..EmptyBucket$LT$K$C$$u20$V$C$$u20$M$GT$$GT$11into_bucket17h489d34636e49b8baE
.Lcfi419:
	.seh_endproc

	.def	 _ZN78_$LT$std..collections..hash..table..EmptyBucket$LT$K$C$$u20$V$C$$u20$M$GT$$GT$3put17h27688bc2185fe164E;
	.scl	2;
	.type	32;
	.endef
	.section	.text,"xr",one_only,_ZN78_$LT$std..collections..hash..table..EmptyBucket$LT$K$C$$u20$V$C$$u20$M$GT$$GT$3put17h27688bc2185fe164E
	.globl	_ZN78_$LT$std..collections..hash..table..EmptyBucket$LT$K$C$$u20$V$C$$u20$M$GT$$GT$3put17h27688bc2185fe164E
	.p2align	4, 0x90
_ZN78_$LT$std..collections..hash..table..EmptyBucket$LT$K$C$$u20$V$C$$u20$M$GT$$GT$3put17h27688bc2185fe164E:
.Lfunc_begin55:
	.cv_func_id 61
	.cv_loc	61 1 474 0
.Lcfi420:
.seh_proc _ZN78_$LT$std..collections..hash..table..EmptyBucket$LT$K$C$$u20$V$C$$u20$M$GT$$GT$3put17h27688bc2185fe164E
	.seh_handler __CxxFrameHandler3, @unwind, @except
	pushq	%rbp
.Lcfi421:
	.seh_pushreg 5
	subq	$160, %rsp
.Lcfi422:
	.seh_stackalloc 160
	leaq	128(%rsp), %rbp
.Lcfi423:
	.seh_setframe 5, 128
.Lcfi424:
	.seh_endprologue
	movq	$-2, 24(%rbp)
	movq	%rcx, %rax
	movb	80(%rbp), %r10b
	movq	%r8, -40(%rbp)
	movl	%r9d, -32(%rbp)
	andb	$1, %r10b
	movb	%r10b, -25(%rbp)
.Ltmp339:
	.cv_loc	61 1 476 0
	movb	$0, 15(%rbp)
	movb	$0, 14(%rbp)
	movb	$1, 14(%rbp)
	movb	$1, 15(%rbp)
	leaq	-40(%rbp), %r8
	movq	%r8, 16(%rbp)
.Ltmp340:
	.cv_inline_site_id 62 within 61 inlined_at 1 476 0
	.cv_loc	62 1 191 0
	movq	16(%rbp), %r8
	movq	(%r8), %r8
.Ltmp341:
	.cv_loc	61 1 476 0
.Ltmp331:
	movq	%rcx, -48(%rbp)
	movq	%rdx, %rcx
	movq	%rdx, -56(%rbp)
.Ltmp342:
	movq	%rax, -64(%rbp)
	movq	%r8, -72(%rbp)
	callq	_ZN67_$LT$std..collections..hash..table..RawBucket$LT$K$C$$u20$V$GT$$GT$4hash17h98fac13dbff89709E
.Ltmp332:
	movq	%rax, -80(%rbp)
	jmp	.LBB55_3
.Ltmp343:
.LBB55_3:
	movq	-80(%rbp), %rax
	movq	-72(%rbp), %rcx
	movq	%rcx, (%rax)
	.cv_loc	61 1 477 0
.Ltmp333:
	movq	-56(%rbp), %rcx
	callq	_ZN67_$LT$std..collections..hash..table..RawBucket$LT$K$C$$u20$V$GT$$GT$4pair17hf189d80471132fc1E
.Ltmp334:
	movq	%rax, -88(%rbp)
	jmp	.LBB55_4
.Ltmp344:
.LBB55_4:
	movb	$0, 14(%rbp)
	movl	-32(%rbp), %eax
	movb	$0, 15(%rbp)
	movb	-25(%rbp), %cl
	movl	%eax, -24(%rbp)
	movb	%cl, -20(%rbp)
	movl	-24(%rbp), %edx
	movzbl	-20(%rbp), %r8d
.Ltmp335:
	movq	-88(%rbp), %rcx
	callq	_ZN4core3ptr5write17hd51ea6f94a0c5033E
.Ltmp336:
	jmp	.LBB55_5
.Ltmp345:
.LBB55_5:
	.cv_loc	61 1 479 0
	movq	-56(%rbp), %rax
	addq	$24, %rax
.Ltmp337:
	movq	%rax, %rcx
	callq	_ZN153_$LT$$RF$$u27$t$u20$mut$u20$std..collections..hash..table..RawTable$LT$K$C$$u20$V$GT$$u20$as$u20$std..collections..hash..table..Put$LT$K$C$$u20$V$GT$$GT$16borrow_table_mut17h92aece9be998c8deE
.Ltmp338:
	movq	%rax, -96(%rbp)
	jmp	.LBB55_6
.Ltmp346:
.LBB55_6:
	movq	-96(%rbp), %rax
	movq	8(%rax), %rcx
	addq	$1, %rcx
	movq	%rcx, 8(%rax)
.Ltmp347:
	.cv_loc	61 1 483 0
	movq	-56(%rbp), %rcx
	movq	(%rcx), %rdx
	movq	%rdx, -16(%rbp)
	movq	8(%rcx), %rdx
	movq	%rdx, -8(%rbp)
	movq	16(%rcx), %rdx
	movq	%rdx, (%rbp)
	.cv_loc	61 1 484 0
	movq	24(%rcx), %rdx
	.cv_loc	61 1 482 0
	movq	-16(%rbp), %r8
	movq	-48(%rbp), %r9
	movq	%r8, (%r9)
	movq	-8(%rbp), %r8
	movq	%r8, 8(%r9)
	movq	(%rbp), %r8
	movq	%r8, 16(%r9)
	movq	%rdx, 24(%r9)
	.cv_loc	61 1 486 0
	movq	-64(%rbp), %rax
	addq	$160, %rsp
	popq	%rbp
.Ltmp348:
	retq
.LBB55_1:
	.cv_loc	61 1 474 0
	addq	$32, %rsp
	popq	%rbp
	retq
.LBB55_2:
	.cv_loc	61 1 486 0
	testb	$1, 14(%rbp)
	jne	.LBB55_7
	jmp	.LBB55_1
.LBB55_7:
	movb	$0, 14(%rbp)
	jmp	.LBB55_1
.LBB55_8:
	movb	$0, 15(%rbp)
	jmp	.LBB55_2
	.seh_handlerdata
	.long	($cppxdata$_ZN78_$LT$std..collections..hash..table..EmptyBucket$LT$K$C$$u20$V$C$$u20$M$GT$$GT$3put17h27688bc2185fe164E)@IMGREL
	.section	.text,"xr",one_only,_ZN78_$LT$std..collections..hash..table..EmptyBucket$LT$K$C$$u20$V$C$$u20$M$GT$$GT$3put17h27688bc2185fe164E
.Lcfi425:
	.seh_endproc
	.def	 "?dtor$9@?0?_ZN78_$LT$std..collections..hash..table..EmptyBucket$LT$K$C$$u20$V$C$$u20$M$GT$$GT$3put17h27688bc2185fe164E@4HA";
	.scl	3;
	.type	32;
	.endef
	.p2align	4, 0x90
"?dtor$9@?0?_ZN78_$LT$std..collections..hash..table..EmptyBucket$LT$K$C$$u20$V$C$$u20$M$GT$$GT$3put17h27688bc2185fe164E@4HA":
.Lcfi426:
.seh_proc "?dtor$9@?0?_ZN78_$LT$std..collections..hash..table..EmptyBucket$LT$K$C$$u20$V$C$$u20$M$GT$$GT$3put17h27688bc2185fe164E@4HA"
.LBB55_9:
	movq	%rdx, 16(%rsp)
	pushq	%rbp
.Lcfi427:
	.seh_pushreg 5
	subq	$32, %rsp
.Lcfi428:
	.seh_stackalloc 32
	leaq	128(%rdx), %rbp
.Lcfi429:
	.seh_endprologue
	testb	$1, 15(%rbp)
	jne	.LBB55_8
	jmp	.LBB55_2
.Ltmp349:
.Lfunc_end55:
	.seh_handlerdata
	.section	.text,"xr",one_only,_ZN78_$LT$std..collections..hash..table..EmptyBucket$LT$K$C$$u20$V$C$$u20$M$GT$$GT$3put17h27688bc2185fe164E
.Lcfi430:
	.seh_endproc
	.section	.xdata,"dr",associative,_ZN78_$LT$std..collections..hash..table..EmptyBucket$LT$K$C$$u20$V$C$$u20$M$GT$$GT$3put17h27688bc2185fe164E
	.p2align	2
$cppxdata$_ZN78_$LT$std..collections..hash..table..EmptyBucket$LT$K$C$$u20$V$C$$u20$M$GT$$GT$3put17h27688bc2185fe164E:
	.long	429065506
	.long	1
	.long	($stateUnwindMap$_ZN78_$LT$std..collections..hash..table..EmptyBucket$LT$K$C$$u20$V$C$$u20$M$GT$$GT$3put17h27688bc2185fe164E)@IMGREL
	.long	0
	.long	0
	.long	3
	.long	($ip2state$_ZN78_$LT$std..collections..hash..table..EmptyBucket$LT$K$C$$u20$V$C$$u20$M$GT$$GT$3put17h27688bc2185fe164E)@IMGREL
	.long	152
	.long	0
	.long	1
$stateUnwindMap$_ZN78_$LT$std..collections..hash..table..EmptyBucket$LT$K$C$$u20$V$C$$u20$M$GT$$GT$3put17h27688bc2185fe164E:
	.long	-1
	.long	"?dtor$9@?0?_ZN78_$LT$std..collections..hash..table..EmptyBucket$LT$K$C$$u20$V$C$$u20$M$GT$$GT$3put17h27688bc2185fe164E@4HA"@IMGREL
$ip2state$_ZN78_$LT$std..collections..hash..table..EmptyBucket$LT$K$C$$u20$V$C$$u20$M$GT$$GT$3put17h27688bc2185fe164E:
	.long	.Lfunc_begin55@IMGREL
	.long	-1
	.long	.Ltmp331@IMGREL+1
	.long	0
	.long	.Ltmp338@IMGREL+1
	.long	-1
	.section	.text,"xr",one_only,_ZN78_$LT$std..collections..hash..table..EmptyBucket$LT$K$C$$u20$V$C$$u20$M$GT$$GT$3put17h27688bc2185fe164E

	.def	 _ZN78_$LT$std..collections..hash..table..EmptyBucket$LT$K$C$$u20$V$C$$u20$M$GT$$GT$3put17h4aa58822f14f0e83E;
	.scl	2;
	.type	32;
	.endef
	.section	.text,"xr",one_only,_ZN78_$LT$std..collections..hash..table..EmptyBucket$LT$K$C$$u20$V$C$$u20$M$GT$$GT$3put17h4aa58822f14f0e83E
	.globl	_ZN78_$LT$std..collections..hash..table..EmptyBucket$LT$K$C$$u20$V$C$$u20$M$GT$$GT$3put17h4aa58822f14f0e83E
	.p2align	4, 0x90
_ZN78_$LT$std..collections..hash..table..EmptyBucket$LT$K$C$$u20$V$C$$u20$M$GT$$GT$3put17h4aa58822f14f0e83E:
.Lfunc_begin56:
	.cv_func_id 63
	.cv_loc	63 1 474 0
.Lcfi431:
.seh_proc _ZN78_$LT$std..collections..hash..table..EmptyBucket$LT$K$C$$u20$V$C$$u20$M$GT$$GT$3put17h4aa58822f14f0e83E
	.seh_handler __CxxFrameHandler3, @unwind, @except
	pushq	%rbp
.Lcfi432:
	.seh_pushreg 5
	subq	$192, %rsp
.Lcfi433:
	.seh_stackalloc 192
	leaq	128(%rsp), %rbp
.Lcfi434:
	.seh_setframe 5, 128
.Lcfi435:
	.seh_endprologue
	movq	$-2, 56(%rbp)
	movq	%rcx, %rax
	movb	112(%rbp), %r10b
	movq	%r8, -40(%rbp)
	movl	%r9d, -32(%rbp)
	andb	$1, %r10b
	movb	%r10b, -25(%rbp)
.Ltmp358:
	.cv_loc	63 1 476 0
	movb	$0, 47(%rbp)
	movb	$0, 46(%rbp)
	movb	$1, 46(%rbp)
	movb	$1, 47(%rbp)
	leaq	-40(%rbp), %r8
	movq	%r8, 48(%rbp)
.Ltmp359:
	.cv_inline_site_id 64 within 63 inlined_at 1 476 0
	.cv_loc	64 1 191 0
	movq	48(%rbp), %r8
	movq	(%r8), %r8
.Ltmp360:
	.cv_loc	63 1 476 0
.Ltmp350:
	movq	%rcx, -48(%rbp)
	movq	%rdx, %rcx
	movq	%rdx, -56(%rbp)
.Ltmp361:
	movq	%rax, -64(%rbp)
	movq	%r8, -72(%rbp)
	callq	_ZN67_$LT$std..collections..hash..table..RawBucket$LT$K$C$$u20$V$GT$$GT$4hash17h98fac13dbff89709E
.Ltmp351:
	movq	%rax, -80(%rbp)
	jmp	.LBB56_3
.Ltmp362:
.LBB56_3:
	movq	-80(%rbp), %rax
	movq	-72(%rbp), %rcx
	movq	%rcx, (%rax)
	.cv_loc	63 1 477 0
.Ltmp352:
	movq	-56(%rbp), %rcx
	callq	_ZN67_$LT$std..collections..hash..table..RawBucket$LT$K$C$$u20$V$GT$$GT$4pair17hf189d80471132fc1E
.Ltmp353:
	movq	%rax, -88(%rbp)
	jmp	.LBB56_4
.Ltmp363:
.LBB56_4:
	movb	$0, 46(%rbp)
	movl	-32(%rbp), %eax
	movb	$0, 47(%rbp)
	movb	-25(%rbp), %cl
	movl	%eax, -24(%rbp)
	movb	%cl, -20(%rbp)
	movl	-24(%rbp), %edx
	movzbl	-20(%rbp), %r8d
.Ltmp354:
	movq	-88(%rbp), %rcx
	callq	_ZN4core3ptr5write17hd51ea6f94a0c5033E
.Ltmp355:
	jmp	.LBB56_5
.Ltmp364:
.LBB56_5:
	.cv_loc	63 1 479 0
	movq	-56(%rbp), %rax
	addq	$24, %rax
.Ltmp356:
	movq	%rax, %rcx
	callq	_ZN141_$LT$std..collections..hash..table..FullBucket$LT$K$C$$u20$V$C$$u20$M$GT$$u20$as$u20$std..collections..hash..table..Put$LT$K$C$$u20$V$GT$$GT$16borrow_table_mut17h466a01ce9a580cfeE
.Ltmp357:
	movq	%rax, -96(%rbp)
	jmp	.LBB56_6
.Ltmp365:
.LBB56_6:
	movq	-96(%rbp), %rax
	movq	8(%rax), %rcx
	addq	$1, %rcx
	movq	%rcx, 8(%rax)
.Ltmp366:
	.cv_loc	63 1 483 0
	movq	-56(%rbp), %rcx
	movq	(%rcx), %rdx
	movq	%rdx, -16(%rbp)
	movq	8(%rcx), %rdx
	movq	%rdx, -8(%rbp)
	movq	16(%rcx), %rdx
	movq	%rdx, (%rbp)
	.cv_loc	63 1 484 0
	movq	24(%rcx), %rdx
	movq	%rdx, 8(%rbp)
	movq	32(%rcx), %rdx
	movq	%rdx, 16(%rbp)
	movq	40(%rcx), %rdx
	movq	%rdx, 24(%rbp)
	movq	48(%rcx), %rdx
	movq	%rdx, 32(%rbp)
	.cv_loc	63 1 482 0
	movq	-16(%rbp), %rdx
	movq	-48(%rbp), %r8
	movq	%rdx, (%r8)
	movq	-8(%rbp), %rdx
	movq	%rdx, 8(%r8)
	movq	(%rbp), %rdx
	movq	%rdx, 16(%r8)
	movq	8(%rbp), %rdx
	movq	%rdx, 24(%r8)
	movq	16(%rbp), %rdx
	movq	%rdx, 32(%r8)
	movq	24(%rbp), %rdx
	movq	%rdx, 40(%r8)
	movq	32(%rbp), %rdx
	movq	%rdx, 48(%r8)
	.cv_loc	63 1 486 0
	movq	-64(%rbp), %rax
	addq	$192, %rsp
	popq	%rbp
.Ltmp367:
	retq
.LBB56_1:
	.cv_loc	63 1 474 0
	addq	$32, %rsp
	popq	%rbp
	retq
.LBB56_2:
	.cv_loc	63 1 486 0
	testb	$1, 46(%rbp)
	jne	.LBB56_7
	jmp	.LBB56_1
.LBB56_7:
	movb	$0, 46(%rbp)
	jmp	.LBB56_1
.LBB56_8:
	movb	$0, 47(%rbp)
	jmp	.LBB56_2
	.seh_handlerdata
	.long	($cppxdata$_ZN78_$LT$std..collections..hash..table..EmptyBucket$LT$K$C$$u20$V$C$$u20$M$GT$$GT$3put17h4aa58822f14f0e83E)@IMGREL
	.section	.text,"xr",one_only,_ZN78_$LT$std..collections..hash..table..EmptyBucket$LT$K$C$$u20$V$C$$u20$M$GT$$GT$3put17h4aa58822f14f0e83E
.Lcfi436:
	.seh_endproc
	.def	 "?dtor$9@?0?_ZN78_$LT$std..collections..hash..table..EmptyBucket$LT$K$C$$u20$V$C$$u20$M$GT$$GT$3put17h4aa58822f14f0e83E@4HA";
	.scl	3;
	.type	32;
	.endef
	.p2align	4, 0x90
"?dtor$9@?0?_ZN78_$LT$std..collections..hash..table..EmptyBucket$LT$K$C$$u20$V$C$$u20$M$GT$$GT$3put17h4aa58822f14f0e83E@4HA":
.Lcfi437:
.seh_proc "?dtor$9@?0?_ZN78_$LT$std..collections..hash..table..EmptyBucket$LT$K$C$$u20$V$C$$u20$M$GT$$GT$3put17h4aa58822f14f0e83E@4HA"
.LBB56_9:
	movq	%rdx, 16(%rsp)
	pushq	%rbp
.Lcfi438:
	.seh_pushreg 5
	subq	$32, %rsp
.Lcfi439:
	.seh_stackalloc 32
	leaq	128(%rdx), %rbp
.Lcfi440:
	.seh_endprologue
	testb	$1, 47(%rbp)
	jne	.LBB56_8
	jmp	.LBB56_2
.Ltmp368:
.Lfunc_end56:
	.seh_handlerdata
	.section	.text,"xr",one_only,_ZN78_$LT$std..collections..hash..table..EmptyBucket$LT$K$C$$u20$V$C$$u20$M$GT$$GT$3put17h4aa58822f14f0e83E
.Lcfi441:
	.seh_endproc
	.section	.xdata,"dr",associative,_ZN78_$LT$std..collections..hash..table..EmptyBucket$LT$K$C$$u20$V$C$$u20$M$GT$$GT$3put17h4aa58822f14f0e83E
	.p2align	2
$cppxdata$_ZN78_$LT$std..collections..hash..table..EmptyBucket$LT$K$C$$u20$V$C$$u20$M$GT$$GT$3put17h4aa58822f14f0e83E:
	.long	429065506
	.long	1
	.long	($stateUnwindMap$_ZN78_$LT$std..collections..hash..table..EmptyBucket$LT$K$C$$u20$V$C$$u20$M$GT$$GT$3put17h4aa58822f14f0e83E)@IMGREL
	.long	0
	.long	0
	.long	3
	.long	($ip2state$_ZN78_$LT$std..collections..hash..table..EmptyBucket$LT$K$C$$u20$V$C$$u20$M$GT$$GT$3put17h4aa58822f14f0e83E)@IMGREL
	.long	184
	.long	0
	.long	1
$stateUnwindMap$_ZN78_$LT$std..collections..hash..table..EmptyBucket$LT$K$C$$u20$V$C$$u20$M$GT$$GT$3put17h4aa58822f14f0e83E:
	.long	-1
	.long	"?dtor$9@?0?_ZN78_$LT$std..collections..hash..table..EmptyBucket$LT$K$C$$u20$V$C$$u20$M$GT$$GT$3put17h4aa58822f14f0e83E@4HA"@IMGREL
$ip2state$_ZN78_$LT$std..collections..hash..table..EmptyBucket$LT$K$C$$u20$V$C$$u20$M$GT$$GT$3put17h4aa58822f14f0e83E:
	.long	.Lfunc_begin56@IMGREL
	.long	-1
	.long	.Ltmp350@IMGREL+1
	.long	0
	.long	.Ltmp357@IMGREL+1
	.long	-1
	.section	.text,"xr",one_only,_ZN78_$LT$std..collections..hash..table..EmptyBucket$LT$K$C$$u20$V$C$$u20$M$GT$$GT$3put17h4aa58822f14f0e83E

	.def	 _ZN78_$LT$std..collections..hash..table..EmptyBucket$LT$K$C$$u20$V$C$$u20$M$GT$$GT$5table17heac6823192005622E;
	.scl	2;
	.type	32;
	.endef
	.section	.text,"xr",one_only,_ZN78_$LT$std..collections..hash..table..EmptyBucket$LT$K$C$$u20$V$C$$u20$M$GT$$GT$5table17heac6823192005622E
	.globl	_ZN78_$LT$std..collections..hash..table..EmptyBucket$LT$K$C$$u20$V$C$$u20$M$GT$$GT$5table17heac6823192005622E
	.p2align	4, 0x90
_ZN78_$LT$std..collections..hash..table..EmptyBucket$LT$K$C$$u20$V$C$$u20$M$GT$$GT$5table17heac6823192005622E:
.Lfunc_begin57:
	.cv_func_id 65
	.cv_loc	65 1 273 0
.Lcfi442:
.seh_proc _ZN78_$LT$std..collections..hash..table..EmptyBucket$LT$K$C$$u20$V$C$$u20$M$GT$$GT$5table17heac6823192005622E
	pushq	%rbp
.Lcfi443:
	.seh_pushreg 5
	pushq	%rax
.Lcfi444:
	.seh_stackalloc 8
	movq	%rsp, %rbp
.Lcfi445:
	.seh_setframe 5, 0
.Lcfi446:
	.seh_endprologue
	movq	%rcx, (%rbp)
.Ltmp369:
	.cv_loc	65 1 274 0
	movq	(%rbp), %rcx
	addq	$24, %rcx
	.cv_loc	65 1 275 0
	movq	%rcx, %rax
	addq	$8, %rsp
	popq	%rbp
	retq
.Ltmp370:
.Lfunc_end57:
	.seh_handlerdata
	.section	.text,"xr",one_only,_ZN78_$LT$std..collections..hash..table..EmptyBucket$LT$K$C$$u20$V$C$$u20$M$GT$$GT$5table17heac6823192005622E
.Lcfi447:
	.seh_endproc

	.def	 _ZN78_$LT$std..collections..hash..table..EmptyBucket$LT$K$C$$u20$V$C$$u20$M$GT$$GT$9table_mut17h22a264f6d8cc20abE;
	.scl	2;
	.type	32;
	.endef
	.section	.text,"xr",one_only,_ZN78_$LT$std..collections..hash..table..EmptyBucket$LT$K$C$$u20$V$C$$u20$M$GT$$GT$9table_mut17h22a264f6d8cc20abE
	.globl	_ZN78_$LT$std..collections..hash..table..EmptyBucket$LT$K$C$$u20$V$C$$u20$M$GT$$GT$9table_mut17h22a264f6d8cc20abE
	.p2align	4, 0x90
_ZN78_$LT$std..collections..hash..table..EmptyBucket$LT$K$C$$u20$V$C$$u20$M$GT$$GT$9table_mut17h22a264f6d8cc20abE:
.Lfunc_begin58:
	.cv_func_id 66
	.cv_loc	66 1 277 0
.Lcfi448:
.seh_proc _ZN78_$LT$std..collections..hash..table..EmptyBucket$LT$K$C$$u20$V$C$$u20$M$GT$$GT$9table_mut17h22a264f6d8cc20abE
	pushq	%rbp
.Lcfi449:
	.seh_pushreg 5
	pushq	%rax
.Lcfi450:
	.seh_stackalloc 8
	movq	%rsp, %rbp
.Lcfi451:
	.seh_setframe 5, 0
.Lcfi452:
	.seh_endprologue
	movq	%rcx, (%rbp)
.Ltmp371:
	.cv_loc	66 1 278 0
	movq	(%rbp), %rcx
	addq	$24, %rcx
	.cv_loc	66 1 279 0
	movq	%rcx, %rax
	addq	$8, %rsp
	popq	%rbp
	retq
.Ltmp372:
.Lfunc_end58:
	.seh_handlerdata
	.section	.text,"xr",one_only,_ZN78_$LT$std..collections..hash..table..EmptyBucket$LT$K$C$$u20$V$C$$u20$M$GT$$GT$9table_mut17h22a264f6d8cc20abE
.Lcfi453:
	.seh_endproc

	.def	 _ZN99_$LT$std..collections..hash..table..RawTable$LT$K$C$$u20$V$GT$$u20$as$u20$core..ops..drop..Drop$GT$4drop17h0d7e216229e5541aE;
	.scl	2;
	.type	32;
	.endef
	.section	.text,"xr",one_only,_ZN99_$LT$std..collections..hash..table..RawTable$LT$K$C$$u20$V$GT$$u20$as$u20$core..ops..drop..Drop$GT$4drop17h0d7e216229e5541aE
	.globl	_ZN99_$LT$std..collections..hash..table..RawTable$LT$K$C$$u20$V$GT$$u20$as$u20$core..ops..drop..Drop$GT$4drop17h0d7e216229e5541aE
	.p2align	4, 0x90
_ZN99_$LT$std..collections..hash..table..RawTable$LT$K$C$$u20$V$GT$$u20$as$u20$core..ops..drop..Drop$GT$4drop17h0d7e216229e5541aE:
.Lfunc_begin59:
	.cv_func_id 67
	.cv_loc	67 1 1164 0
.Lcfi454:
.seh_proc _ZN99_$LT$std..collections..hash..table..RawTable$LT$K$C$$u20$V$GT$$u20$as$u20$core..ops..drop..Drop$GT$4drop17h0d7e216229e5541aE
	pushq	%rbp
.Lcfi455:
	.seh_pushreg 5
	subq	$272, %rsp
.Lcfi456:
	.seh_stackalloc 272
	leaq	128(%rsp), %rbp
.Lcfi457:
	.seh_setframe 5, 128
.Lcfi458:
	.seh_endprologue
	movq	%rcx, 24(%rbp)
.Ltmp373:
	.cv_loc	67 1 1165 0
	movq	24(%rbp), %rcx
	callq	_ZN66_$LT$std..collections..hash..table..RawTable$LT$K$C$$u20$V$GT$$GT$8capacity17h98f7540f40b98664E
	movq	%rax, 16(%rbp)
	movq	16(%rbp), %rax
	cmpq	$0, %rax
	jne	.LBB59_3
	.cv_loc	67 1 1166 0
	jmp	.LBB59_4
.LBB59_3:
.Ltmp374:
	.cv_loc	67 1 1175 0
	callq	_ZN4core3mem10needs_drop17h6a43c85e172f3a38E
	movb	%al, 15(%rbp)
	jmp	.LBB59_5
.Ltmp375:
.LBB59_4:
	.cv_loc	67 1 1196 0
	addq	$272, %rsp
	popq	%rbp
	retq
.LBB59_5:
.Ltmp376:
	.cv_loc	67 1 1175 0
	movb	15(%rbp), %al
	testb	$1, %al
	jne	.LBB59_6
	jmp	.LBB59_7
.LBB59_6:
	.cv_loc	67 1 1177 0
	movq	24(%rbp), %rcx
	callq	_ZN66_$LT$std..collections..hash..table..RawTable$LT$K$C$$u20$V$GT$$GT$16rev_drop_buckets17he9629f6a2338fea6E
	jmp	.LBB59_8
.LBB59_7:
	.cv_loc	67 1 1175 0
	jmp	.LBB59_9
.LBB59_8:
	jmp	.LBB59_9
.Ltmp377:
.LBB59_9:
	.cv_loc	67 1 1181 0
	movq	24(%rbp), %rcx
	callq	_ZN66_$LT$std..collections..hash..table..RawTable$LT$K$C$$u20$V$GT$$GT$8capacity17h98f7540f40b98664E
	movq	%rax, (%rbp)
	callq	_ZN4core3mem7size_of17h4ae4183d94813f8fE
	movq	%rax, -8(%rbp)
	movq	(%rbp), %rax
	movq	-8(%rbp), %rcx
	imulq	%rcx, %rax
	movq	%rax, 48(%rbp)
.Ltmp378:
	.cv_loc	67 1 1182 0
	movq	24(%rbp), %rcx
	callq	_ZN66_$LT$std..collections..hash..table..RawTable$LT$K$C$$u20$V$GT$$GT$8capacity17h98f7540f40b98664E
	movq	%rax, -16(%rbp)
	callq	_ZN4core3mem7size_of17h6fc3a79eb596635dE
	movq	%rax, -24(%rbp)
	movq	-16(%rbp), %rax
	movq	-24(%rbp), %rcx
	imulq	%rcx, %rax
	movq	%rax, 56(%rbp)
.Ltmp379:
	.cv_loc	67 1 1183 0
	movq	48(%rbp), %rdx
	.cv_loc	67 1 1184 0
	movq	%rdx, -32(%rbp)
	callq	_ZN4core3mem8align_of17h48eecfaa3838ae49E
	movq	%rax, -40(%rbp)
	.cv_loc	67 1 1185 0
	movq	56(%rbp), %r9
	.cv_loc	67 1 1186 0
	movq	%r9, -48(%rbp)
	callq	_ZN4core3mem8align_of17h1d727f7529154bfeE
	movq	%rax, -56(%rbp)
	leaq	88(%rbp), %rcx
	.cv_loc	67 1 1183 0
	movq	-32(%rbp), %rdx
	movq	-40(%rbp), %r8
	movq	-48(%rbp), %r9
	movq	-56(%rbp), %rax
	movq	%rax, 32(%rsp)
	callq	_ZN3std11collections4hash5table20calculate_allocation17h0e9ade833885b4d1E
	movq	88(%rbp), %rax
	movq	%rax, 64(%rbp)
	movq	96(%rbp), %rax
	movq	%rax, 72(%rbp)
	movb	104(%rbp), %cl
	andb	$1, %cl
	movb	%cl, 87(%rbp)
.Ltmp380:
	.cv_loc	67 1 1191 0
	movq	24(%rbp), %rax
	addq	$16, %rax
	movq	%rax, %rcx
	callq	_ZN3std11collections4hash5table17TaggedHashUintPtr3ptr17h919960a4778dd7e4E
	movq	%rax, -64(%rbp)
	leaq	120(%rbp), %rcx
	movq	-64(%rbp), %rax
	.cv_loc	67 1 1192 0
	movq	72(%rbp), %rdx
	movq	64(%rbp), %r8
	movq	%rax, -72(%rbp)
	callq	_ZN5alloc9allocator6Layout15from_size_align17hab64bbdbc929b8bbE
	leaq	120(%rbp), %rcx
	callq	_ZN38_$LT$core..option..Option$LT$T$GT$$GT$6unwrap17hbc899c9fc81cc1ccE
	movq	%rax, -80(%rbp)
	movq	%rdx, -88(%rbp)
	leaq	112(%rbp), %rcx
	.cv_loc	67 1 1191 0
	movq	-72(%rbp), %rdx
	movq	-80(%rbp), %r8
	movq	-88(%rbp), %r9
	callq	_ZN61_$LT$alloc..heap..Heap$u20$as$u20$alloc..allocator..Alloc$GT$7dealloc17h64d7aec95d22a4e9E
.Ltmp381:
	.cv_loc	67 1 1196 0
	jmp	.LBB59_4
.Ltmp382:
.Lfunc_end59:
	.seh_handlerdata
	.section	.text,"xr",one_only,_ZN99_$LT$std..collections..hash..table..RawTable$LT$K$C$$u20$V$GT$$u20$as$u20$core..ops..drop..Drop$GT$4drop17h0d7e216229e5541aE
.Lcfi459:
	.seh_endproc

	.section	.rdata,"dr",one_only,str.0
	.p2align	4
str.0:
	.ascii	"libstd\\collections\\hash\\table.rs"

	.section	.rdata,"dr",one_only,ref.1
	.p2align	3
ref.1:
	.quad	str.0
	.quad	32
	.long	771
	.long	9

	.section	.rdata,"dr",one_only,const.2
	.p2align	3
const.2:
	.quad	ref.1

	.section	.rdata,"dr",one_only,str.3
	.p2align	4
str.3:
	.ascii	"capacity overflow"

	.section	.rdata,"dr",one_only,ref.4
	.p2align	3
ref.4:
	.quad	str.0
	.quad	32
	.long	775
	.long	9

	.section	.rdata,"dr",one_only,const.5
	.p2align	3
const.5:
	.quad	ref.4
