	.text
	.def	 _ZN41_$LT$core..mem..ManuallyDrop$LT$T$GT$$GT$10into_inner17h2c761351d55d98b7E;
	.scl	2;
	.type	32;
	.endef
	.section	.text,"xr",one_only,_ZN41_$LT$core..mem..ManuallyDrop$LT$T$GT$$GT$10into_inner17h2c761351d55d98b7E
	.globl	_ZN41_$LT$core..mem..ManuallyDrop$LT$T$GT$$GT$10into_inner17h2c761351d55d98b7E
	.p2align	4, 0x90
_ZN41_$LT$core..mem..ManuallyDrop$LT$T$GT$$GT$10into_inner17h2c761351d55d98b7E:
.Lfunc_begin0:
	.cv_func_id 0
	.cv_file	1 "C:\\projects\\rust\\src\\libcore\\mem.rs"
	.cv_loc	0 1 977 0 is_stmt 0
.Lcfi0:
.seh_proc _ZN41_$LT$core..mem..ManuallyDrop$LT$T$GT$$GT$10into_inner17h2c761351d55d98b7E
	pushq	%rbp
.Lcfi1:
	.seh_pushreg 5
	subq	$24, %rsp
.Lcfi2:
	.seh_stackalloc 24
	leaq	16(%rsp), %rbp
.Lcfi3:
	.seh_setframe 5, 16
.Lcfi4:
	.seh_endprologue
	movq	%rcx, %rax
.Ltmp0:
	.cv_loc	0 1 979 0
	movq	(%rdx), %r8
	movq	%r8, -16(%rbp)
	movq	8(%rdx), %r8
	movq	%r8, -8(%rbp)
	movq	16(%rdx), %rdx
.Ltmp1:
	movq	%rdx, (%rbp)
	movq	-16(%rbp), %rdx
	movq	%rdx, (%rcx)
	movq	-8(%rbp), %rdx
	movq	%rdx, 8(%rcx)
	movq	(%rbp), %rdx
	movq	%rdx, 16(%rcx)
.Ltmp2:
	.cv_loc	0 1 981 0
	addq	$24, %rsp
	popq	%rbp
	retq
.Ltmp3:
.Lfunc_end0:
	.seh_handlerdata
	.section	.text,"xr",one_only,_ZN41_$LT$core..mem..ManuallyDrop$LT$T$GT$$GT$10into_inner17h2c761351d55d98b7E
.Lcfi5:
	.seh_endproc

	.def	 _ZN41_$LT$core..mem..ManuallyDrop$LT$T$GT$$GT$3new17h25ddefbc0a379c2bE;
	.scl	3;
	.type	32;
	.endef
	.section	.text,"xr",one_only,_ZN41_$LT$core..mem..ManuallyDrop$LT$T$GT$$GT$3new17h25ddefbc0a379c2bE
	.p2align	4, 0x90
_ZN41_$LT$core..mem..ManuallyDrop$LT$T$GT$$GT$3new17h25ddefbc0a379c2bE:
.Lfunc_begin1:
	.cv_func_id 1
	.cv_loc	1 1 962 0
.Lcfi6:
.seh_proc _ZN41_$LT$core..mem..ManuallyDrop$LT$T$GT$$GT$3new17h25ddefbc0a379c2bE
	pushq	%rbp
.Lcfi7:
	.seh_pushreg 5
	subq	$16, %rsp
.Lcfi8:
	.seh_stackalloc 16
	leaq	16(%rsp), %rbp
.Lcfi9:
	.seh_setframe 5, 16
.Lcfi10:
	.seh_endprologue
	movq	%rcx, -16(%rbp)
.Ltmp4:
	.cv_loc	1 1 963 0
	movq	-16(%rbp), %rcx
	movq	%rcx, -8(%rbp)
	.cv_loc	1 1 964 0
	movq	-8(%rbp), %rax
	addq	$16, %rsp
	popq	%rbp
	retq
.Ltmp5:
.Lfunc_end1:
	.seh_handlerdata
	.section	.text,"xr",one_only,_ZN41_$LT$core..mem..ManuallyDrop$LT$T$GT$$GT$3new17h25ddefbc0a379c2bE
.Lcfi11:
	.seh_endproc

	.def	 _ZN41_$LT$core..mem..ManuallyDrop$LT$T$GT$$GT$3new17h469e263d41e4eb4fE;
	.scl	3;
	.type	32;
	.endef
	.section	.text,"xr",one_only,_ZN41_$LT$core..mem..ManuallyDrop$LT$T$GT$$GT$3new17h469e263d41e4eb4fE
	.p2align	4, 0x90
_ZN41_$LT$core..mem..ManuallyDrop$LT$T$GT$$GT$3new17h469e263d41e4eb4fE:
.Lfunc_begin2:
	.cv_func_id 2
	.cv_loc	2 1 962 0
.Lcfi12:
.seh_proc _ZN41_$LT$core..mem..ManuallyDrop$LT$T$GT$$GT$3new17h469e263d41e4eb4fE
	pushq	%rbp
.Lcfi13:
	.seh_pushreg 5
	subq	$24, %rsp
.Lcfi14:
	.seh_stackalloc 24
	leaq	16(%rsp), %rbp
.Lcfi15:
	.seh_setframe 5, 16
.Lcfi16:
	.seh_endprologue
	movq	%rcx, %rax
.Ltmp6:
	.cv_loc	2 1 963 0
	movq	(%rdx), %r8
	movq	%r8, -16(%rbp)
	movq	8(%rdx), %r8
	movq	%r8, -8(%rbp)
	movq	16(%rdx), %rdx
.Ltmp7:
	movq	%rdx, (%rbp)
	movq	-16(%rbp), %rdx
	movq	%rdx, (%rcx)
	movq	-8(%rbp), %rdx
	movq	%rdx, 8(%rcx)
	movq	(%rbp), %rdx
	movq	%rdx, 16(%rcx)
	.cv_loc	2 1 964 0
	addq	$24, %rsp
	popq	%rbp
	retq
.Ltmp8:
.Lfunc_end2:
	.seh_handlerdata
	.section	.text,"xr",one_only,_ZN41_$LT$core..mem..ManuallyDrop$LT$T$GT$$GT$3new17h469e263d41e4eb4fE
.Lcfi17:
	.seh_endproc

	.def	 _ZN41_$LT$core..mem..ManuallyDrop$LT$T$GT$$GT$3new17h7954e1ab8c42eb55E;
	.scl	2;
	.type	32;
	.endef
	.section	.text,"xr",one_only,_ZN41_$LT$core..mem..ManuallyDrop$LT$T$GT$$GT$3new17h7954e1ab8c42eb55E
	.globl	_ZN41_$LT$core..mem..ManuallyDrop$LT$T$GT$$GT$3new17h7954e1ab8c42eb55E
	.p2align	4, 0x90
_ZN41_$LT$core..mem..ManuallyDrop$LT$T$GT$$GT$3new17h7954e1ab8c42eb55E:
.Lfunc_begin3:
	.cv_func_id 3
	.cv_loc	3 1 962 0
.Lcfi18:
.seh_proc _ZN41_$LT$core..mem..ManuallyDrop$LT$T$GT$$GT$3new17h7954e1ab8c42eb55E
	pushq	%rbp
.Lcfi19:
	.seh_pushreg 5
	subq	$24, %rsp
.Lcfi20:
	.seh_stackalloc 24
	leaq	16(%rsp), %rbp
.Lcfi21:
	.seh_setframe 5, 16
.Lcfi22:
	.seh_endprologue
	movq	%rcx, %rax
.Ltmp9:
	.cv_loc	3 1 963 0
	movq	(%rdx), %r8
	movq	%r8, -16(%rbp)
	movq	8(%rdx), %r8
	movq	%r8, -8(%rbp)
	movq	16(%rdx), %rdx
.Ltmp10:
	movq	%rdx, (%rbp)
	movq	-16(%rbp), %rdx
	movq	%rdx, (%rcx)
	movq	-8(%rbp), %rdx
	movq	%rdx, 8(%rcx)
	movq	(%rbp), %rdx
	movq	%rdx, 16(%rcx)
	.cv_loc	3 1 964 0
	addq	$24, %rsp
	popq	%rbp
	retq
.Ltmp11:
.Lfunc_end3:
	.seh_handlerdata
	.section	.text,"xr",one_only,_ZN41_$LT$core..mem..ManuallyDrop$LT$T$GT$$GT$3new17h7954e1ab8c42eb55E
.Lcfi23:
	.seh_endproc

	.def	 _ZN41_$LT$core..mem..ManuallyDrop$LT$T$GT$$GT$3new17h91c424d911bbd08dE;
	.scl	3;
	.type	32;
	.endef
	.section	.text,"xr",one_only,_ZN41_$LT$core..mem..ManuallyDrop$LT$T$GT$$GT$3new17h91c424d911bbd08dE
	.p2align	4, 0x90
_ZN41_$LT$core..mem..ManuallyDrop$LT$T$GT$$GT$3new17h91c424d911bbd08dE:
.Lfunc_begin4:
	.cv_func_id 4
	.cv_loc	4 1 962 0
.Lcfi24:
.seh_proc _ZN41_$LT$core..mem..ManuallyDrop$LT$T$GT$$GT$3new17h91c424d911bbd08dE
	pushq	%rbp
.Lcfi25:
	.seh_pushreg 5
	subq	$16, %rsp
.Lcfi26:
	.seh_stackalloc 16
	leaq	16(%rsp), %rbp
.Lcfi27:
	.seh_setframe 5, 16
.Lcfi28:
	.seh_endprologue
	movq	%rcx, -16(%rbp)
.Ltmp12:
	.cv_loc	4 1 963 0
	movq	-16(%rbp), %rcx
	movq	%rcx, -8(%rbp)
	.cv_loc	4 1 964 0
	movq	-8(%rbp), %rax
	addq	$16, %rsp
	popq	%rbp
	retq
.Ltmp13:
.Lfunc_end4:
	.seh_handlerdata
	.section	.text,"xr",one_only,_ZN41_$LT$core..mem..ManuallyDrop$LT$T$GT$$GT$3new17h91c424d911bbd08dE
.Lcfi29:
	.seh_endproc

	.def	 _ZN41_$LT$core..mem..ManuallyDrop$LT$T$GT$$GT$3new17haf89aa1076a168ccE;
	.scl	3;
	.type	32;
	.endef
	.section	.text,"xr",one_only,_ZN41_$LT$core..mem..ManuallyDrop$LT$T$GT$$GT$3new17haf89aa1076a168ccE
	.p2align	4, 0x90
_ZN41_$LT$core..mem..ManuallyDrop$LT$T$GT$$GT$3new17haf89aa1076a168ccE:
.Lfunc_begin5:
	.cv_func_id 5
	.cv_loc	5 1 962 0
.Lcfi30:
.seh_proc _ZN41_$LT$core..mem..ManuallyDrop$LT$T$GT$$GT$3new17haf89aa1076a168ccE
	pushq	%rbp
.Lcfi31:
	.seh_pushreg 5
	subq	$24, %rsp
.Lcfi32:
	.seh_stackalloc 24
	leaq	16(%rsp), %rbp
.Lcfi33:
	.seh_setframe 5, 16
.Lcfi34:
	.seh_endprologue
	movq	%rcx, %rax
.Ltmp14:
	.cv_loc	5 1 963 0
	movq	(%rdx), %r8
	movq	%r8, -16(%rbp)
	movq	8(%rdx), %r8
	movq	%r8, -8(%rbp)
	movq	16(%rdx), %rdx
.Ltmp15:
	movq	%rdx, (%rbp)
	movq	-16(%rbp), %rdx
	movq	%rdx, (%rcx)
	movq	-8(%rbp), %rdx
	movq	%rdx, 8(%rcx)
	movq	(%rbp), %rdx
	movq	%rdx, 16(%rcx)
	.cv_loc	5 1 964 0
	addq	$24, %rsp
	popq	%rbp
	retq
.Ltmp16:
.Lfunc_end5:
	.seh_handlerdata
	.section	.text,"xr",one_only,_ZN41_$LT$core..mem..ManuallyDrop$LT$T$GT$$GT$3new17haf89aa1076a168ccE
.Lcfi35:
	.seh_endproc

	.def	 _ZN41_$LT$core..mem..ManuallyDrop$LT$T$GT$$GT$3new17hf5e3b8f36d219566E;
	.scl	3;
	.type	32;
	.endef
	.section	.text,"xr",one_only,_ZN41_$LT$core..mem..ManuallyDrop$LT$T$GT$$GT$3new17hf5e3b8f36d219566E
	.p2align	4, 0x90
_ZN41_$LT$core..mem..ManuallyDrop$LT$T$GT$$GT$3new17hf5e3b8f36d219566E:
.Lfunc_begin6:
	.cv_func_id 6
	.cv_loc	6 1 962 0
.Lcfi36:
.seh_proc _ZN41_$LT$core..mem..ManuallyDrop$LT$T$GT$$GT$3new17hf5e3b8f36d219566E
	pushq	%rbp
.Lcfi37:
	.seh_pushreg 5
	subq	$16, %rsp
.Lcfi38:
	.seh_stackalloc 16
	leaq	16(%rsp), %rbp
.Lcfi39:
	.seh_setframe 5, 16
.Lcfi40:
	.seh_endprologue
	movq	%rcx, %rax
	movq	%rdx, -16(%rbp)
	movq	%r8, -8(%rbp)
.Ltmp17:
	.cv_loc	6 1 963 0
	movq	-16(%rbp), %rdx
	movq	-8(%rbp), %r8
	movq	%rdx, (%rcx)
	movq	%r8, 8(%rcx)
	.cv_loc	6 1 964 0
	addq	$16, %rsp
	popq	%rbp
	retq
.Ltmp18:
.Lfunc_end6:
	.seh_handlerdata
	.section	.text,"xr",one_only,_ZN41_$LT$core..mem..ManuallyDrop$LT$T$GT$$GT$3new17hf5e3b8f36d219566E
.Lcfi41:
	.seh_endproc

	.def	 _ZN41_$LT$core..mem..ManuallyDrop$LT$T$GT$$GT$3new17hf6dc26aee73811fdE;
	.scl	3;
	.type	32;
	.endef
	.section	.text,"xr",one_only,_ZN41_$LT$core..mem..ManuallyDrop$LT$T$GT$$GT$3new17hf6dc26aee73811fdE
	.p2align	4, 0x90
_ZN41_$LT$core..mem..ManuallyDrop$LT$T$GT$$GT$3new17hf6dc26aee73811fdE:
.Lfunc_begin7:
	.cv_func_id 7
	.cv_loc	7 1 962 0
.Lcfi42:
.seh_proc _ZN41_$LT$core..mem..ManuallyDrop$LT$T$GT$$GT$3new17hf6dc26aee73811fdE
	pushq	%rbp
.Lcfi43:
	.seh_pushreg 5
	subq	$24, %rsp
.Lcfi44:
	.seh_stackalloc 24
	leaq	16(%rsp), %rbp
.Lcfi45:
	.seh_setframe 5, 16
.Lcfi46:
	.seh_endprologue
	movq	%rcx, %rax
.Ltmp19:
	.cv_loc	7 1 963 0
	movq	(%rdx), %r8
	movq	%r8, -16(%rbp)
	movq	8(%rdx), %r8
	movq	%r8, -8(%rbp)
	movq	16(%rdx), %rdx
.Ltmp20:
	movq	%rdx, (%rbp)
	movq	-16(%rbp), %rdx
	movq	%rdx, (%rcx)
	movq	-8(%rbp), %rdx
	movq	%rdx, 8(%rcx)
	movq	(%rbp), %rdx
	movq	%rdx, 16(%rcx)
	.cv_loc	7 1 964 0
	addq	$24, %rsp
	popq	%rbp
	retq
.Ltmp21:
.Lfunc_end7:
	.seh_handlerdata
	.section	.text,"xr",one_only,_ZN41_$LT$core..mem..ManuallyDrop$LT$T$GT$$GT$3new17hf6dc26aee73811fdE
.Lcfi47:
	.seh_endproc

	.def	 _ZN4core3mem10needs_drop17h6a43c85e172f3a38E;
	.scl	2;
	.type	32;
	.endef
	.section	.text,"xr",one_only,_ZN4core3mem10needs_drop17h6a43c85e172f3a38E
	.globl	_ZN4core3mem10needs_drop17h6a43c85e172f3a38E
	.p2align	4, 0x90
_ZN4core3mem10needs_drop17h6a43c85e172f3a38E:
.Lfunc_begin8:
	.cv_func_id 8
	.cv_loc	8 1 484 0
.Lcfi48:
.seh_proc _ZN4core3mem10needs_drop17h6a43c85e172f3a38E
	pushq	%rbp
.Lcfi49:
	.seh_pushreg 5
.Ltmp22:
	pushq	%rax
.Lcfi50:
	.seh_stackalloc 8
	movq	%rsp, %rbp
.Lcfi51:
	.seh_setframe 5, 0
.Lcfi52:
	.seh_endprologue
	.cv_loc	8 1 485 0
	movb	$0, 7(%rbp)
	movb	7(%rbp), %al
	movb	%al, 6(%rbp)
.Ltmp23:
	.cv_loc	8 1 486 0
	movb	6(%rbp), %al
	andb	$1, %al
	movzbl	%al, %eax
	addq	$8, %rsp
	popq	%rbp
	retq
.Ltmp24:
.Lfunc_end8:
	.seh_handlerdata
	.section	.text,"xr",one_only,_ZN4core3mem10needs_drop17h6a43c85e172f3a38E
.Lcfi53:
	.seh_endproc

	.def	 _ZN4core3mem11size_of_val17h6a3c98312c8a1402E;
	.scl	2;
	.type	32;
	.endef
	.section	.text,"xr",one_only,_ZN4core3mem11size_of_val17h6a3c98312c8a1402E
	.globl	_ZN4core3mem11size_of_val17h6a3c98312c8a1402E
	.p2align	4, 0x90
_ZN4core3mem11size_of_val17h6a3c98312c8a1402E:
.Lfunc_begin9:
	.cv_func_id 9
	.cv_loc	9 1 340 0
.Lcfi54:
.seh_proc _ZN4core3mem11size_of_val17h6a3c98312c8a1402E
	pushq	%rbp
.Lcfi55:
	.seh_pushreg 5
	subq	$24, %rsp
.Lcfi56:
	.seh_stackalloc 24
	leaq	16(%rsp), %rbp
.Lcfi57:
	.seh_setframe 5, 16
.Lcfi58:
	.seh_endprologue
	movq	%rcx, -8(%rbp)
.Ltmp25:
	.cv_loc	9 1 341 0
	movq	$32, (%rbp)
	movq	(%rbp), %rax
	movq	%rax, -16(%rbp)
.Ltmp26:
	.cv_loc	9 1 342 0
	movq	-16(%rbp), %rax
	addq	$24, %rsp
	popq	%rbp
	retq
.Ltmp27:
.Lfunc_end9:
	.seh_handlerdata
	.section	.text,"xr",one_only,_ZN4core3mem11size_of_val17h6a3c98312c8a1402E
.Lcfi59:
	.seh_endproc

	.def	 _ZN4core3mem11size_of_val17h7878d6a241d5cc73E;
	.scl	2;
	.type	32;
	.endef
	.section	.text,"xr",one_only,_ZN4core3mem11size_of_val17h7878d6a241d5cc73E
	.globl	_ZN4core3mem11size_of_val17h7878d6a241d5cc73E
	.p2align	4, 0x90
_ZN4core3mem11size_of_val17h7878d6a241d5cc73E:
.Lfunc_begin10:
	.cv_func_id 10
	.cv_loc	10 1 340 0
.Lcfi60:
.seh_proc _ZN4core3mem11size_of_val17h7878d6a241d5cc73E
	pushq	%rbp
.Lcfi61:
	.seh_pushreg 5
	subq	$24, %rsp
.Lcfi62:
	.seh_stackalloc 24
	leaq	16(%rsp), %rbp
.Lcfi63:
	.seh_setframe 5, 16
.Lcfi64:
	.seh_endprologue
	movq	%rcx, -8(%rbp)
.Ltmp28:
	.cv_loc	10 1 341 0
	movq	$16, (%rbp)
	movq	(%rbp), %rax
	movq	%rax, -16(%rbp)
.Ltmp29:
	.cv_loc	10 1 342 0
	movq	-16(%rbp), %rax
	addq	$24, %rsp
	popq	%rbp
	retq
.Ltmp30:
.Lfunc_end10:
	.seh_handlerdata
	.section	.text,"xr",one_only,_ZN4core3mem11size_of_val17h7878d6a241d5cc73E
.Lcfi65:
	.seh_endproc

	.def	 _ZN4core3mem11size_of_val17h8a25cdc0adb37862E;
	.scl	2;
	.type	32;
	.endef
	.section	.text,"xr",one_only,_ZN4core3mem11size_of_val17h8a25cdc0adb37862E
	.globl	_ZN4core3mem11size_of_val17h8a25cdc0adb37862E
	.p2align	4, 0x90
_ZN4core3mem11size_of_val17h8a25cdc0adb37862E:
.Lfunc_begin11:
	.cv_func_id 11
	.cv_loc	11 1 340 0
.Lcfi66:
.seh_proc _ZN4core3mem11size_of_val17h8a25cdc0adb37862E
	pushq	%rbp
.Lcfi67:
	.seh_pushreg 5
	subq	$24, %rsp
.Lcfi68:
	.seh_stackalloc 24
	leaq	16(%rsp), %rbp
.Lcfi69:
	.seh_setframe 5, 16
.Lcfi70:
	.seh_endprologue
	movq	%rcx, -8(%rbp)
.Ltmp31:
	.cv_loc	11 1 341 0
	movq	$32, (%rbp)
	movq	(%rbp), %rax
	movq	%rax, -16(%rbp)
.Ltmp32:
	.cv_loc	11 1 342 0
	movq	-16(%rbp), %rax
	addq	$24, %rsp
	popq	%rbp
	retq
.Ltmp33:
.Lfunc_end11:
	.seh_handlerdata
	.section	.text,"xr",one_only,_ZN4core3mem11size_of_val17h8a25cdc0adb37862E
.Lcfi71:
	.seh_endproc

	.def	 _ZN4core3mem11size_of_val17ha7a5fac4a94fdd4dE;
	.scl	2;
	.type	32;
	.endef
	.section	.text,"xr",one_only,_ZN4core3mem11size_of_val17ha7a5fac4a94fdd4dE
	.globl	_ZN4core3mem11size_of_val17ha7a5fac4a94fdd4dE
	.p2align	4, 0x90
_ZN4core3mem11size_of_val17ha7a5fac4a94fdd4dE:
.Lfunc_begin12:
	.cv_func_id 12
	.cv_loc	12 1 340 0
.Lcfi72:
.seh_proc _ZN4core3mem11size_of_val17ha7a5fac4a94fdd4dE
	pushq	%rbp
.Lcfi73:
	.seh_pushreg 5
	subq	$24, %rsp
.Lcfi74:
	.seh_stackalloc 24
	leaq	16(%rsp), %rbp
.Lcfi75:
	.seh_setframe 5, 16
.Lcfi76:
	.seh_endprologue
	movq	%rcx, -8(%rbp)
.Ltmp34:
	.cv_loc	12 1 341 0
	movq	$32, (%rbp)
	movq	(%rbp), %rax
	movq	%rax, -16(%rbp)
.Ltmp35:
	.cv_loc	12 1 342 0
	movq	-16(%rbp), %rax
	addq	$24, %rsp
	popq	%rbp
	retq
.Ltmp36:
.Lfunc_end12:
	.seh_handlerdata
	.section	.text,"xr",one_only,_ZN4core3mem11size_of_val17ha7a5fac4a94fdd4dE
.Lcfi77:
	.seh_endproc

	.def	 _ZN4core3mem11size_of_val17hdd60e5c6d8a12245E;
	.scl	2;
	.type	32;
	.endef
	.section	.text,"xr",one_only,_ZN4core3mem11size_of_val17hdd60e5c6d8a12245E
	.globl	_ZN4core3mem11size_of_val17hdd60e5c6d8a12245E
	.p2align	4, 0x90
_ZN4core3mem11size_of_val17hdd60e5c6d8a12245E:
.Lfunc_begin13:
	.cv_func_id 13
	.cv_loc	13 1 340 0
.Lcfi78:
.seh_proc _ZN4core3mem11size_of_val17hdd60e5c6d8a12245E
	pushq	%rbp
.Lcfi79:
	.seh_pushreg 5
	subq	$32, %rsp
.Lcfi80:
	.seh_stackalloc 32
	leaq	32(%rsp), %rbp
.Lcfi81:
	.seh_setframe 5, 32
.Lcfi82:
	.seh_endprologue
	movq	%rcx, -24(%rbp)
	movq	%rdx, -16(%rbp)
.Ltmp37:
	.cv_loc	13 1 341 0
	movq	-16(%rbp), %rcx
	shlq	$0, %rcx
	movq	%rcx, -8(%rbp)
	movq	-8(%rbp), %rax
	movq	%rax, -32(%rbp)
.Ltmp38:
	.cv_loc	13 1 342 0
	movq	-32(%rbp), %rax
	addq	$32, %rsp
	popq	%rbp
	retq
.Ltmp39:
.Lfunc_end13:
	.seh_handlerdata
	.section	.text,"xr",one_only,_ZN4core3mem11size_of_val17hdd60e5c6d8a12245E
.Lcfi83:
	.seh_endproc

	.def	 _ZN4core3mem12align_of_val17h0fd4131ef6a1ea10E;
	.scl	2;
	.type	32;
	.endef
	.section	.text,"xr",one_only,_ZN4core3mem12align_of_val17h0fd4131ef6a1ea10E
	.globl	_ZN4core3mem12align_of_val17h0fd4131ef6a1ea10E
	.p2align	4, 0x90
_ZN4core3mem12align_of_val17h0fd4131ef6a1ea10E:
.Lfunc_begin14:
	.cv_func_id 14
	.cv_loc	14 1 424 0
.Lcfi84:
.seh_proc _ZN4core3mem12align_of_val17h0fd4131ef6a1ea10E
	pushq	%rbp
.Lcfi85:
	.seh_pushreg 5
	subq	$24, %rsp
.Lcfi86:
	.seh_stackalloc 24
	leaq	16(%rsp), %rbp
.Lcfi87:
	.seh_setframe 5, 16
.Lcfi88:
	.seh_endprologue
	movq	%rcx, -8(%rbp)
.Ltmp40:
	.cv_loc	14 1 425 0
	movq	$8, (%rbp)
	movq	(%rbp), %rax
	movq	%rax, -16(%rbp)
.Ltmp41:
	.cv_loc	14 1 426 0
	movq	-16(%rbp), %rax
	addq	$24, %rsp
	popq	%rbp
	retq
.Ltmp42:
.Lfunc_end14:
	.seh_handlerdata
	.section	.text,"xr",one_only,_ZN4core3mem12align_of_val17h0fd4131ef6a1ea10E
.Lcfi89:
	.seh_endproc

	.def	 _ZN4core3mem12align_of_val17h6fe3471923f35a51E;
	.scl	2;
	.type	32;
	.endef
	.section	.text,"xr",one_only,_ZN4core3mem12align_of_val17h6fe3471923f35a51E
	.globl	_ZN4core3mem12align_of_val17h6fe3471923f35a51E
	.p2align	4, 0x90
_ZN4core3mem12align_of_val17h6fe3471923f35a51E:
.Lfunc_begin15:
	.cv_func_id 15
	.cv_loc	15 1 424 0
.Lcfi90:
.seh_proc _ZN4core3mem12align_of_val17h6fe3471923f35a51E
	pushq	%rbp
.Lcfi91:
	.seh_pushreg 5
	subq	$24, %rsp
.Lcfi92:
	.seh_stackalloc 24
	leaq	16(%rsp), %rbp
.Lcfi93:
	.seh_setframe 5, 16
.Lcfi94:
	.seh_endprologue
	movq	%rcx, -8(%rbp)
.Ltmp43:
	.cv_loc	15 1 425 0
	movq	$8, (%rbp)
	movq	(%rbp), %rax
	movq	%rax, -16(%rbp)
.Ltmp44:
	.cv_loc	15 1 426 0
	movq	-16(%rbp), %rax
	addq	$24, %rsp
	popq	%rbp
	retq
.Ltmp45:
.Lfunc_end15:
	.seh_handlerdata
	.section	.text,"xr",one_only,_ZN4core3mem12align_of_val17h6fe3471923f35a51E
.Lcfi95:
	.seh_endproc

	.def	 _ZN4core3mem12align_of_val17hc8f0cb0c84aa0d7cE;
	.scl	2;
	.type	32;
	.endef
	.section	.text,"xr",one_only,_ZN4core3mem12align_of_val17hc8f0cb0c84aa0d7cE
	.globl	_ZN4core3mem12align_of_val17hc8f0cb0c84aa0d7cE
	.p2align	4, 0x90
_ZN4core3mem12align_of_val17hc8f0cb0c84aa0d7cE:
.Lfunc_begin16:
	.cv_func_id 16
	.cv_loc	16 1 424 0
.Lcfi96:
.seh_proc _ZN4core3mem12align_of_val17hc8f0cb0c84aa0d7cE
	pushq	%rbp
.Lcfi97:
	.seh_pushreg 5
	subq	$24, %rsp
.Lcfi98:
	.seh_stackalloc 24
	leaq	16(%rsp), %rbp
.Lcfi99:
	.seh_setframe 5, 16
.Lcfi100:
	.seh_endprologue
	movq	%rcx, -8(%rbp)
.Ltmp46:
	.cv_loc	16 1 425 0
	movq	$8, (%rbp)
	movq	(%rbp), %rax
	movq	%rax, -16(%rbp)
.Ltmp47:
	.cv_loc	16 1 426 0
	movq	-16(%rbp), %rax
	addq	$24, %rsp
	popq	%rbp
	retq
.Ltmp48:
.Lfunc_end16:
	.seh_handlerdata
	.section	.text,"xr",one_only,_ZN4core3mem12align_of_val17hc8f0cb0c84aa0d7cE
.Lcfi101:
	.seh_endproc

	.def	 _ZN4core3mem12align_of_val17heaa9adf166dd083fE;
	.scl	2;
	.type	32;
	.endef
	.section	.text,"xr",one_only,_ZN4core3mem12align_of_val17heaa9adf166dd083fE
	.globl	_ZN4core3mem12align_of_val17heaa9adf166dd083fE
	.p2align	4, 0x90
_ZN4core3mem12align_of_val17heaa9adf166dd083fE:
.Lfunc_begin17:
	.cv_func_id 17
	.cv_loc	17 1 424 0
.Lcfi102:
.seh_proc _ZN4core3mem12align_of_val17heaa9adf166dd083fE
	pushq	%rbp
.Lcfi103:
	.seh_pushreg 5
	subq	$24, %rsp
.Lcfi104:
	.seh_stackalloc 24
	leaq	16(%rsp), %rbp
.Lcfi105:
	.seh_setframe 5, 16
.Lcfi106:
	.seh_endprologue
	movq	%rcx, -8(%rbp)
.Ltmp49:
	.cv_loc	17 1 425 0
	movq	$8, (%rbp)
	movq	(%rbp), %rax
	movq	%rax, -16(%rbp)
.Ltmp50:
	.cv_loc	17 1 426 0
	movq	-16(%rbp), %rax
	addq	$24, %rsp
	popq	%rbp
	retq
.Ltmp51:
.Lfunc_end17:
	.seh_handlerdata
	.section	.text,"xr",one_only,_ZN4core3mem12align_of_val17heaa9adf166dd083fE
.Lcfi107:
	.seh_endproc

	.def	 _ZN4core3mem13uninitialized17h3c129c877dcbcabdE;
	.scl	2;
	.type	32;
	.endef
	.section	.text,"xr",one_only,_ZN4core3mem13uninitialized17h3c129c877dcbcabdE
	.globl	_ZN4core3mem13uninitialized17h3c129c877dcbcabdE
	.p2align	4, 0x90
_ZN4core3mem13uninitialized17h3c129c877dcbcabdE:
.Lfunc_begin18:
	.cv_func_id 18
	.cv_loc	18 1 610 0
.Lcfi108:
.seh_proc _ZN4core3mem13uninitialized17h3c129c877dcbcabdE
	pushq	%rbp
.Lcfi109:
	.seh_pushreg 5
.Ltmp52:
	pushq	%rax
.Lcfi110:
	.seh_stackalloc 8
	movq	%rsp, %rbp
.Lcfi111:
	.seh_setframe 5, 0
.Lcfi112:
	.seh_endprologue
	.cv_loc	18 1 611 0
	movq	%rcx, (%rbp)
	jmp	.LBB18_1
.LBB18_1:
	.cv_loc	18 1 612 0
	movq	(%rbp), %rax
	addq	$8, %rsp
	popq	%rbp
	retq
.Ltmp53:
.Lfunc_end18:
	.seh_handlerdata
	.section	.text,"xr",one_only,_ZN4core3mem13uninitialized17h3c129c877dcbcabdE
.Lcfi113:
	.seh_endproc

	.def	 _ZN4core3mem13uninitialized17h43c5df2a2f5ab9acE;
	.scl	2;
	.type	32;
	.endef
	.section	.text,"xr",one_only,_ZN4core3mem13uninitialized17h43c5df2a2f5ab9acE
	.globl	_ZN4core3mem13uninitialized17h43c5df2a2f5ab9acE
	.p2align	4, 0x90
_ZN4core3mem13uninitialized17h43c5df2a2f5ab9acE:
.Lfunc_begin19:
	.cv_func_id 19
	.cv_loc	19 1 610 0
.Lcfi114:
.seh_proc _ZN4core3mem13uninitialized17h43c5df2a2f5ab9acE
	pushq	%rbp
.Lcfi115:
	.seh_pushreg 5
.Ltmp54:
	pushq	%rax
.Lcfi116:
	.seh_stackalloc 8
	movq	%rsp, %rbp
.Lcfi117:
	.seh_setframe 5, 0
.Lcfi118:
	.seh_endprologue
	.cv_loc	19 1 611 0
	movq	%rcx, (%rbp)
	jmp	.LBB19_1
.LBB19_1:
	.cv_loc	19 1 612 0
	movq	(%rbp), %rax
	addq	$8, %rsp
	popq	%rbp
	retq
.Ltmp55:
.Lfunc_end19:
	.seh_handlerdata
	.section	.text,"xr",one_only,_ZN4core3mem13uninitialized17h43c5df2a2f5ab9acE
.Lcfi119:
	.seh_endproc

	.def	 _ZN4core3mem13uninitialized17h67fc41c0a4812048E;
	.scl	2;
	.type	32;
	.endef
	.section	.text,"xr",one_only,_ZN4core3mem13uninitialized17h67fc41c0a4812048E
	.globl	_ZN4core3mem13uninitialized17h67fc41c0a4812048E
	.p2align	4, 0x90
_ZN4core3mem13uninitialized17h67fc41c0a4812048E:
.Lfunc_begin20:
	.cv_func_id 20
	.cv_loc	20 1 610 0
.Lcfi120:
.seh_proc _ZN4core3mem13uninitialized17h67fc41c0a4812048E
	pushq	%rbp
.Lcfi121:
	.seh_pushreg 5
.Ltmp56:
	subq	$32, %rsp
.Lcfi122:
	.seh_stackalloc 32
	leaq	32(%rsp), %rbp
.Lcfi123:
	.seh_setframe 5, 32
.Lcfi124:
	.seh_endprologue
	.cv_loc	20 1 611 0
	movq	-16(%rbp), %rax
	movq	-8(%rbp), %rdx
	movq	%rax, -24(%rbp)
	movq	%rdx, -32(%rbp)
	.cv_loc	20 1 612 0
	movq	-24(%rbp), %rax
	movq	-32(%rbp), %rdx
	addq	$32, %rsp
	popq	%rbp
	retq
.Ltmp57:
.Lfunc_end20:
	.seh_handlerdata
	.section	.text,"xr",one_only,_ZN4core3mem13uninitialized17h67fc41c0a4812048E
.Lcfi125:
	.seh_endproc

	.def	 _ZN4core3mem13uninitialized17h83b572468d36daf7E;
	.scl	2;
	.type	32;
	.endef
	.section	.text,"xr",one_only,_ZN4core3mem13uninitialized17h83b572468d36daf7E
	.globl	_ZN4core3mem13uninitialized17h83b572468d36daf7E
	.p2align	4, 0x90
_ZN4core3mem13uninitialized17h83b572468d36daf7E:
.Lfunc_begin21:
	.cv_func_id 21
	.cv_loc	21 1 610 0
.Lcfi126:
.seh_proc _ZN4core3mem13uninitialized17h83b572468d36daf7E
	pushq	%rbp
.Lcfi127:
	.seh_pushreg 5
.Ltmp58:
	subq	$16, %rsp
.Lcfi128:
	.seh_stackalloc 16
	leaq	16(%rsp), %rbp
.Lcfi129:
	.seh_setframe 5, 16
.Lcfi130:
	.seh_endprologue
	.cv_loc	21 1 611 0
	movl	-8(%rbp), %eax
	movb	-4(%rbp), %dl
	movl	%eax, -12(%rbp)
	movb	%dl, -13(%rbp)
	.cv_loc	21 1 612 0
	movl	-12(%rbp), %eax
	movb	-13(%rbp), %dl
	addq	$16, %rsp
	popq	%rbp
	retq
.Ltmp59:
.Lfunc_end21:
	.seh_handlerdata
	.section	.text,"xr",one_only,_ZN4core3mem13uninitialized17h83b572468d36daf7E
.Lcfi131:
	.seh_endproc

	.def	 _ZN4core3mem13uninitialized17h87ac97a280128f0fE;
	.scl	2;
	.type	32;
	.endef
	.section	.text,"xr",one_only,_ZN4core3mem13uninitialized17h87ac97a280128f0fE
	.globl	_ZN4core3mem13uninitialized17h87ac97a280128f0fE
	.p2align	4, 0x90
_ZN4core3mem13uninitialized17h87ac97a280128f0fE:
.Lfunc_begin22:
	.cv_func_id 22
	.cv_loc	22 1 610 0
.Lcfi132:
.seh_proc _ZN4core3mem13uninitialized17h87ac97a280128f0fE
	pushq	%rbp
.Lcfi133:
	.seh_pushreg 5
.Ltmp60:
	subq	$80, %rsp
.Lcfi134:
	.seh_stackalloc 80
	leaq	80(%rsp), %rbp
.Lcfi135:
	.seh_setframe 5, 80
.Lcfi136:
	.seh_endprologue
	andq	$-32, %rsp
	.cv_loc	22 1 611 0
	movaps	32(%rsp), %xmm0
	movaps	48(%rsp), %xmm1
	movaps	%xmm0, 16(%rsp)
	movaps	%xmm1, (%rsp)
	.cv_loc	22 1 612 0
	movaps	16(%rsp), %xmm0
	movaps	(%rsp), %xmm1
	movq	%rbp, %rsp
	popq	%rbp
	retq
.Ltmp61:
.Lfunc_end22:
	.seh_handlerdata
	.section	.text,"xr",one_only,_ZN4core3mem13uninitialized17h87ac97a280128f0fE
.Lcfi137:
	.seh_endproc

	.def	 _ZN4core3mem13uninitialized17hb023d224c7bd5041E;
	.scl	2;
	.type	32;
	.endef
	.section	.text,"xr",one_only,_ZN4core3mem13uninitialized17hb023d224c7bd5041E
	.globl	_ZN4core3mem13uninitialized17hb023d224c7bd5041E
	.p2align	4, 0x90
_ZN4core3mem13uninitialized17hb023d224c7bd5041E:
.Lfunc_begin23:
	.cv_func_id 23
	.cv_loc	23 1 610 0
.Lcfi138:
.seh_proc _ZN4core3mem13uninitialized17hb023d224c7bd5041E
	pushq	%rbp
.Lcfi139:
	.seh_pushreg 5
.Ltmp62:
	pushq	%rax
.Lcfi140:
	.seh_stackalloc 8
	movq	%rsp, %rbp
.Lcfi141:
	.seh_setframe 5, 0
.Lcfi142:
	.seh_endprologue
	.cv_loc	23 1 611 0
	movq	%rcx, (%rbp)
	jmp	.LBB23_1
.LBB23_1:
	.cv_loc	23 1 612 0
	movq	(%rbp), %rax
	addq	$8, %rsp
	popq	%rbp
	retq
.Ltmp63:
.Lfunc_end23:
	.seh_handlerdata
	.section	.text,"xr",one_only,_ZN4core3mem13uninitialized17hb023d224c7bd5041E
.Lcfi143:
	.seh_endproc

	.def	 _ZN4core3mem4drop17h2c6d36ed59906c55E;
	.scl	2;
	.type	32;
	.endef
	.section	.text,"xr",one_only,_ZN4core3mem4drop17h2c6d36ed59906c55E
	.globl	_ZN4core3mem4drop17h2c6d36ed59906c55E
	.p2align	4, 0x90
_ZN4core3mem4drop17h2c6d36ed59906c55E:
.Lfunc_begin24:
	.cv_func_id 24
	.cv_loc	24 1 786 0
.Lcfi144:
.seh_proc _ZN4core3mem4drop17h2c6d36ed59906c55E
	pushq	%rbp
.Lcfi145:
	.seh_pushreg 5
	pushq	%rax
.Lcfi146:
	.seh_stackalloc 8
	movq	%rsp, %rbp
.Lcfi147:
	.seh_setframe 5, 0
.Lcfi148:
	.seh_endprologue
	movq	%rcx, (%rbp)
.Ltmp64:
	addq	$8, %rsp
	popq	%rbp
	retq
.Ltmp65:
.Lfunc_end24:
	.seh_handlerdata
	.section	.text,"xr",one_only,_ZN4core3mem4drop17h2c6d36ed59906c55E
.Lcfi149:
	.seh_endproc

	.def	 _ZN4core3mem4drop17h4cba2c6d53bd3f63E;
	.scl	2;
	.type	32;
	.endef
	.section	.text,"xr",one_only,_ZN4core3mem4drop17h4cba2c6d53bd3f63E
	.globl	_ZN4core3mem4drop17h4cba2c6d53bd3f63E
	.p2align	4, 0x90
_ZN4core3mem4drop17h4cba2c6d53bd3f63E:
.Lfunc_begin25:
	.cv_func_id 25
	.cv_loc	25 1 786 0
.Lcfi150:
.seh_proc _ZN4core3mem4drop17h4cba2c6d53bd3f63E
	pushq	%rbp
.Lcfi151:
	.seh_pushreg 5
	subq	$16, %rsp
.Lcfi152:
	.seh_stackalloc 16
	leaq	16(%rsp), %rbp
.Lcfi153:
	.seh_setframe 5, 16
.Lcfi154:
	.seh_endprologue
	movq	%rcx, -16(%rbp)
	movq	%rdx, -8(%rbp)
.Ltmp66:
	addq	$16, %rsp
	popq	%rbp
	retq
.Ltmp67:
.Lfunc_end25:
	.seh_handlerdata
	.section	.text,"xr",one_only,_ZN4core3mem4drop17h4cba2c6d53bd3f63E
.Lcfi155:
	.seh_endproc

	.def	 _ZN4core3mem4swap17h06be80a8938d09eeE;
	.scl	2;
	.type	32;
	.endef
	.section	.text,"xr",one_only,_ZN4core3mem4swap17h06be80a8938d09eeE
	.globl	_ZN4core3mem4swap17h06be80a8938d09eeE
	.p2align	4, 0x90
_ZN4core3mem4swap17h06be80a8938d09eeE:
.Lfunc_begin26:
	.cv_func_id 26
	.cv_loc	26 1 631 0
.Lcfi156:
.seh_proc _ZN4core3mem4swap17h06be80a8938d09eeE
	pushq	%rbp
.Lcfi157:
	.seh_pushreg 5
	subq	$48, %rsp
.Lcfi158:
	.seh_stackalloc 48
	leaq	48(%rsp), %rbp
.Lcfi159:
	.seh_setframe 5, 48
.Lcfi160:
	.seh_endprologue
	movl	$1, %eax
	movl	%eax, %r8d
	movq	%rcx, -16(%rbp)
	movq	%rdx, -8(%rbp)
.Ltmp68:
	.cv_loc	26 1 633 0
	movq	-16(%rbp), %rcx
	movq	-8(%rbp), %rdx
	callq	_ZN4core3ptr19swap_nonoverlapping17h91affafd204f8b86E
.Ltmp69:
	.cv_loc	26 1 635 0
	nop
	addq	$48, %rsp
	popq	%rbp
	retq
.Ltmp70:
.Lfunc_end26:
	.seh_handlerdata
	.section	.text,"xr",one_only,_ZN4core3mem4swap17h06be80a8938d09eeE
.Lcfi161:
	.seh_endproc

	.def	 _ZN4core3mem4swap17h0cd5d0d344757a17E;
	.scl	2;
	.type	32;
	.endef
	.section	.text,"xr",one_only,_ZN4core3mem4swap17h0cd5d0d344757a17E
	.globl	_ZN4core3mem4swap17h0cd5d0d344757a17E
	.p2align	4, 0x90
_ZN4core3mem4swap17h0cd5d0d344757a17E:
.Lfunc_begin27:
	.cv_func_id 27
	.cv_loc	27 1 631 0
.Lcfi162:
.seh_proc _ZN4core3mem4swap17h0cd5d0d344757a17E
	pushq	%rbp
.Lcfi163:
	.seh_pushreg 5
	subq	$48, %rsp
.Lcfi164:
	.seh_stackalloc 48
	leaq	48(%rsp), %rbp
.Lcfi165:
	.seh_setframe 5, 48
.Lcfi166:
	.seh_endprologue
	movl	$1, %eax
	movl	%eax, %r8d
	movq	%rcx, -16(%rbp)
	movq	%rdx, -8(%rbp)
.Ltmp71:
	.cv_loc	27 1 633 0
	movq	-16(%rbp), %rcx
	movq	-8(%rbp), %rdx
	callq	_ZN4core3ptr19swap_nonoverlapping17h405d5c5eabda2e37E
.Ltmp72:
	.cv_loc	27 1 635 0
	nop
	addq	$48, %rsp
	popq	%rbp
	retq
.Ltmp73:
.Lfunc_end27:
	.seh_handlerdata
	.section	.text,"xr",one_only,_ZN4core3mem4swap17h0cd5d0d344757a17E
.Lcfi167:
	.seh_endproc

	.def	 _ZN4core3mem4swap17h34033b333e6fcb8fE;
	.scl	3;
	.type	32;
	.endef
	.section	.text,"xr",one_only,_ZN4core3mem4swap17h34033b333e6fcb8fE
	.p2align	4, 0x90
_ZN4core3mem4swap17h34033b333e6fcb8fE:
.Lfunc_begin28:
	.cv_func_id 28
	.cv_loc	28 1 631 0
.Lcfi168:
.seh_proc _ZN4core3mem4swap17h34033b333e6fcb8fE
	pushq	%rbp
.Lcfi169:
	.seh_pushreg 5
	subq	$48, %rsp
.Lcfi170:
	.seh_stackalloc 48
	leaq	48(%rsp), %rbp
.Lcfi171:
	.seh_setframe 5, 48
.Lcfi172:
	.seh_endprologue
	movl	$1, %eax
	movl	%eax, %r8d
	movq	%rcx, -16(%rbp)
	movq	%rdx, -8(%rbp)
.Ltmp74:
	.cv_loc	28 1 633 0
	movq	-16(%rbp), %rcx
	movq	-8(%rbp), %rdx
	callq	_ZN4core3ptr19swap_nonoverlapping17h7d531141f70dc590E
.Ltmp75:
	.cv_loc	28 1 635 0
	nop
	addq	$48, %rsp
	popq	%rbp
	retq
.Ltmp76:
.Lfunc_end28:
	.seh_handlerdata
	.section	.text,"xr",one_only,_ZN4core3mem4swap17h34033b333e6fcb8fE
.Lcfi173:
	.seh_endproc

	.def	 _ZN4core3mem4swap17h5af180b107defa7bE;
	.scl	3;
	.type	32;
	.endef
	.section	.text,"xr",one_only,_ZN4core3mem4swap17h5af180b107defa7bE
	.p2align	4, 0x90
_ZN4core3mem4swap17h5af180b107defa7bE:
.Lfunc_begin29:
	.cv_func_id 29
	.cv_loc	29 1 631 0
.Lcfi174:
.seh_proc _ZN4core3mem4swap17h5af180b107defa7bE
	pushq	%rbp
.Lcfi175:
	.seh_pushreg 5
	subq	$48, %rsp
.Lcfi176:
	.seh_stackalloc 48
	leaq	48(%rsp), %rbp
.Lcfi177:
	.seh_setframe 5, 48
.Lcfi178:
	.seh_endprologue
	movl	$1, %eax
	movl	%eax, %r8d
	movq	%rcx, -16(%rbp)
	movq	%rdx, -8(%rbp)
.Ltmp77:
	.cv_loc	29 1 633 0
	movq	-16(%rbp), %rcx
	movq	-8(%rbp), %rdx
	callq	_ZN4core3ptr19swap_nonoverlapping17hbac5e3363343480fE
.Ltmp78:
	.cv_loc	29 1 635 0
	nop
	addq	$48, %rsp
	popq	%rbp
	retq
.Ltmp79:
.Lfunc_end29:
	.seh_handlerdata
	.section	.text,"xr",one_only,_ZN4core3mem4swap17h5af180b107defa7bE
.Lcfi179:
	.seh_endproc

	.def	 _ZN4core3mem4swap17h8f9cc8cae724233aE;
	.scl	3;
	.type	32;
	.endef
	.section	.text,"xr",one_only,_ZN4core3mem4swap17h8f9cc8cae724233aE
	.p2align	4, 0x90
_ZN4core3mem4swap17h8f9cc8cae724233aE:
.Lfunc_begin30:
	.cv_func_id 30
	.cv_loc	30 1 631 0
.Lcfi180:
.seh_proc _ZN4core3mem4swap17h8f9cc8cae724233aE
	pushq	%rbp
.Lcfi181:
	.seh_pushreg 5
	subq	$48, %rsp
.Lcfi182:
	.seh_stackalloc 48
	leaq	48(%rsp), %rbp
.Lcfi183:
	.seh_setframe 5, 48
.Lcfi184:
	.seh_endprologue
	movl	$1, %eax
	movl	%eax, %r8d
	movq	%rcx, -16(%rbp)
	movq	%rdx, -8(%rbp)
.Ltmp80:
	.cv_loc	30 1 633 0
	movq	-16(%rbp), %rcx
	movq	-8(%rbp), %rdx
	callq	_ZN4core3ptr19swap_nonoverlapping17h6e0872cb6b9ed424E
.Ltmp81:
	.cv_loc	30 1 635 0
	nop
	addq	$48, %rsp
	popq	%rbp
	retq
.Ltmp82:
.Lfunc_end30:
	.seh_handlerdata
	.section	.text,"xr",one_only,_ZN4core3mem4swap17h8f9cc8cae724233aE
.Lcfi185:
	.seh_endproc

	.def	 _ZN4core3mem4swap17hc991a9d5e5ebccd5E;
	.scl	2;
	.type	32;
	.endef
	.section	.text,"xr",one_only,_ZN4core3mem4swap17hc991a9d5e5ebccd5E
	.globl	_ZN4core3mem4swap17hc991a9d5e5ebccd5E
	.p2align	4, 0x90
_ZN4core3mem4swap17hc991a9d5e5ebccd5E:
.Lfunc_begin31:
	.cv_func_id 31
	.cv_loc	31 1 631 0
.Lcfi186:
.seh_proc _ZN4core3mem4swap17hc991a9d5e5ebccd5E
	pushq	%rbp
.Lcfi187:
	.seh_pushreg 5
	subq	$48, %rsp
.Lcfi188:
	.seh_stackalloc 48
	leaq	48(%rsp), %rbp
.Lcfi189:
	.seh_setframe 5, 48
.Lcfi190:
	.seh_endprologue
	movl	$1, %eax
	movl	%eax, %r8d
	movq	%rcx, -16(%rbp)
	movq	%rdx, -8(%rbp)
.Ltmp83:
	.cv_loc	31 1 633 0
	movq	-16(%rbp), %rcx
	movq	-8(%rbp), %rdx
	callq	_ZN4core3ptr19swap_nonoverlapping17had3123bd1f666ca5E
.Ltmp84:
	.cv_loc	31 1 635 0
	nop
	addq	$48, %rsp
	popq	%rbp
	retq
.Ltmp85:
.Lfunc_end31:
	.seh_handlerdata
	.section	.text,"xr",one_only,_ZN4core3mem4swap17hc991a9d5e5ebccd5E
.Lcfi191:
	.seh_endproc

	.def	 _ZN4core3mem4swap17hcb0e73d3596b2fdaE;
	.scl	3;
	.type	32;
	.endef
	.section	.text,"xr",one_only,_ZN4core3mem4swap17hcb0e73d3596b2fdaE
	.p2align	4, 0x90
_ZN4core3mem4swap17hcb0e73d3596b2fdaE:
.Lfunc_begin32:
	.cv_func_id 32
	.cv_loc	32 1 631 0
.Lcfi192:
.seh_proc _ZN4core3mem4swap17hcb0e73d3596b2fdaE
	pushq	%rbp
.Lcfi193:
	.seh_pushreg 5
	subq	$48, %rsp
.Lcfi194:
	.seh_stackalloc 48
	leaq	48(%rsp), %rbp
.Lcfi195:
	.seh_setframe 5, 48
.Lcfi196:
	.seh_endprologue
	movl	$1, %eax
	movl	%eax, %r8d
	movq	%rcx, -16(%rbp)
	movq	%rdx, -8(%rbp)
.Ltmp86:
	.cv_loc	32 1 633 0
	movq	-16(%rbp), %rcx
	movq	-8(%rbp), %rdx
	callq	_ZN4core3ptr19swap_nonoverlapping17h8f867256065c1a6dE
.Ltmp87:
	.cv_loc	32 1 635 0
	nop
	addq	$48, %rsp
	popq	%rbp
	retq
.Ltmp88:
.Lfunc_end32:
	.seh_handlerdata
	.section	.text,"xr",one_only,_ZN4core3mem4swap17hcb0e73d3596b2fdaE
.Lcfi197:
	.seh_endproc

	.def	 _ZN4core3mem6forget17h1a47e0c908b06c57E;
	.scl	2;
	.type	32;
	.endef
	.section	.text,"xr",one_only,_ZN4core3mem6forget17h1a47e0c908b06c57E
	.globl	_ZN4core3mem6forget17h1a47e0c908b06c57E
	.p2align	4, 0x90
_ZN4core3mem6forget17h1a47e0c908b06c57E:
.Lfunc_begin33:
	.cv_func_id 33
	.cv_loc	33 1 174 0
.Lcfi198:
.seh_proc _ZN4core3mem6forget17h1a47e0c908b06c57E
	pushq	%rbp
.Lcfi199:
	.seh_pushreg 5
	subq	$80, %rsp
.Lcfi200:
	.seh_stackalloc 80
	leaq	80(%rsp), %rbp
.Lcfi201:
	.seh_setframe 5, 80
.Lcfi202:
	.seh_endprologue
	leaq	-48(%rbp), %rax
	leaq	-24(%rbp), %rdx
.Ltmp89:
	.cv_loc	33 1 175 0
	movq	(%rcx), %r8
	movq	%r8, -24(%rbp)
	movq	8(%rcx), %r8
	movq	%r8, -16(%rbp)
	movq	16(%rcx), %rcx
.Ltmp90:
	movq	%rcx, -8(%rbp)
	movq	%rax, %rcx
	callq	_ZN41_$LT$core..mem..ManuallyDrop$LT$T$GT$$GT$3new17haf89aa1076a168ccE
	.cv_loc	33 1 176 0
	nop
	addq	$80, %rsp
	popq	%rbp
	retq
.Ltmp91:
.Lfunc_end33:
	.seh_handlerdata
	.section	.text,"xr",one_only,_ZN4core3mem6forget17h1a47e0c908b06c57E
.Lcfi203:
	.seh_endproc

	.def	 _ZN4core3mem6forget17h4becc2b7500e5e41E;
	.scl	2;
	.type	32;
	.endef
	.section	.text,"xr",one_only,_ZN4core3mem6forget17h4becc2b7500e5e41E
	.globl	_ZN4core3mem6forget17h4becc2b7500e5e41E
	.p2align	4, 0x90
_ZN4core3mem6forget17h4becc2b7500e5e41E:
.Lfunc_begin34:
	.cv_func_id 34
	.cv_loc	34 1 174 0
.Lcfi204:
.seh_proc _ZN4core3mem6forget17h4becc2b7500e5e41E
	pushq	%rbp
.Lcfi205:
	.seh_pushreg 5
	subq	$64, %rsp
.Lcfi206:
	.seh_stackalloc 64
	leaq	64(%rsp), %rbp
.Lcfi207:
	.seh_setframe 5, 64
.Lcfi208:
	.seh_endprologue
	movq	%rcx, -24(%rbp)
.Ltmp92:
	.cv_loc	34 1 175 0
	movq	-24(%rbp), %rcx
	callq	_ZN41_$LT$core..mem..ManuallyDrop$LT$T$GT$$GT$3new17h91c424d911bbd08dE
	movq	%rax, -8(%rbp)
	movq	-8(%rbp), %rax
	movq	%rax, -16(%rbp)
	.cv_loc	34 1 176 0
	addq	$64, %rsp
	popq	%rbp
	retq
.Ltmp93:
.Lfunc_end34:
	.seh_handlerdata
	.section	.text,"xr",one_only,_ZN4core3mem6forget17h4becc2b7500e5e41E
.Lcfi209:
	.seh_endproc

	.def	 _ZN4core3mem6forget17h4c90e2ef1039e766E;
	.scl	2;
	.type	32;
	.endef
	.section	.text,"xr",one_only,_ZN4core3mem6forget17h4c90e2ef1039e766E
	.globl	_ZN4core3mem6forget17h4c90e2ef1039e766E
	.p2align	4, 0x90
_ZN4core3mem6forget17h4c90e2ef1039e766E:
.Lfunc_begin35:
	.cv_func_id 35
	.cv_loc	35 1 174 0
.Lcfi210:
.seh_proc _ZN4core3mem6forget17h4c90e2ef1039e766E
	pushq	%rbp
.Lcfi211:
	.seh_pushreg 5
	subq	$64, %rsp
.Lcfi212:
	.seh_stackalloc 64
	leaq	64(%rsp), %rbp
.Lcfi213:
	.seh_setframe 5, 64
.Lcfi214:
	.seh_endprologue
	movq	%rcx, -24(%rbp)
.Ltmp94:
	.cv_loc	35 1 175 0
	movq	-24(%rbp), %rcx
	callq	_ZN41_$LT$core..mem..ManuallyDrop$LT$T$GT$$GT$3new17h25ddefbc0a379c2bE
	movq	%rax, -8(%rbp)
	movq	-8(%rbp), %rax
	movq	%rax, -16(%rbp)
	.cv_loc	35 1 176 0
	addq	$64, %rsp
	popq	%rbp
	retq
.Ltmp95:
.Lfunc_end35:
	.seh_handlerdata
	.section	.text,"xr",one_only,_ZN4core3mem6forget17h4c90e2ef1039e766E
.Lcfi215:
	.seh_endproc

	.def	 _ZN4core3mem6forget17h53ab9a01b5d7d0dbE;
	.scl	2;
	.type	32;
	.endef
	.section	.text,"xr",one_only,_ZN4core3mem6forget17h53ab9a01b5d7d0dbE
	.globl	_ZN4core3mem6forget17h53ab9a01b5d7d0dbE
	.p2align	4, 0x90
_ZN4core3mem6forget17h53ab9a01b5d7d0dbE:
.Lfunc_begin36:
	.cv_func_id 36
	.cv_loc	36 1 174 0
.Lcfi216:
.seh_proc _ZN4core3mem6forget17h53ab9a01b5d7d0dbE
	pushq	%rbp
.Lcfi217:
	.seh_pushreg 5
	subq	$64, %rsp
.Lcfi218:
	.seh_stackalloc 64
	leaq	64(%rsp), %rbp
.Lcfi219:
	.seh_setframe 5, 64
.Lcfi220:
	.seh_endprologue
	leaq	-16(%rbp), %rax
	movq	%rcx, -32(%rbp)
	movq	%rdx, -24(%rbp)
.Ltmp96:
	.cv_loc	36 1 175 0
	movq	-32(%rbp), %rdx
	movq	-24(%rbp), %r8
	movq	%rax, %rcx
	callq	_ZN41_$LT$core..mem..ManuallyDrop$LT$T$GT$$GT$3new17hf5e3b8f36d219566E
	.cv_loc	36 1 176 0
	nop
	addq	$64, %rsp
	popq	%rbp
	retq
.Ltmp97:
.Lfunc_end36:
	.seh_handlerdata
	.section	.text,"xr",one_only,_ZN4core3mem6forget17h53ab9a01b5d7d0dbE
.Lcfi221:
	.seh_endproc

	.def	 _ZN4core3mem6forget17h9250f9763c6a8022E;
	.scl	2;
	.type	32;
	.endef
	.section	.text,"xr",one_only,_ZN4core3mem6forget17h9250f9763c6a8022E
	.globl	_ZN4core3mem6forget17h9250f9763c6a8022E
	.p2align	4, 0x90
_ZN4core3mem6forget17h9250f9763c6a8022E:
.Lfunc_begin37:
	.cv_func_id 37
	.cv_loc	37 1 174 0
.Lcfi222:
.seh_proc _ZN4core3mem6forget17h9250f9763c6a8022E
	pushq	%rbp
.Lcfi223:
	.seh_pushreg 5
	subq	$80, %rsp
.Lcfi224:
	.seh_stackalloc 80
	leaq	80(%rsp), %rbp
.Lcfi225:
	.seh_setframe 5, 80
.Lcfi226:
	.seh_endprologue
	leaq	-48(%rbp), %rax
	leaq	-24(%rbp), %rdx
.Ltmp98:
	.cv_loc	37 1 175 0
	movq	(%rcx), %r8
	movq	%r8, -24(%rbp)
	movq	8(%rcx), %r8
	movq	%r8, -16(%rbp)
	movq	16(%rcx), %rcx
.Ltmp99:
	movq	%rcx, -8(%rbp)
	movq	%rax, %rcx
	callq	_ZN41_$LT$core..mem..ManuallyDrop$LT$T$GT$$GT$3new17h469e263d41e4eb4fE
	.cv_loc	37 1 176 0
	nop
	addq	$80, %rsp
	popq	%rbp
	retq
.Ltmp100:
.Lfunc_end37:
	.seh_handlerdata
	.section	.text,"xr",one_only,_ZN4core3mem6forget17h9250f9763c6a8022E
.Lcfi227:
	.seh_endproc

	.def	 _ZN4core3mem6forget17hd3604a87d406e39cE;
	.scl	2;
	.type	32;
	.endef
	.section	.text,"xr",one_only,_ZN4core3mem6forget17hd3604a87d406e39cE
	.globl	_ZN4core3mem6forget17hd3604a87d406e39cE
	.p2align	4, 0x90
_ZN4core3mem6forget17hd3604a87d406e39cE:
.Lfunc_begin38:
	.cv_func_id 38
	.cv_loc	38 1 174 0
.Lcfi228:
.seh_proc _ZN4core3mem6forget17hd3604a87d406e39cE
	pushq	%rbp
.Lcfi229:
	.seh_pushreg 5
	subq	$80, %rsp
.Lcfi230:
	.seh_stackalloc 80
	leaq	80(%rsp), %rbp
.Lcfi231:
	.seh_setframe 5, 80
.Lcfi232:
	.seh_endprologue
	leaq	-48(%rbp), %rax
	leaq	-24(%rbp), %rdx
.Ltmp101:
	.cv_loc	38 1 175 0
	movq	(%rcx), %r8
	movq	%r8, -24(%rbp)
	movq	8(%rcx), %r8
	movq	%r8, -16(%rbp)
	movq	16(%rcx), %rcx
.Ltmp102:
	movq	%rcx, -8(%rbp)
	movq	%rax, %rcx
	callq	_ZN41_$LT$core..mem..ManuallyDrop$LT$T$GT$$GT$3new17hf6dc26aee73811fdE
	.cv_loc	38 1 176 0
	nop
	addq	$80, %rsp
	popq	%rbp
	retq
.Ltmp103:
.Lfunc_end38:
	.seh_handlerdata
	.section	.text,"xr",one_only,_ZN4core3mem6forget17hd3604a87d406e39cE
.Lcfi233:
	.seh_endproc

	.def	 _ZN4core3mem7replace17h0f058cead68483c7E;
	.scl	2;
	.type	32;
	.endef
	.section	.text,"xr",one_only,_ZN4core3mem7replace17h0f058cead68483c7E
	.globl	_ZN4core3mem7replace17h0f058cead68483c7E
	.p2align	4, 0x90
_ZN4core3mem7replace17h0f058cead68483c7E:
.Lfunc_begin39:
	.cv_func_id 39
	.cv_loc	39 1 689 0
.Lcfi234:
.seh_proc _ZN4core3mem7replace17h0f058cead68483c7E
	.seh_handler __CxxFrameHandler3, @unwind, @except
	pushq	%rbp
.Lcfi235:
	.seh_pushreg 5
	subq	$64, %rsp
.Lcfi236:
	.seh_stackalloc 64
	leaq	64(%rsp), %rbp
.Lcfi237:
	.seh_setframe 5, 64
.Lcfi238:
	.seh_endprologue
	movq	$-2, -8(%rbp)
	movq	%rcx, -32(%rbp)
	movq	%rdx, -24(%rbp)
	movq	%r8, -16(%rbp)
.Ltmp106:
	.cv_loc	39 1 690 0
	movq	-32(%rbp), %rcx
.Ltmp104:
	leaq	-24(%rbp), %rdx
	callq	_ZN4core3mem4swap17h34033b333e6fcb8fE
.Ltmp105:
	jmp	.LBB39_1
.Ltmp107:
.LBB39_1:
	.cv_loc	39 1 691 0
	movq	-24(%rbp), %rax
	movq	-16(%rbp), %rdx
	.cv_loc	39 1 692 0
	addq	$64, %rsp
	popq	%rbp
.Ltmp108:
	retq
	.seh_handlerdata
	.long	($cppxdata$_ZN4core3mem7replace17h0f058cead68483c7E)@IMGREL
	.section	.text,"xr",one_only,_ZN4core3mem7replace17h0f058cead68483c7E
.Lcfi239:
	.seh_endproc
	.def	 "?dtor$2@?0?_ZN4core3mem7replace17h0f058cead68483c7E@4HA";
	.scl	3;
	.type	32;
	.endef
	.p2align	4, 0x90
"?dtor$2@?0?_ZN4core3mem7replace17h0f058cead68483c7E@4HA":
.Lcfi240:
.seh_proc "?dtor$2@?0?_ZN4core3mem7replace17h0f058cead68483c7E@4HA"
.LBB39_2:
.Ltmp109:
	movq	%rdx, 16(%rsp)
	pushq	%rbp
.Lcfi241:
	.seh_pushreg 5
	subq	$32, %rsp
.Lcfi242:
	.seh_stackalloc 32
	leaq	64(%rdx), %rbp
.Ltmp110:
.Lcfi243:
	.seh_endprologue
	.cv_loc	39 1 689 0
	addq	$32, %rsp
	popq	%rbp
	retq
.Ltmp111:
.Lfunc_end39:
	.seh_handlerdata
	.section	.text,"xr",one_only,_ZN4core3mem7replace17h0f058cead68483c7E
.Lcfi244:
	.seh_endproc
	.section	.xdata,"dr",associative,_ZN4core3mem7replace17h0f058cead68483c7E
	.p2align	2
$cppxdata$_ZN4core3mem7replace17h0f058cead68483c7E:
	.long	429065506
	.long	1
	.long	($stateUnwindMap$_ZN4core3mem7replace17h0f058cead68483c7E)@IMGREL
	.long	0
	.long	0
	.long	3
	.long	($ip2state$_ZN4core3mem7replace17h0f058cead68483c7E)@IMGREL
	.long	56
	.long	0
	.long	1
$stateUnwindMap$_ZN4core3mem7replace17h0f058cead68483c7E:
	.long	-1
	.long	"?dtor$2@?0?_ZN4core3mem7replace17h0f058cead68483c7E@4HA"@IMGREL
$ip2state$_ZN4core3mem7replace17h0f058cead68483c7E:
	.long	.Lfunc_begin39@IMGREL
	.long	-1
	.long	.Ltmp104@IMGREL+1
	.long	0
	.long	.Ltmp105@IMGREL+1
	.long	-1
	.section	.text,"xr",one_only,_ZN4core3mem7replace17h0f058cead68483c7E

	.def	 _ZN4core3mem7replace17ha38e20021f36411aE;
	.scl	2;
	.type	32;
	.endef
	.section	.text,"xr",one_only,_ZN4core3mem7replace17ha38e20021f36411aE
	.globl	_ZN4core3mem7replace17ha38e20021f36411aE
	.p2align	4, 0x90
_ZN4core3mem7replace17ha38e20021f36411aE:
.Lfunc_begin40:
	.cv_func_id 40
	.cv_loc	40 1 689 0
.Lcfi245:
.seh_proc _ZN4core3mem7replace17ha38e20021f36411aE
	.seh_handler __CxxFrameHandler3, @unwind, @except
	pushq	%rbp
.Lcfi246:
	.seh_pushreg 5
	subq	$96, %rsp
.Lcfi247:
	.seh_stackalloc 96
	leaq	96(%rsp), %rbp
.Lcfi248:
	.seh_setframe 5, 96
.Lcfi249:
	.seh_endprologue
	movq	$-2, -8(%rbp)
	movq	%rcx, %rax
	movq	%rdx, -40(%rbp)
.Ltmp114:
	.cv_loc	40 1 690 0
	movq	-40(%rbp), %rdx
.Ltmp112:
	movq	%rcx, -48(%rbp)
	movq	%rdx, %rcx
	movq	%r8, %rdx
	movq	%rax, -56(%rbp)
	movq	%r8, -64(%rbp)
.Ltmp115:
	callq	_ZN4core3mem4swap17h8f9cc8cae724233aE
.Ltmp113:
	jmp	.LBB40_1
.Ltmp116:
.LBB40_1:
	.cv_loc	40 1 691 0
	movq	-64(%rbp), %rax
	movq	(%rax), %rcx
	movq	%rcx, -32(%rbp)
	movq	8(%rax), %rcx
	movq	%rcx, -24(%rbp)
	movq	16(%rax), %rcx
	movq	%rcx, -16(%rbp)
	movq	-32(%rbp), %rcx
	movq	-48(%rbp), %rdx
	movq	%rcx, (%rdx)
	movq	-24(%rbp), %rcx
	movq	%rcx, 8(%rdx)
	movq	-16(%rbp), %rcx
	movq	%rcx, 16(%rdx)
	.cv_loc	40 1 692 0
	movq	-56(%rbp), %rax
	addq	$96, %rsp
	popq	%rbp
.Ltmp117:
	retq
	.seh_handlerdata
	.long	($cppxdata$_ZN4core3mem7replace17ha38e20021f36411aE)@IMGREL
	.section	.text,"xr",one_only,_ZN4core3mem7replace17ha38e20021f36411aE
.Lcfi250:
	.seh_endproc
	.def	 "?dtor$2@?0?_ZN4core3mem7replace17ha38e20021f36411aE@4HA";
	.scl	3;
	.type	32;
	.endef
	.p2align	4, 0x90
"?dtor$2@?0?_ZN4core3mem7replace17ha38e20021f36411aE@4HA":
.Lcfi251:
.seh_proc "?dtor$2@?0?_ZN4core3mem7replace17ha38e20021f36411aE@4HA"
.LBB40_2:
.Ltmp118:
	movq	%rdx, 16(%rsp)
	pushq	%rbp
.Lcfi252:
	.seh_pushreg 5
	subq	$32, %rsp
.Lcfi253:
	.seh_stackalloc 32
	leaq	96(%rdx), %rbp
.Ltmp119:
.Lcfi254:
	.seh_endprologue
	.cv_loc	40 1 689 0
	addq	$32, %rsp
	popq	%rbp
	retq
.Ltmp120:
.Lfunc_end40:
	.seh_handlerdata
	.section	.text,"xr",one_only,_ZN4core3mem7replace17ha38e20021f36411aE
.Lcfi255:
	.seh_endproc
	.section	.xdata,"dr",associative,_ZN4core3mem7replace17ha38e20021f36411aE
	.p2align	2
$cppxdata$_ZN4core3mem7replace17ha38e20021f36411aE:
	.long	429065506
	.long	1
	.long	($stateUnwindMap$_ZN4core3mem7replace17ha38e20021f36411aE)@IMGREL
	.long	0
	.long	0
	.long	3
	.long	($ip2state$_ZN4core3mem7replace17ha38e20021f36411aE)@IMGREL
	.long	88
	.long	0
	.long	1
$stateUnwindMap$_ZN4core3mem7replace17ha38e20021f36411aE:
	.long	-1
	.long	"?dtor$2@?0?_ZN4core3mem7replace17ha38e20021f36411aE@4HA"@IMGREL
$ip2state$_ZN4core3mem7replace17ha38e20021f36411aE:
	.long	.Lfunc_begin40@IMGREL
	.long	-1
	.long	.Ltmp112@IMGREL+1
	.long	0
	.long	.Ltmp113@IMGREL+1
	.long	-1
	.section	.text,"xr",one_only,_ZN4core3mem7replace17ha38e20021f36411aE

	.def	 _ZN4core3mem7replace17hd28a85ac64149200E;
	.scl	2;
	.type	32;
	.endef
	.section	.text,"xr",one_only,_ZN4core3mem7replace17hd28a85ac64149200E
	.globl	_ZN4core3mem7replace17hd28a85ac64149200E
	.p2align	4, 0x90
_ZN4core3mem7replace17hd28a85ac64149200E:
.Lfunc_begin41:
	.cv_func_id 41
	.cv_loc	41 1 689 0
.Lcfi256:
.seh_proc _ZN4core3mem7replace17hd28a85ac64149200E
	.seh_handler __CxxFrameHandler3, @unwind, @except
	pushq	%rbp
.Lcfi257:
	.seh_pushreg 5
	subq	$96, %rsp
.Lcfi258:
	.seh_stackalloc 96
	leaq	96(%rsp), %rbp
.Lcfi259:
	.seh_setframe 5, 96
.Lcfi260:
	.seh_endprologue
	movq	$-2, -8(%rbp)
	movq	%rcx, %rax
	movq	%rdx, -40(%rbp)
.Ltmp123:
	.cv_loc	41 1 690 0
	movq	-40(%rbp), %rdx
.Ltmp121:
	movq	%rcx, -48(%rbp)
	movq	%rdx, %rcx
	movq	%r8, %rdx
	movq	%rax, -56(%rbp)
	movq	%r8, -64(%rbp)
.Ltmp124:
	callq	_ZN4core3mem4swap17hcb0e73d3596b2fdaE
.Ltmp122:
	jmp	.LBB41_1
.Ltmp125:
.LBB41_1:
	.cv_loc	41 1 691 0
	movq	-64(%rbp), %rax
	movq	(%rax), %rcx
	movq	%rcx, -32(%rbp)
	movq	8(%rax), %rcx
	movq	%rcx, -24(%rbp)
	movq	16(%rax), %rcx
	movq	%rcx, -16(%rbp)
	movq	-32(%rbp), %rcx
	movq	-48(%rbp), %rdx
	movq	%rcx, (%rdx)
	movq	-24(%rbp), %rcx
	movq	%rcx, 8(%rdx)
	movq	-16(%rbp), %rcx
	movq	%rcx, 16(%rdx)
	.cv_loc	41 1 692 0
	movq	-56(%rbp), %rax
	addq	$96, %rsp
	popq	%rbp
.Ltmp126:
	retq
	.seh_handlerdata
	.long	($cppxdata$_ZN4core3mem7replace17hd28a85ac64149200E)@IMGREL
	.section	.text,"xr",one_only,_ZN4core3mem7replace17hd28a85ac64149200E
.Lcfi261:
	.seh_endproc
	.def	 "?dtor$2@?0?_ZN4core3mem7replace17hd28a85ac64149200E@4HA";
	.scl	3;
	.type	32;
	.endef
	.p2align	4, 0x90
"?dtor$2@?0?_ZN4core3mem7replace17hd28a85ac64149200E@4HA":
.Lcfi262:
.seh_proc "?dtor$2@?0?_ZN4core3mem7replace17hd28a85ac64149200E@4HA"
.LBB41_2:
.Ltmp127:
	movq	%rdx, 16(%rsp)
	pushq	%rbp
.Lcfi263:
	.seh_pushreg 5
	subq	$32, %rsp
.Lcfi264:
	.seh_stackalloc 32
	leaq	96(%rdx), %rbp
.Ltmp128:
.Lcfi265:
	.seh_endprologue
	movq	-64(%rbp), %rcx
	callq	_ZN4core3ptr13drop_in_place17h67760d014c257544E
	.cv_loc	41 1 689 0
	nop
	addq	$32, %rsp
	popq	%rbp
	retq
.Ltmp129:
.Lfunc_end41:
	.seh_handlerdata
	.section	.text,"xr",one_only,_ZN4core3mem7replace17hd28a85ac64149200E
.Lcfi266:
	.seh_endproc
	.section	.xdata,"dr",associative,_ZN4core3mem7replace17hd28a85ac64149200E
	.p2align	2
$cppxdata$_ZN4core3mem7replace17hd28a85ac64149200E:
	.long	429065506
	.long	1
	.long	($stateUnwindMap$_ZN4core3mem7replace17hd28a85ac64149200E)@IMGREL
	.long	0
	.long	0
	.long	3
	.long	($ip2state$_ZN4core3mem7replace17hd28a85ac64149200E)@IMGREL
	.long	88
	.long	0
	.long	1
$stateUnwindMap$_ZN4core3mem7replace17hd28a85ac64149200E:
	.long	-1
	.long	"?dtor$2@?0?_ZN4core3mem7replace17hd28a85ac64149200E@4HA"@IMGREL
$ip2state$_ZN4core3mem7replace17hd28a85ac64149200E:
	.long	.Lfunc_begin41@IMGREL
	.long	-1
	.long	.Ltmp121@IMGREL+1
	.long	0
	.long	.Ltmp122@IMGREL+1
	.long	-1
	.section	.text,"xr",one_only,_ZN4core3mem7replace17hd28a85ac64149200E

	.def	 _ZN4core3mem7replace17hfcd5298c74e0b7caE;
	.scl	2;
	.type	32;
	.endef
	.section	.text,"xr",one_only,_ZN4core3mem7replace17hfcd5298c74e0b7caE
	.globl	_ZN4core3mem7replace17hfcd5298c74e0b7caE
	.p2align	4, 0x90
_ZN4core3mem7replace17hfcd5298c74e0b7caE:
.Lfunc_begin42:
	.cv_func_id 42
	.cv_loc	42 1 689 0
.Lcfi267:
.seh_proc _ZN4core3mem7replace17hfcd5298c74e0b7caE
	.seh_handler __CxxFrameHandler3, @unwind, @except
	pushq	%rbp
.Lcfi268:
	.seh_pushreg 5
	subq	$64, %rsp
.Lcfi269:
	.seh_stackalloc 64
	leaq	64(%rsp), %rbp
.Lcfi270:
	.seh_setframe 5, 64
.Lcfi271:
	.seh_endprologue
	movq	$-2, -8(%rbp)
	movq	%rcx, -24(%rbp)
	movq	%rdx, -16(%rbp)
.Ltmp132:
	.cv_loc	42 1 690 0
	movq	-24(%rbp), %rcx
.Ltmp130:
	leaq	-16(%rbp), %rdx
	callq	_ZN4core3mem4swap17h5af180b107defa7bE
.Ltmp131:
	jmp	.LBB42_1
.Ltmp133:
.LBB42_1:
	.cv_loc	42 1 691 0
	movq	-16(%rbp), %rax
	.cv_loc	42 1 692 0
	addq	$64, %rsp
	popq	%rbp
.Ltmp134:
	retq
	.seh_handlerdata
	.long	($cppxdata$_ZN4core3mem7replace17hfcd5298c74e0b7caE)@IMGREL
	.section	.text,"xr",one_only,_ZN4core3mem7replace17hfcd5298c74e0b7caE
.Lcfi272:
	.seh_endproc
	.def	 "?dtor$2@?0?_ZN4core3mem7replace17hfcd5298c74e0b7caE@4HA";
	.scl	3;
	.type	32;
	.endef
	.p2align	4, 0x90
"?dtor$2@?0?_ZN4core3mem7replace17hfcd5298c74e0b7caE@4HA":
.Lcfi273:
.seh_proc "?dtor$2@?0?_ZN4core3mem7replace17hfcd5298c74e0b7caE@4HA"
.LBB42_2:
.Ltmp135:
	movq	%rdx, 16(%rsp)
	pushq	%rbp
.Lcfi274:
	.seh_pushreg 5
	subq	$32, %rsp
.Lcfi275:
	.seh_stackalloc 32
	leaq	64(%rdx), %rbp
.Ltmp136:
.Lcfi276:
	.seh_endprologue
	.cv_loc	42 1 689 0
	addq	$32, %rsp
	popq	%rbp
	retq
.Ltmp137:
.Lfunc_end42:
	.seh_handlerdata
	.section	.text,"xr",one_only,_ZN4core3mem7replace17hfcd5298c74e0b7caE
.Lcfi277:
	.seh_endproc
	.section	.xdata,"dr",associative,_ZN4core3mem7replace17hfcd5298c74e0b7caE
	.p2align	2
$cppxdata$_ZN4core3mem7replace17hfcd5298c74e0b7caE:
	.long	429065506
	.long	1
	.long	($stateUnwindMap$_ZN4core3mem7replace17hfcd5298c74e0b7caE)@IMGREL
	.long	0
	.long	0
	.long	3
	.long	($ip2state$_ZN4core3mem7replace17hfcd5298c74e0b7caE)@IMGREL
	.long	56
	.long	0
	.long	1
$stateUnwindMap$_ZN4core3mem7replace17hfcd5298c74e0b7caE:
	.long	-1
	.long	"?dtor$2@?0?_ZN4core3mem7replace17hfcd5298c74e0b7caE@4HA"@IMGREL
$ip2state$_ZN4core3mem7replace17hfcd5298c74e0b7caE:
	.long	.Lfunc_begin42@IMGREL
	.long	-1
	.long	.Ltmp130@IMGREL+1
	.long	0
	.long	.Ltmp131@IMGREL+1
	.long	-1
	.section	.text,"xr",one_only,_ZN4core3mem7replace17hfcd5298c74e0b7caE

	.def	 _ZN4core3mem7size_of17h0cdfd64cdcc51cebE;
	.scl	2;
	.type	32;
	.endef
	.section	.text,"xr",one_only,_ZN4core3mem7size_of17h0cdfd64cdcc51cebE
	.globl	_ZN4core3mem7size_of17h0cdfd64cdcc51cebE
	.p2align	4, 0x90
_ZN4core3mem7size_of17h0cdfd64cdcc51cebE:
.Lfunc_begin43:
	.cv_func_id 43
	.cv_loc	43 1 314 0
.Lcfi278:
.seh_proc _ZN4core3mem7size_of17h0cdfd64cdcc51cebE
	pushq	%rbp
.Lcfi279:
	.seh_pushreg 5
.Ltmp138:
	subq	$16, %rsp
.Lcfi280:
	.seh_stackalloc 16
	leaq	16(%rsp), %rbp
.Lcfi281:
	.seh_setframe 5, 16
.Lcfi282:
	.seh_endprologue
	.cv_loc	43 1 315 0
	movq	$32, -8(%rbp)
	movq	-8(%rbp), %rax
	movq	%rax, -16(%rbp)
.Ltmp139:
	.cv_loc	43 1 316 0
	movq	-16(%rbp), %rax
	addq	$16, %rsp
	popq	%rbp
	retq
.Ltmp140:
.Lfunc_end43:
	.seh_handlerdata
	.section	.text,"xr",one_only,_ZN4core3mem7size_of17h0cdfd64cdcc51cebE
.Lcfi283:
	.seh_endproc

	.def	 _ZN4core3mem7size_of17h164ff08c8f7ba06dE;
	.scl	2;
	.type	32;
	.endef
	.section	.text,"xr",one_only,_ZN4core3mem7size_of17h164ff08c8f7ba06dE
	.globl	_ZN4core3mem7size_of17h164ff08c8f7ba06dE
	.p2align	4, 0x90
_ZN4core3mem7size_of17h164ff08c8f7ba06dE:
.Lfunc_begin44:
	.cv_func_id 44
	.cv_loc	44 1 314 0
.Lcfi284:
.seh_proc _ZN4core3mem7size_of17h164ff08c8f7ba06dE
	pushq	%rbp
.Lcfi285:
	.seh_pushreg 5
.Ltmp141:
	subq	$16, %rsp
.Lcfi286:
	.seh_stackalloc 16
	leaq	16(%rsp), %rbp
.Lcfi287:
	.seh_setframe 5, 16
.Lcfi288:
	.seh_endprologue
	.cv_loc	44 1 315 0
	movq	$56, -8(%rbp)
	movq	-8(%rbp), %rax
	movq	%rax, -16(%rbp)
.Ltmp142:
	.cv_loc	44 1 316 0
	movq	-16(%rbp), %rax
	addq	$16, %rsp
	popq	%rbp
	retq
.Ltmp143:
.Lfunc_end44:
	.seh_handlerdata
	.section	.text,"xr",one_only,_ZN4core3mem7size_of17h164ff08c8f7ba06dE
.Lcfi289:
	.seh_endproc

	.def	 _ZN4core3mem7size_of17h3229ec5c83280b08E;
	.scl	2;
	.type	32;
	.endef
	.section	.text,"xr",one_only,_ZN4core3mem7size_of17h3229ec5c83280b08E
	.globl	_ZN4core3mem7size_of17h3229ec5c83280b08E
	.p2align	4, 0x90
_ZN4core3mem7size_of17h3229ec5c83280b08E:
.Lfunc_begin45:
	.cv_func_id 45
	.cv_loc	45 1 314 0
.Lcfi290:
.seh_proc _ZN4core3mem7size_of17h3229ec5c83280b08E
	pushq	%rbp
.Lcfi291:
	.seh_pushreg 5
.Ltmp144:
	subq	$16, %rsp
.Lcfi292:
	.seh_stackalloc 16
	leaq	16(%rsp), %rbp
.Lcfi293:
	.seh_setframe 5, 16
.Lcfi294:
	.seh_endprologue
	.cv_loc	45 1 315 0
	movq	$4, -8(%rbp)
	movq	-8(%rbp), %rax
	movq	%rax, -16(%rbp)
.Ltmp145:
	.cv_loc	45 1 316 0
	movq	-16(%rbp), %rax
	addq	$16, %rsp
	popq	%rbp
	retq
.Ltmp146:
.Lfunc_end45:
	.seh_handlerdata
	.section	.text,"xr",one_only,_ZN4core3mem7size_of17h3229ec5c83280b08E
.Lcfi295:
	.seh_endproc

	.def	 _ZN4core3mem7size_of17h445681a68a33c793E;
	.scl	2;
	.type	32;
	.endef
	.section	.text,"xr",one_only,_ZN4core3mem7size_of17h445681a68a33c793E
	.globl	_ZN4core3mem7size_of17h445681a68a33c793E
	.p2align	4, 0x90
_ZN4core3mem7size_of17h445681a68a33c793E:
.Lfunc_begin46:
	.cv_func_id 46
	.cv_loc	46 1 314 0
.Lcfi296:
.seh_proc _ZN4core3mem7size_of17h445681a68a33c793E
	pushq	%rbp
.Lcfi297:
	.seh_pushreg 5
.Ltmp147:
	subq	$16, %rsp
.Lcfi298:
	.seh_stackalloc 16
	leaq	16(%rsp), %rbp
.Lcfi299:
	.seh_setframe 5, 16
.Lcfi300:
	.seh_endprologue
	.cv_loc	46 1 315 0
	movq	$16, -8(%rbp)
	movq	-8(%rbp), %rax
	movq	%rax, -16(%rbp)
.Ltmp148:
	.cv_loc	46 1 316 0
	movq	-16(%rbp), %rax
	addq	$16, %rsp
	popq	%rbp
	retq
.Ltmp149:
.Lfunc_end46:
	.seh_handlerdata
	.section	.text,"xr",one_only,_ZN4core3mem7size_of17h445681a68a33c793E
.Lcfi301:
	.seh_endproc

	.def	 _ZN4core3mem7size_of17h456cc8efa0344641E;
	.scl	2;
	.type	32;
	.endef
	.section	.text,"xr",one_only,_ZN4core3mem7size_of17h456cc8efa0344641E
	.globl	_ZN4core3mem7size_of17h456cc8efa0344641E
	.p2align	4, 0x90
_ZN4core3mem7size_of17h456cc8efa0344641E:
.Lfunc_begin47:
	.cv_func_id 47
	.cv_loc	47 1 314 0
.Lcfi302:
.seh_proc _ZN4core3mem7size_of17h456cc8efa0344641E
	pushq	%rbp
.Lcfi303:
	.seh_pushreg 5
.Ltmp150:
	subq	$16, %rsp
.Lcfi304:
	.seh_stackalloc 16
	leaq	16(%rsp), %rbp
.Lcfi305:
	.seh_setframe 5, 16
.Lcfi306:
	.seh_endprologue
	.cv_loc	47 1 315 0
	movq	$8, -8(%rbp)
	movq	-8(%rbp), %rax
	movq	%rax, -16(%rbp)
.Ltmp151:
	.cv_loc	47 1 316 0
	movq	-16(%rbp), %rax
	addq	$16, %rsp
	popq	%rbp
	retq
.Ltmp152:
.Lfunc_end47:
	.seh_handlerdata
	.section	.text,"xr",one_only,_ZN4core3mem7size_of17h456cc8efa0344641E
.Lcfi307:
	.seh_endproc

	.def	 _ZN4core3mem7size_of17h462947a2be68454cE;
	.scl	2;
	.type	32;
	.endef
	.section	.text,"xr",one_only,_ZN4core3mem7size_of17h462947a2be68454cE
	.globl	_ZN4core3mem7size_of17h462947a2be68454cE
	.p2align	4, 0x90
_ZN4core3mem7size_of17h462947a2be68454cE:
.Lfunc_begin48:
	.cv_func_id 48
	.cv_loc	48 1 314 0
.Lcfi308:
.seh_proc _ZN4core3mem7size_of17h462947a2be68454cE
	pushq	%rbp
.Lcfi309:
	.seh_pushreg 5
.Ltmp153:
	subq	$16, %rsp
.Lcfi310:
	.seh_stackalloc 16
	leaq	16(%rsp), %rbp
.Lcfi311:
	.seh_setframe 5, 16
.Lcfi312:
	.seh_endprologue
	.cv_loc	48 1 315 0
	movq	$8, -8(%rbp)
	movq	-8(%rbp), %rax
	movq	%rax, -16(%rbp)
.Ltmp154:
	.cv_loc	48 1 316 0
	movq	-16(%rbp), %rax
	addq	$16, %rsp
	popq	%rbp
	retq
.Ltmp155:
.Lfunc_end48:
	.seh_handlerdata
	.section	.text,"xr",one_only,_ZN4core3mem7size_of17h462947a2be68454cE
.Lcfi313:
	.seh_endproc

	.def	 _ZN4core3mem7size_of17h4ae4183d94813f8fE;
	.scl	2;
	.type	32;
	.endef
	.section	.text,"xr",one_only,_ZN4core3mem7size_of17h4ae4183d94813f8fE
	.globl	_ZN4core3mem7size_of17h4ae4183d94813f8fE
	.p2align	4, 0x90
_ZN4core3mem7size_of17h4ae4183d94813f8fE:
.Lfunc_begin49:
	.cv_func_id 49
	.cv_loc	49 1 314 0
.Lcfi314:
.seh_proc _ZN4core3mem7size_of17h4ae4183d94813f8fE
	pushq	%rbp
.Lcfi315:
	.seh_pushreg 5
.Ltmp156:
	subq	$16, %rsp
.Lcfi316:
	.seh_stackalloc 16
	leaq	16(%rsp), %rbp
.Lcfi317:
	.seh_setframe 5, 16
.Lcfi318:
	.seh_endprologue
	.cv_loc	49 1 315 0
	movq	$8, -8(%rbp)
	movq	-8(%rbp), %rax
	movq	%rax, -16(%rbp)
.Ltmp157:
	.cv_loc	49 1 316 0
	movq	-16(%rbp), %rax
	addq	$16, %rsp
	popq	%rbp
	retq
.Ltmp158:
.Lfunc_end49:
	.seh_handlerdata
	.section	.text,"xr",one_only,_ZN4core3mem7size_of17h4ae4183d94813f8fE
.Lcfi319:
	.seh_endproc

	.def	 _ZN4core3mem7size_of17h524daf7c1fc564fcE;
	.scl	2;
	.type	32;
	.endef
	.section	.text,"xr",one_only,_ZN4core3mem7size_of17h524daf7c1fc564fcE
	.globl	_ZN4core3mem7size_of17h524daf7c1fc564fcE
	.p2align	4, 0x90
_ZN4core3mem7size_of17h524daf7c1fc564fcE:
.Lfunc_begin50:
	.cv_func_id 50
	.cv_loc	50 1 314 0
.Lcfi320:
.seh_proc _ZN4core3mem7size_of17h524daf7c1fc564fcE
	pushq	%rbp
.Lcfi321:
	.seh_pushreg 5
.Ltmp159:
	subq	$16, %rsp
.Lcfi322:
	.seh_stackalloc 16
	leaq	16(%rsp), %rbp
.Lcfi323:
	.seh_setframe 5, 16
.Lcfi324:
	.seh_endprologue
	.cv_loc	50 1 315 0
	movq	$16, -8(%rbp)
	movq	-8(%rbp), %rax
	movq	%rax, -16(%rbp)
.Ltmp160:
	.cv_loc	50 1 316 0
	movq	-16(%rbp), %rax
	addq	$16, %rsp
	popq	%rbp
	retq
.Ltmp161:
.Lfunc_end50:
	.seh_handlerdata
	.section	.text,"xr",one_only,_ZN4core3mem7size_of17h524daf7c1fc564fcE
.Lcfi325:
	.seh_endproc

	.def	 _ZN4core3mem7size_of17h618a48b999316791E;
	.scl	2;
	.type	32;
	.endef
	.section	.text,"xr",one_only,_ZN4core3mem7size_of17h618a48b999316791E
	.globl	_ZN4core3mem7size_of17h618a48b999316791E
	.p2align	4, 0x90
_ZN4core3mem7size_of17h618a48b999316791E:
.Lfunc_begin51:
	.cv_func_id 51
	.cv_loc	51 1 314 0
.Lcfi326:
.seh_proc _ZN4core3mem7size_of17h618a48b999316791E
	pushq	%rbp
.Lcfi327:
	.seh_pushreg 5
.Ltmp162:
	subq	$16, %rsp
.Lcfi328:
	.seh_stackalloc 16
	leaq	16(%rsp), %rbp
.Lcfi329:
	.seh_setframe 5, 16
.Lcfi330:
	.seh_endprologue
	.cv_loc	51 1 315 0
	movq	$1, -8(%rbp)
	movq	-8(%rbp), %rax
	movq	%rax, -16(%rbp)
.Ltmp163:
	.cv_loc	51 1 316 0
	movq	-16(%rbp), %rax
	addq	$16, %rsp
	popq	%rbp
	retq
.Ltmp164:
.Lfunc_end51:
	.seh_handlerdata
	.section	.text,"xr",one_only,_ZN4core3mem7size_of17h618a48b999316791E
.Lcfi331:
	.seh_endproc

	.def	 _ZN4core3mem7size_of17h630bbc1c78794dc6E;
	.scl	2;
	.type	32;
	.endef
	.section	.text,"xr",one_only,_ZN4core3mem7size_of17h630bbc1c78794dc6E
	.globl	_ZN4core3mem7size_of17h630bbc1c78794dc6E
	.p2align	4, 0x90
_ZN4core3mem7size_of17h630bbc1c78794dc6E:
.Lfunc_begin52:
	.cv_func_id 52
	.cv_loc	52 1 314 0
.Lcfi332:
.seh_proc _ZN4core3mem7size_of17h630bbc1c78794dc6E
	pushq	%rbp
.Lcfi333:
	.seh_pushreg 5
.Ltmp165:
	subq	$16, %rsp
.Lcfi334:
	.seh_stackalloc 16
	leaq	16(%rsp), %rbp
.Lcfi335:
	.seh_setframe 5, 16
.Lcfi336:
	.seh_endprologue
	.cv_loc	52 1 315 0
	movq	$24, -8(%rbp)
	movq	-8(%rbp), %rax
	movq	%rax, -16(%rbp)
.Ltmp166:
	.cv_loc	52 1 316 0
	movq	-16(%rbp), %rax
	addq	$16, %rsp
	popq	%rbp
	retq
.Ltmp167:
.Lfunc_end52:
	.seh_handlerdata
	.section	.text,"xr",one_only,_ZN4core3mem7size_of17h630bbc1c78794dc6E
.Lcfi337:
	.seh_endproc

	.def	 _ZN4core3mem7size_of17h6fc3a79eb596635dE;
	.scl	2;
	.type	32;
	.endef
	.section	.text,"xr",one_only,_ZN4core3mem7size_of17h6fc3a79eb596635dE
	.globl	_ZN4core3mem7size_of17h6fc3a79eb596635dE
	.p2align	4, 0x90
_ZN4core3mem7size_of17h6fc3a79eb596635dE:
.Lfunc_begin53:
	.cv_func_id 53
	.cv_loc	53 1 314 0
.Lcfi338:
.seh_proc _ZN4core3mem7size_of17h6fc3a79eb596635dE
	pushq	%rbp
.Lcfi339:
	.seh_pushreg 5
.Ltmp168:
	subq	$16, %rsp
.Lcfi340:
	.seh_stackalloc 16
	leaq	16(%rsp), %rbp
.Lcfi341:
	.seh_setframe 5, 16
.Lcfi342:
	.seh_endprologue
	.cv_loc	53 1 315 0
	movq	$8, -8(%rbp)
	movq	-8(%rbp), %rax
	movq	%rax, -16(%rbp)
.Ltmp169:
	.cv_loc	53 1 316 0
	movq	-16(%rbp), %rax
	addq	$16, %rsp
	popq	%rbp
	retq
.Ltmp170:
.Lfunc_end53:
	.seh_handlerdata
	.section	.text,"xr",one_only,_ZN4core3mem7size_of17h6fc3a79eb596635dE
.Lcfi343:
	.seh_endproc

	.def	 _ZN4core3mem7size_of17hc724a53b1165917dE;
	.scl	2;
	.type	32;
	.endef
	.section	.text,"xr",one_only,_ZN4core3mem7size_of17hc724a53b1165917dE
	.globl	_ZN4core3mem7size_of17hc724a53b1165917dE
	.p2align	4, 0x90
_ZN4core3mem7size_of17hc724a53b1165917dE:
.Lfunc_begin54:
	.cv_func_id 54
	.cv_loc	54 1 314 0
.Lcfi344:
.seh_proc _ZN4core3mem7size_of17hc724a53b1165917dE
	pushq	%rbp
.Lcfi345:
	.seh_pushreg 5
.Ltmp171:
	subq	$16, %rsp
.Lcfi346:
	.seh_stackalloc 16
	leaq	16(%rsp), %rbp
.Lcfi347:
	.seh_setframe 5, 16
.Lcfi348:
	.seh_endprologue
	.cv_loc	54 1 315 0
	movq	$24, -8(%rbp)
	movq	-8(%rbp), %rax
	movq	%rax, -16(%rbp)
.Ltmp172:
	.cv_loc	54 1 316 0
	movq	-16(%rbp), %rax
	addq	$16, %rsp
	popq	%rbp
	retq
.Ltmp173:
.Lfunc_end54:
	.seh_handlerdata
	.section	.text,"xr",one_only,_ZN4core3mem7size_of17hc724a53b1165917dE
.Lcfi349:
	.seh_endproc

	.def	 _ZN4core3mem7size_of17hcc9d39a977f63b01E;
	.scl	2;
	.type	32;
	.endef
	.section	.text,"xr",one_only,_ZN4core3mem7size_of17hcc9d39a977f63b01E
	.globl	_ZN4core3mem7size_of17hcc9d39a977f63b01E
	.p2align	4, 0x90
_ZN4core3mem7size_of17hcc9d39a977f63b01E:
.Lfunc_begin55:
	.cv_func_id 55
	.cv_loc	55 1 314 0
.Lcfi350:
.seh_proc _ZN4core3mem7size_of17hcc9d39a977f63b01E
	pushq	%rbp
.Lcfi351:
	.seh_pushreg 5
.Ltmp174:
	subq	$16, %rsp
.Lcfi352:
	.seh_stackalloc 16
	leaq	16(%rsp), %rbp
.Lcfi353:
	.seh_setframe 5, 16
.Lcfi354:
	.seh_endprologue
	.cv_loc	55 1 315 0
	movq	$32, -8(%rbp)
	movq	-8(%rbp), %rax
	movq	%rax, -16(%rbp)
.Ltmp175:
	.cv_loc	55 1 316 0
	movq	-16(%rbp), %rax
	addq	$16, %rsp
	popq	%rbp
	retq
.Ltmp176:
.Lfunc_end55:
	.seh_handlerdata
	.section	.text,"xr",one_only,_ZN4core3mem7size_of17hcc9d39a977f63b01E
.Lcfi355:
	.seh_endproc

	.def	 _ZN4core3mem7size_of17hcdc3b7b68862581bE;
	.scl	2;
	.type	32;
	.endef
	.section	.text,"xr",one_only,_ZN4core3mem7size_of17hcdc3b7b68862581bE
	.globl	_ZN4core3mem7size_of17hcdc3b7b68862581bE
	.p2align	4, 0x90
_ZN4core3mem7size_of17hcdc3b7b68862581bE:
.Lfunc_begin56:
	.cv_func_id 56
	.cv_loc	56 1 314 0
.Lcfi356:
.seh_proc _ZN4core3mem7size_of17hcdc3b7b68862581bE
	pushq	%rbp
.Lcfi357:
	.seh_pushreg 5
.Ltmp177:
	subq	$16, %rsp
.Lcfi358:
	.seh_stackalloc 16
	leaq	16(%rsp), %rbp
.Lcfi359:
	.seh_setframe 5, 16
.Lcfi360:
	.seh_endprologue
	.cv_loc	56 1 315 0
	movq	$2, -8(%rbp)
	movq	-8(%rbp), %rax
	movq	%rax, -16(%rbp)
.Ltmp178:
	.cv_loc	56 1 316 0
	movq	-16(%rbp), %rax
	addq	$16, %rsp
	popq	%rbp
	retq
.Ltmp179:
.Lfunc_end56:
	.seh_handlerdata
	.section	.text,"xr",one_only,_ZN4core3mem7size_of17hcdc3b7b68862581bE
.Lcfi361:
	.seh_endproc

	.def	 _ZN4core3mem7size_of17hd8a26aa1a7c89af2E;
	.scl	2;
	.type	32;
	.endef
	.section	.text,"xr",one_only,_ZN4core3mem7size_of17hd8a26aa1a7c89af2E
	.globl	_ZN4core3mem7size_of17hd8a26aa1a7c89af2E
	.p2align	4, 0x90
_ZN4core3mem7size_of17hd8a26aa1a7c89af2E:
.Lfunc_begin57:
	.cv_func_id 57
	.cv_loc	57 1 314 0
.Lcfi362:
.seh_proc _ZN4core3mem7size_of17hd8a26aa1a7c89af2E
	pushq	%rbp
.Lcfi363:
	.seh_pushreg 5
.Ltmp180:
	subq	$16, %rsp
.Lcfi364:
	.seh_stackalloc 16
	leaq	16(%rsp), %rbp
.Lcfi365:
	.seh_setframe 5, 16
.Lcfi366:
	.seh_endprologue
	.cv_loc	57 1 315 0
	movq	$1, -8(%rbp)
	movq	-8(%rbp), %rax
	movq	%rax, -16(%rbp)
.Ltmp181:
	.cv_loc	57 1 316 0
	movq	-16(%rbp), %rax
	addq	$16, %rsp
	popq	%rbp
	retq
.Ltmp182:
.Lfunc_end57:
	.seh_handlerdata
	.section	.text,"xr",one_only,_ZN4core3mem7size_of17hd8a26aa1a7c89af2E
.Lcfi367:
	.seh_endproc

	.def	 _ZN4core3mem8align_of17h1d727f7529154bfeE;
	.scl	2;
	.type	32;
	.endef
	.section	.text,"xr",one_only,_ZN4core3mem8align_of17h1d727f7529154bfeE
	.globl	_ZN4core3mem8align_of17h1d727f7529154bfeE
	.p2align	4, 0x90
_ZN4core3mem8align_of17h1d727f7529154bfeE:
.Lfunc_begin58:
	.cv_func_id 58
	.cv_loc	58 1 405 0
.Lcfi368:
.seh_proc _ZN4core3mem8align_of17h1d727f7529154bfeE
	pushq	%rbp
.Lcfi369:
	.seh_pushreg 5
.Ltmp183:
	subq	$16, %rsp
.Lcfi370:
	.seh_stackalloc 16
	leaq	16(%rsp), %rbp
.Lcfi371:
	.seh_setframe 5, 16
.Lcfi372:
	.seh_endprologue
	.cv_loc	58 1 406 0
	movq	$4, -8(%rbp)
	movq	-8(%rbp), %rax
	movq	%rax, -16(%rbp)
.Ltmp184:
	.cv_loc	58 1 407 0
	movq	-16(%rbp), %rax
	addq	$16, %rsp
	popq	%rbp
	retq
.Ltmp185:
.Lfunc_end58:
	.seh_handlerdata
	.section	.text,"xr",one_only,_ZN4core3mem8align_of17h1d727f7529154bfeE
.Lcfi373:
	.seh_endproc

	.def	 _ZN4core3mem8align_of17h48eecfaa3838ae49E;
	.scl	2;
	.type	32;
	.endef
	.section	.text,"xr",one_only,_ZN4core3mem8align_of17h48eecfaa3838ae49E
	.globl	_ZN4core3mem8align_of17h48eecfaa3838ae49E
	.p2align	4, 0x90
_ZN4core3mem8align_of17h48eecfaa3838ae49E:
.Lfunc_begin59:
	.cv_func_id 59
	.cv_loc	59 1 405 0
.Lcfi374:
.seh_proc _ZN4core3mem8align_of17h48eecfaa3838ae49E
	pushq	%rbp
.Lcfi375:
	.seh_pushreg 5
.Ltmp186:
	subq	$16, %rsp
.Lcfi376:
	.seh_stackalloc 16
	leaq	16(%rsp), %rbp
.Lcfi377:
	.seh_setframe 5, 16
.Lcfi378:
	.seh_endprologue
	.cv_loc	59 1 406 0
	movq	$8, -8(%rbp)
	movq	-8(%rbp), %rax
	movq	%rax, -16(%rbp)
.Ltmp187:
	.cv_loc	59 1 407 0
	movq	-16(%rbp), %rax
	addq	$16, %rsp
	popq	%rbp
	retq
.Ltmp188:
.Lfunc_end59:
	.seh_handlerdata
	.section	.text,"xr",one_only,_ZN4core3mem8align_of17h48eecfaa3838ae49E
.Lcfi379:
	.seh_endproc

	.def	 _ZN4core3mem8align_of17h5905c3cea54f5852E;
	.scl	2;
	.type	32;
	.endef
	.section	.text,"xr",one_only,_ZN4core3mem8align_of17h5905c3cea54f5852E
	.globl	_ZN4core3mem8align_of17h5905c3cea54f5852E
	.p2align	4, 0x90
_ZN4core3mem8align_of17h5905c3cea54f5852E:
.Lfunc_begin60:
	.cv_func_id 60
	.cv_loc	60 1 405 0
.Lcfi380:
.seh_proc _ZN4core3mem8align_of17h5905c3cea54f5852E
	pushq	%rbp
.Lcfi381:
	.seh_pushreg 5
.Ltmp189:
	subq	$16, %rsp
.Lcfi382:
	.seh_stackalloc 16
	leaq	16(%rsp), %rbp
.Lcfi383:
	.seh_setframe 5, 16
.Lcfi384:
	.seh_endprologue
	.cv_loc	60 1 406 0
	movq	$1, -8(%rbp)
	movq	-8(%rbp), %rax
	movq	%rax, -16(%rbp)
.Ltmp190:
	.cv_loc	60 1 407 0
	movq	-16(%rbp), %rax
	addq	$16, %rsp
	popq	%rbp
	retq
.Ltmp191:
.Lfunc_end60:
	.seh_handlerdata
	.section	.text,"xr",one_only,_ZN4core3mem8align_of17h5905c3cea54f5852E
.Lcfi385:
	.seh_endproc

	.def	 _ZN4core3mem8align_of17h860b71e7528cdffbE;
	.scl	2;
	.type	32;
	.endef
	.section	.text,"xr",one_only,_ZN4core3mem8align_of17h860b71e7528cdffbE
	.globl	_ZN4core3mem8align_of17h860b71e7528cdffbE
	.p2align	4, 0x90
_ZN4core3mem8align_of17h860b71e7528cdffbE:
.Lfunc_begin61:
	.cv_func_id 61
	.cv_loc	61 1 405 0
.Lcfi386:
.seh_proc _ZN4core3mem8align_of17h860b71e7528cdffbE
	pushq	%rbp
.Lcfi387:
	.seh_pushreg 5
.Ltmp192:
	subq	$16, %rsp
.Lcfi388:
	.seh_stackalloc 16
	leaq	16(%rsp), %rbp
.Lcfi389:
	.seh_setframe 5, 16
.Lcfi390:
	.seh_endprologue
	.cv_loc	61 1 406 0
	movq	$8, -8(%rbp)
	movq	-8(%rbp), %rax
	movq	%rax, -16(%rbp)
.Ltmp193:
	.cv_loc	61 1 407 0
	movq	-16(%rbp), %rax
	addq	$16, %rsp
	popq	%rbp
	retq
.Ltmp194:
.Lfunc_end61:
	.seh_handlerdata
	.section	.text,"xr",one_only,_ZN4core3mem8align_of17h860b71e7528cdffbE
.Lcfi391:
	.seh_endproc

	.def	 _ZN4core3mem8align_of17h8f131fa2a611e97aE;
	.scl	2;
	.type	32;
	.endef
	.section	.text,"xr",one_only,_ZN4core3mem8align_of17h8f131fa2a611e97aE
	.globl	_ZN4core3mem8align_of17h8f131fa2a611e97aE
	.p2align	4, 0x90
_ZN4core3mem8align_of17h8f131fa2a611e97aE:
.Lfunc_begin62:
	.cv_func_id 62
	.cv_loc	62 1 405 0
.Lcfi392:
.seh_proc _ZN4core3mem8align_of17h8f131fa2a611e97aE
	pushq	%rbp
.Lcfi393:
	.seh_pushreg 5
.Ltmp195:
	subq	$16, %rsp
.Lcfi394:
	.seh_stackalloc 16
	leaq	16(%rsp), %rbp
.Lcfi395:
	.seh_setframe 5, 16
.Lcfi396:
	.seh_endprologue
	.cv_loc	62 1 406 0
	movq	$8, -8(%rbp)
	movq	-8(%rbp), %rax
	movq	%rax, -16(%rbp)
.Ltmp196:
	.cv_loc	62 1 407 0
	movq	-16(%rbp), %rax
	addq	$16, %rsp
	popq	%rbp
	retq
.Ltmp197:
.Lfunc_end62:
	.seh_handlerdata
	.section	.text,"xr",one_only,_ZN4core3mem8align_of17h8f131fa2a611e97aE
.Lcfi397:
	.seh_endproc

	.def	 _ZN4core3mem8align_of17h9de3dea7d905b69aE;
	.scl	2;
	.type	32;
	.endef
	.section	.text,"xr",one_only,_ZN4core3mem8align_of17h9de3dea7d905b69aE
	.globl	_ZN4core3mem8align_of17h9de3dea7d905b69aE
	.p2align	4, 0x90
_ZN4core3mem8align_of17h9de3dea7d905b69aE:
.Lfunc_begin63:
	.cv_func_id 63
	.cv_loc	63 1 405 0
.Lcfi398:
.seh_proc _ZN4core3mem8align_of17h9de3dea7d905b69aE
	pushq	%rbp
.Lcfi399:
	.seh_pushreg 5
.Ltmp198:
	subq	$16, %rsp
.Lcfi400:
	.seh_stackalloc 16
	leaq	16(%rsp), %rbp
.Lcfi401:
	.seh_setframe 5, 16
.Lcfi402:
	.seh_endprologue
	.cv_loc	63 1 406 0
	movq	$8, -8(%rbp)
	movq	-8(%rbp), %rax
	movq	%rax, -16(%rbp)
.Ltmp199:
	.cv_loc	63 1 407 0
	movq	-16(%rbp), %rax
	addq	$16, %rsp
	popq	%rbp
	retq
.Ltmp200:
.Lfunc_end63:
	.seh_handlerdata
	.section	.text,"xr",one_only,_ZN4core3mem8align_of17h9de3dea7d905b69aE
.Lcfi403:
	.seh_endproc

	.def	 _ZN4core3mem8align_of17hfb6e9a6ade20c9baE;
	.scl	2;
	.type	32;
	.endef
	.section	.text,"xr",one_only,_ZN4core3mem8align_of17hfb6e9a6ade20c9baE
	.globl	_ZN4core3mem8align_of17hfb6e9a6ade20c9baE
	.p2align	4, 0x90
_ZN4core3mem8align_of17hfb6e9a6ade20c9baE:
.Lfunc_begin64:
	.cv_func_id 64
	.cv_loc	64 1 405 0
.Lcfi404:
.seh_proc _ZN4core3mem8align_of17hfb6e9a6ade20c9baE
	pushq	%rbp
.Lcfi405:
	.seh_pushreg 5
.Ltmp201:
	subq	$16, %rsp
.Lcfi406:
	.seh_stackalloc 16
	leaq	16(%rsp), %rbp
.Lcfi407:
	.seh_setframe 5, 16
.Lcfi408:
	.seh_endprologue
	.cv_loc	64 1 406 0
	movq	$4, -8(%rbp)
	movq	-8(%rbp), %rax
	movq	%rax, -16(%rbp)
.Ltmp202:
	.cv_loc	64 1 407 0
	movq	-16(%rbp), %rax
	addq	$16, %rsp
	popq	%rbp
	retq
.Ltmp203:
.Lfunc_end64:
	.seh_handlerdata
	.section	.text,"xr",one_only,_ZN4core3mem8align_of17hfb6e9a6ade20c9baE
.Lcfi409:
	.seh_endproc

	.def	 _ZN79_$LT$core..mem..ManuallyDrop$LT$T$GT$$u20$as$u20$core..ops..deref..DerefMut$GT$9deref_mut17h0b2cba13d868aaa8E;
	.scl	2;
	.type	32;
	.endef
	.section	.text,"xr",one_only,_ZN79_$LT$core..mem..ManuallyDrop$LT$T$GT$$u20$as$u20$core..ops..deref..DerefMut$GT$9deref_mut17h0b2cba13d868aaa8E
	.globl	_ZN79_$LT$core..mem..ManuallyDrop$LT$T$GT$$u20$as$u20$core..ops..deref..DerefMut$GT$9deref_mut17h0b2cba13d868aaa8E
	.p2align	4, 0x90
_ZN79_$LT$core..mem..ManuallyDrop$LT$T$GT$$u20$as$u20$core..ops..deref..DerefMut$GT$9deref_mut17h0b2cba13d868aaa8E:
.Lfunc_begin65:
	.cv_func_id 65
	.cv_loc	65 1 1011 0
.Lcfi410:
.seh_proc _ZN79_$LT$core..mem..ManuallyDrop$LT$T$GT$$u20$as$u20$core..ops..deref..DerefMut$GT$9deref_mut17h0b2cba13d868aaa8E
	pushq	%rbp
.Lcfi411:
	.seh_pushreg 5
	pushq	%rax
.Lcfi412:
	.seh_stackalloc 8
	movq	%rsp, %rbp
.Lcfi413:
	.seh_setframe 5, 0
.Lcfi414:
	.seh_endprologue
	movq	%rcx, (%rbp)
.Ltmp204:
	.cv_loc	65 1 1013 0
	movq	(%rbp), %rcx
.Ltmp205:
	.cv_loc	65 1 1015 0
	movq	%rcx, %rax
	addq	$8, %rsp
	popq	%rbp
	retq
.Ltmp206:
.Lfunc_end65:
	.seh_handlerdata
	.section	.text,"xr",one_only,_ZN79_$LT$core..mem..ManuallyDrop$LT$T$GT$$u20$as$u20$core..ops..deref..DerefMut$GT$9deref_mut17h0b2cba13d868aaa8E
.Lcfi415:
	.seh_endproc
