	.text
	.def	 _ZN106_$LT$alloc..vec..Vec$LT$T$GT$$u20$as$u20$core..ops..index..IndexMut$LT$core..ops..range..RangeFull$GT$$GT$9index_mut17h1d7d6fe3b536f9faE;
	.scl	3;
	.type	32;
	.endef
	.section	.text,"xr",one_only,_ZN106_$LT$alloc..vec..Vec$LT$T$GT$$u20$as$u20$core..ops..index..IndexMut$LT$core..ops..range..RangeFull$GT$$GT$9index_mut17h1d7d6fe3b536f9faE
	.p2align	4, 0x90
_ZN106_$LT$alloc..vec..Vec$LT$T$GT$$u20$as$u20$core..ops..index..IndexMut$LT$core..ops..range..RangeFull$GT$$GT$9index_mut17h1d7d6fe3b536f9faE:
.Lfunc_begin0:
	.cv_func_id 0
	.cv_file	1 "C:\\projects\\rust\\src\\liballoc\\vec.rs"
	.cv_loc	0 1 1662 0 is_stmt 0
.Lcfi0:
.seh_proc _ZN106_$LT$alloc..vec..Vec$LT$T$GT$$u20$as$u20$core..ops..index..IndexMut$LT$core..ops..range..RangeFull$GT$$GT$9index_mut17h1d7d6fe3b536f9faE
	pushq	%rbp
.Lcfi1:
	.seh_pushreg 5
	subq	$64, %rsp
.Lcfi2:
	.seh_stackalloc 64
	leaq	64(%rsp), %rbp
.Lcfi3:
	.seh_setframe 5, 64
.Lcfi4:
	.seh_endprologue
	movq	%rcx, -16(%rbp)
.Ltmp0:
	.cv_loc	0 1 1663 0
	movq	-16(%rbp), %rcx
	callq	_ZN71_$LT$alloc..vec..Vec$LT$T$GT$$u20$as$u20$core..ops..deref..DerefMut$GT$9deref_mut17hcb1e0d7ba6cba240E
	movq	%rax, -24(%rbp)
	movq	%rdx, -32(%rbp)
	.cv_loc	0 1 1664 0
	movq	-24(%rbp), %rax
	movq	-32(%rbp), %rdx
	addq	$64, %rsp
	popq	%rbp
	retq
.Ltmp1:
.Lfunc_end0:
	.seh_handlerdata
	.section	.text,"xr",one_only,_ZN106_$LT$alloc..vec..Vec$LT$T$GT$$u20$as$u20$core..ops..index..IndexMut$LT$core..ops..range..RangeFull$GT$$GT$9index_mut17h1d7d6fe3b536f9faE
.Lcfi5:
	.seh_endproc

	.def	 _ZN106_$LT$alloc..vec..Vec$LT$T$GT$$u20$as$u20$core..ops..index..IndexMut$LT$core..ops..range..RangeFull$GT$$GT$9index_mut17h23c36fae95cd3d0fE;
	.scl	3;
	.type	32;
	.endef
	.section	.text,"xr",one_only,_ZN106_$LT$alloc..vec..Vec$LT$T$GT$$u20$as$u20$core..ops..index..IndexMut$LT$core..ops..range..RangeFull$GT$$GT$9index_mut17h23c36fae95cd3d0fE
	.p2align	4, 0x90
_ZN106_$LT$alloc..vec..Vec$LT$T$GT$$u20$as$u20$core..ops..index..IndexMut$LT$core..ops..range..RangeFull$GT$$GT$9index_mut17h23c36fae95cd3d0fE:
.Lfunc_begin1:
	.cv_func_id 1
	.cv_loc	1 1 1662 0
.Lcfi6:
.seh_proc _ZN106_$LT$alloc..vec..Vec$LT$T$GT$$u20$as$u20$core..ops..index..IndexMut$LT$core..ops..range..RangeFull$GT$$GT$9index_mut17h23c36fae95cd3d0fE
	pushq	%rbp
.Lcfi7:
	.seh_pushreg 5
	subq	$64, %rsp
.Lcfi8:
	.seh_stackalloc 64
	leaq	64(%rsp), %rbp
.Lcfi9:
	.seh_setframe 5, 64
.Lcfi10:
	.seh_endprologue
	movq	%rcx, -16(%rbp)
.Ltmp2:
	.cv_loc	1 1 1663 0
	movq	-16(%rbp), %rcx
	callq	_ZN71_$LT$alloc..vec..Vec$LT$T$GT$$u20$as$u20$core..ops..deref..DerefMut$GT$9deref_mut17h672f0199f5f19c63E
	movq	%rax, -24(%rbp)
	movq	%rdx, -32(%rbp)
	.cv_loc	1 1 1664 0
	movq	-24(%rbp), %rax
	movq	-32(%rbp), %rdx
	addq	$64, %rsp
	popq	%rbp
	retq
.Ltmp3:
.Lfunc_end1:
	.seh_handlerdata
	.section	.text,"xr",one_only,_ZN106_$LT$alloc..vec..Vec$LT$T$GT$$u20$as$u20$core..ops..index..IndexMut$LT$core..ops..range..RangeFull$GT$$GT$9index_mut17h23c36fae95cd3d0fE
.Lcfi11:
	.seh_endproc

	.def	 _ZN106_$LT$alloc..vec..Vec$LT$T$GT$$u20$as$u20$core..ops..index..IndexMut$LT$core..ops..range..RangeFull$GT$$GT$9index_mut17h35f871910880f1c0E;
	.scl	3;
	.type	32;
	.endef
	.section	.text,"xr",one_only,_ZN106_$LT$alloc..vec..Vec$LT$T$GT$$u20$as$u20$core..ops..index..IndexMut$LT$core..ops..range..RangeFull$GT$$GT$9index_mut17h35f871910880f1c0E
	.p2align	4, 0x90
_ZN106_$LT$alloc..vec..Vec$LT$T$GT$$u20$as$u20$core..ops..index..IndexMut$LT$core..ops..range..RangeFull$GT$$GT$9index_mut17h35f871910880f1c0E:
.Lfunc_begin2:
	.cv_func_id 2
	.cv_loc	2 1 1662 0
.Lcfi12:
.seh_proc _ZN106_$LT$alloc..vec..Vec$LT$T$GT$$u20$as$u20$core..ops..index..IndexMut$LT$core..ops..range..RangeFull$GT$$GT$9index_mut17h35f871910880f1c0E
	pushq	%rbp
.Lcfi13:
	.seh_pushreg 5
	subq	$64, %rsp
.Lcfi14:
	.seh_stackalloc 64
	leaq	64(%rsp), %rbp
.Lcfi15:
	.seh_setframe 5, 64
.Lcfi16:
	.seh_endprologue
	movq	%rcx, -16(%rbp)
.Ltmp4:
	.cv_loc	2 1 1663 0
	movq	-16(%rbp), %rcx
	callq	_ZN71_$LT$alloc..vec..Vec$LT$T$GT$$u20$as$u20$core..ops..deref..DerefMut$GT$9deref_mut17hcbf28e0842f530f3E
	movq	%rax, -24(%rbp)
	movq	%rdx, -32(%rbp)
	.cv_loc	2 1 1664 0
	movq	-24(%rbp), %rax
	movq	-32(%rbp), %rdx
	addq	$64, %rsp
	popq	%rbp
	retq
.Ltmp5:
.Lfunc_end2:
	.seh_handlerdata
	.section	.text,"xr",one_only,_ZN106_$LT$alloc..vec..Vec$LT$T$GT$$u20$as$u20$core..ops..index..IndexMut$LT$core..ops..range..RangeFull$GT$$GT$9index_mut17h35f871910880f1c0E
.Lcfi17:
	.seh_endproc

	.def	 _ZN106_$LT$alloc..vec..Vec$LT$T$GT$$u20$as$u20$core..ops..index..IndexMut$LT$core..ops..range..RangeFull$GT$$GT$9index_mut17h9aaa19a82c93f6adE;
	.scl	3;
	.type	32;
	.endef
	.section	.text,"xr",one_only,_ZN106_$LT$alloc..vec..Vec$LT$T$GT$$u20$as$u20$core..ops..index..IndexMut$LT$core..ops..range..RangeFull$GT$$GT$9index_mut17h9aaa19a82c93f6adE
	.p2align	4, 0x90
_ZN106_$LT$alloc..vec..Vec$LT$T$GT$$u20$as$u20$core..ops..index..IndexMut$LT$core..ops..range..RangeFull$GT$$GT$9index_mut17h9aaa19a82c93f6adE:
.Lfunc_begin3:
	.cv_func_id 3
	.cv_loc	3 1 1662 0
.Lcfi18:
.seh_proc _ZN106_$LT$alloc..vec..Vec$LT$T$GT$$u20$as$u20$core..ops..index..IndexMut$LT$core..ops..range..RangeFull$GT$$GT$9index_mut17h9aaa19a82c93f6adE
	pushq	%rbp
.Lcfi19:
	.seh_pushreg 5
	subq	$64, %rsp
.Lcfi20:
	.seh_stackalloc 64
	leaq	64(%rsp), %rbp
.Lcfi21:
	.seh_setframe 5, 64
.Lcfi22:
	.seh_endprologue
	movq	%rcx, -16(%rbp)
.Ltmp6:
	.cv_loc	3 1 1663 0
	movq	-16(%rbp), %rcx
	callq	_ZN71_$LT$alloc..vec..Vec$LT$T$GT$$u20$as$u20$core..ops..deref..DerefMut$GT$9deref_mut17h1a3f38b458e611aeE
	movq	%rax, -24(%rbp)
	movq	%rdx, -32(%rbp)
	.cv_loc	3 1 1664 0
	movq	-24(%rbp), %rax
	movq	-32(%rbp), %rdx
	addq	$64, %rsp
	popq	%rbp
	retq
.Ltmp7:
.Lfunc_end3:
	.seh_handlerdata
	.section	.text,"xr",one_only,_ZN106_$LT$alloc..vec..Vec$LT$T$GT$$u20$as$u20$core..ops..index..IndexMut$LT$core..ops..range..RangeFull$GT$$GT$9index_mut17h9aaa19a82c93f6adE
.Lcfi23:
	.seh_endproc

	.def	 _ZN106_$LT$alloc..vec..Vec$LT$T$GT$$u20$as$u20$core..ops..index..IndexMut$LT$core..ops..range..RangeFull$GT$$GT$9index_mut17hadc818d96e9ef4aaE;
	.scl	3;
	.type	32;
	.endef
	.section	.text,"xr",one_only,_ZN106_$LT$alloc..vec..Vec$LT$T$GT$$u20$as$u20$core..ops..index..IndexMut$LT$core..ops..range..RangeFull$GT$$GT$9index_mut17hadc818d96e9ef4aaE
	.p2align	4, 0x90
_ZN106_$LT$alloc..vec..Vec$LT$T$GT$$u20$as$u20$core..ops..index..IndexMut$LT$core..ops..range..RangeFull$GT$$GT$9index_mut17hadc818d96e9ef4aaE:
.Lfunc_begin4:
	.cv_func_id 4
	.cv_loc	4 1 1662 0
.Lcfi24:
.seh_proc _ZN106_$LT$alloc..vec..Vec$LT$T$GT$$u20$as$u20$core..ops..index..IndexMut$LT$core..ops..range..RangeFull$GT$$GT$9index_mut17hadc818d96e9ef4aaE
	pushq	%rbp
.Lcfi25:
	.seh_pushreg 5
	subq	$64, %rsp
.Lcfi26:
	.seh_stackalloc 64
	leaq	64(%rsp), %rbp
.Lcfi27:
	.seh_setframe 5, 64
.Lcfi28:
	.seh_endprologue
	movq	%rcx, -16(%rbp)
.Ltmp8:
	.cv_loc	4 1 1663 0
	movq	-16(%rbp), %rcx
	callq	_ZN71_$LT$alloc..vec..Vec$LT$T$GT$$u20$as$u20$core..ops..deref..DerefMut$GT$9deref_mut17h456983abd9536ef3E
	movq	%rax, -24(%rbp)
	movq	%rdx, -32(%rbp)
	.cv_loc	4 1 1664 0
	movq	-24(%rbp), %rax
	movq	-32(%rbp), %rdx
	addq	$64, %rsp
	popq	%rbp
	retq
.Ltmp9:
.Lfunc_end4:
	.seh_handlerdata
	.section	.text,"xr",one_only,_ZN106_$LT$alloc..vec..Vec$LT$T$GT$$u20$as$u20$core..ops..index..IndexMut$LT$core..ops..range..RangeFull$GT$$GT$9index_mut17hadc818d96e9ef4aaE
.Lcfi29:
	.seh_endproc

	.def	 _ZN33_$LT$alloc..vec..Vec$LT$T$GT$$GT$14from_raw_parts17h4c823e3766905677E;
	.scl	2;
	.type	32;
	.endef
	.section	.text,"xr",one_only,_ZN33_$LT$alloc..vec..Vec$LT$T$GT$$GT$14from_raw_parts17h4c823e3766905677E
	.globl	_ZN33_$LT$alloc..vec..Vec$LT$T$GT$$GT$14from_raw_parts17h4c823e3766905677E
	.p2align	4, 0x90
_ZN33_$LT$alloc..vec..Vec$LT$T$GT$$GT$14from_raw_parts17h4c823e3766905677E:
.Lfunc_begin5:
	.cv_func_id 5
	.cv_loc	5 1 423 0
.Lcfi30:
.seh_proc _ZN33_$LT$alloc..vec..Vec$LT$T$GT$$GT$14from_raw_parts17h4c823e3766905677E
	pushq	%rbp
.Lcfi31:
	.seh_pushreg 5
	subq	$96, %rsp
.Lcfi32:
	.seh_stackalloc 96
	leaq	96(%rsp), %rbp
.Lcfi33:
	.seh_setframe 5, 96
.Lcfi34:
	.seh_endprologue
	movq	%rcx, %rax
	movq	%rdx, -24(%rbp)
	movq	%r8, -16(%rbp)
	movq	%r9, -8(%rbp)
.Ltmp10:
	.cv_loc	5 1 425 0
	movq	-24(%rbp), %rdx
	movq	-8(%rbp), %r8
	movq	%rcx, -32(%rbp)
	movq	%rdx, %rcx
	movq	%r8, %rdx
	movq	%rax, -40(%rbp)
	callq	_ZN40_$LT$alloc..raw_vec..RawVec$LT$T$GT$$GT$14from_raw_parts17h17a3ca9d469cb2bbE
	movq	%rax, -48(%rbp)
	movq	%rdx, -56(%rbp)
	.cv_loc	5 1 426 0
	movq	-16(%rbp), %rax
	.cv_loc	5 1 424 0
	movq	-32(%rbp), %rcx
	movq	-48(%rbp), %rdx
	movq	%rdx, (%rcx)
	movq	-56(%rbp), %r8
	movq	%r8, 8(%rcx)
	movq	%rax, 16(%rcx)
	.cv_loc	5 1 428 0
	movq	-40(%rbp), %rax
	addq	$96, %rsp
	popq	%rbp
	retq
.Ltmp11:
.Lfunc_end5:
	.seh_handlerdata
	.section	.text,"xr",one_only,_ZN33_$LT$alloc..vec..Vec$LT$T$GT$$GT$14from_raw_parts17h4c823e3766905677E
.Lcfi35:
	.seh_endproc

	.def	 _ZN33_$LT$alloc..vec..Vec$LT$T$GT$$GT$3len17h5a6df5ceadcb33a8E;
	.scl	3;
	.type	32;
	.endef
	.section	.text,"xr",one_only,_ZN33_$LT$alloc..vec..Vec$LT$T$GT$$GT$3len17h5a6df5ceadcb33a8E
	.p2align	4, 0x90
_ZN33_$LT$alloc..vec..Vec$LT$T$GT$$GT$3len17h5a6df5ceadcb33a8E:
.Lfunc_begin6:
	.cv_func_id 6
	.cv_loc	6 1 1163 0
.Lcfi36:
.seh_proc _ZN33_$LT$alloc..vec..Vec$LT$T$GT$$GT$3len17h5a6df5ceadcb33a8E
	pushq	%rbp
.Lcfi37:
	.seh_pushreg 5
	pushq	%rax
.Lcfi38:
	.seh_stackalloc 8
	movq	%rsp, %rbp
.Lcfi39:
	.seh_setframe 5, 0
.Lcfi40:
	.seh_endprologue
	movq	%rcx, (%rbp)
.Ltmp12:
	.cv_loc	6 1 1164 0
	movq	(%rbp), %rcx
	movq	16(%rcx), %rax
	.cv_loc	6 1 1165 0
	addq	$8, %rsp
	popq	%rbp
	retq
.Ltmp13:
.Lfunc_end6:
	.seh_handlerdata
	.section	.text,"xr",one_only,_ZN33_$LT$alloc..vec..Vec$LT$T$GT$$GT$3len17h5a6df5ceadcb33a8E
.Lcfi41:
	.seh_endproc

	.def	 _ZN33_$LT$alloc..vec..Vec$LT$T$GT$$GT$3len17h86e4dde6ff85bae6E;
	.scl	3;
	.type	32;
	.endef
	.section	.text,"xr",one_only,_ZN33_$LT$alloc..vec..Vec$LT$T$GT$$GT$3len17h86e4dde6ff85bae6E
	.p2align	4, 0x90
_ZN33_$LT$alloc..vec..Vec$LT$T$GT$$GT$3len17h86e4dde6ff85bae6E:
.Lfunc_begin7:
	.cv_func_id 7
	.cv_loc	7 1 1163 0
.Lcfi42:
.seh_proc _ZN33_$LT$alloc..vec..Vec$LT$T$GT$$GT$3len17h86e4dde6ff85bae6E
	pushq	%rbp
.Lcfi43:
	.seh_pushreg 5
	pushq	%rax
.Lcfi44:
	.seh_stackalloc 8
	movq	%rsp, %rbp
.Lcfi45:
	.seh_setframe 5, 0
.Lcfi46:
	.seh_endprologue
	movq	%rcx, (%rbp)
.Ltmp14:
	.cv_loc	7 1 1164 0
	movq	(%rbp), %rcx
	movq	16(%rcx), %rax
	.cv_loc	7 1 1165 0
	addq	$8, %rsp
	popq	%rbp
	retq
.Ltmp15:
.Lfunc_end7:
	.seh_handlerdata
	.section	.text,"xr",one_only,_ZN33_$LT$alloc..vec..Vec$LT$T$GT$$GT$3len17h86e4dde6ff85bae6E
.Lcfi47:
	.seh_endproc

	.def	 _ZN33_$LT$alloc..vec..Vec$LT$T$GT$$GT$3len17hc75355179eabdeeeE;
	.scl	3;
	.type	32;
	.endef
	.section	.text,"xr",one_only,_ZN33_$LT$alloc..vec..Vec$LT$T$GT$$GT$3len17hc75355179eabdeeeE
	.p2align	4, 0x90
_ZN33_$LT$alloc..vec..Vec$LT$T$GT$$GT$3len17hc75355179eabdeeeE:
.Lfunc_begin8:
	.cv_func_id 8
	.cv_loc	8 1 1163 0
.Lcfi48:
.seh_proc _ZN33_$LT$alloc..vec..Vec$LT$T$GT$$GT$3len17hc75355179eabdeeeE
	pushq	%rbp
.Lcfi49:
	.seh_pushreg 5
	pushq	%rax
.Lcfi50:
	.seh_stackalloc 8
	movq	%rsp, %rbp
.Lcfi51:
	.seh_setframe 5, 0
.Lcfi52:
	.seh_endprologue
	movq	%rcx, (%rbp)
.Ltmp16:
	.cv_loc	8 1 1164 0
	movq	(%rbp), %rcx
	movq	16(%rcx), %rax
	.cv_loc	8 1 1165 0
	addq	$8, %rsp
	popq	%rbp
	retq
.Ltmp17:
.Lfunc_end8:
	.seh_handlerdata
	.section	.text,"xr",one_only,_ZN33_$LT$alloc..vec..Vec$LT$T$GT$$GT$3len17hc75355179eabdeeeE
.Lcfi53:
	.seh_endproc

	.def	 _ZN33_$LT$alloc..vec..Vec$LT$T$GT$$GT$4push17h9d7895f5c09d5bffE;
	.scl	2;
	.type	32;
	.endef
	.section	.text,"xr",one_only,_ZN33_$LT$alloc..vec..Vec$LT$T$GT$$GT$4push17h9d7895f5c09d5bffE
	.globl	_ZN33_$LT$alloc..vec..Vec$LT$T$GT$$GT$4push17h9d7895f5c09d5bffE
	.p2align	4, 0x90
_ZN33_$LT$alloc..vec..Vec$LT$T$GT$$GT$4push17h9d7895f5c09d5bffE:
.Lfunc_begin9:
	.cv_func_id 9
	.cv_loc	9 1 967 0
.Lcfi54:
.seh_proc _ZN33_$LT$alloc..vec..Vec$LT$T$GT$$GT$4push17h9d7895f5c09d5bffE
	.seh_handler __CxxFrameHandler3, @unwind, @except
	pushq	%rbp
.Lcfi55:
	.seh_pushreg 5
	subq	$144, %rsp
.Lcfi56:
	.seh_stackalloc 144
	leaq	128(%rsp), %rbp
.Lcfi57:
	.seh_setframe 5, 128
.Lcfi58:
	.seh_endprologue
	movq	$-2, 8(%rbp)
	movq	%rcx, -40(%rbp)
	movl	%edx, -28(%rbp)
.Ltmp30:
	.cv_loc	9 1 970 0
	movb	$0, -9(%rbp)
	movb	$1, -9(%rbp)
	movq	-40(%rbp), %rcx
	movq	16(%rcx), %rax
	movq	%rcx, -8(%rbp)
.Ltmp31:
	.cv_file	2 "C:\\projects\\rust\\src\\liballoc\\raw_vec.rs"
	.cv_inline_site_id 10 within 9 inlined_at 1 970 0
	.cv_loc	10 2 207 0
.Ltmp18:
	movq	%rax, -48(%rbp)
	callq	_ZN4core3mem7size_of17h3229ec5c83280b08E
.Ltmp19:
	movq	%rax, -56(%rbp)
	jmp	.LBB9_1
.Ltmp32:
.LBB9_1:
	movq	-56(%rbp), %rax
	cmpq	$0, %rax
	jne	.LBB9_3
.Ltmp33:
	.cv_loc	10 2 208 0
	movq	$-1, (%rbp)
	.cv_loc	10 2 207 0
	jmp	.LBB9_4
.Ltmp34:
.LBB9_3:
	.cv_loc	10 2 210 0
	movq	-8(%rbp), %rax
	movq	8(%rax), %rax
	movq	%rax, (%rbp)
.Ltmp35:
.LBB9_4:
	.cv_loc	9 1 970 0
	movq	-48(%rbp), %rax
	cmpq	(%rbp), %rax
	je	.LBB9_6
	jmp	.LBB9_7
.Ltmp36:
.LBB9_6:
	.cv_loc	9 1 971 0
	movq	-40(%rbp), %rcx
.Ltmp20:
	callq	_ZN49_$LT$alloc..raw_vec..RawVec$LT$T$C$$u20$A$GT$$GT$6double17hdf2f9c00a89ff0c6E
.Ltmp21:
	jmp	.LBB9_8
.Ltmp37:
.LBB9_7:
	.cv_loc	9 1 970 0
	jmp	.LBB9_9
.Ltmp38:
.LBB9_8:
	jmp	.LBB9_9
.Ltmp39:
.LBB9_9:
	.cv_loc	9 1 974 0
	movq	-40(%rbp), %rcx
.Ltmp22:
	callq	_ZN71_$LT$alloc..vec..Vec$LT$T$GT$$u20$as$u20$core..ops..deref..DerefMut$GT$9deref_mut17hcbf28e0842f530f3E
.Ltmp23:
	movq	%rdx, -64(%rbp)
	movq	%rax, -72(%rbp)
	jmp	.LBB9_10
.Ltmp40:
.LBB9_10:
.Ltmp24:
	movq	-72(%rbp), %rcx
	movq	-64(%rbp), %rdx
	callq	_ZN5alloc5slice29_$LT$impl$u20$$u5b$T$u5d$$GT$10as_mut_ptr17hc422afcb33e96610E
.Ltmp25:
	movq	%rax, -80(%rbp)
	jmp	.LBB9_11
.Ltmp41:
.LBB9_11:
	movq	-40(%rbp), %rax
	movq	16(%rax), %rdx
.Ltmp26:
	movq	-80(%rbp), %rcx
	callq	_ZN4core3ptr31_$LT$impl$u20$$BP$mut$u20$T$GT$6offset17hb97f745451934a01E
.Ltmp27:
	movq	%rax, -88(%rbp)
	jmp	.LBB9_12
.Ltmp42:
.LBB9_12:
	movq	-88(%rbp), %rax
	movq	%rax, -24(%rbp)
.Ltmp43:
	.cv_loc	9 1 975 0
	movq	-24(%rbp), %rcx
	movb	$0, -9(%rbp)
	movl	-28(%rbp), %edx
.Ltmp28:
	callq	_ZN4core3ptr5write17h736b349926f64314E
.Ltmp29:
	jmp	.LBB9_13
.Ltmp44:
.LBB9_13:
	.cv_loc	9 1 976 0
	movq	-40(%rbp), %rax
	movq	-40(%rbp), %rcx
	movq	16(%rcx), %rcx
	addq	$1, %rcx
	movq	%rcx, 16(%rax)
.Ltmp45:
	.cv_loc	9 1 978 0
	addq	$144, %rsp
	popq	%rbp
.Ltmp46:
	retq
.LBB9_5:
	.cv_loc	9 1 967 0
	addq	$32, %rsp
	popq	%rbp
	retq
.LBB9_14:
	.cv_loc	9 1 978 0
	movb	$0, -9(%rbp)
	jmp	.LBB9_5
	.seh_handlerdata
	.long	($cppxdata$_ZN33_$LT$alloc..vec..Vec$LT$T$GT$$GT$4push17h9d7895f5c09d5bffE)@IMGREL
	.section	.text,"xr",one_only,_ZN33_$LT$alloc..vec..Vec$LT$T$GT$$GT$4push17h9d7895f5c09d5bffE
.Lcfi59:
	.seh_endproc
	.def	 "?dtor$15@?0?_ZN33_$LT$alloc..vec..Vec$LT$T$GT$$GT$4push17h9d7895f5c09d5bffE@4HA";
	.scl	3;
	.type	32;
	.endef
	.p2align	4, 0x90
"?dtor$15@?0?_ZN33_$LT$alloc..vec..Vec$LT$T$GT$$GT$4push17h9d7895f5c09d5bffE@4HA":
.Lcfi60:
.seh_proc "?dtor$15@?0?_ZN33_$LT$alloc..vec..Vec$LT$T$GT$$GT$4push17h9d7895f5c09d5bffE@4HA"
.LBB9_15:
	movq	%rdx, 16(%rsp)
	pushq	%rbp
.Lcfi61:
	.seh_pushreg 5
	subq	$32, %rsp
.Lcfi62:
	.seh_stackalloc 32
	leaq	128(%rdx), %rbp
.Lcfi63:
	.seh_endprologue
	testb	$1, -9(%rbp)
	jne	.LBB9_14
	jmp	.LBB9_5
.Ltmp47:
.Lfunc_end9:
	.seh_handlerdata
	.section	.text,"xr",one_only,_ZN33_$LT$alloc..vec..Vec$LT$T$GT$$GT$4push17h9d7895f5c09d5bffE
.Lcfi64:
	.seh_endproc
	.section	.xdata,"dr",associative,_ZN33_$LT$alloc..vec..Vec$LT$T$GT$$GT$4push17h9d7895f5c09d5bffE
	.p2align	2
$cppxdata$_ZN33_$LT$alloc..vec..Vec$LT$T$GT$$GT$4push17h9d7895f5c09d5bffE:
	.long	429065506
	.long	1
	.long	($stateUnwindMap$_ZN33_$LT$alloc..vec..Vec$LT$T$GT$$GT$4push17h9d7895f5c09d5bffE)@IMGREL
	.long	0
	.long	0
	.long	3
	.long	($ip2state$_ZN33_$LT$alloc..vec..Vec$LT$T$GT$$GT$4push17h9d7895f5c09d5bffE)@IMGREL
	.long	136
	.long	0
	.long	1
$stateUnwindMap$_ZN33_$LT$alloc..vec..Vec$LT$T$GT$$GT$4push17h9d7895f5c09d5bffE:
	.long	-1
	.long	"?dtor$15@?0?_ZN33_$LT$alloc..vec..Vec$LT$T$GT$$GT$4push17h9d7895f5c09d5bffE@4HA"@IMGREL
$ip2state$_ZN33_$LT$alloc..vec..Vec$LT$T$GT$$GT$4push17h9d7895f5c09d5bffE:
	.long	.Lfunc_begin9@IMGREL
	.long	-1
	.long	.Ltmp18@IMGREL+1
	.long	0
	.long	.Ltmp29@IMGREL+1
	.long	-1
	.section	.text,"xr",one_only,_ZN33_$LT$alloc..vec..Vec$LT$T$GT$$GT$4push17h9d7895f5c09d5bffE

	.def	 _ZN33_$LT$alloc..vec..Vec$LT$T$GT$$GT$8is_empty17h186e906472103467E;
	.scl	2;
	.type	32;
	.endef
	.section	.text,"xr",one_only,_ZN33_$LT$alloc..vec..Vec$LT$T$GT$$GT$8is_empty17h186e906472103467E
	.globl	_ZN33_$LT$alloc..vec..Vec$LT$T$GT$$GT$8is_empty17h186e906472103467E
	.p2align	4, 0x90
_ZN33_$LT$alloc..vec..Vec$LT$T$GT$$GT$8is_empty17h186e906472103467E:
.Lfunc_begin10:
	.cv_func_id 11
	.cv_loc	11 1 1179 0
.Lcfi65:
.seh_proc _ZN33_$LT$alloc..vec..Vec$LT$T$GT$$GT$8is_empty17h186e906472103467E
	pushq	%rbp
.Lcfi66:
	.seh_pushreg 5
	subq	$48, %rsp
.Lcfi67:
	.seh_stackalloc 48
	leaq	48(%rsp), %rbp
.Lcfi68:
	.seh_setframe 5, 48
.Lcfi69:
	.seh_endprologue
	movq	%rcx, -8(%rbp)
.Ltmp48:
	.cv_loc	11 1 1180 0
	movq	-8(%rbp), %rcx
	callq	_ZN33_$LT$alloc..vec..Vec$LT$T$GT$$GT$3len17hc75355179eabdeeeE
	movq	%rax, -16(%rbp)
	movq	-16(%rbp), %rax
	cmpq	$0, %rax
	sete	%cl
	.cv_loc	11 1 1181 0
	andb	$1, %cl
	movzbl	%cl, %eax
	addq	$48, %rsp
	popq	%rbp
	retq
.Ltmp49:
.Lfunc_end10:
	.seh_handlerdata
	.section	.text,"xr",one_only,_ZN33_$LT$alloc..vec..Vec$LT$T$GT$$GT$8is_empty17h186e906472103467E
.Lcfi70:
	.seh_endproc

	.def	 _ZN4core4iter8iterator8Iterator6by_ref17h403866ae8d363494E;
	.scl	3;
	.type	32;
	.endef
	.section	.text,"xr",one_only,_ZN4core4iter8iterator8Iterator6by_ref17h403866ae8d363494E
	.p2align	4, 0x90
_ZN4core4iter8iterator8Iterator6by_ref17h403866ae8d363494E:
.Lfunc_begin11:
	.cv_func_id 12
	.cv_file	3 "C:\\projects\\rust\\src\\libcore\\iter\\iterator.rs"
	.cv_loc	12 3 1177 0
.Lcfi71:
.seh_proc _ZN4core4iter8iterator8Iterator6by_ref17h403866ae8d363494E
	pushq	%rbp
.Lcfi72:
	.seh_pushreg 5
	pushq	%rax
.Lcfi73:
	.seh_stackalloc 8
	movq	%rsp, %rbp
.Lcfi74:
	.seh_setframe 5, 0
.Lcfi75:
	.seh_endprologue
	movq	%rcx, (%rbp)
.Ltmp50:
	movq	(%rbp), %rax
	addq	$8, %rsp
	popq	%rbp
	retq
.Ltmp51:
.Lfunc_end11:
	.seh_handlerdata
	.section	.text,"xr",one_only,_ZN4core4iter8iterator8Iterator6by_ref17h403866ae8d363494E
.Lcfi76:
	.seh_endproc

	.def	 _ZN4core4iter8iterator8Iterator6by_ref17hfadb4ffa8f242cdeE;
	.scl	3;
	.type	32;
	.endef
	.section	.text,"xr",one_only,_ZN4core4iter8iterator8Iterator6by_ref17hfadb4ffa8f242cdeE
	.p2align	4, 0x90
_ZN4core4iter8iterator8Iterator6by_ref17hfadb4ffa8f242cdeE:
.Lfunc_begin12:
	.cv_func_id 13
	.cv_loc	13 3 1177 0
.Lcfi77:
.seh_proc _ZN4core4iter8iterator8Iterator6by_ref17hfadb4ffa8f242cdeE
	pushq	%rbp
.Lcfi78:
	.seh_pushreg 5
	pushq	%rax
.Lcfi79:
	.seh_stackalloc 8
	movq	%rsp, %rbp
.Lcfi80:
	.seh_setframe 5, 0
.Lcfi81:
	.seh_endprologue
	movq	%rcx, (%rbp)
.Ltmp52:
	movq	(%rbp), %rax
	addq	$8, %rsp
	popq	%rbp
	retq
.Ltmp53:
.Lfunc_end12:
	.seh_handlerdata
	.section	.text,"xr",one_only,_ZN4core4iter8iterator8Iterator6by_ref17hfadb4ffa8f242cdeE
.Lcfi82:
	.seh_endproc

	.def	 _ZN54_$LT$I$u20$as$u20$core..iter..traits..IntoIterator$GT$9into_iter17h210188d0c655a521E;
	.scl	3;
	.type	32;
	.endef
	.section	.text,"xr",one_only,_ZN54_$LT$I$u20$as$u20$core..iter..traits..IntoIterator$GT$9into_iter17h210188d0c655a521E
	.p2align	4, 0x90
_ZN54_$LT$I$u20$as$u20$core..iter..traits..IntoIterator$GT$9into_iter17h210188d0c655a521E:
.Lfunc_begin13:
	.cv_func_id 14
	.cv_file	4 "C:\\projects\\rust\\src\\libcore\\iter\\traits.rs"
	.cv_loc	14 4 256 0
.Lcfi83:
.seh_proc _ZN54_$LT$I$u20$as$u20$core..iter..traits..IntoIterator$GT$9into_iter17h210188d0c655a521E
	pushq	%rbp
.Lcfi84:
	.seh_pushreg 5
	pushq	%rax
.Lcfi85:
	.seh_stackalloc 8
	movq	%rsp, %rbp
.Lcfi86:
	.seh_setframe 5, 0
.Lcfi87:
	.seh_endprologue
	movq	%rcx, (%rbp)
.Ltmp54:
	.cv_loc	14 4 257 0
	movq	(%rbp), %rax
	.cv_loc	14 4 258 0
	addq	$8, %rsp
	popq	%rbp
	retq
.Ltmp55:
.Lfunc_end13:
	.seh_handlerdata
	.section	.text,"xr",one_only,_ZN54_$LT$I$u20$as$u20$core..iter..traits..IntoIterator$GT$9into_iter17h210188d0c655a521E
.Lcfi88:
	.seh_endproc

	.def	 _ZN54_$LT$I$u20$as$u20$core..iter..traits..IntoIterator$GT$9into_iter17h9b2b91ef45074ac0E;
	.scl	3;
	.type	32;
	.endef
	.section	.text,"xr",one_only,_ZN54_$LT$I$u20$as$u20$core..iter..traits..IntoIterator$GT$9into_iter17h9b2b91ef45074ac0E
	.p2align	4, 0x90
_ZN54_$LT$I$u20$as$u20$core..iter..traits..IntoIterator$GT$9into_iter17h9b2b91ef45074ac0E:
.Lfunc_begin14:
	.cv_func_id 15
	.cv_loc	15 4 256 0
.Lcfi89:
.seh_proc _ZN54_$LT$I$u20$as$u20$core..iter..traits..IntoIterator$GT$9into_iter17h9b2b91ef45074ac0E
	pushq	%rbp
.Lcfi90:
	.seh_pushreg 5
	pushq	%rax
.Lcfi91:
	.seh_stackalloc 8
	movq	%rsp, %rbp
.Lcfi92:
	.seh_setframe 5, 0
.Lcfi93:
	.seh_endprologue
	movq	%rcx, (%rbp)
.Ltmp56:
	.cv_loc	15 4 257 0
	movq	(%rbp), %rax
	.cv_loc	15 4 258 0
	addq	$8, %rsp
	popq	%rbp
	retq
.Ltmp57:
.Lfunc_end14:
	.seh_handlerdata
	.section	.text,"xr",one_only,_ZN54_$LT$I$u20$as$u20$core..iter..traits..IntoIterator$GT$9into_iter17h9b2b91ef45074ac0E
.Lcfi94:
	.seh_endproc

	.def	 _ZN66_$LT$alloc..vec..Vec$LT$T$GT$$u20$as$u20$core..ops..drop..Drop$GT$4drop17h3df618f03a54f24fE;
	.scl	2;
	.type	32;
	.endef
	.section	.text,"xr",one_only,_ZN66_$LT$alloc..vec..Vec$LT$T$GT$$u20$as$u20$core..ops..drop..Drop$GT$4drop17h3df618f03a54f24fE
	.globl	_ZN66_$LT$alloc..vec..Vec$LT$T$GT$$u20$as$u20$core..ops..drop..Drop$GT$4drop17h3df618f03a54f24fE
	.p2align	4, 0x90
_ZN66_$LT$alloc..vec..Vec$LT$T$GT$$u20$as$u20$core..ops..drop..Drop$GT$4drop17h3df618f03a54f24fE:
.Lfunc_begin15:
	.cv_func_id 16
	.cv_loc	16 1 2124 0
.Lcfi95:
.seh_proc _ZN66_$LT$alloc..vec..Vec$LT$T$GT$$u20$as$u20$core..ops..drop..Drop$GT$4drop17h3df618f03a54f24fE
	pushq	%rbp
.Lcfi96:
	.seh_pushreg 5
	subq	$64, %rsp
.Lcfi97:
	.seh_stackalloc 64
	leaq	64(%rsp), %rbp
.Lcfi98:
	.seh_setframe 5, 64
.Lcfi99:
	.seh_endprologue
	movq	%rcx, -8(%rbp)
.Ltmp58:
	.cv_loc	16 1 2127 0
	movq	-8(%rbp), %rcx
	callq	_ZN106_$LT$alloc..vec..Vec$LT$T$GT$$u20$as$u20$core..ops..index..IndexMut$LT$core..ops..range..RangeFull$GT$$GT$9index_mut17h1d7d6fe3b536f9faE
	movq	%rax, -16(%rbp)
	movq	%rdx, -24(%rbp)
	movq	-16(%rbp), %rcx
	movq	-24(%rbp), %rdx
	callq	_ZN4core3ptr13drop_in_place17hede72e9419fc1834E
.Ltmp59:
	.cv_loc	16 1 2130 0
	nop
	addq	$64, %rsp
	popq	%rbp
	retq
.Ltmp60:
.Lfunc_end15:
	.seh_handlerdata
	.section	.text,"xr",one_only,_ZN66_$LT$alloc..vec..Vec$LT$T$GT$$u20$as$u20$core..ops..drop..Drop$GT$4drop17h3df618f03a54f24fE
.Lcfi100:
	.seh_endproc

	.def	 _ZN66_$LT$alloc..vec..Vec$LT$T$GT$$u20$as$u20$core..ops..drop..Drop$GT$4drop17h97a1d8c709ef146aE;
	.scl	2;
	.type	32;
	.endef
	.section	.text,"xr",one_only,_ZN66_$LT$alloc..vec..Vec$LT$T$GT$$u20$as$u20$core..ops..drop..Drop$GT$4drop17h97a1d8c709ef146aE
	.globl	_ZN66_$LT$alloc..vec..Vec$LT$T$GT$$u20$as$u20$core..ops..drop..Drop$GT$4drop17h97a1d8c709ef146aE
	.p2align	4, 0x90
_ZN66_$LT$alloc..vec..Vec$LT$T$GT$$u20$as$u20$core..ops..drop..Drop$GT$4drop17h97a1d8c709ef146aE:
.Lfunc_begin16:
	.cv_func_id 17
	.cv_loc	17 1 2124 0
.Lcfi101:
.seh_proc _ZN66_$LT$alloc..vec..Vec$LT$T$GT$$u20$as$u20$core..ops..drop..Drop$GT$4drop17h97a1d8c709ef146aE
	pushq	%rbp
.Lcfi102:
	.seh_pushreg 5
	subq	$64, %rsp
.Lcfi103:
	.seh_stackalloc 64
	leaq	64(%rsp), %rbp
.Lcfi104:
	.seh_setframe 5, 64
.Lcfi105:
	.seh_endprologue
	movq	%rcx, -8(%rbp)
.Ltmp61:
	.cv_loc	17 1 2127 0
	movq	-8(%rbp), %rcx
	callq	_ZN106_$LT$alloc..vec..Vec$LT$T$GT$$u20$as$u20$core..ops..index..IndexMut$LT$core..ops..range..RangeFull$GT$$GT$9index_mut17h9aaa19a82c93f6adE
	movq	%rax, -16(%rbp)
	movq	%rdx, -24(%rbp)
	jmp	.LBB16_2
.Ltmp62:
.LBB16_2:
	.cv_loc	17 1 2130 0
	addq	$64, %rsp
	popq	%rbp
	retq
.Ltmp63:
.Lfunc_end16:
	.seh_handlerdata
	.section	.text,"xr",one_only,_ZN66_$LT$alloc..vec..Vec$LT$T$GT$$u20$as$u20$core..ops..drop..Drop$GT$4drop17h97a1d8c709ef146aE
.Lcfi106:
	.seh_endproc

	.def	 _ZN66_$LT$alloc..vec..Vec$LT$T$GT$$u20$as$u20$core..ops..drop..Drop$GT$4drop17hbe5258fcd58db250E;
	.scl	2;
	.type	32;
	.endef
	.section	.text,"xr",one_only,_ZN66_$LT$alloc..vec..Vec$LT$T$GT$$u20$as$u20$core..ops..drop..Drop$GT$4drop17hbe5258fcd58db250E
	.globl	_ZN66_$LT$alloc..vec..Vec$LT$T$GT$$u20$as$u20$core..ops..drop..Drop$GT$4drop17hbe5258fcd58db250E
	.p2align	4, 0x90
_ZN66_$LT$alloc..vec..Vec$LT$T$GT$$u20$as$u20$core..ops..drop..Drop$GT$4drop17hbe5258fcd58db250E:
.Lfunc_begin17:
	.cv_func_id 18
	.cv_loc	18 1 2124 0
.Lcfi107:
.seh_proc _ZN66_$LT$alloc..vec..Vec$LT$T$GT$$u20$as$u20$core..ops..drop..Drop$GT$4drop17hbe5258fcd58db250E
	pushq	%rbp
.Lcfi108:
	.seh_pushreg 5
	subq	$64, %rsp
.Lcfi109:
	.seh_stackalloc 64
	leaq	64(%rsp), %rbp
.Lcfi110:
	.seh_setframe 5, 64
.Lcfi111:
	.seh_endprologue
	movq	%rcx, -8(%rbp)
.Ltmp64:
	.cv_loc	18 1 2127 0
	movq	-8(%rbp), %rcx
	callq	_ZN106_$LT$alloc..vec..Vec$LT$T$GT$$u20$as$u20$core..ops..index..IndexMut$LT$core..ops..range..RangeFull$GT$$GT$9index_mut17h23c36fae95cd3d0fE
	movq	%rax, -16(%rbp)
	movq	%rdx, -24(%rbp)
	movq	-16(%rbp), %rcx
	movq	-24(%rbp), %rdx
	callq	_ZN4core3ptr13drop_in_place17h59df437e67f1c90fE
.Ltmp65:
	.cv_loc	18 1 2130 0
	nop
	addq	$64, %rsp
	popq	%rbp
	retq
.Ltmp66:
.Lfunc_end17:
	.seh_handlerdata
	.section	.text,"xr",one_only,_ZN66_$LT$alloc..vec..Vec$LT$T$GT$$u20$as$u20$core..ops..drop..Drop$GT$4drop17hbe5258fcd58db250E
.Lcfi112:
	.seh_endproc

	.def	 _ZN66_$LT$alloc..vec..Vec$LT$T$GT$$u20$as$u20$core..ops..drop..Drop$GT$4drop17hc8da3a7da919481dE;
	.scl	2;
	.type	32;
	.endef
	.section	.text,"xr",one_only,_ZN66_$LT$alloc..vec..Vec$LT$T$GT$$u20$as$u20$core..ops..drop..Drop$GT$4drop17hc8da3a7da919481dE
	.globl	_ZN66_$LT$alloc..vec..Vec$LT$T$GT$$u20$as$u20$core..ops..drop..Drop$GT$4drop17hc8da3a7da919481dE
	.p2align	4, 0x90
_ZN66_$LT$alloc..vec..Vec$LT$T$GT$$u20$as$u20$core..ops..drop..Drop$GT$4drop17hc8da3a7da919481dE:
.Lfunc_begin18:
	.cv_func_id 19
	.cv_loc	19 1 2124 0
.Lcfi113:
.seh_proc _ZN66_$LT$alloc..vec..Vec$LT$T$GT$$u20$as$u20$core..ops..drop..Drop$GT$4drop17hc8da3a7da919481dE
	pushq	%rbp
.Lcfi114:
	.seh_pushreg 5
	subq	$64, %rsp
.Lcfi115:
	.seh_stackalloc 64
	leaq	64(%rsp), %rbp
.Lcfi116:
	.seh_setframe 5, 64
.Lcfi117:
	.seh_endprologue
	movq	%rcx, -8(%rbp)
.Ltmp67:
	.cv_loc	19 1 2127 0
	movq	-8(%rbp), %rcx
	callq	_ZN106_$LT$alloc..vec..Vec$LT$T$GT$$u20$as$u20$core..ops..index..IndexMut$LT$core..ops..range..RangeFull$GT$$GT$9index_mut17hadc818d96e9ef4aaE
	movq	%rax, -16(%rbp)
	movq	%rdx, -24(%rbp)
	movq	-16(%rbp), %rcx
	movq	-24(%rbp), %rdx
	callq	_ZN4core3ptr13drop_in_place17h80682cec102a5b0aE
.Ltmp68:
	.cv_loc	19 1 2130 0
	nop
	addq	$64, %rsp
	popq	%rbp
	retq
.Ltmp69:
.Lfunc_end18:
	.seh_handlerdata
	.section	.text,"xr",one_only,_ZN66_$LT$alloc..vec..Vec$LT$T$GT$$u20$as$u20$core..ops..drop..Drop$GT$4drop17hc8da3a7da919481dE
.Lcfi118:
	.seh_endproc

	.def	 _ZN66_$LT$alloc..vec..Vec$LT$T$GT$$u20$as$u20$core..ops..drop..Drop$GT$4drop17hfc11bb0feccf10b4E;
	.scl	2;
	.type	32;
	.endef
	.section	.text,"xr",one_only,_ZN66_$LT$alloc..vec..Vec$LT$T$GT$$u20$as$u20$core..ops..drop..Drop$GT$4drop17hfc11bb0feccf10b4E
	.globl	_ZN66_$LT$alloc..vec..Vec$LT$T$GT$$u20$as$u20$core..ops..drop..Drop$GT$4drop17hfc11bb0feccf10b4E
	.p2align	4, 0x90
_ZN66_$LT$alloc..vec..Vec$LT$T$GT$$u20$as$u20$core..ops..drop..Drop$GT$4drop17hfc11bb0feccf10b4E:
.Lfunc_begin19:
	.cv_func_id 20
	.cv_loc	20 1 2124 0
.Lcfi119:
.seh_proc _ZN66_$LT$alloc..vec..Vec$LT$T$GT$$u20$as$u20$core..ops..drop..Drop$GT$4drop17hfc11bb0feccf10b4E
	pushq	%rbp
.Lcfi120:
	.seh_pushreg 5
	subq	$64, %rsp
.Lcfi121:
	.seh_stackalloc 64
	leaq	64(%rsp), %rbp
.Lcfi122:
	.seh_setframe 5, 64
.Lcfi123:
	.seh_endprologue
	movq	%rcx, -8(%rbp)
.Ltmp70:
	.cv_loc	20 1 2127 0
	movq	-8(%rbp), %rcx
	callq	_ZN106_$LT$alloc..vec..Vec$LT$T$GT$$u20$as$u20$core..ops..index..IndexMut$LT$core..ops..range..RangeFull$GT$$GT$9index_mut17h35f871910880f1c0E
	movq	%rax, -16(%rbp)
	movq	%rdx, -24(%rbp)
	jmp	.LBB19_2
.Ltmp71:
.LBB19_2:
	.cv_loc	20 1 2130 0
	addq	$64, %rsp
	popq	%rbp
	retq
.Ltmp72:
.Lfunc_end19:
	.seh_handlerdata
	.section	.text,"xr",one_only,_ZN66_$LT$alloc..vec..Vec$LT$T$GT$$u20$as$u20$core..ops..drop..Drop$GT$4drop17hfc11bb0feccf10b4E
.Lcfi124:
	.seh_endproc

	.def	 _ZN68_$LT$alloc..vec..Vec$LT$T$GT$$u20$as$u20$core..ops..deref..Deref$GT$5deref17h903667f8c8f086b9E;
	.scl	2;
	.type	32;
	.endef
	.section	.text,"xr",one_only,_ZN68_$LT$alloc..vec..Vec$LT$T$GT$$u20$as$u20$core..ops..deref..Deref$GT$5deref17h903667f8c8f086b9E
	.globl	_ZN68_$LT$alloc..vec..Vec$LT$T$GT$$u20$as$u20$core..ops..deref..Deref$GT$5deref17h903667f8c8f086b9E
	.p2align	4, 0x90
_ZN68_$LT$alloc..vec..Vec$LT$T$GT$$u20$as$u20$core..ops..deref..Deref$GT$5deref17h903667f8c8f086b9E:
.Lfunc_begin20:
	.cv_func_id 21
	.cv_loc	21 1 1689 0
.Lcfi125:
.seh_proc _ZN68_$LT$alloc..vec..Vec$LT$T$GT$$u20$as$u20$core..ops..deref..Deref$GT$5deref17h903667f8c8f086b9E
	pushq	%rbp
.Lcfi126:
	.seh_pushreg 5
	subq	$80, %rsp
.Lcfi127:
	.seh_stackalloc 80
	leaq	80(%rsp), %rbp
.Lcfi128:
	.seh_setframe 5, 80
.Lcfi129:
	.seh_endprologue
	movq	%rcx, -16(%rbp)
.Ltmp73:
	.cv_loc	21 1 1691 0
	movq	-16(%rbp), %rcx
	callq	_ZN49_$LT$alloc..raw_vec..RawVec$LT$T$C$$u20$A$GT$$GT$3ptr17hfa3a02d0dad02ba8E
	movq	%rax, -8(%rbp)
.Ltmp74:
	.cv_loc	21 1 1692 0
	movq	-8(%rbp), %rcx
	callq	_ZN4core3ptr31_$LT$impl$u20$$BP$mut$u20$T$GT$7is_null17hc32a60ae8be00c4aE
	movb	%al, -17(%rbp)
	.cv_loc	21 1 1693 0
	movq	-8(%rbp), %rcx
	movq	-16(%rbp), %rax
	movq	16(%rax), %rdx
	callq	_ZN4core5slice14from_raw_parts17h0761078a52d0fa60E
	movq	%rax, -32(%rbp)
	movq	%rdx, -40(%rbp)
.Ltmp75:
	.cv_loc	21 1 1695 0
	movq	-32(%rbp), %rax
	movq	-40(%rbp), %rdx
	addq	$80, %rsp
	popq	%rbp
	retq
.Ltmp76:
.Lfunc_end20:
	.seh_handlerdata
	.section	.text,"xr",one_only,_ZN68_$LT$alloc..vec..Vec$LT$T$GT$$u20$as$u20$core..ops..deref..Deref$GT$5deref17h903667f8c8f086b9E
.Lcfi130:
	.seh_endproc

	.def	 _ZN68_$LT$alloc..vec..Vec$LT$T$GT$$u20$as$u20$core..ops..deref..Deref$GT$5deref17h9be2f1da56c01228E;
	.scl	3;
	.type	32;
	.endef
	.section	.text,"xr",one_only,_ZN68_$LT$alloc..vec..Vec$LT$T$GT$$u20$as$u20$core..ops..deref..Deref$GT$5deref17h9be2f1da56c01228E
	.p2align	4, 0x90
_ZN68_$LT$alloc..vec..Vec$LT$T$GT$$u20$as$u20$core..ops..deref..Deref$GT$5deref17h9be2f1da56c01228E:
.Lfunc_begin21:
	.cv_func_id 22
	.cv_loc	22 1 1689 0
.Lcfi131:
.seh_proc _ZN68_$LT$alloc..vec..Vec$LT$T$GT$$u20$as$u20$core..ops..deref..Deref$GT$5deref17h9be2f1da56c01228E
	pushq	%rbp
.Lcfi132:
	.seh_pushreg 5
	subq	$80, %rsp
.Lcfi133:
	.seh_stackalloc 80
	leaq	80(%rsp), %rbp
.Lcfi134:
	.seh_setframe 5, 80
.Lcfi135:
	.seh_endprologue
	movq	%rcx, -16(%rbp)
.Ltmp77:
	.cv_loc	22 1 1691 0
	movq	-16(%rbp), %rcx
	callq	_ZN49_$LT$alloc..raw_vec..RawVec$LT$T$C$$u20$A$GT$$GT$3ptr17hb4ef6da65c829610E
	movq	%rax, -8(%rbp)
.Ltmp78:
	.cv_loc	22 1 1692 0
	movq	-8(%rbp), %rcx
	callq	_ZN4core3ptr31_$LT$impl$u20$$BP$mut$u20$T$GT$7is_null17hb7de37faaff3e8e3E
	movb	%al, -17(%rbp)
	.cv_loc	22 1 1693 0
	movq	-8(%rbp), %rcx
	movq	-16(%rbp), %rax
	movq	16(%rax), %rdx
	callq	_ZN4core5slice14from_raw_parts17hc4ab6c95929b0cf9E
	movq	%rax, -32(%rbp)
	movq	%rdx, -40(%rbp)
.Ltmp79:
	.cv_loc	22 1 1695 0
	movq	-32(%rbp), %rax
	movq	-40(%rbp), %rdx
	addq	$80, %rsp
	popq	%rbp
	retq
.Ltmp80:
.Lfunc_end21:
	.seh_handlerdata
	.section	.text,"xr",one_only,_ZN68_$LT$alloc..vec..Vec$LT$T$GT$$u20$as$u20$core..ops..deref..Deref$GT$5deref17h9be2f1da56c01228E
.Lcfi136:
	.seh_endproc

	.def	 _ZN68_$LT$alloc..vec..Vec$LT$T$GT$$u20$as$u20$core..ops..deref..Deref$GT$5deref17he4fa6ce68c3f70c3E;
	.scl	3;
	.type	32;
	.endef
	.section	.text,"xr",one_only,_ZN68_$LT$alloc..vec..Vec$LT$T$GT$$u20$as$u20$core..ops..deref..Deref$GT$5deref17he4fa6ce68c3f70c3E
	.p2align	4, 0x90
_ZN68_$LT$alloc..vec..Vec$LT$T$GT$$u20$as$u20$core..ops..deref..Deref$GT$5deref17he4fa6ce68c3f70c3E:
.Lfunc_begin22:
	.cv_func_id 23
	.cv_loc	23 1 1689 0
.Lcfi137:
.seh_proc _ZN68_$LT$alloc..vec..Vec$LT$T$GT$$u20$as$u20$core..ops..deref..Deref$GT$5deref17he4fa6ce68c3f70c3E
	pushq	%rbp
.Lcfi138:
	.seh_pushreg 5
	subq	$80, %rsp
.Lcfi139:
	.seh_stackalloc 80
	leaq	80(%rsp), %rbp
.Lcfi140:
	.seh_setframe 5, 80
.Lcfi141:
	.seh_endprologue
	movq	%rcx, -16(%rbp)
.Ltmp81:
	.cv_loc	23 1 1691 0
	movq	-16(%rbp), %rcx
	callq	_ZN49_$LT$alloc..raw_vec..RawVec$LT$T$C$$u20$A$GT$$GT$3ptr17h8fb801312f07b368E
	movq	%rax, -8(%rbp)
.Ltmp82:
	.cv_loc	23 1 1692 0
	movq	-8(%rbp), %rcx
	callq	_ZN4core3ptr31_$LT$impl$u20$$BP$mut$u20$T$GT$7is_null17hf92091945e7a6ebfE
	movb	%al, -17(%rbp)
	.cv_loc	23 1 1693 0
	movq	-8(%rbp), %rcx
	movq	-16(%rbp), %rax
	movq	16(%rax), %rdx
	callq	_ZN4core5slice14from_raw_parts17h4102d3d94b9f121eE
	movq	%rax, -32(%rbp)
	movq	%rdx, -40(%rbp)
.Ltmp83:
	.cv_loc	23 1 1695 0
	movq	-32(%rbp), %rax
	movq	-40(%rbp), %rdx
	addq	$80, %rsp
	popq	%rbp
	retq
.Ltmp84:
.Lfunc_end22:
	.seh_handlerdata
	.section	.text,"xr",one_only,_ZN68_$LT$alloc..vec..Vec$LT$T$GT$$u20$as$u20$core..ops..deref..Deref$GT$5deref17he4fa6ce68c3f70c3E
.Lcfi142:
	.seh_endproc

	.def	 _ZN71_$LT$alloc..vec..IntoIter$LT$T$GT$$u20$as$u20$core..ops..drop..Drop$GT$4drop17h29aa659956fee7a6E;
	.scl	2;
	.type	32;
	.endef
	.section	.text,"xr",one_only,_ZN71_$LT$alloc..vec..IntoIter$LT$T$GT$$u20$as$u20$core..ops..drop..Drop$GT$4drop17h29aa659956fee7a6E
	.globl	_ZN71_$LT$alloc..vec..IntoIter$LT$T$GT$$u20$as$u20$core..ops..drop..Drop$GT$4drop17h29aa659956fee7a6E
	.p2align	4, 0x90
_ZN71_$LT$alloc..vec..IntoIter$LT$T$GT$$u20$as$u20$core..ops..drop..Drop$GT$4drop17h29aa659956fee7a6E:
.Lfunc_begin23:
	.cv_func_id 24
	.cv_loc	24 1 2422 0
.Lcfi143:
.seh_proc _ZN71_$LT$alloc..vec..IntoIter$LT$T$GT$$u20$as$u20$core..ops..drop..Drop$GT$4drop17h29aa659956fee7a6E
	.seh_handler __CxxFrameHandler3, @unwind, @except
	pushq	%rbp
.Lcfi144:
	.seh_pushreg 5
	subq	$176, %rsp
.Lcfi145:
	.seh_stackalloc 176
	leaq	128(%rsp), %rbp
.Lcfi146:
	.seh_setframe 5, 128
.Lcfi147:
	.seh_endprologue
	movq	$-2, 40(%rbp)
	movq	%rcx, -64(%rbp)
.Ltmp93:
	.cv_loc	24 1 2424 0
	movb	$0, 39(%rbp)
	movq	-64(%rbp), %rcx
	callq	_ZN4core4iter8iterator8Iterator6by_ref17hfadb4ffa8f242cdeE
	movq	%rax, %rcx
	callq	_ZN54_$LT$I$u20$as$u20$core..iter..traits..IntoIterator$GT$9into_iter17h210188d0c655a521E
	movq	%rax, -56(%rbp)
	jmp	.LBB23_2
.LBB23_2:
.Ltmp94:
	.cv_loc	24 1 2424 0
.Ltmp85:
	leaq	-32(%rbp), %rcx
	leaq	-56(%rbp), %rdx
	callq	_ZN75_$LT$$RF$$u27$a$u20$mut$u20$I$u20$as$u20$core..iter..iterator..Iterator$GT$4next17had97df0e1ac8d38aE
.Ltmp86:
	jmp	.LBB23_3
.LBB23_3:
	movq	-32(%rbp), %rax
	testq	%rax, %rax
	setne	%cl
	movzbl	%cl, %edx
	movl	%edx, %eax
	movq	%rax, -72(%rbp)
	je	.LBB23_4
	jmp	.LBB23_13
.LBB23_13:
	movq	-72(%rbp), %rax
	subq	$1, %rax
	movq	%rax, -80(%rbp)
	je	.LBB23_6
	jmp	.LBB23_5
.LBB23_4:
.Ltmp91:
	leaq	-32(%rbp), %rcx
	callq	_ZN4core3ptr13drop_in_place17he33d22e50f46b4faE
.Ltmp92:
	jmp	.LBB23_7
.Ltmp95:
.LBB23_5:
	.cv_loc	24 1 2428 0
	ud2
.LBB23_6:
	movl	$1, %eax
	movl	%eax, %ecx
	xorl	%eax, %eax
	movl	%eax, %edx
.Ltmp96:
	.cv_loc	24 1 2424 0
	movq	-32(%rbp), %r8
	movq	-24(%rbp), %r9
	movq	%r8, -16(%rbp)
	movq	%r9, -8(%rbp)
.Ltmp97:
	.cv_loc	24 1 2424 0
	movq	-16(%rbp), %r8
	movq	-8(%rbp), %r9
	movb	$1, 39(%rbp)
	movq	%r8, -48(%rbp)
	movq	%r9, -40(%rbp)
.Ltmp98:
	.cv_loc	24 1 2424 0
	cmpq	$0, -32(%rbp)
	cmoveq	%rdx, %rcx
	cmpq	$1, %rcx
	je	.LBB23_10
	jmp	.LBB23_11
.Ltmp99:
.LBB23_7:
	leaq	16(%rbp), %rcx
	.cv_loc	24 1 2424 0
	movb	$0, 39(%rbp)
.Ltmp100:
	.cv_loc	24 1 2427 0
	movq	-64(%rbp), %rax
	movq	(%rax), %rax
	movq	%rcx, -88(%rbp)
	movq	%rax, %rcx
	callq	_ZN36_$LT$core..ptr..NonNull$LT$T$GT$$GT$6as_ptr17h1f24179dff653dd3E
	movq	-64(%rbp), %rcx
	movq	8(%rcx), %rdx
	movq	%rax, %rcx
	callq	_ZN40_$LT$alloc..raw_vec..RawVec$LT$T$GT$$GT$14from_raw_parts17h3c49b2463e8f6f23E
	movq	%rdx, 24(%rbp)
	movq	%rax, 16(%rbp)
.Ltmp101:
	.cv_loc	24 1 2427 0
	movq	-88(%rbp), %rcx
	callq	_ZN4core3ptr13drop_in_place17hf5652ed0856e3a9eE
	.cv_loc	24 1 2428 0
	nop
	addq	$176, %rsp
	popq	%rbp
	retq
.LBB23_8:
.Ltmp102:
	.cv_loc	24 1 2424 0
	movb	$0, 39(%rbp)
	jmp	.LBB23_2
.LBB23_10:
.Ltmp103:
	.cv_loc	24 1 2424 0
	movb	$0, 39(%rbp)
	movq	-48(%rbp), %rax
	movq	-40(%rbp), %rcx
	movq	%rax, (%rbp)
	movq	%rcx, 8(%rbp)
.Ltmp89:
	movq	%rbp, %rcx
	callq	_ZN4core3ptr13drop_in_place17h74d6dd60109708dbE
.Ltmp90:
	jmp	.LBB23_8
.LBB23_11:
.Ltmp87:
	leaq	-32(%rbp), %rcx
	callq	_ZN4core3ptr13drop_in_place17he33d22e50f46b4faE
.Ltmp88:
	jmp	.LBB23_10
.Ltmp104:
.LBB23_1:
	.cv_loc	24 1 2422 0
	addq	$32, %rsp
	popq	%rbp
	retq
.LBB23_9:
	leaq	-48(%rbp), %rcx
.Ltmp105:
	.cv_loc	24 1 2424 0
	movb	$0, 39(%rbp)
	callq	_ZN4core3ptr13drop_in_place17h74d6dd60109708dbE
	jmp	.LBB23_1
	.seh_handlerdata
	.long	($cppxdata$_ZN71_$LT$alloc..vec..IntoIter$LT$T$GT$$u20$as$u20$core..ops..drop..Drop$GT$4drop17h29aa659956fee7a6E)@IMGREL
	.section	.text,"xr",one_only,_ZN71_$LT$alloc..vec..IntoIter$LT$T$GT$$u20$as$u20$core..ops..drop..Drop$GT$4drop17h29aa659956fee7a6E
.Lcfi148:
	.seh_endproc
	.def	 "?dtor$12@?0?_ZN71_$LT$alloc..vec..IntoIter$LT$T$GT$$u20$as$u20$core..ops..drop..Drop$GT$4drop17h29aa659956fee7a6E@4HA";
	.scl	3;
	.type	32;
	.endef
	.p2align	4, 0x90
"?dtor$12@?0?_ZN71_$LT$alloc..vec..IntoIter$LT$T$GT$$u20$as$u20$core..ops..drop..Drop$GT$4drop17h29aa659956fee7a6E@4HA":
.Lcfi149:
.seh_proc "?dtor$12@?0?_ZN71_$LT$alloc..vec..IntoIter$LT$T$GT$$u20$as$u20$core..ops..drop..Drop$GT$4drop17h29aa659956fee7a6E@4HA"
.LBB23_12:
	movq	%rdx, 16(%rsp)
	pushq	%rbp
.Lcfi150:
	.seh_pushreg 5
	subq	$32, %rsp
.Lcfi151:
	.seh_stackalloc 32
	leaq	128(%rdx), %rbp
.Lcfi152:
	.seh_endprologue
	testb	$1, 39(%rbp)
	jne	.LBB23_9
	jmp	.LBB23_1
.Ltmp106:
.Lfunc_end23:
	.seh_handlerdata
	.section	.text,"xr",one_only,_ZN71_$LT$alloc..vec..IntoIter$LT$T$GT$$u20$as$u20$core..ops..drop..Drop$GT$4drop17h29aa659956fee7a6E
.Lcfi153:
	.seh_endproc
	.section	.xdata,"dr",associative,_ZN71_$LT$alloc..vec..IntoIter$LT$T$GT$$u20$as$u20$core..ops..drop..Drop$GT$4drop17h29aa659956fee7a6E
	.p2align	2
$cppxdata$_ZN71_$LT$alloc..vec..IntoIter$LT$T$GT$$u20$as$u20$core..ops..drop..Drop$GT$4drop17h29aa659956fee7a6E:
	.long	429065506
	.long	1
	.long	($stateUnwindMap$_ZN71_$LT$alloc..vec..IntoIter$LT$T$GT$$u20$as$u20$core..ops..drop..Drop$GT$4drop17h29aa659956fee7a6E)@IMGREL
	.long	0
	.long	0
	.long	5
	.long	($ip2state$_ZN71_$LT$alloc..vec..IntoIter$LT$T$GT$$u20$as$u20$core..ops..drop..Drop$GT$4drop17h29aa659956fee7a6E)@IMGREL
	.long	168
	.long	0
	.long	1
$stateUnwindMap$_ZN71_$LT$alloc..vec..IntoIter$LT$T$GT$$u20$as$u20$core..ops..drop..Drop$GT$4drop17h29aa659956fee7a6E:
	.long	-1
	.long	"?dtor$12@?0?_ZN71_$LT$alloc..vec..IntoIter$LT$T$GT$$u20$as$u20$core..ops..drop..Drop$GT$4drop17h29aa659956fee7a6E@4HA"@IMGREL
$ip2state$_ZN71_$LT$alloc..vec..IntoIter$LT$T$GT$$u20$as$u20$core..ops..drop..Drop$GT$4drop17h29aa659956fee7a6E:
	.long	.Lfunc_begin23@IMGREL
	.long	-1
	.long	.Ltmp85@IMGREL+1
	.long	0
	.long	.Ltmp92@IMGREL+1
	.long	-1
	.long	.Ltmp89@IMGREL+1
	.long	0
	.long	.Ltmp88@IMGREL+1
	.long	-1
	.section	.text,"xr",one_only,_ZN71_$LT$alloc..vec..IntoIter$LT$T$GT$$u20$as$u20$core..ops..drop..Drop$GT$4drop17h29aa659956fee7a6E

	.def	 _ZN71_$LT$alloc..vec..IntoIter$LT$T$GT$$u20$as$u20$core..ops..drop..Drop$GT$4drop17h95fc15782307f265E;
	.scl	2;
	.type	32;
	.endef
	.section	.text,"xr",one_only,_ZN71_$LT$alloc..vec..IntoIter$LT$T$GT$$u20$as$u20$core..ops..drop..Drop$GT$4drop17h95fc15782307f265E
	.globl	_ZN71_$LT$alloc..vec..IntoIter$LT$T$GT$$u20$as$u20$core..ops..drop..Drop$GT$4drop17h95fc15782307f265E
	.p2align	4, 0x90
_ZN71_$LT$alloc..vec..IntoIter$LT$T$GT$$u20$as$u20$core..ops..drop..Drop$GT$4drop17h95fc15782307f265E:
.Lfunc_begin24:
	.cv_func_id 25
	.cv_loc	25 1 2422 0
.Lcfi154:
.seh_proc _ZN71_$LT$alloc..vec..IntoIter$LT$T$GT$$u20$as$u20$core..ops..drop..Drop$GT$4drop17h95fc15782307f265E
	.seh_handler __CxxFrameHandler3, @unwind, @except
	pushq	%rbp
.Lcfi155:
	.seh_pushreg 5
	subq	$304, %rsp
.Lcfi156:
	.seh_stackalloc 304
	leaq	128(%rsp), %rbp
.Lcfi157:
	.seh_setframe 5, 128
.Lcfi158:
	.seh_endprologue
	movq	$-2, 168(%rbp)
	movq	%rcx, -64(%rbp)
.Ltmp115:
	.cv_loc	25 1 2424 0
	movb	$0, 167(%rbp)
	movq	-64(%rbp), %rcx
	callq	_ZN4core4iter8iterator8Iterator6by_ref17h403866ae8d363494E
	movq	%rax, %rcx
	callq	_ZN54_$LT$I$u20$as$u20$core..iter..traits..IntoIterator$GT$9into_iter17h9b2b91ef45074ac0E
	movq	%rax, -56(%rbp)
	jmp	.LBB24_2
.LBB24_2:
.Ltmp116:
	.cv_loc	25 1 2424 0
.Ltmp107:
	leaq	-16(%rbp), %rcx
	leaq	-56(%rbp), %rdx
	callq	_ZN75_$LT$$RF$$u27$a$u20$mut$u20$I$u20$as$u20$core..iter..iterator..Iterator$GT$4next17h3e47a89e1c2362ceE
.Ltmp108:
	jmp	.LBB24_3
.LBB24_3:
	movb	-16(%rbp), %al
	subb	$4, %al
	setne	%cl
	movzbl	%cl, %edx
	movl	%edx, %r8d
	movb	%al, -65(%rbp)
	movq	%r8, -80(%rbp)
	je	.LBB24_4
	jmp	.LBB24_13
.LBB24_13:
	movq	-80(%rbp), %rax
	subq	$1, %rax
	movq	%rax, -88(%rbp)
	je	.LBB24_6
	jmp	.LBB24_5
.LBB24_4:
.Ltmp113:
	leaq	-16(%rbp), %rcx
	callq	_ZN4core3ptr13drop_in_place17h640f8fd808b94047E
.Ltmp114:
	jmp	.LBB24_7
.Ltmp117:
.LBB24_5:
	.cv_loc	25 1 2428 0
	ud2
.LBB24_6:
	movl	$1, %eax
	movl	%eax, %ecx
	xorl	%eax, %eax
	movl	%eax, %edx
.Ltmp118:
	.cv_loc	25 1 2424 0
	movq	-16(%rbp), %r8
	movq	%r8, 16(%rbp)
	movq	-8(%rbp), %r8
	movq	%r8, 24(%rbp)
	movq	(%rbp), %r8
	movq	%r8, 32(%rbp)
	movq	8(%rbp), %r8
	movq	%r8, 40(%rbp)
.Ltmp119:
	.cv_loc	25 1 2424 0
	movq	16(%rbp), %r8
	movq	%r8, 48(%rbp)
	movq	24(%rbp), %r8
	movq	%r8, 56(%rbp)
	movq	32(%rbp), %r8
	movq	%r8, 64(%rbp)
	movq	40(%rbp), %r8
	movq	%r8, 72(%rbp)
	movb	$1, 167(%rbp)
	movq	48(%rbp), %r8
	movq	%r8, -48(%rbp)
	movq	56(%rbp), %r8
	movq	%r8, -40(%rbp)
	movq	64(%rbp), %r8
	movq	%r8, -32(%rbp)
	movq	72(%rbp), %r8
	movq	%r8, -24(%rbp)
.Ltmp120:
	.cv_loc	25 1 2424 0
	cmpb	$4, -16(%rbp)
	cmoveq	%rdx, %rcx
	cmpq	$1, %rcx
	je	.LBB24_10
	jmp	.LBB24_11
.Ltmp121:
.LBB24_7:
	leaq	144(%rbp), %rcx
	.cv_loc	25 1 2424 0
	movb	$0, 167(%rbp)
.Ltmp122:
	.cv_loc	25 1 2427 0
	movq	-64(%rbp), %rax
	movq	(%rax), %rax
	movq	%rcx, -96(%rbp)
	movq	%rax, %rcx
	callq	_ZN36_$LT$core..ptr..NonNull$LT$T$GT$$GT$6as_ptr17hac08cf063c921720E
	movq	-64(%rbp), %rcx
	movq	8(%rcx), %rdx
	movq	%rax, %rcx
	callq	_ZN40_$LT$alloc..raw_vec..RawVec$LT$T$GT$$GT$14from_raw_parts17h614c59c7de39fda2E
	movq	%rdx, 152(%rbp)
	movq	%rax, 144(%rbp)
.Ltmp123:
	.cv_loc	25 1 2427 0
	movq	-96(%rbp), %rcx
	callq	_ZN4core3ptr13drop_in_place17h83ce86cf1ccfee18E
	.cv_loc	25 1 2428 0
	nop
	addq	$304, %rsp
	popq	%rbp
	retq
.LBB24_8:
.Ltmp124:
	.cv_loc	25 1 2424 0
	movb	$0, 167(%rbp)
	jmp	.LBB24_2
.LBB24_10:
.Ltmp125:
	.cv_loc	25 1 2424 0
	movb	$0, 167(%rbp)
	movups	-48(%rbp), %xmm0
	movups	-32(%rbp), %xmm1
	movaps	%xmm1, 128(%rbp)
	movaps	%xmm0, 112(%rbp)
	movaps	112(%rbp), %xmm0
	movaps	128(%rbp), %xmm1
	movaps	%xmm1, 96(%rbp)
	movaps	%xmm0, 80(%rbp)
.Ltmp111:
	leaq	80(%rbp), %rcx
	callq	_ZN4core3ptr13drop_in_place17h49da1e077d465508E
.Ltmp112:
	jmp	.LBB24_8
.LBB24_11:
.Ltmp109:
	leaq	-16(%rbp), %rcx
	callq	_ZN4core3ptr13drop_in_place17h640f8fd808b94047E
.Ltmp110:
	jmp	.LBB24_10
.Ltmp126:
.LBB24_1:
	.cv_loc	25 1 2422 0
	addq	$32, %rsp
	popq	%rbp
	retq
.LBB24_9:
	leaq	-48(%rbp), %rcx
.Ltmp127:
	.cv_loc	25 1 2424 0
	movb	$0, 167(%rbp)
	callq	_ZN4core3ptr13drop_in_place17h49da1e077d465508E
	jmp	.LBB24_1
	.seh_handlerdata
	.long	($cppxdata$_ZN71_$LT$alloc..vec..IntoIter$LT$T$GT$$u20$as$u20$core..ops..drop..Drop$GT$4drop17h95fc15782307f265E)@IMGREL
	.section	.text,"xr",one_only,_ZN71_$LT$alloc..vec..IntoIter$LT$T$GT$$u20$as$u20$core..ops..drop..Drop$GT$4drop17h95fc15782307f265E
.Lcfi159:
	.seh_endproc
	.def	 "?dtor$12@?0?_ZN71_$LT$alloc..vec..IntoIter$LT$T$GT$$u20$as$u20$core..ops..drop..Drop$GT$4drop17h95fc15782307f265E@4HA";
	.scl	3;
	.type	32;
	.endef
	.p2align	4, 0x90
"?dtor$12@?0?_ZN71_$LT$alloc..vec..IntoIter$LT$T$GT$$u20$as$u20$core..ops..drop..Drop$GT$4drop17h95fc15782307f265E@4HA":
.Lcfi160:
.seh_proc "?dtor$12@?0?_ZN71_$LT$alloc..vec..IntoIter$LT$T$GT$$u20$as$u20$core..ops..drop..Drop$GT$4drop17h95fc15782307f265E@4HA"
.LBB24_12:
	movq	%rdx, 16(%rsp)
	pushq	%rbp
.Lcfi161:
	.seh_pushreg 5
	subq	$32, %rsp
.Lcfi162:
	.seh_stackalloc 32
	leaq	128(%rdx), %rbp
.Lcfi163:
	.seh_endprologue
	testb	$1, 167(%rbp)
	jne	.LBB24_9
	jmp	.LBB24_1
.Ltmp128:
.Lfunc_end24:
	.seh_handlerdata
	.section	.text,"xr",one_only,_ZN71_$LT$alloc..vec..IntoIter$LT$T$GT$$u20$as$u20$core..ops..drop..Drop$GT$4drop17h95fc15782307f265E
.Lcfi164:
	.seh_endproc
	.section	.xdata,"dr",associative,_ZN71_$LT$alloc..vec..IntoIter$LT$T$GT$$u20$as$u20$core..ops..drop..Drop$GT$4drop17h95fc15782307f265E
	.p2align	2
$cppxdata$_ZN71_$LT$alloc..vec..IntoIter$LT$T$GT$$u20$as$u20$core..ops..drop..Drop$GT$4drop17h95fc15782307f265E:
	.long	429065506
	.long	1
	.long	($stateUnwindMap$_ZN71_$LT$alloc..vec..IntoIter$LT$T$GT$$u20$as$u20$core..ops..drop..Drop$GT$4drop17h95fc15782307f265E)@IMGREL
	.long	0
	.long	0
	.long	5
	.long	($ip2state$_ZN71_$LT$alloc..vec..IntoIter$LT$T$GT$$u20$as$u20$core..ops..drop..Drop$GT$4drop17h95fc15782307f265E)@IMGREL
	.long	296
	.long	0
	.long	1
$stateUnwindMap$_ZN71_$LT$alloc..vec..IntoIter$LT$T$GT$$u20$as$u20$core..ops..drop..Drop$GT$4drop17h95fc15782307f265E:
	.long	-1
	.long	"?dtor$12@?0?_ZN71_$LT$alloc..vec..IntoIter$LT$T$GT$$u20$as$u20$core..ops..drop..Drop$GT$4drop17h95fc15782307f265E@4HA"@IMGREL
$ip2state$_ZN71_$LT$alloc..vec..IntoIter$LT$T$GT$$u20$as$u20$core..ops..drop..Drop$GT$4drop17h95fc15782307f265E:
	.long	.Lfunc_begin24@IMGREL
	.long	-1
	.long	.Ltmp107@IMGREL+1
	.long	0
	.long	.Ltmp114@IMGREL+1
	.long	-1
	.long	.Ltmp111@IMGREL+1
	.long	0
	.long	.Ltmp110@IMGREL+1
	.long	-1
	.section	.text,"xr",one_only,_ZN71_$LT$alloc..vec..IntoIter$LT$T$GT$$u20$as$u20$core..ops..drop..Drop$GT$4drop17h95fc15782307f265E

	.def	 _ZN71_$LT$alloc..vec..Vec$LT$T$GT$$u20$as$u20$core..ops..deref..DerefMut$GT$9deref_mut17h1a3f38b458e611aeE;
	.scl	3;
	.type	32;
	.endef
	.section	.text,"xr",one_only,_ZN71_$LT$alloc..vec..Vec$LT$T$GT$$u20$as$u20$core..ops..deref..DerefMut$GT$9deref_mut17h1a3f38b458e611aeE
	.p2align	4, 0x90
_ZN71_$LT$alloc..vec..Vec$LT$T$GT$$u20$as$u20$core..ops..deref..DerefMut$GT$9deref_mut17h1a3f38b458e611aeE:
.Lfunc_begin25:
	.cv_func_id 26
	.cv_loc	26 1 1700 0
.Lcfi165:
.seh_proc _ZN71_$LT$alloc..vec..Vec$LT$T$GT$$u20$as$u20$core..ops..deref..DerefMut$GT$9deref_mut17h1a3f38b458e611aeE
	pushq	%rbp
.Lcfi166:
	.seh_pushreg 5
	subq	$80, %rsp
.Lcfi167:
	.seh_stackalloc 80
	leaq	80(%rsp), %rbp
.Lcfi168:
	.seh_setframe 5, 80
.Lcfi169:
	.seh_endprologue
	movq	%rcx, -16(%rbp)
.Ltmp129:
	.cv_loc	26 1 1702 0
	movq	-16(%rbp), %rcx
	callq	_ZN49_$LT$alloc..raw_vec..RawVec$LT$T$C$$u20$A$GT$$GT$3ptr17hfa3a02d0dad02ba8E
	movq	%rax, -8(%rbp)
.Ltmp130:
	.cv_loc	26 1 1703 0
	movq	-8(%rbp), %rcx
	callq	_ZN4core3ptr31_$LT$impl$u20$$BP$mut$u20$T$GT$7is_null17hc32a60ae8be00c4aE
	movb	%al, -17(%rbp)
	.cv_loc	26 1 1704 0
	movq	-8(%rbp), %rcx
	movq	-16(%rbp), %rax
	movq	16(%rax), %rdx
	callq	_ZN4core5slice18from_raw_parts_mut17hfac694fa3ff6e2cbE
	movq	%rax, -32(%rbp)
	movq	%rdx, -40(%rbp)
.Ltmp131:
	.cv_loc	26 1 1706 0
	movq	-32(%rbp), %rax
	movq	-40(%rbp), %rdx
	addq	$80, %rsp
	popq	%rbp
	retq
.Ltmp132:
.Lfunc_end25:
	.seh_handlerdata
	.section	.text,"xr",one_only,_ZN71_$LT$alloc..vec..Vec$LT$T$GT$$u20$as$u20$core..ops..deref..DerefMut$GT$9deref_mut17h1a3f38b458e611aeE
.Lcfi170:
	.seh_endproc

	.def	 _ZN71_$LT$alloc..vec..Vec$LT$T$GT$$u20$as$u20$core..ops..deref..DerefMut$GT$9deref_mut17h456983abd9536ef3E;
	.scl	3;
	.type	32;
	.endef
	.section	.text,"xr",one_only,_ZN71_$LT$alloc..vec..Vec$LT$T$GT$$u20$as$u20$core..ops..deref..DerefMut$GT$9deref_mut17h456983abd9536ef3E
	.p2align	4, 0x90
_ZN71_$LT$alloc..vec..Vec$LT$T$GT$$u20$as$u20$core..ops..deref..DerefMut$GT$9deref_mut17h456983abd9536ef3E:
.Lfunc_begin26:
	.cv_func_id 27
	.cv_loc	27 1 1700 0
.Lcfi171:
.seh_proc _ZN71_$LT$alloc..vec..Vec$LT$T$GT$$u20$as$u20$core..ops..deref..DerefMut$GT$9deref_mut17h456983abd9536ef3E
	pushq	%rbp
.Lcfi172:
	.seh_pushreg 5
	subq	$80, %rsp
.Lcfi173:
	.seh_stackalloc 80
	leaq	80(%rsp), %rbp
.Lcfi174:
	.seh_setframe 5, 80
.Lcfi175:
	.seh_endprologue
	movq	%rcx, -16(%rbp)
.Ltmp133:
	.cv_loc	27 1 1702 0
	movq	-16(%rbp), %rcx
	callq	_ZN49_$LT$alloc..raw_vec..RawVec$LT$T$C$$u20$A$GT$$GT$3ptr17h66cbd05a51e5ccc2E
	movq	%rax, -8(%rbp)
.Ltmp134:
	.cv_loc	27 1 1703 0
	movq	-8(%rbp), %rcx
	callq	_ZN4core3ptr31_$LT$impl$u20$$BP$mut$u20$T$GT$7is_null17he45d2da9b9b0ebadE
	movb	%al, -17(%rbp)
	.cv_loc	27 1 1704 0
	movq	-8(%rbp), %rcx
	movq	-16(%rbp), %rax
	movq	16(%rax), %rdx
	callq	_ZN4core5slice18from_raw_parts_mut17h1e0150f9de20d0eeE
	movq	%rax, -32(%rbp)
	movq	%rdx, -40(%rbp)
.Ltmp135:
	.cv_loc	27 1 1706 0
	movq	-32(%rbp), %rax
	movq	-40(%rbp), %rdx
	addq	$80, %rsp
	popq	%rbp
	retq
.Ltmp136:
.Lfunc_end26:
	.seh_handlerdata
	.section	.text,"xr",one_only,_ZN71_$LT$alloc..vec..Vec$LT$T$GT$$u20$as$u20$core..ops..deref..DerefMut$GT$9deref_mut17h456983abd9536ef3E
.Lcfi176:
	.seh_endproc

	.def	 _ZN71_$LT$alloc..vec..Vec$LT$T$GT$$u20$as$u20$core..ops..deref..DerefMut$GT$9deref_mut17h672f0199f5f19c63E;
	.scl	3;
	.type	32;
	.endef
	.section	.text,"xr",one_only,_ZN71_$LT$alloc..vec..Vec$LT$T$GT$$u20$as$u20$core..ops..deref..DerefMut$GT$9deref_mut17h672f0199f5f19c63E
	.p2align	4, 0x90
_ZN71_$LT$alloc..vec..Vec$LT$T$GT$$u20$as$u20$core..ops..deref..DerefMut$GT$9deref_mut17h672f0199f5f19c63E:
.Lfunc_begin27:
	.cv_func_id 28
	.cv_loc	28 1 1700 0
.Lcfi177:
.seh_proc _ZN71_$LT$alloc..vec..Vec$LT$T$GT$$u20$as$u20$core..ops..deref..DerefMut$GT$9deref_mut17h672f0199f5f19c63E
	pushq	%rbp
.Lcfi178:
	.seh_pushreg 5
	subq	$80, %rsp
.Lcfi179:
	.seh_stackalloc 80
	leaq	80(%rsp), %rbp
.Lcfi180:
	.seh_setframe 5, 80
.Lcfi181:
	.seh_endprologue
	movq	%rcx, -16(%rbp)
.Ltmp137:
	.cv_loc	28 1 1702 0
	movq	-16(%rbp), %rcx
	callq	_ZN49_$LT$alloc..raw_vec..RawVec$LT$T$C$$u20$A$GT$$GT$3ptr17hd1021770549b1448E
	movq	%rax, -8(%rbp)
.Ltmp138:
	.cv_loc	28 1 1703 0
	movq	-8(%rbp), %rcx
	callq	_ZN4core3ptr31_$LT$impl$u20$$BP$mut$u20$T$GT$7is_null17h6ddb816c053fce10E
	movb	%al, -17(%rbp)
	.cv_loc	28 1 1704 0
	movq	-8(%rbp), %rcx
	movq	-16(%rbp), %rax
	movq	16(%rax), %rdx
	callq	_ZN4core5slice18from_raw_parts_mut17hd4a527dc720ca4beE
	movq	%rax, -32(%rbp)
	movq	%rdx, -40(%rbp)
.Ltmp139:
	.cv_loc	28 1 1706 0
	movq	-32(%rbp), %rax
	movq	-40(%rbp), %rdx
	addq	$80, %rsp
	popq	%rbp
	retq
.Ltmp140:
.Lfunc_end27:
	.seh_handlerdata
	.section	.text,"xr",one_only,_ZN71_$LT$alloc..vec..Vec$LT$T$GT$$u20$as$u20$core..ops..deref..DerefMut$GT$9deref_mut17h672f0199f5f19c63E
.Lcfi182:
	.seh_endproc

	.def	 _ZN71_$LT$alloc..vec..Vec$LT$T$GT$$u20$as$u20$core..ops..deref..DerefMut$GT$9deref_mut17hcb1e0d7ba6cba240E;
	.scl	3;
	.type	32;
	.endef
	.section	.text,"xr",one_only,_ZN71_$LT$alloc..vec..Vec$LT$T$GT$$u20$as$u20$core..ops..deref..DerefMut$GT$9deref_mut17hcb1e0d7ba6cba240E
	.p2align	4, 0x90
_ZN71_$LT$alloc..vec..Vec$LT$T$GT$$u20$as$u20$core..ops..deref..DerefMut$GT$9deref_mut17hcb1e0d7ba6cba240E:
.Lfunc_begin28:
	.cv_func_id 29
	.cv_loc	29 1 1700 0
.Lcfi183:
.seh_proc _ZN71_$LT$alloc..vec..Vec$LT$T$GT$$u20$as$u20$core..ops..deref..DerefMut$GT$9deref_mut17hcb1e0d7ba6cba240E
	pushq	%rbp
.Lcfi184:
	.seh_pushreg 5
	subq	$80, %rsp
.Lcfi185:
	.seh_stackalloc 80
	leaq	80(%rsp), %rbp
.Lcfi186:
	.seh_setframe 5, 80
.Lcfi187:
	.seh_endprologue
	movq	%rcx, -16(%rbp)
.Ltmp141:
	.cv_loc	29 1 1702 0
	movq	-16(%rbp), %rcx
	callq	_ZN49_$LT$alloc..raw_vec..RawVec$LT$T$C$$u20$A$GT$$GT$3ptr17h8fb801312f07b368E
	movq	%rax, -8(%rbp)
.Ltmp142:
	.cv_loc	29 1 1703 0
	movq	-8(%rbp), %rcx
	callq	_ZN4core3ptr31_$LT$impl$u20$$BP$mut$u20$T$GT$7is_null17hf92091945e7a6ebfE
	movb	%al, -17(%rbp)
	.cv_loc	29 1 1704 0
	movq	-8(%rbp), %rcx
	movq	-16(%rbp), %rax
	movq	16(%rax), %rdx
	callq	_ZN4core5slice18from_raw_parts_mut17h69da080f591d11a6E
	movq	%rax, -32(%rbp)
	movq	%rdx, -40(%rbp)
.Ltmp143:
	.cv_loc	29 1 1706 0
	movq	-32(%rbp), %rax
	movq	-40(%rbp), %rdx
	addq	$80, %rsp
	popq	%rbp
	retq
.Ltmp144:
.Lfunc_end28:
	.seh_handlerdata
	.section	.text,"xr",one_only,_ZN71_$LT$alloc..vec..Vec$LT$T$GT$$u20$as$u20$core..ops..deref..DerefMut$GT$9deref_mut17hcb1e0d7ba6cba240E
.Lcfi188:
	.seh_endproc

	.def	 _ZN71_$LT$alloc..vec..Vec$LT$T$GT$$u20$as$u20$core..ops..deref..DerefMut$GT$9deref_mut17hcbf28e0842f530f3E;
	.scl	3;
	.type	32;
	.endef
	.section	.text,"xr",one_only,_ZN71_$LT$alloc..vec..Vec$LT$T$GT$$u20$as$u20$core..ops..deref..DerefMut$GT$9deref_mut17hcbf28e0842f530f3E
	.p2align	4, 0x90
_ZN71_$LT$alloc..vec..Vec$LT$T$GT$$u20$as$u20$core..ops..deref..DerefMut$GT$9deref_mut17hcbf28e0842f530f3E:
.Lfunc_begin29:
	.cv_func_id 30
	.cv_loc	30 1 1700 0
.Lcfi189:
.seh_proc _ZN71_$LT$alloc..vec..Vec$LT$T$GT$$u20$as$u20$core..ops..deref..DerefMut$GT$9deref_mut17hcbf28e0842f530f3E
	pushq	%rbp
.Lcfi190:
	.seh_pushreg 5
	subq	$80, %rsp
.Lcfi191:
	.seh_stackalloc 80
	leaq	80(%rsp), %rbp
.Lcfi192:
	.seh_setframe 5, 80
.Lcfi193:
	.seh_endprologue
	movq	%rcx, -16(%rbp)
.Ltmp145:
	.cv_loc	30 1 1702 0
	movq	-16(%rbp), %rcx
	callq	_ZN49_$LT$alloc..raw_vec..RawVec$LT$T$C$$u20$A$GT$$GT$3ptr17hb4ef6da65c829610E
	movq	%rax, -8(%rbp)
.Ltmp146:
	.cv_loc	30 1 1703 0
	movq	-8(%rbp), %rcx
	callq	_ZN4core3ptr31_$LT$impl$u20$$BP$mut$u20$T$GT$7is_null17hb7de37faaff3e8e3E
	movb	%al, -17(%rbp)
	.cv_loc	30 1 1704 0
	movq	-8(%rbp), %rcx
	movq	-16(%rbp), %rax
	movq	16(%rax), %rdx
	callq	_ZN4core5slice18from_raw_parts_mut17ha7e9cf8cb3611186E
	movq	%rax, -32(%rbp)
	movq	%rdx, -40(%rbp)
.Ltmp147:
	.cv_loc	30 1 1706 0
	movq	-32(%rbp), %rax
	movq	-40(%rbp), %rdx
	addq	$80, %rsp
	popq	%rbp
	retq
.Ltmp148:
.Lfunc_end29:
	.seh_handlerdata
	.section	.text,"xr",one_only,_ZN71_$LT$alloc..vec..Vec$LT$T$GT$$u20$as$u20$core..ops..deref..DerefMut$GT$9deref_mut17hcbf28e0842f530f3E
.Lcfi194:
	.seh_endproc

	.def	 _ZN75_$LT$$RF$$u27$a$u20$mut$u20$I$u20$as$u20$core..iter..iterator..Iterator$GT$4next17h3e47a89e1c2362ceE;
	.scl	3;
	.type	32;
	.endef
	.section	.text,"xr",one_only,_ZN75_$LT$$RF$$u27$a$u20$mut$u20$I$u20$as$u20$core..iter..iterator..Iterator$GT$4next17h3e47a89e1c2362ceE
	.p2align	4, 0x90
_ZN75_$LT$$RF$$u27$a$u20$mut$u20$I$u20$as$u20$core..iter..iterator..Iterator$GT$4next17h3e47a89e1c2362ceE:
.Lfunc_begin30:
	.cv_func_id 31
	.cv_loc	31 3 2380 0
.Lcfi195:
.seh_proc _ZN75_$LT$$RF$$u27$a$u20$mut$u20$I$u20$as$u20$core..iter..iterator..Iterator$GT$4next17h3e47a89e1c2362ceE
	pushq	%rbp
.Lcfi196:
	.seh_pushreg 5
	subq	$48, %rsp
.Lcfi197:
	.seh_stackalloc 48
	leaq	48(%rsp), %rbp
.Lcfi198:
	.seh_setframe 5, 48
.Lcfi199:
	.seh_endprologue
	movq	%rcx, %rax
	movq	%rdx, -8(%rbp)
.Ltmp149:
	movq	-8(%rbp), %rdx
	movq	(%rdx), %rdx
	movq	%rax, -16(%rbp)
	callq	_ZN80_$LT$alloc..vec..IntoIter$LT$T$GT$$u20$as$u20$core..iter..iterator..Iterator$GT$4next17h99853a5a8231200eE
	movq	-16(%rbp), %rax
	addq	$48, %rsp
	popq	%rbp
	retq
.Ltmp150:
.Lfunc_end30:
	.seh_handlerdata
	.section	.text,"xr",one_only,_ZN75_$LT$$RF$$u27$a$u20$mut$u20$I$u20$as$u20$core..iter..iterator..Iterator$GT$4next17h3e47a89e1c2362ceE
.Lcfi200:
	.seh_endproc

	.def	 _ZN75_$LT$$RF$$u27$a$u20$mut$u20$I$u20$as$u20$core..iter..iterator..Iterator$GT$4next17had97df0e1ac8d38aE;
	.scl	3;
	.type	32;
	.endef
	.section	.text,"xr",one_only,_ZN75_$LT$$RF$$u27$a$u20$mut$u20$I$u20$as$u20$core..iter..iterator..Iterator$GT$4next17had97df0e1ac8d38aE
	.p2align	4, 0x90
_ZN75_$LT$$RF$$u27$a$u20$mut$u20$I$u20$as$u20$core..iter..iterator..Iterator$GT$4next17had97df0e1ac8d38aE:
.Lfunc_begin31:
	.cv_func_id 32
	.cv_loc	32 3 2380 0
.Lcfi201:
.seh_proc _ZN75_$LT$$RF$$u27$a$u20$mut$u20$I$u20$as$u20$core..iter..iterator..Iterator$GT$4next17had97df0e1ac8d38aE
	pushq	%rbp
.Lcfi202:
	.seh_pushreg 5
	subq	$48, %rsp
.Lcfi203:
	.seh_stackalloc 48
	leaq	48(%rsp), %rbp
.Lcfi204:
	.seh_setframe 5, 48
.Lcfi205:
	.seh_endprologue
	movq	%rcx, %rax
	movq	%rdx, -8(%rbp)
.Ltmp151:
	movq	-8(%rbp), %rdx
	movq	(%rdx), %rdx
	movq	%rax, -16(%rbp)
	callq	_ZN80_$LT$alloc..vec..IntoIter$LT$T$GT$$u20$as$u20$core..iter..iterator..Iterator$GT$4next17h7640a91baf677c6dE
	movq	-16(%rbp), %rax
	addq	$48, %rsp
	popq	%rbp
	retq
.Ltmp152:
.Lfunc_end31:
	.seh_handlerdata
	.section	.text,"xr",one_only,_ZN75_$LT$$RF$$u27$a$u20$mut$u20$I$u20$as$u20$core..iter..iterator..Iterator$GT$4next17had97df0e1ac8d38aE
.Lcfi206:
	.seh_endproc

	.def	 _ZN77_$LT$alloc..vec..Vec$LT$T$GT$$u20$as$u20$core..iter..traits..IntoIterator$GT$9into_iter17hce32ffae45ef9e37E;
	.scl	2;
	.type	32;
	.endef
	.section	.text,"xr",one_only,_ZN77_$LT$alloc..vec..Vec$LT$T$GT$$u20$as$u20$core..iter..traits..IntoIterator$GT$9into_iter17hce32ffae45ef9e37E
	.globl	_ZN77_$LT$alloc..vec..Vec$LT$T$GT$$u20$as$u20$core..iter..traits..IntoIterator$GT$9into_iter17hce32ffae45ef9e37E
	.p2align	4, 0x90
_ZN77_$LT$alloc..vec..Vec$LT$T$GT$$u20$as$u20$core..iter..traits..IntoIterator$GT$9into_iter17hce32ffae45ef9e37E:
.Lfunc_begin32:
	.cv_func_id 33
	.cv_loc	33 1 1736 0
.Lcfi207:
.seh_proc _ZN77_$LT$alloc..vec..Vec$LT$T$GT$$u20$as$u20$core..iter..traits..IntoIterator$GT$9into_iter17hce32ffae45ef9e37E
	.seh_handler __CxxFrameHandler3, @unwind, @except
	pushq	%rbp
.Lcfi208:
	.seh_pushreg 5
	subq	$240, %rsp
.Lcfi209:
	.seh_stackalloc 240
	leaq	128(%rsp), %rbp
.Lcfi210:
	.seh_setframe 5, 128
.Lcfi211:
	.seh_endprologue
	movq	$-2, 104(%rbp)
	movq	%rcx, %rax
.Ltmp173:
	.cv_loc	33 1 1738 0
	movb	$0, 79(%rbp)
	movb	$1, 79(%rbp)
.Ltmp153:
	movq	%rcx, 16(%rbp)
	movq	%rdx, %rcx
	movq	%rax, 8(%rbp)
	movq	%rdx, (%rbp)
.Ltmp174:
	callq	_ZN71_$LT$alloc..vec..Vec$LT$T$GT$$u20$as$u20$core..ops..deref..DerefMut$GT$9deref_mut17h456983abd9536ef3E
.Ltmp154:
	movq	%rdx, -8(%rbp)
	movq	%rax, -16(%rbp)
	jmp	.LBB32_1
.Ltmp175:
.LBB32_1:
.Ltmp155:
	movq	-16(%rbp), %rcx
	movq	-8(%rbp), %rdx
	callq	_ZN5alloc5slice29_$LT$impl$u20$$u5b$T$u5d$$GT$10as_mut_ptr17h92374b8005f5c554E
.Ltmp156:
	movq	%rax, -24(%rbp)
	jmp	.LBB32_3
.Ltmp176:
.LBB32_3:
	movq	-24(%rbp), %rax
	movq	%rax, 24(%rbp)
.Ltmp177:
	.cv_loc	33 1 1739 0
	movq	24(%rbp), %rcx
.Ltmp157:
	callq	_ZN4core3ptr31_$LT$impl$u20$$BP$mut$u20$T$GT$7is_null17he45d2da9b9b0ebadE
.Ltmp158:
	movb	%al, -25(%rbp)
	jmp	.LBB32_4
.Ltmp178:
.LBB32_4:
	.cv_loc	33 1 1740 0
.Ltmp159:
	callq	_ZN4core3mem7size_of17hcc9d39a977f63b01E
.Ltmp160:
	movq	%rax, -40(%rbp)
	jmp	.LBB32_5
.Ltmp179:
.LBB32_5:
	movq	-40(%rbp), %rax
	cmpq	$0, %rax
	jne	.LBB32_7
.Ltmp180:
	.cv_loc	33 1 1741 0
	movq	24(%rbp), %rax
.Ltmp165:
	movq	(%rbp), %rcx
	movq	%rax, -48(%rbp)
	callq	_ZN33_$LT$alloc..vec..Vec$LT$T$GT$$GT$3len17h5a6df5ceadcb33a8E
.Ltmp166:
	movq	%rax, -56(%rbp)
	jmp	.LBB32_8
.Ltmp181:
.LBB32_7:
	.cv_loc	33 1 1743 0
	movq	24(%rbp), %rcx
.Ltmp161:
	movq	(%rbp), %rax
	movq	%rcx, -64(%rbp)
	movq	%rax, %rcx
	callq	_ZN33_$LT$alloc..vec..Vec$LT$T$GT$$GT$3len17h5a6df5ceadcb33a8E
.Ltmp162:
	movq	%rax, -72(%rbp)
	jmp	.LBB32_9
.Ltmp182:
.LBB32_8:
	.cv_loc	33 1 1741 0
	movq	-48(%rbp), %rax
	movq	-56(%rbp), %rcx
	addq	%rcx, %rax
	movq	%rax, 80(%rbp)
	movq	80(%rbp), %rax
	movq	%rax, 32(%rbp)
	.cv_loc	33 1 1740 0
	jmp	.LBB32_11
.Ltmp183:
.LBB32_9:
	.cv_loc	33 1 1743 0
.Ltmp163:
	movq	-64(%rbp), %rcx
	movq	-72(%rbp), %rdx
	callq	_ZN4core3ptr31_$LT$impl$u20$$BP$mut$u20$T$GT$6offset17h55de82888f868704E
.Ltmp164:
	movq	%rax, -80(%rbp)
	jmp	.LBB32_10
.Ltmp184:
.LBB32_10:
	movq	-80(%rbp), %rax
	movq	%rax, 32(%rbp)
.Ltmp185:
.LBB32_11:
	movq	(%rbp), %rax
	movq	%rax, 88(%rbp)
.Ltmp186:
	.cv_inline_site_id 34 within 33 inlined_at 1 1745 0
	.cv_loc	34 2 207 0
.Ltmp167:
	callq	_ZN4core3mem7size_of17hcc9d39a977f63b01E
.Ltmp168:
	movq	%rax, -88(%rbp)
	jmp	.LBB32_12
.Ltmp187:
.LBB32_12:
	movq	-88(%rbp), %rax
	cmpq	$0, %rax
	jne	.LBB32_14
.Ltmp188:
	.cv_loc	34 2 208 0
	movq	$-1, 96(%rbp)
	.cv_loc	34 2 207 0
	jmp	.LBB32_15
.Ltmp189:
.LBB32_14:
	.cv_loc	34 2 210 0
	movq	88(%rbp), %rax
	movq	8(%rax), %rax
	movq	%rax, 96(%rbp)
.Ltmp190:
.LBB32_15:
	.cv_loc	34 2 212 0
	movq	96(%rbp), %rax
.Ltmp191:
	.cv_loc	33 1 1745 0
	movq	%rax, 40(%rbp)
.Ltmp192:
	.cv_loc	33 1 1746 0
	movb	$0, 79(%rbp)
	movq	(%rbp), %rax
	movq	16(%rax), %rcx
	movq	%rcx, 64(%rbp)
	movups	(%rax), %xmm0
	movaps	%xmm0, 48(%rbp)
.Ltmp169:
	leaq	48(%rbp), %rcx
	callq	_ZN4core3mem6forget17hd3604a87d406e39cE
.Ltmp170:
	jmp	.LBB32_16
.Ltmp193:
.LBB32_16:
	.cv_loc	33 1 1748 0
	movq	24(%rbp), %rcx
.Ltmp171:
	callq	_ZN36_$LT$core..ptr..NonNull$LT$T$GT$$GT$13new_unchecked17h75e424613ba0aaefE
.Ltmp172:
	movq	%rax, -96(%rbp)
	jmp	.LBB32_17
.Ltmp194:
.LBB32_17:
	.cv_loc	33 1 1750 0
	movq	40(%rbp), %rax
	.cv_loc	33 1 1751 0
	movq	24(%rbp), %rcx
	.cv_loc	33 1 1752 0
	movq	32(%rbp), %rdx
	.cv_loc	33 1 1747 0
	movq	16(%rbp), %r8
	movq	-96(%rbp), %r9
	movq	%r9, (%r8)
	movq	%rax, 8(%r8)
	movq	%rcx, 16(%r8)
	movq	%rdx, 24(%r8)
.Ltmp195:
	.cv_loc	33 1 1755 0
	movq	8(%rbp), %rax
	addq	$240, %rsp
	popq	%rbp
.Ltmp196:
	retq
.LBB32_2:
	.cv_loc	33 1 1736 0
	addq	$32, %rsp
	popq	%rbp
	retq
.LBB32_18:
	.cv_loc	33 1 1755 0
	movb	$0, 79(%rbp)
	movq	(%rbp), %rcx
	callq	_ZN4core3ptr13drop_in_place17hdaed797c3b04aa17E
	jmp	.LBB32_2
	.seh_handlerdata
	.long	($cppxdata$_ZN77_$LT$alloc..vec..Vec$LT$T$GT$$u20$as$u20$core..iter..traits..IntoIterator$GT$9into_iter17hce32ffae45ef9e37E)@IMGREL
	.section	.text,"xr",one_only,_ZN77_$LT$alloc..vec..Vec$LT$T$GT$$u20$as$u20$core..iter..traits..IntoIterator$GT$9into_iter17hce32ffae45ef9e37E
.Lcfi212:
	.seh_endproc
	.def	 "?dtor$19@?0?_ZN77_$LT$alloc..vec..Vec$LT$T$GT$$u20$as$u20$core..iter..traits..IntoIterator$GT$9into_iter17hce32ffae45ef9e37E@4HA";
	.scl	3;
	.type	32;
	.endef
	.p2align	4, 0x90
"?dtor$19@?0?_ZN77_$LT$alloc..vec..Vec$LT$T$GT$$u20$as$u20$core..iter..traits..IntoIterator$GT$9into_iter17hce32ffae45ef9e37E@4HA":
.Lcfi213:
.seh_proc "?dtor$19@?0?_ZN77_$LT$alloc..vec..Vec$LT$T$GT$$u20$as$u20$core..iter..traits..IntoIterator$GT$9into_iter17hce32ffae45ef9e37E@4HA"
.LBB32_19:
.Ltmp197:
	movq	%rdx, 16(%rsp)
	pushq	%rbp
.Lcfi214:
	.seh_pushreg 5
	subq	$32, %rsp
.Lcfi215:
	.seh_stackalloc 32
	leaq	128(%rdx), %rbp
.Ltmp198:
.Lcfi216:
	.seh_endprologue
	testb	$1, 79(%rbp)
	jne	.LBB32_18
	jmp	.LBB32_2
.Ltmp199:
.Lfunc_end32:
	.seh_handlerdata
	.section	.text,"xr",one_only,_ZN77_$LT$alloc..vec..Vec$LT$T$GT$$u20$as$u20$core..iter..traits..IntoIterator$GT$9into_iter17hce32ffae45ef9e37E
.Lcfi217:
	.seh_endproc
	.section	.xdata,"dr",associative,_ZN77_$LT$alloc..vec..Vec$LT$T$GT$$u20$as$u20$core..iter..traits..IntoIterator$GT$9into_iter17hce32ffae45ef9e37E
	.p2align	2
$cppxdata$_ZN77_$LT$alloc..vec..Vec$LT$T$GT$$u20$as$u20$core..iter..traits..IntoIterator$GT$9into_iter17hce32ffae45ef9e37E:
	.long	429065506
	.long	1
	.long	($stateUnwindMap$_ZN77_$LT$alloc..vec..Vec$LT$T$GT$$u20$as$u20$core..iter..traits..IntoIterator$GT$9into_iter17hce32ffae45ef9e37E)@IMGREL
	.long	0
	.long	0
	.long	3
	.long	($ip2state$_ZN77_$LT$alloc..vec..Vec$LT$T$GT$$u20$as$u20$core..iter..traits..IntoIterator$GT$9into_iter17hce32ffae45ef9e37E)@IMGREL
	.long	232
	.long	0
	.long	1
$stateUnwindMap$_ZN77_$LT$alloc..vec..Vec$LT$T$GT$$u20$as$u20$core..iter..traits..IntoIterator$GT$9into_iter17hce32ffae45ef9e37E:
	.long	-1
	.long	"?dtor$19@?0?_ZN77_$LT$alloc..vec..Vec$LT$T$GT$$u20$as$u20$core..iter..traits..IntoIterator$GT$9into_iter17hce32ffae45ef9e37E@4HA"@IMGREL
$ip2state$_ZN77_$LT$alloc..vec..Vec$LT$T$GT$$u20$as$u20$core..iter..traits..IntoIterator$GT$9into_iter17hce32ffae45ef9e37E:
	.long	.Lfunc_begin32@IMGREL
	.long	-1
	.long	.Ltmp153@IMGREL+1
	.long	0
	.long	.Ltmp172@IMGREL+1
	.long	-1
	.section	.text,"xr",one_only,_ZN77_$LT$alloc..vec..Vec$LT$T$GT$$u20$as$u20$core..iter..traits..IntoIterator$GT$9into_iter17hce32ffae45ef9e37E

	.def	 _ZN77_$LT$alloc..vec..Vec$LT$T$GT$$u20$as$u20$core..iter..traits..IntoIterator$GT$9into_iter17he1cfb7e75d24fff2E;
	.scl	2;
	.type	32;
	.endef
	.section	.text,"xr",one_only,_ZN77_$LT$alloc..vec..Vec$LT$T$GT$$u20$as$u20$core..iter..traits..IntoIterator$GT$9into_iter17he1cfb7e75d24fff2E
	.globl	_ZN77_$LT$alloc..vec..Vec$LT$T$GT$$u20$as$u20$core..iter..traits..IntoIterator$GT$9into_iter17he1cfb7e75d24fff2E
	.p2align	4, 0x90
_ZN77_$LT$alloc..vec..Vec$LT$T$GT$$u20$as$u20$core..iter..traits..IntoIterator$GT$9into_iter17he1cfb7e75d24fff2E:
.Lfunc_begin33:
	.cv_func_id 35
	.cv_loc	35 1 1736 0
.Lcfi218:
.seh_proc _ZN77_$LT$alloc..vec..Vec$LT$T$GT$$u20$as$u20$core..iter..traits..IntoIterator$GT$9into_iter17he1cfb7e75d24fff2E
	.seh_handler __CxxFrameHandler3, @unwind, @except
	pushq	%rbp
.Lcfi219:
	.seh_pushreg 5
	subq	$240, %rsp
.Lcfi220:
	.seh_stackalloc 240
	leaq	128(%rsp), %rbp
.Lcfi221:
	.seh_setframe 5, 128
.Lcfi222:
	.seh_endprologue
	movq	$-2, 104(%rbp)
	movq	%rcx, %rax
.Ltmp220:
	.cv_loc	35 1 1738 0
	movb	$0, 79(%rbp)
	movb	$1, 79(%rbp)
.Ltmp200:
	movq	%rcx, 16(%rbp)
	movq	%rdx, %rcx
	movq	%rax, 8(%rbp)
	movq	%rdx, (%rbp)
.Ltmp221:
	callq	_ZN71_$LT$alloc..vec..Vec$LT$T$GT$$u20$as$u20$core..ops..deref..DerefMut$GT$9deref_mut17h672f0199f5f19c63E
.Ltmp201:
	movq	%rdx, -8(%rbp)
	movq	%rax, -16(%rbp)
	jmp	.LBB33_1
.Ltmp222:
.LBB33_1:
.Ltmp202:
	movq	-16(%rbp), %rcx
	movq	-8(%rbp), %rdx
	callq	_ZN5alloc5slice29_$LT$impl$u20$$u5b$T$u5d$$GT$10as_mut_ptr17he8f732123ffd7259E
.Ltmp203:
	movq	%rax, -24(%rbp)
	jmp	.LBB33_3
.Ltmp223:
.LBB33_3:
	movq	-24(%rbp), %rax
	movq	%rax, 24(%rbp)
.Ltmp224:
	.cv_loc	35 1 1739 0
	movq	24(%rbp), %rcx
.Ltmp204:
	callq	_ZN4core3ptr31_$LT$impl$u20$$BP$mut$u20$T$GT$7is_null17h6ddb816c053fce10E
.Ltmp205:
	movb	%al, -25(%rbp)
	jmp	.LBB33_4
.Ltmp225:
.LBB33_4:
	.cv_loc	35 1 1740 0
.Ltmp206:
	callq	_ZN4core3mem7size_of17h524daf7c1fc564fcE
.Ltmp207:
	movq	%rax, -40(%rbp)
	jmp	.LBB33_5
.Ltmp226:
.LBB33_5:
	movq	-40(%rbp), %rax
	cmpq	$0, %rax
	jne	.LBB33_7
.Ltmp227:
	.cv_loc	35 1 1741 0
	movq	24(%rbp), %rax
.Ltmp212:
	movq	(%rbp), %rcx
	movq	%rax, -48(%rbp)
	callq	_ZN33_$LT$alloc..vec..Vec$LT$T$GT$$GT$3len17h86e4dde6ff85bae6E
.Ltmp213:
	movq	%rax, -56(%rbp)
	jmp	.LBB33_8
.Ltmp228:
.LBB33_7:
	.cv_loc	35 1 1743 0
	movq	24(%rbp), %rcx
.Ltmp208:
	movq	(%rbp), %rax
	movq	%rcx, -64(%rbp)
	movq	%rax, %rcx
	callq	_ZN33_$LT$alloc..vec..Vec$LT$T$GT$$GT$3len17h86e4dde6ff85bae6E
.Ltmp209:
	movq	%rax, -72(%rbp)
	jmp	.LBB33_9
.Ltmp229:
.LBB33_8:
	.cv_loc	35 1 1741 0
	movq	-48(%rbp), %rax
	movq	-56(%rbp), %rcx
	addq	%rcx, %rax
	movq	%rax, 80(%rbp)
	movq	80(%rbp), %rax
	movq	%rax, 32(%rbp)
	.cv_loc	35 1 1740 0
	jmp	.LBB33_11
.Ltmp230:
.LBB33_9:
	.cv_loc	35 1 1743 0
.Ltmp210:
	movq	-64(%rbp), %rcx
	movq	-72(%rbp), %rdx
	callq	_ZN4core3ptr31_$LT$impl$u20$$BP$mut$u20$T$GT$6offset17h89d9b70c20845cf3E
.Ltmp211:
	movq	%rax, -80(%rbp)
	jmp	.LBB33_10
.Ltmp231:
.LBB33_10:
	movq	-80(%rbp), %rax
	movq	%rax, 32(%rbp)
.Ltmp232:
.LBB33_11:
	movq	(%rbp), %rax
	movq	%rax, 88(%rbp)
.Ltmp233:
	.cv_inline_site_id 36 within 35 inlined_at 1 1745 0
	.cv_loc	36 2 207 0
.Ltmp214:
	callq	_ZN4core3mem7size_of17h524daf7c1fc564fcE
.Ltmp215:
	movq	%rax, -88(%rbp)
	jmp	.LBB33_12
.Ltmp234:
.LBB33_12:
	movq	-88(%rbp), %rax
	cmpq	$0, %rax
	jne	.LBB33_14
.Ltmp235:
	.cv_loc	36 2 208 0
	movq	$-1, 96(%rbp)
	.cv_loc	36 2 207 0
	jmp	.LBB33_15
.Ltmp236:
.LBB33_14:
	.cv_loc	36 2 210 0
	movq	88(%rbp), %rax
	movq	8(%rax), %rax
	movq	%rax, 96(%rbp)
.Ltmp237:
.LBB33_15:
	.cv_loc	36 2 212 0
	movq	96(%rbp), %rax
.Ltmp238:
	.cv_loc	35 1 1745 0
	movq	%rax, 40(%rbp)
.Ltmp239:
	.cv_loc	35 1 1746 0
	movb	$0, 79(%rbp)
	movq	(%rbp), %rax
	movq	16(%rax), %rcx
	movq	%rcx, 64(%rbp)
	movups	(%rax), %xmm0
	movaps	%xmm0, 48(%rbp)
.Ltmp216:
	leaq	48(%rbp), %rcx
	callq	_ZN4core3mem6forget17h1a47e0c908b06c57E
.Ltmp217:
	jmp	.LBB33_16
.Ltmp240:
.LBB33_16:
	.cv_loc	35 1 1748 0
	movq	24(%rbp), %rcx
.Ltmp218:
	callq	_ZN36_$LT$core..ptr..NonNull$LT$T$GT$$GT$13new_unchecked17h1554658b70f4d889E
.Ltmp219:
	movq	%rax, -96(%rbp)
	jmp	.LBB33_17
.Ltmp241:
.LBB33_17:
	.cv_loc	35 1 1750 0
	movq	40(%rbp), %rax
	.cv_loc	35 1 1751 0
	movq	24(%rbp), %rcx
	.cv_loc	35 1 1752 0
	movq	32(%rbp), %rdx
	.cv_loc	35 1 1747 0
	movq	16(%rbp), %r8
	movq	-96(%rbp), %r9
	movq	%r9, (%r8)
	movq	%rax, 8(%r8)
	movq	%rcx, 16(%r8)
	movq	%rdx, 24(%r8)
.Ltmp242:
	.cv_loc	35 1 1755 0
	movq	8(%rbp), %rax
	addq	$240, %rsp
	popq	%rbp
.Ltmp243:
	retq
.LBB33_2:
	.cv_loc	35 1 1736 0
	addq	$32, %rsp
	popq	%rbp
	retq
.LBB33_18:
	.cv_loc	35 1 1755 0
	movb	$0, 79(%rbp)
	movq	(%rbp), %rcx
	callq	_ZN4core3ptr13drop_in_place17hbe4757f23980a841E
	jmp	.LBB33_2
	.seh_handlerdata
	.long	($cppxdata$_ZN77_$LT$alloc..vec..Vec$LT$T$GT$$u20$as$u20$core..iter..traits..IntoIterator$GT$9into_iter17he1cfb7e75d24fff2E)@IMGREL
	.section	.text,"xr",one_only,_ZN77_$LT$alloc..vec..Vec$LT$T$GT$$u20$as$u20$core..iter..traits..IntoIterator$GT$9into_iter17he1cfb7e75d24fff2E
.Lcfi223:
	.seh_endproc
	.def	 "?dtor$19@?0?_ZN77_$LT$alloc..vec..Vec$LT$T$GT$$u20$as$u20$core..iter..traits..IntoIterator$GT$9into_iter17he1cfb7e75d24fff2E@4HA";
	.scl	3;
	.type	32;
	.endef
	.p2align	4, 0x90
"?dtor$19@?0?_ZN77_$LT$alloc..vec..Vec$LT$T$GT$$u20$as$u20$core..iter..traits..IntoIterator$GT$9into_iter17he1cfb7e75d24fff2E@4HA":
.Lcfi224:
.seh_proc "?dtor$19@?0?_ZN77_$LT$alloc..vec..Vec$LT$T$GT$$u20$as$u20$core..iter..traits..IntoIterator$GT$9into_iter17he1cfb7e75d24fff2E@4HA"
.LBB33_19:
.Ltmp244:
	movq	%rdx, 16(%rsp)
	pushq	%rbp
.Lcfi225:
	.seh_pushreg 5
	subq	$32, %rsp
.Lcfi226:
	.seh_stackalloc 32
	leaq	128(%rdx), %rbp
.Ltmp245:
.Lcfi227:
	.seh_endprologue
	testb	$1, 79(%rbp)
	jne	.LBB33_18
	jmp	.LBB33_2
.Ltmp246:
.Lfunc_end33:
	.seh_handlerdata
	.section	.text,"xr",one_only,_ZN77_$LT$alloc..vec..Vec$LT$T$GT$$u20$as$u20$core..iter..traits..IntoIterator$GT$9into_iter17he1cfb7e75d24fff2E
.Lcfi228:
	.seh_endproc
	.section	.xdata,"dr",associative,_ZN77_$LT$alloc..vec..Vec$LT$T$GT$$u20$as$u20$core..iter..traits..IntoIterator$GT$9into_iter17he1cfb7e75d24fff2E
	.p2align	2
$cppxdata$_ZN77_$LT$alloc..vec..Vec$LT$T$GT$$u20$as$u20$core..iter..traits..IntoIterator$GT$9into_iter17he1cfb7e75d24fff2E:
	.long	429065506
	.long	1
	.long	($stateUnwindMap$_ZN77_$LT$alloc..vec..Vec$LT$T$GT$$u20$as$u20$core..iter..traits..IntoIterator$GT$9into_iter17he1cfb7e75d24fff2E)@IMGREL
	.long	0
	.long	0
	.long	3
	.long	($ip2state$_ZN77_$LT$alloc..vec..Vec$LT$T$GT$$u20$as$u20$core..iter..traits..IntoIterator$GT$9into_iter17he1cfb7e75d24fff2E)@IMGREL
	.long	232
	.long	0
	.long	1
$stateUnwindMap$_ZN77_$LT$alloc..vec..Vec$LT$T$GT$$u20$as$u20$core..iter..traits..IntoIterator$GT$9into_iter17he1cfb7e75d24fff2E:
	.long	-1
	.long	"?dtor$19@?0?_ZN77_$LT$alloc..vec..Vec$LT$T$GT$$u20$as$u20$core..iter..traits..IntoIterator$GT$9into_iter17he1cfb7e75d24fff2E@4HA"@IMGREL
$ip2state$_ZN77_$LT$alloc..vec..Vec$LT$T$GT$$u20$as$u20$core..iter..traits..IntoIterator$GT$9into_iter17he1cfb7e75d24fff2E:
	.long	.Lfunc_begin33@IMGREL
	.long	-1
	.long	.Ltmp200@IMGREL+1
	.long	0
	.long	.Ltmp219@IMGREL+1
	.long	-1
	.section	.text,"xr",one_only,_ZN77_$LT$alloc..vec..Vec$LT$T$GT$$u20$as$u20$core..iter..traits..IntoIterator$GT$9into_iter17he1cfb7e75d24fff2E

	.def	 _ZN80_$LT$alloc..vec..IntoIter$LT$T$GT$$u20$as$u20$core..iter..iterator..Iterator$GT$4next17h7640a91baf677c6dE;
	.scl	2;
	.type	32;
	.endef
	.section	.text,"xr",one_only,_ZN80_$LT$alloc..vec..IntoIter$LT$T$GT$$u20$as$u20$core..iter..iterator..Iterator$GT$4next17h7640a91baf677c6dE
	.globl	_ZN80_$LT$alloc..vec..IntoIter$LT$T$GT$$u20$as$u20$core..iter..iterator..Iterator$GT$4next17h7640a91baf677c6dE
	.p2align	4, 0x90
_ZN80_$LT$alloc..vec..IntoIter$LT$T$GT$$u20$as$u20$core..iter..iterator..Iterator$GT$4next17h7640a91baf677c6dE:
.Lfunc_begin34:
	.cv_func_id 37
	.cv_loc	37 1 2336 0
.Lcfi229:
.seh_proc _ZN80_$LT$alloc..vec..IntoIter$LT$T$GT$$u20$as$u20$core..iter..iterator..Iterator$GT$4next17h7640a91baf677c6dE
	pushq	%rbp
.Lcfi230:
	.seh_pushreg 5
	subq	$128, %rsp
.Lcfi231:
	.seh_stackalloc 128
	leaq	128(%rsp), %rbp
.Lcfi232:
	.seh_setframe 5, 128
.Lcfi233:
	.seh_endprologue
	movq	%rcx, %rax
	movq	%rdx, -24(%rbp)
.Ltmp247:
	.cv_loc	37 1 2338 0
	movq	-24(%rbp), %rdx
	movq	16(%rdx), %rdx
	movq	-24(%rbp), %r8
	cmpq	24(%r8), %rdx
	movq	%rax, -32(%rbp)
	movq	%rcx, -40(%rbp)
	jne	.LBB34_2
	.cv_loc	37 1 2339 0
	movq	-40(%rbp), %rax
	movq	$0, (%rax)
	.cv_loc	37 1 2338 0
	jmp	.LBB34_11
.LBB34_2:
	.cv_loc	37 1 2341 0
	callq	_ZN4core3mem7size_of17h524daf7c1fc564fcE
	movq	%rax, -48(%rbp)
	movq	-48(%rbp), %rax
	cmpq	$0, %rax
	jne	.LBB34_5
	.cv_loc	37 1 2345 0
	movq	-24(%rbp), %rax
	movq	16(%rax), %rax
	addq	$1, %rax
	movq	%rax, -8(%rbp)
	movq	-8(%rbp), %rax
	movq	%rax, -56(%rbp)
	jmp	.LBB34_6
.LBB34_5:
	movl	$1, %eax
	movl	%eax, %edx
	.cv_loc	37 1 2351 0
	movq	-24(%rbp), %rcx
	movq	16(%rcx), %rcx
	movq	%rcx, -16(%rbp)
.Ltmp248:
	.cv_loc	37 1 2352 0
	movq	-24(%rbp), %rcx
	movq	16(%rcx), %rcx
	callq	_ZN4core3ptr33_$LT$impl$u20$$BP$const$u20$T$GT$6offset17hb18686ad8b5322eaE
	movq	%rax, -64(%rbp)
	jmp	.LBB34_8
.Ltmp249:
.LBB34_6:
	movl	$1, %eax
	movl	%eax, %ecx
	.cv_loc	37 1 2345 0
	movq	-56(%rbp), %rdx
	movq	-24(%rbp), %r8
	movq	%rdx, 16(%r8)
	.cv_loc	37 1 2349 0
	callq	_ZN4core3ptr4read17hcf91635f193abe93E
	movq	%rax, -72(%rbp)
	movq	%rdx, -80(%rbp)
	movq	-40(%rbp), %rax
	movq	-72(%rbp), %rcx
	movq	%rcx, (%rax)
	movq	-80(%rbp), %rdx
	movq	%rdx, 8(%rax)
	.cv_loc	37 1 2341 0
	jmp	.LBB34_10
.LBB34_8:
.Ltmp250:
	.cv_loc	37 1 2352 0
	movq	-24(%rbp), %rax
	movq	-64(%rbp), %rcx
	movq	%rcx, 16(%rax)
	.cv_loc	37 1 2354 0
	movq	-16(%rbp), %rcx
	callq	_ZN4core3ptr4read17hcf91635f193abe93E
	movq	%rax, -88(%rbp)
	movq	%rdx, -96(%rbp)
	movq	-40(%rbp), %rax
	movq	-88(%rbp), %rcx
	movq	%rcx, (%rax)
	movq	-96(%rbp), %rdx
	movq	%rdx, 8(%rax)
.Ltmp251:
.LBB34_10:
	.cv_loc	37 1 2338 0
	jmp	.LBB34_11
.Ltmp252:
.LBB34_11:
	.cv_loc	37 1 2358 0
	movq	-32(%rbp), %rax
	addq	$128, %rsp
	popq	%rbp
	retq
.Ltmp253:
.Lfunc_end34:
	.seh_handlerdata
	.section	.text,"xr",one_only,_ZN80_$LT$alloc..vec..IntoIter$LT$T$GT$$u20$as$u20$core..iter..iterator..Iterator$GT$4next17h7640a91baf677c6dE
.Lcfi234:
	.seh_endproc

	.def	 _ZN80_$LT$alloc..vec..IntoIter$LT$T$GT$$u20$as$u20$core..iter..iterator..Iterator$GT$4next17h99853a5a8231200eE;
	.scl	2;
	.type	32;
	.endef
	.section	.text,"xr",one_only,_ZN80_$LT$alloc..vec..IntoIter$LT$T$GT$$u20$as$u20$core..iter..iterator..Iterator$GT$4next17h99853a5a8231200eE
	.globl	_ZN80_$LT$alloc..vec..IntoIter$LT$T$GT$$u20$as$u20$core..iter..iterator..Iterator$GT$4next17h99853a5a8231200eE
	.p2align	4, 0x90
_ZN80_$LT$alloc..vec..IntoIter$LT$T$GT$$u20$as$u20$core..iter..iterator..Iterator$GT$4next17h99853a5a8231200eE:
.Lfunc_begin35:
	.cv_func_id 38
	.cv_loc	38 1 2336 0
.Lcfi235:
.seh_proc _ZN80_$LT$alloc..vec..IntoIter$LT$T$GT$$u20$as$u20$core..iter..iterator..Iterator$GT$4next17h99853a5a8231200eE
	pushq	%rbp
.Lcfi236:
	.seh_pushreg 5
	subq	$160, %rsp
.Lcfi237:
	.seh_stackalloc 160
	leaq	128(%rsp), %rbp
.Lcfi238:
	.seh_setframe 5, 128
.Lcfi239:
	.seh_endprologue
	movq	%rcx, %rax
	movq	%rdx, -56(%rbp)
.Ltmp254:
	.cv_loc	38 1 2338 0
	movq	-56(%rbp), %rdx
	movq	16(%rdx), %rdx
	movq	-56(%rbp), %r8
	cmpq	24(%r8), %rdx
	movq	%rax, -64(%rbp)
	movq	%rcx, -72(%rbp)
	jne	.LBB35_2
	.cv_loc	38 1 2339 0
	movq	-72(%rbp), %rax
	movb	$4, (%rax)
	.cv_loc	38 1 2338 0
	jmp	.LBB35_11
.LBB35_2:
	.cv_loc	38 1 2341 0
	callq	_ZN4core3mem7size_of17hcc9d39a977f63b01E
	movq	%rax, -80(%rbp)
	movq	-80(%rbp), %rax
	cmpq	$0, %rax
	jne	.LBB35_5
	.cv_loc	38 1 2345 0
	movq	-56(%rbp), %rax
	movq	16(%rax), %rax
	addq	$1, %rax
	movq	%rax, 24(%rbp)
	movq	24(%rbp), %rax
	movq	%rax, -88(%rbp)
	jmp	.LBB35_6
.LBB35_5:
	movl	$1, %eax
	movl	%eax, %edx
	.cv_loc	38 1 2351 0
	movq	-56(%rbp), %rcx
	movq	16(%rcx), %rcx
	movq	%rcx, -16(%rbp)
.Ltmp255:
	.cv_loc	38 1 2352 0
	movq	-56(%rbp), %rcx
	movq	16(%rcx), %rcx
	callq	_ZN4core3ptr33_$LT$impl$u20$$BP$const$u20$T$GT$6offset17hd0452bac674c8e65E
	movq	%rax, -96(%rbp)
	jmp	.LBB35_8
.Ltmp256:
.LBB35_6:
	leaq	-48(%rbp), %rcx
	movl	$1, %eax
	movl	%eax, %edx
	.cv_loc	38 1 2345 0
	movq	-88(%rbp), %r8
	movq	-56(%rbp), %r9
	movq	%r8, 16(%r9)
	.cv_loc	38 1 2349 0
	callq	_ZN4core3ptr4read17hd055c34ca1958591E
	movq	-48(%rbp), %rax
	movq	-72(%rbp), %rcx
	movq	%rax, (%rcx)
	movq	-40(%rbp), %rax
	movq	%rax, 8(%rcx)
	movq	-32(%rbp), %rax
	movq	%rax, 16(%rcx)
	movq	-24(%rbp), %rax
	movq	%rax, 24(%rcx)
	.cv_loc	38 1 2341 0
	jmp	.LBB35_10
.LBB35_8:
	leaq	-8(%rbp), %rcx
.Ltmp257:
	.cv_loc	38 1 2352 0
	movq	-56(%rbp), %rax
	movq	-96(%rbp), %rdx
	movq	%rdx, 16(%rax)
	.cv_loc	38 1 2354 0
	movq	-16(%rbp), %rdx
	callq	_ZN4core3ptr4read17hd055c34ca1958591E
	movq	-8(%rbp), %rax
	movq	-72(%rbp), %rcx
	movq	%rax, (%rcx)
	movq	(%rbp), %rax
	movq	%rax, 8(%rcx)
	movq	8(%rbp), %rax
	movq	%rax, 16(%rcx)
	movq	16(%rbp), %rax
	movq	%rax, 24(%rcx)
.Ltmp258:
.LBB35_10:
	.cv_loc	38 1 2338 0
	jmp	.LBB35_11
.Ltmp259:
.LBB35_11:
	.cv_loc	38 1 2358 0
	movq	-64(%rbp), %rax
	addq	$160, %rsp
	popq	%rbp
	retq
.Ltmp260:
.Lfunc_end35:
	.seh_handlerdata
	.section	.text,"xr",one_only,_ZN80_$LT$alloc..vec..IntoIter$LT$T$GT$$u20$as$u20$core..iter..iterator..Iterator$GT$4next17h99853a5a8231200eE
.Lcfi240:
	.seh_endproc

	.def	 _ZN81_$LT$alloc..vec..Vec$LT$T$GT$$u20$as$u20$core..ops..index..Index$LT$usize$GT$$GT$5index17h6f9a3f4b5abb7600E;
	.scl	2;
	.type	32;
	.endef
	.section	.text,"xr",one_only,_ZN81_$LT$alloc..vec..Vec$LT$T$GT$$u20$as$u20$core..ops..index..Index$LT$usize$GT$$GT$5index17h6f9a3f4b5abb7600E
	.globl	_ZN81_$LT$alloc..vec..Vec$LT$T$GT$$u20$as$u20$core..ops..index..Index$LT$usize$GT$$GT$5index17h6f9a3f4b5abb7600E
	.p2align	4, 0x90
_ZN81_$LT$alloc..vec..Vec$LT$T$GT$$u20$as$u20$core..ops..index..Index$LT$usize$GT$$GT$5index17h6f9a3f4b5abb7600E:
.Lfunc_begin36:
	.cv_func_id 39
	.cv_loc	39 1 1549 0
.Lcfi241:
.seh_proc _ZN81_$LT$alloc..vec..Vec$LT$T$GT$$u20$as$u20$core..ops..index..Index$LT$usize$GT$$GT$5index17h6f9a3f4b5abb7600E
	pushq	%rbp
.Lcfi242:
	.seh_pushreg 5
	subq	$80, %rsp
.Lcfi243:
	.seh_stackalloc 80
	leaq	80(%rsp), %rbp
.Lcfi244:
	.seh_setframe 5, 80
.Lcfi245:
	.seh_endprologue
	movq	%rcx, -16(%rbp)
	movq	%rdx, -8(%rbp)
.Ltmp261:
	.cv_loc	39 1 1551 0
	movq	-16(%rbp), %rcx
	callq	_ZN68_$LT$alloc..vec..Vec$LT$T$GT$$u20$as$u20$core..ops..deref..Deref$GT$5deref17h9be2f1da56c01228E
	movq	%rax, -24(%rbp)
	movq	%rdx, -32(%rbp)
	movq	-8(%rbp), %rax
	movq	-32(%rbp), %rcx
	cmpq	%rcx, %rax
	setb	%dl
	testb	$1, %dl
	movq	%rax, -40(%rbp)
	jne	.LBB36_2
	jmp	.LBB36_3
.LBB36_2:
	movq	-40(%rbp), %rax
	shlq	$2, %rax
	movq	-24(%rbp), %rcx
	addq	%rax, %rcx
	.cv_loc	39 1 1552 0
	movq	%rcx, %rax
	addq	$80, %rsp
	popq	%rbp
	retq
.LBB36_3:
	.cv_loc	39 1 1551 0
	leaq	panic_bounds_check_loc.1(%rip), %rcx
	movq	-40(%rbp), %rdx
	movq	-32(%rbp), %r8
	callq	_ZN4core9panicking18panic_bounds_check17h24bfa2468a9a6fd8E
	ud2
.Ltmp262:
.Lfunc_end36:
	.seh_handlerdata
	.section	.text,"xr",one_only,_ZN81_$LT$alloc..vec..Vec$LT$T$GT$$u20$as$u20$core..ops..index..Index$LT$usize$GT$$GT$5index17h6f9a3f4b5abb7600E
.Lcfi246:
	.seh_endproc

	.def	 _ZN92_$LT$$RF$$u27$a$u20$alloc..vec..Vec$LT$T$GT$$u20$as$u20$core..iter..traits..IntoIterator$GT$9into_iter17hefcdcde6fb0519dfE;
	.scl	2;
	.type	32;
	.endef
	.section	.text,"xr",one_only,_ZN92_$LT$$RF$$u27$a$u20$alloc..vec..Vec$LT$T$GT$$u20$as$u20$core..iter..traits..IntoIterator$GT$9into_iter17hefcdcde6fb0519dfE
	.globl	_ZN92_$LT$$RF$$u27$a$u20$alloc..vec..Vec$LT$T$GT$$u20$as$u20$core..iter..traits..IntoIterator$GT$9into_iter17hefcdcde6fb0519dfE
	.p2align	4, 0x90
_ZN92_$LT$$RF$$u27$a$u20$alloc..vec..Vec$LT$T$GT$$u20$as$u20$core..iter..traits..IntoIterator$GT$9into_iter17hefcdcde6fb0519dfE:
.Lfunc_begin37:
	.cv_func_id 40
	.cv_loc	40 1 1763 0
.Lcfi247:
.seh_proc _ZN92_$LT$$RF$$u27$a$u20$alloc..vec..Vec$LT$T$GT$$u20$as$u20$core..iter..traits..IntoIterator$GT$9into_iter17hefcdcde6fb0519dfE
	pushq	%rbp
.Lcfi248:
	.seh_pushreg 5
	subq	$80, %rsp
.Lcfi249:
	.seh_stackalloc 80
	leaq	80(%rsp), %rbp
.Lcfi250:
	.seh_setframe 5, 80
.Lcfi251:
	.seh_endprologue
	movq	%rcx, -8(%rbp)
.Ltmp263:
	.cv_loc	40 1 1764 0
	movq	-8(%rbp), %rcx
	callq	_ZN68_$LT$alloc..vec..Vec$LT$T$GT$$u20$as$u20$core..ops..deref..Deref$GT$5deref17he4fa6ce68c3f70c3E
	movq	%rax, -16(%rbp)
	movq	%rdx, -24(%rbp)
	movq	-16(%rbp), %rcx
	movq	-24(%rbp), %rdx
	callq	_ZN5alloc5slice29_$LT$impl$u20$$u5b$T$u5d$$GT$4iter17h977e1b454c071d8dE
	movq	%rax, -32(%rbp)
	movq	%rdx, -40(%rbp)
	.cv_loc	40 1 1765 0
	movq	-32(%rbp), %rax
	movq	-40(%rbp), %rdx
	addq	$80, %rsp
	popq	%rbp
	retq
.Ltmp264:
.Lfunc_end37:
	.seh_handlerdata
	.section	.text,"xr",one_only,_ZN92_$LT$$RF$$u27$a$u20$alloc..vec..Vec$LT$T$GT$$u20$as$u20$core..iter..traits..IntoIterator$GT$9into_iter17hefcdcde6fb0519dfE
.Lcfi252:
	.seh_endproc

	.section	.rdata,"dr",one_only,str.0
	.p2align	4
str.0:
	.ascii	"C:\\projects\\rust\\src\\liballoc\\vec.rs"

	.section	.rdata,"dr",one_only,panic_bounds_check_loc.1
	.p2align	3
panic_bounds_check_loc.1:
	.quad	str.0
	.quad	36
	.long	1551
	.long	10
