	.text
	.def	 _ZN4core5slice13size_from_ptr17h42569c3209718e30E;
	.scl	2;
	.type	32;
	.endef
	.section	.text,"xr",one_only,_ZN4core5slice13size_from_ptr17h42569c3209718e30E
	.globl	_ZN4core5slice13size_from_ptr17h42569c3209718e30E
	.p2align	4, 0x90
_ZN4core5slice13size_from_ptr17h42569c3209718e30E:
.Lfunc_begin0:
	.cv_func_id 0
	.cv_file	1 "C:\\projects\\rust\\src\\libcore\\slice\\mod.rs"
	.cv_loc	0 1 1159 0 is_stmt 0
.Lcfi0:
.seh_proc _ZN4core5slice13size_from_ptr17h42569c3209718e30E
	pushq	%rbp
.Lcfi1:
	.seh_pushreg 5
	subq	$48, %rsp
.Lcfi2:
	.seh_stackalloc 48
	leaq	48(%rsp), %rbp
.Lcfi3:
	.seh_setframe 5, 48
.Lcfi4:
	.seh_endprologue
	movq	%rcx, -8(%rbp)
.Ltmp0:
	.cv_loc	0 1 1160 0
	callq	_ZN4core3mem7size_of17h164ff08c8f7ba06dE
	movq	%rax, -16(%rbp)
	.cv_loc	0 1 1161 0
	movq	-16(%rbp), %rax
	addq	$48, %rsp
	popq	%rbp
	retq
.Ltmp1:
.Lfunc_end0:
	.seh_handlerdata
	.section	.text,"xr",one_only,_ZN4core5slice13size_from_ptr17h42569c3209718e30E
.Lcfi5:
	.seh_endproc

	.def	 _ZN4core5slice14from_raw_parts17h0761078a52d0fa60E;
	.scl	2;
	.type	32;
	.endef
	.section	.text,"xr",one_only,_ZN4core5slice14from_raw_parts17h0761078a52d0fa60E
	.globl	_ZN4core5slice14from_raw_parts17h0761078a52d0fa60E
	.p2align	4, 0x90
_ZN4core5slice14from_raw_parts17h0761078a52d0fa60E:
.Lfunc_begin1:
	.cv_func_id 1
	.cv_loc	1 1 2684 0
.Lcfi6:
.seh_proc _ZN4core5slice14from_raw_parts17h0761078a52d0fa60E
	pushq	%rbp
.Lcfi7:
	.seh_pushreg 5
	subq	$64, %rsp
.Lcfi8:
	.seh_stackalloc 64
	leaq	64(%rsp), %rbp
.Lcfi9:
	.seh_setframe 5, 64
.Lcfi10:
	.seh_endprologue
	movq	%rcx, -48(%rbp)
	movq	%rdx, -40(%rbp)
.Ltmp2:
	.cv_loc	1 1 2685 0
	movq	-48(%rbp), %rcx
	movq	-40(%rbp), %rdx
	movq	%rcx, -32(%rbp)
	movq	%rdx, -24(%rbp)
	movq	-32(%rbp), %rcx
	movq	-24(%rbp), %rdx
	movq	%rcx, -16(%rbp)
	movq	%rdx, -8(%rbp)
	movq	-16(%rbp), %rax
	movq	-8(%rbp), %rdx
	movq	%rax, -56(%rbp)
	movq	%rdx, -64(%rbp)
	.cv_loc	1 1 2686 0
	movq	-56(%rbp), %rax
	movq	-64(%rbp), %rdx
	addq	$64, %rsp
	popq	%rbp
	retq
.Ltmp3:
.Lfunc_end1:
	.seh_handlerdata
	.section	.text,"xr",one_only,_ZN4core5slice14from_raw_parts17h0761078a52d0fa60E
.Lcfi11:
	.seh_endproc

	.def	 _ZN4core5slice14from_raw_parts17h4102d3d94b9f121eE;
	.scl	2;
	.type	32;
	.endef
	.section	.text,"xr",one_only,_ZN4core5slice14from_raw_parts17h4102d3d94b9f121eE
	.globl	_ZN4core5slice14from_raw_parts17h4102d3d94b9f121eE
	.p2align	4, 0x90
_ZN4core5slice14from_raw_parts17h4102d3d94b9f121eE:
.Lfunc_begin2:
	.cv_func_id 2
	.cv_loc	2 1 2684 0
.Lcfi12:
.seh_proc _ZN4core5slice14from_raw_parts17h4102d3d94b9f121eE
	pushq	%rbp
.Lcfi13:
	.seh_pushreg 5
	subq	$64, %rsp
.Lcfi14:
	.seh_stackalloc 64
	leaq	64(%rsp), %rbp
.Lcfi15:
	.seh_setframe 5, 64
.Lcfi16:
	.seh_endprologue
	movq	%rcx, -48(%rbp)
	movq	%rdx, -40(%rbp)
.Ltmp4:
	.cv_loc	2 1 2685 0
	movq	-48(%rbp), %rcx
	movq	-40(%rbp), %rdx
	movq	%rcx, -32(%rbp)
	movq	%rdx, -24(%rbp)
	movq	-32(%rbp), %rcx
	movq	-24(%rbp), %rdx
	movq	%rcx, -16(%rbp)
	movq	%rdx, -8(%rbp)
	movq	-16(%rbp), %rax
	movq	-8(%rbp), %rdx
	movq	%rax, -56(%rbp)
	movq	%rdx, -64(%rbp)
	.cv_loc	2 1 2686 0
	movq	-56(%rbp), %rax
	movq	-64(%rbp), %rdx
	addq	$64, %rsp
	popq	%rbp
	retq
.Ltmp5:
.Lfunc_end2:
	.seh_handlerdata
	.section	.text,"xr",one_only,_ZN4core5slice14from_raw_parts17h4102d3d94b9f121eE
.Lcfi17:
	.seh_endproc

	.def	 _ZN4core5slice14from_raw_parts17hc4ab6c95929b0cf9E;
	.scl	2;
	.type	32;
	.endef
	.section	.text,"xr",one_only,_ZN4core5slice14from_raw_parts17hc4ab6c95929b0cf9E
	.globl	_ZN4core5slice14from_raw_parts17hc4ab6c95929b0cf9E
	.p2align	4, 0x90
_ZN4core5slice14from_raw_parts17hc4ab6c95929b0cf9E:
.Lfunc_begin3:
	.cv_func_id 3
	.cv_loc	3 1 2684 0
.Lcfi18:
.seh_proc _ZN4core5slice14from_raw_parts17hc4ab6c95929b0cf9E
	pushq	%rbp
.Lcfi19:
	.seh_pushreg 5
	subq	$64, %rsp
.Lcfi20:
	.seh_stackalloc 64
	leaq	64(%rsp), %rbp
.Lcfi21:
	.seh_setframe 5, 64
.Lcfi22:
	.seh_endprologue
	movq	%rcx, -48(%rbp)
	movq	%rdx, -40(%rbp)
.Ltmp6:
	.cv_loc	3 1 2685 0
	movq	-48(%rbp), %rcx
	movq	-40(%rbp), %rdx
	movq	%rcx, -32(%rbp)
	movq	%rdx, -24(%rbp)
	movq	-32(%rbp), %rcx
	movq	-24(%rbp), %rdx
	movq	%rcx, -16(%rbp)
	movq	%rdx, -8(%rbp)
	movq	-16(%rbp), %rax
	movq	-8(%rbp), %rdx
	movq	%rax, -56(%rbp)
	movq	%rdx, -64(%rbp)
	.cv_loc	3 1 2686 0
	movq	-56(%rbp), %rax
	movq	-64(%rbp), %rdx
	addq	$64, %rsp
	popq	%rbp
	retq
.Ltmp7:
.Lfunc_end3:
	.seh_handlerdata
	.section	.text,"xr",one_only,_ZN4core5slice14from_raw_parts17hc4ab6c95929b0cf9E
.Lcfi23:
	.seh_endproc

	.def	 _ZN4core5slice18from_raw_parts_mut17h1e0150f9de20d0eeE;
	.scl	2;
	.type	32;
	.endef
	.section	.text,"xr",one_only,_ZN4core5slice18from_raw_parts_mut17h1e0150f9de20d0eeE
	.globl	_ZN4core5slice18from_raw_parts_mut17h1e0150f9de20d0eeE
	.p2align	4, 0x90
_ZN4core5slice18from_raw_parts_mut17h1e0150f9de20d0eeE:
.Lfunc_begin4:
	.cv_func_id 4
	.cv_loc	4 1 2697 0
.Lcfi24:
.seh_proc _ZN4core5slice18from_raw_parts_mut17h1e0150f9de20d0eeE
	pushq	%rbp
.Lcfi25:
	.seh_pushreg 5
	subq	$64, %rsp
.Lcfi26:
	.seh_stackalloc 64
	leaq	64(%rsp), %rbp
.Lcfi27:
	.seh_setframe 5, 64
.Lcfi28:
	.seh_endprologue
	movq	%rcx, -48(%rbp)
	movq	%rdx, -40(%rbp)
.Ltmp8:
	.cv_loc	4 1 2698 0
	movq	-48(%rbp), %rcx
	movq	-40(%rbp), %rdx
	movq	%rcx, -32(%rbp)
	movq	%rdx, -24(%rbp)
	movq	-32(%rbp), %rcx
	movq	-24(%rbp), %rdx
	movq	%rcx, -16(%rbp)
	movq	%rdx, -8(%rbp)
	movq	-16(%rbp), %rax
	movq	-8(%rbp), %rdx
	movq	%rax, -56(%rbp)
	movq	%rdx, -64(%rbp)
	.cv_loc	4 1 2699 0
	movq	-56(%rbp), %rax
	movq	-64(%rbp), %rdx
	addq	$64, %rsp
	popq	%rbp
	retq
.Ltmp9:
.Lfunc_end4:
	.seh_handlerdata
	.section	.text,"xr",one_only,_ZN4core5slice18from_raw_parts_mut17h1e0150f9de20d0eeE
.Lcfi29:
	.seh_endproc

	.def	 _ZN4core5slice18from_raw_parts_mut17h69da080f591d11a6E;
	.scl	2;
	.type	32;
	.endef
	.section	.text,"xr",one_only,_ZN4core5slice18from_raw_parts_mut17h69da080f591d11a6E
	.globl	_ZN4core5slice18from_raw_parts_mut17h69da080f591d11a6E
	.p2align	4, 0x90
_ZN4core5slice18from_raw_parts_mut17h69da080f591d11a6E:
.Lfunc_begin5:
	.cv_func_id 5
	.cv_loc	5 1 2697 0
.Lcfi30:
.seh_proc _ZN4core5slice18from_raw_parts_mut17h69da080f591d11a6E
	pushq	%rbp
.Lcfi31:
	.seh_pushreg 5
	subq	$64, %rsp
.Lcfi32:
	.seh_stackalloc 64
	leaq	64(%rsp), %rbp
.Lcfi33:
	.seh_setframe 5, 64
.Lcfi34:
	.seh_endprologue
	movq	%rcx, -48(%rbp)
	movq	%rdx, -40(%rbp)
.Ltmp10:
	.cv_loc	5 1 2698 0
	movq	-48(%rbp), %rcx
	movq	-40(%rbp), %rdx
	movq	%rcx, -32(%rbp)
	movq	%rdx, -24(%rbp)
	movq	-32(%rbp), %rcx
	movq	-24(%rbp), %rdx
	movq	%rcx, -16(%rbp)
	movq	%rdx, -8(%rbp)
	movq	-16(%rbp), %rax
	movq	-8(%rbp), %rdx
	movq	%rax, -56(%rbp)
	movq	%rdx, -64(%rbp)
	.cv_loc	5 1 2699 0
	movq	-56(%rbp), %rax
	movq	-64(%rbp), %rdx
	addq	$64, %rsp
	popq	%rbp
	retq
.Ltmp11:
.Lfunc_end5:
	.seh_handlerdata
	.section	.text,"xr",one_only,_ZN4core5slice18from_raw_parts_mut17h69da080f591d11a6E
.Lcfi35:
	.seh_endproc

	.def	 _ZN4core5slice18from_raw_parts_mut17ha7e9cf8cb3611186E;
	.scl	2;
	.type	32;
	.endef
	.section	.text,"xr",one_only,_ZN4core5slice18from_raw_parts_mut17ha7e9cf8cb3611186E
	.globl	_ZN4core5slice18from_raw_parts_mut17ha7e9cf8cb3611186E
	.p2align	4, 0x90
_ZN4core5slice18from_raw_parts_mut17ha7e9cf8cb3611186E:
.Lfunc_begin6:
	.cv_func_id 6
	.cv_loc	6 1 2697 0
.Lcfi36:
.seh_proc _ZN4core5slice18from_raw_parts_mut17ha7e9cf8cb3611186E
	pushq	%rbp
.Lcfi37:
	.seh_pushreg 5
	subq	$64, %rsp
.Lcfi38:
	.seh_stackalloc 64
	leaq	64(%rsp), %rbp
.Lcfi39:
	.seh_setframe 5, 64
.Lcfi40:
	.seh_endprologue
	movq	%rcx, -48(%rbp)
	movq	%rdx, -40(%rbp)
.Ltmp12:
	.cv_loc	6 1 2698 0
	movq	-48(%rbp), %rcx
	movq	-40(%rbp), %rdx
	movq	%rcx, -32(%rbp)
	movq	%rdx, -24(%rbp)
	movq	-32(%rbp), %rcx
	movq	-24(%rbp), %rdx
	movq	%rcx, -16(%rbp)
	movq	%rdx, -8(%rbp)
	movq	-16(%rbp), %rax
	movq	-8(%rbp), %rdx
	movq	%rax, -56(%rbp)
	movq	%rdx, -64(%rbp)
	.cv_loc	6 1 2699 0
	movq	-56(%rbp), %rax
	movq	-64(%rbp), %rdx
	addq	$64, %rsp
	popq	%rbp
	retq
.Ltmp13:
.Lfunc_end6:
	.seh_handlerdata
	.section	.text,"xr",one_only,_ZN4core5slice18from_raw_parts_mut17ha7e9cf8cb3611186E
.Lcfi41:
	.seh_endproc

	.def	 _ZN4core5slice18from_raw_parts_mut17hd4a527dc720ca4beE;
	.scl	2;
	.type	32;
	.endef
	.section	.text,"xr",one_only,_ZN4core5slice18from_raw_parts_mut17hd4a527dc720ca4beE
	.globl	_ZN4core5slice18from_raw_parts_mut17hd4a527dc720ca4beE
	.p2align	4, 0x90
_ZN4core5slice18from_raw_parts_mut17hd4a527dc720ca4beE:
.Lfunc_begin7:
	.cv_func_id 7
	.cv_loc	7 1 2697 0
.Lcfi42:
.seh_proc _ZN4core5slice18from_raw_parts_mut17hd4a527dc720ca4beE
	pushq	%rbp
.Lcfi43:
	.seh_pushreg 5
	subq	$64, %rsp
.Lcfi44:
	.seh_stackalloc 64
	leaq	64(%rsp), %rbp
.Lcfi45:
	.seh_setframe 5, 64
.Lcfi46:
	.seh_endprologue
	movq	%rcx, -48(%rbp)
	movq	%rdx, -40(%rbp)
.Ltmp14:
	.cv_loc	7 1 2698 0
	movq	-48(%rbp), %rcx
	movq	-40(%rbp), %rdx
	movq	%rcx, -32(%rbp)
	movq	%rdx, -24(%rbp)
	movq	-32(%rbp), %rcx
	movq	-24(%rbp), %rdx
	movq	%rcx, -16(%rbp)
	movq	%rdx, -8(%rbp)
	movq	-16(%rbp), %rax
	movq	-8(%rbp), %rdx
	movq	%rax, -56(%rbp)
	movq	%rdx, -64(%rbp)
	.cv_loc	7 1 2699 0
	movq	-56(%rbp), %rax
	movq	-64(%rbp), %rdx
	addq	$64, %rsp
	popq	%rbp
	retq
.Ltmp15:
.Lfunc_end7:
	.seh_handlerdata
	.section	.text,"xr",one_only,_ZN4core5slice18from_raw_parts_mut17hd4a527dc720ca4beE
.Lcfi47:
	.seh_endproc

	.def	 _ZN4core5slice18from_raw_parts_mut17hfac694fa3ff6e2cbE;
	.scl	2;
	.type	32;
	.endef
	.section	.text,"xr",one_only,_ZN4core5slice18from_raw_parts_mut17hfac694fa3ff6e2cbE
	.globl	_ZN4core5slice18from_raw_parts_mut17hfac694fa3ff6e2cbE
	.p2align	4, 0x90
_ZN4core5slice18from_raw_parts_mut17hfac694fa3ff6e2cbE:
.Lfunc_begin8:
	.cv_func_id 8
	.cv_loc	8 1 2697 0
.Lcfi48:
.seh_proc _ZN4core5slice18from_raw_parts_mut17hfac694fa3ff6e2cbE
	pushq	%rbp
.Lcfi49:
	.seh_pushreg 5
	subq	$64, %rsp
.Lcfi50:
	.seh_stackalloc 64
	leaq	64(%rsp), %rbp
.Lcfi51:
	.seh_setframe 5, 64
.Lcfi52:
	.seh_endprologue
	movq	%rcx, -48(%rbp)
	movq	%rdx, -40(%rbp)
.Ltmp16:
	.cv_loc	8 1 2698 0
	movq	-48(%rbp), %rcx
	movq	-40(%rbp), %rdx
	movq	%rcx, -32(%rbp)
	movq	%rdx, -24(%rbp)
	movq	-32(%rbp), %rcx
	movq	-24(%rbp), %rdx
	movq	%rcx, -16(%rbp)
	movq	%rdx, -8(%rbp)
	movq	-16(%rbp), %rax
	movq	-8(%rbp), %rdx
	movq	%rax, -56(%rbp)
	movq	%rdx, -64(%rbp)
	.cv_loc	8 1 2699 0
	movq	-56(%rbp), %rax
	movq	-64(%rbp), %rdx
	addq	$64, %rsp
	popq	%rbp
	retq
.Ltmp17:
.Lfunc_end8:
	.seh_handlerdata
	.section	.text,"xr",one_only,_ZN4core5slice18from_raw_parts_mut17hfac694fa3ff6e2cbE
.Lcfi53:
	.seh_endproc

	.def	 _ZN4core5slice81_$LT$impl$u20$core..cmp..PartialEq$LT$$u5b$B$u5d$$GT$$u20$for$u20$$u5b$A$u5d$$GT$2eq17h799396e377c1fb6eE;
	.scl	2;
	.type	32;
	.endef
	.section	.text,"xr",one_only,_ZN4core5slice81_$LT$impl$u20$core..cmp..PartialEq$LT$$u5b$B$u5d$$GT$$u20$for$u20$$u5b$A$u5d$$GT$2eq17h799396e377c1fb6eE
	.globl	_ZN4core5slice81_$LT$impl$u20$core..cmp..PartialEq$LT$$u5b$B$u5d$$GT$$u20$for$u20$$u5b$A$u5d$$GT$2eq17h799396e377c1fb6eE
	.p2align	4, 0x90
_ZN4core5slice81_$LT$impl$u20$core..cmp..PartialEq$LT$$u5b$B$u5d$$GT$$u20$for$u20$$u5b$A$u5d$$GT$2eq17h799396e377c1fb6eE:
.Lfunc_begin9:
	.cv_func_id 9
	.cv_loc	9 1 2743 0
.Lcfi54:
.seh_proc _ZN4core5slice81_$LT$impl$u20$core..cmp..PartialEq$LT$$u5b$B$u5d$$GT$$u20$for$u20$$u5b$A$u5d$$GT$2eq17h799396e377c1fb6eE
	pushq	%rbp
.Lcfi55:
	.seh_pushreg 5
	subq	$80, %rsp
.Lcfi56:
	.seh_stackalloc 80
	leaq	80(%rsp), %rbp
.Lcfi57:
	.seh_setframe 5, 80
.Lcfi58:
	.seh_endprologue
	movq	%rcx, -32(%rbp)
	movq	%rdx, -24(%rbp)
	movq	%r8, -16(%rbp)
	movq	%r9, -8(%rbp)
.Ltmp18:
	.cv_loc	9 1 2744 0
	movq	-32(%rbp), %rcx
	movq	-24(%rbp), %rdx
	movq	-16(%rbp), %r8
	movq	-8(%rbp), %r9
	callq	_ZN68_$LT$$u5b$A$u5d$$u20$as$u20$core..slice..SlicePartialEq$LT$A$GT$$GT$5equal17h3b38b9d481e7d8a3E
	movb	%al, -33(%rbp)
	.cv_loc	9 1 2745 0
	movb	-33(%rbp), %al
	andb	$1, %al
	movzbl	%al, %eax
	addq	$80, %rsp
	popq	%rbp
	retq
.Ltmp19:
.Lfunc_end9:
	.seh_handlerdata
	.section	.text,"xr",one_only,_ZN4core5slice81_$LT$impl$u20$core..cmp..PartialEq$LT$$u5b$B$u5d$$GT$$u20$for$u20$$u5b$A$u5d$$GT$2eq17h799396e377c1fb6eE
.Lcfi59:
	.seh_endproc

	.def	 _ZN53_$LT$$u5b$T$u5d$$u20$as$u20$core..slice..SliceExt$GT$10as_mut_ptr17h76e21ad0a07bc7d6E;
	.scl	2;
	.type	32;
	.endef
	.section	.text,"xr",one_only,_ZN53_$LT$$u5b$T$u5d$$u20$as$u20$core..slice..SliceExt$GT$10as_mut_ptr17h76e21ad0a07bc7d6E
	.globl	_ZN53_$LT$$u5b$T$u5d$$u20$as$u20$core..slice..SliceExt$GT$10as_mut_ptr17h76e21ad0a07bc7d6E
	.p2align	4, 0x90
_ZN53_$LT$$u5b$T$u5d$$u20$as$u20$core..slice..SliceExt$GT$10as_mut_ptr17h76e21ad0a07bc7d6E:
.Lfunc_begin10:
	.cv_func_id 10
	.cv_loc	10 1 646 0
.Lcfi60:
.seh_proc _ZN53_$LT$$u5b$T$u5d$$u20$as$u20$core..slice..SliceExt$GT$10as_mut_ptr17h76e21ad0a07bc7d6E
	pushq	%rbp
.Lcfi61:
	.seh_pushreg 5
	subq	$16, %rsp
.Lcfi62:
	.seh_stackalloc 16
	leaq	16(%rsp), %rbp
.Lcfi63:
	.seh_setframe 5, 16
.Lcfi64:
	.seh_endprologue
	movq	%rcx, -16(%rbp)
	movq	%rdx, -8(%rbp)
.Ltmp20:
	.cv_loc	10 1 647 0
	movq	-16(%rbp), %rcx
	.cv_loc	10 1 648 0
	movq	%rcx, %rax
	addq	$16, %rsp
	popq	%rbp
	retq
.Ltmp21:
.Lfunc_end10:
	.seh_handlerdata
	.section	.text,"xr",one_only,_ZN53_$LT$$u5b$T$u5d$$u20$as$u20$core..slice..SliceExt$GT$10as_mut_ptr17h76e21ad0a07bc7d6E
.Lcfi65:
	.seh_endproc

	.def	 _ZN53_$LT$$u5b$T$u5d$$u20$as$u20$core..slice..SliceExt$GT$13get_unchecked17ha7cd3df3d50bb015E;
	.scl	2;
	.type	32;
	.endef
	.section	.text,"xr",one_only,_ZN53_$LT$$u5b$T$u5d$$u20$as$u20$core..slice..SliceExt$GT$13get_unchecked17ha7cd3df3d50bb015E
	.globl	_ZN53_$LT$$u5b$T$u5d$$u20$as$u20$core..slice..SliceExt$GT$13get_unchecked17ha7cd3df3d50bb015E
	.p2align	4, 0x90
_ZN53_$LT$$u5b$T$u5d$$u20$as$u20$core..slice..SliceExt$GT$13get_unchecked17ha7cd3df3d50bb015E:
.Lfunc_begin11:
	.cv_func_id 11
	.cv_loc	11 1 402 0
.Lcfi66:
.seh_proc _ZN53_$LT$$u5b$T$u5d$$u20$as$u20$core..slice..SliceExt$GT$13get_unchecked17ha7cd3df3d50bb015E
	pushq	%rbp
.Lcfi67:
	.seh_pushreg 5
	subq	$64, %rsp
.Lcfi68:
	.seh_stackalloc 64
	leaq	64(%rsp), %rbp
.Lcfi69:
	.seh_setframe 5, 64
.Lcfi70:
	.seh_endprologue
	movq	%rcx, -24(%rbp)
	movq	%rdx, -16(%rbp)
	movq	%r8, -8(%rbp)
.Ltmp22:
	.cv_loc	11 1 405 0
	movq	-8(%rbp), %rcx
	movq	-24(%rbp), %rdx
	movq	-16(%rbp), %r8
	callq	_ZN68_$LT$usize$u20$as$u20$core..slice..SliceIndex$LT$$u5b$T$u5d$$GT$$GT$13get_unchecked17hdd6d5f4a61e8ade0E
	movq	%rax, -32(%rbp)
	.cv_loc	11 1 406 0
	movq	-32(%rbp), %rax
	addq	$64, %rsp
	popq	%rbp
	retq
.Ltmp23:
.Lfunc_end11:
	.seh_handlerdata
	.section	.text,"xr",one_only,_ZN53_$LT$$u5b$T$u5d$$u20$as$u20$core..slice..SliceExt$GT$13get_unchecked17ha7cd3df3d50bb015E
.Lcfi71:
	.seh_endproc

	.def	 _ZN53_$LT$$u5b$T$u5d$$u20$as$u20$core..slice..SliceExt$GT$3len17h0c463cc30b152cafE;
	.scl	2;
	.type	32;
	.endef
	.section	.text,"xr",one_only,_ZN53_$LT$$u5b$T$u5d$$u20$as$u20$core..slice..SliceExt$GT$3len17h0c463cc30b152cafE
	.globl	_ZN53_$LT$$u5b$T$u5d$$u20$as$u20$core..slice..SliceExt$GT$3len17h0c463cc30b152cafE
	.p2align	4, 0x90
_ZN53_$LT$$u5b$T$u5d$$u20$as$u20$core..slice..SliceExt$GT$3len17h0c463cc30b152cafE:
.Lfunc_begin12:
	.cv_func_id 12
	.cv_loc	12 1 438 0
.Lcfi72:
.seh_proc _ZN53_$LT$$u5b$T$u5d$$u20$as$u20$core..slice..SliceExt$GT$3len17h0c463cc30b152cafE
	pushq	%rbp
.Lcfi73:
	.seh_pushreg 5
	subq	$40, %rsp
.Lcfi74:
	.seh_stackalloc 40
	leaq	32(%rsp), %rbp
.Lcfi75:
	.seh_setframe 5, 32
.Lcfi76:
	.seh_endprologue
	movq	%rcx, -24(%rbp)
	movq	%rdx, -16(%rbp)
.Ltmp24:
	.cv_loc	12 1 440 0
	movq	-24(%rbp), %rcx
	movq	-16(%rbp), %rdx
	movq	%rcx, -8(%rbp)
	movq	%rdx, (%rbp)
	movq	(%rbp), %rax
	movq	%rax, -32(%rbp)
.Ltmp25:
	.cv_loc	12 1 442 0
	movq	-32(%rbp), %rax
	addq	$40, %rsp
	popq	%rbp
	retq
.Ltmp26:
.Lfunc_end12:
	.seh_handlerdata
	.section	.text,"xr",one_only,_ZN53_$LT$$u5b$T$u5d$$u20$as$u20$core..slice..SliceExt$GT$3len17h0c463cc30b152cafE
.Lcfi77:
	.seh_endproc

	.def	 _ZN53_$LT$$u5b$T$u5d$$u20$as$u20$core..slice..SliceExt$GT$3len17hc58d8d85d54a83afE;
	.scl	2;
	.type	32;
	.endef
	.section	.text,"xr",one_only,_ZN53_$LT$$u5b$T$u5d$$u20$as$u20$core..slice..SliceExt$GT$3len17hc58d8d85d54a83afE
	.globl	_ZN53_$LT$$u5b$T$u5d$$u20$as$u20$core..slice..SliceExt$GT$3len17hc58d8d85d54a83afE
	.p2align	4, 0x90
_ZN53_$LT$$u5b$T$u5d$$u20$as$u20$core..slice..SliceExt$GT$3len17hc58d8d85d54a83afE:
.Lfunc_begin13:
	.cv_func_id 13
	.cv_loc	13 1 438 0
.Lcfi78:
.seh_proc _ZN53_$LT$$u5b$T$u5d$$u20$as$u20$core..slice..SliceExt$GT$3len17hc58d8d85d54a83afE
	pushq	%rbp
.Lcfi79:
	.seh_pushreg 5
	subq	$40, %rsp
.Lcfi80:
	.seh_stackalloc 40
	leaq	32(%rsp), %rbp
.Lcfi81:
	.seh_setframe 5, 32
.Lcfi82:
	.seh_endprologue
	movq	%rcx, -24(%rbp)
	movq	%rdx, -16(%rbp)
.Ltmp27:
	.cv_loc	13 1 440 0
	movq	-24(%rbp), %rcx
	movq	-16(%rbp), %rdx
	movq	%rcx, -8(%rbp)
	movq	%rdx, (%rbp)
	movq	(%rbp), %rax
	movq	%rax, -32(%rbp)
.Ltmp28:
	.cv_loc	13 1 442 0
	movq	-32(%rbp), %rax
	addq	$40, %rsp
	popq	%rbp
	retq
.Ltmp29:
.Lfunc_end13:
	.seh_handlerdata
	.section	.text,"xr",one_only,_ZN53_$LT$$u5b$T$u5d$$u20$as$u20$core..slice..SliceExt$GT$3len17hc58d8d85d54a83afE
.Lcfi83:
	.seh_endproc

	.def	 _ZN53_$LT$$u5b$T$u5d$$u20$as$u20$core..slice..SliceExt$GT$6as_ptr17h7124a364d9b4881fE;
	.scl	3;
	.type	32;
	.endef
	.section	.text,"xr",one_only,_ZN53_$LT$$u5b$T$u5d$$u20$as$u20$core..slice..SliceExt$GT$6as_ptr17h7124a364d9b4881fE
	.p2align	4, 0x90
_ZN53_$LT$$u5b$T$u5d$$u20$as$u20$core..slice..SliceExt$GT$6as_ptr17h7124a364d9b4881fE:
.Lfunc_begin14:
	.cv_func_id 14
	.cv_loc	14 1 409 0
.Lcfi84:
.seh_proc _ZN53_$LT$$u5b$T$u5d$$u20$as$u20$core..slice..SliceExt$GT$6as_ptr17h7124a364d9b4881fE
	pushq	%rbp
.Lcfi85:
	.seh_pushreg 5
	subq	$16, %rsp
.Lcfi86:
	.seh_stackalloc 16
	leaq	16(%rsp), %rbp
.Lcfi87:
	.seh_setframe 5, 16
.Lcfi88:
	.seh_endprologue
	movq	%rcx, -16(%rbp)
	movq	%rdx, -8(%rbp)
.Ltmp30:
	.cv_loc	14 1 410 0
	movq	-16(%rbp), %rcx
	.cv_loc	14 1 411 0
	movq	%rcx, %rax
	addq	$16, %rsp
	popq	%rbp
	retq
.Ltmp31:
.Lfunc_end14:
	.seh_handlerdata
	.section	.text,"xr",one_only,_ZN53_$LT$$u5b$T$u5d$$u20$as$u20$core..slice..SliceExt$GT$6as_ptr17h7124a364d9b4881fE
.Lcfi89:
	.seh_endproc

	.def	 _ZN68_$LT$$u5b$A$u5d$$u20$as$u20$core..slice..SlicePartialEq$LT$A$GT$$GT$5equal17h3b38b9d481e7d8a3E;
	.scl	3;
	.type	32;
	.endef
	.section	.text,"xr",one_only,_ZN68_$LT$$u5b$A$u5d$$u20$as$u20$core..slice..SlicePartialEq$LT$A$GT$$GT$5equal17h3b38b9d481e7d8a3E
	.p2align	4, 0x90
_ZN68_$LT$$u5b$A$u5d$$u20$as$u20$core..slice..SlicePartialEq$LT$A$GT$$GT$5equal17h3b38b9d481e7d8a3E:
.Lfunc_begin15:
	.cv_func_id 15
	.cv_loc	15 1 2802 0
.Lcfi90:
.seh_proc _ZN68_$LT$$u5b$A$u5d$$u20$as$u20$core..slice..SlicePartialEq$LT$A$GT$$GT$5equal17h3b38b9d481e7d8a3E
	pushq	%rbp
.Lcfi91:
	.seh_pushreg 5
	subq	$144, %rsp
.Lcfi92:
	.seh_stackalloc 144
	leaq	128(%rsp), %rbp
.Lcfi93:
	.seh_setframe 5, 128
.Lcfi94:
	.seh_endprologue
	movq	%rcx, -32(%rbp)
	movq	%rdx, -24(%rbp)
	movq	%r8, -16(%rbp)
	movq	%r9, -8(%rbp)
.Ltmp32:
	.cv_loc	15 1 2803 0
	movq	-32(%rbp), %rcx
	movq	-24(%rbp), %rdx
	callq	_ZN53_$LT$$u5b$T$u5d$$u20$as$u20$core..slice..SliceExt$GT$3len17h0c463cc30b152cafE
	movq	%rax, -40(%rbp)
	movq	-16(%rbp), %rcx
	movq	-8(%rbp), %rdx
	callq	_ZN53_$LT$$u5b$T$u5d$$u20$as$u20$core..slice..SliceExt$GT$3len17h0c463cc30b152cafE
	movq	%rax, -48(%rbp)
	movq	-40(%rbp), %rax
	movq	-48(%rbp), %rcx
	cmpq	%rcx, %rax
	je	.LBB15_4
	.cv_loc	15 1 2804 0
	movb	$0, 7(%rbp)
	jmp	.LBB15_5
.LBB15_4:
	.cv_loc	15 1 2806 0
	movq	-32(%rbp), %rcx
	movq	-24(%rbp), %rdx
	callq	_ZN53_$LT$$u5b$T$u5d$$u20$as$u20$core..slice..SliceExt$GT$6as_ptr17h7124a364d9b4881fE
	movq	%rax, -56(%rbp)
	jmp	.LBB15_6
.LBB15_5:
	.cv_loc	15 1 2814 0
	movb	7(%rbp), %al
	andb	$1, %al
	movzbl	%al, %eax
	addq	$144, %rsp
	popq	%rbp
	retq
.LBB15_6:
	.cv_loc	15 1 2806 0
	movq	-16(%rbp), %rcx
	movq	-8(%rbp), %rdx
	callq	_ZN53_$LT$$u5b$T$u5d$$u20$as$u20$core..slice..SliceExt$GT$6as_ptr17h7124a364d9b4881fE
	movq	%rax, -64(%rbp)
	movq	-56(%rbp), %rax
	movq	-64(%rbp), %rcx
	cmpq	%rcx, %rax
	jne	.LBB15_9
	.cv_loc	15 1 2807 0
	movb	$1, 7(%rbp)
	jmp	.LBB15_5
.LBB15_9:
.Ltmp33:
	.cv_loc	15 1 2810 0
	movq	-32(%rbp), %rcx
	movq	-24(%rbp), %rdx
	callq	_ZN4core3mem11size_of_val17hdd60e5c6d8a12245E
	movq	%rax, 8(%rbp)
.Ltmp34:
	.cv_loc	15 1 2811 0
	movq	-32(%rbp), %rcx
	movq	-24(%rbp), %rdx
	callq	_ZN53_$LT$$u5b$T$u5d$$u20$as$u20$core..slice..SliceExt$GT$6as_ptr17h7124a364d9b4881fE
	movq	%rax, -72(%rbp)
	.cv_loc	15 1 2812 0
	movq	-16(%rbp), %rcx
	movq	-8(%rbp), %rdx
	callq	_ZN53_$LT$$u5b$T$u5d$$u20$as$u20$core..slice..SliceExt$GT$6as_ptr17h7124a364d9b4881fE
	movq	%rax, -80(%rbp)
	movq	8(%rbp), %r8
	.cv_loc	15 1 2811 0
	movq	-72(%rbp), %rcx
	movq	-80(%rbp), %rdx
	callq	memcmp
	movl	%eax, -84(%rbp)
	movl	-84(%rbp), %eax
	cmpl	$0, %eax
	sete	%cl
	andb	$1, %cl
	movb	%cl, 7(%rbp)
.Ltmp35:
	.cv_loc	15 1 2814 0
	jmp	.LBB15_5
.Ltmp36:
.Lfunc_end15:
	.seh_handlerdata
	.section	.text,"xr",one_only,_ZN68_$LT$$u5b$A$u5d$$u20$as$u20$core..slice..SlicePartialEq$LT$A$GT$$GT$5equal17h3b38b9d481e7d8a3E
.Lcfi95:
	.seh_endproc

	.def	 _ZN68_$LT$usize$u20$as$u20$core..slice..SliceIndex$LT$$u5b$T$u5d$$GT$$GT$13get_unchecked17hdd6d5f4a61e8ade0E;
	.scl	3;
	.type	32;
	.endef
	.section	.text,"xr",one_only,_ZN68_$LT$usize$u20$as$u20$core..slice..SliceIndex$LT$$u5b$T$u5d$$GT$$GT$13get_unchecked17hdd6d5f4a61e8ade0E
	.p2align	4, 0x90
_ZN68_$LT$usize$u20$as$u20$core..slice..SliceIndex$LT$$u5b$T$u5d$$GT$$GT$13get_unchecked17hdd6d5f4a61e8ade0E:
.Lfunc_begin16:
	.cv_func_id 16
	.cv_loc	16 1 853 0
.Lcfi96:
.seh_proc _ZN68_$LT$usize$u20$as$u20$core..slice..SliceIndex$LT$$u5b$T$u5d$$GT$$GT$13get_unchecked17hdd6d5f4a61e8ade0E
	pushq	%rbp
.Lcfi97:
	.seh_pushreg 5
	subq	$80, %rsp
.Lcfi98:
	.seh_stackalloc 80
	leaq	80(%rsp), %rbp
.Lcfi99:
	.seh_setframe 5, 80
.Lcfi100:
	.seh_endprologue
	movq	%rcx, -24(%rbp)
	movq	%rdx, -16(%rbp)
	movq	%r8, -8(%rbp)
.Ltmp37:
	.cv_loc	16 1 854 0
	movq	-16(%rbp), %rcx
	movq	-8(%rbp), %rdx
	callq	_ZN53_$LT$$u5b$T$u5d$$u20$as$u20$core..slice..SliceExt$GT$6as_ptr17h7124a364d9b4881fE
	movq	%rax, -32(%rbp)
	movq	-24(%rbp), %rdx
	movq	-32(%rbp), %rcx
	callq	_ZN4core3ptr33_$LT$impl$u20$$BP$const$u20$T$GT$6offset17h57f354c5c0bbd845E
	movq	%rax, -40(%rbp)
	.cv_loc	16 1 855 0
	movq	-40(%rbp), %rax
	addq	$80, %rsp
	popq	%rbp
	retq
.Ltmp38:
.Lfunc_end16:
	.seh_handlerdata
	.section	.text,"xr",one_only,_ZN68_$LT$usize$u20$as$u20$core..slice..SliceIndex$LT$$u5b$T$u5d$$GT$$GT$13get_unchecked17hdd6d5f4a61e8ade0E
.Lcfi101:
	.seh_endproc

	.def	 _ZN91_$LT$core..slice..Iter$LT$$u27$a$C$$u20$T$GT$$u20$as$u20$core..iter..iterator..Iterator$GT$4next17h857574a67b077f09E;
	.scl	2;
	.type	32;
	.endef
	.section	.text,"xr",one_only,_ZN91_$LT$core..slice..Iter$LT$$u27$a$C$$u20$T$GT$$u20$as$u20$core..iter..iterator..Iterator$GT$4next17h857574a67b077f09E
	.globl	_ZN91_$LT$core..slice..Iter$LT$$u27$a$C$$u20$T$GT$$u20$as$u20$core..iter..iterator..Iterator$GT$4next17h857574a67b077f09E
	.p2align	4, 0x90
_ZN91_$LT$core..slice..Iter$LT$$u27$a$C$$u20$T$GT$$u20$as$u20$core..iter..iterator..Iterator$GT$4next17h857574a67b077f09E:
.Lfunc_begin17:
	.cv_func_id 17
	.cv_loc	17 1 1171 0
.Lcfi102:
.seh_proc _ZN91_$LT$core..slice..Iter$LT$$u27$a$C$$u20$T$GT$$u20$as$u20$core..iter..iterator..Iterator$GT$4next17h857574a67b077f09E
	pushq	%rbp
.Lcfi103:
	.seh_pushreg 5
	subq	$144, %rsp
.Lcfi104:
	.seh_stackalloc 144
	leaq	128(%rsp), %rbp
.Lcfi105:
	.seh_setframe 5, 128
.Lcfi106:
	.seh_endprologue
	movq	%rcx, -72(%rbp)
.Ltmp39:
	.cv_loc	17 1 1174 0
	callq	_ZN4core3mem7size_of17h164ff08c8f7ba06dE
	movq	%rax, -80(%rbp)
	movq	-80(%rbp), %rax
	cmpq	$0, %rax
	je	.LBB17_3
	.cv_loc	17 1 1175 0
	movq	-72(%rbp), %rax
	movq	(%rax), %rcx
	callq	_ZN4core3ptr33_$LT$impl$u20$$BP$const$u20$T$GT$7is_null17hca3330dd9db05e3eE
	movb	%al, -81(%rbp)
	jmp	.LBB17_4
.LBB17_3:
	.cv_loc	17 1 1174 0
	jmp	.LBB17_8
.LBB17_4:
	.cv_loc	17 1 1176 0
	movq	-72(%rbp), %rax
	movq	8(%rax), %rcx
	callq	_ZN4core3ptr33_$LT$impl$u20$$BP$const$u20$T$GT$7is_null17hca3330dd9db05e3eE
	movb	%al, -82(%rbp)
	.cv_loc	17 1 1174 0
	jmp	.LBB17_8
.LBB17_8:
	.cv_loc	17 1 1178 0
	movq	-72(%rbp), %rax
	movq	(%rax), %rax
	movq	-72(%rbp), %rcx
	cmpq	8(%rcx), %rax
	jne	.LBB17_10
	.cv_loc	17 1 1179 0
	movq	$0, -64(%rbp)
	.cv_loc	17 1 1178 0
	jmp	.LBB17_19
.LBB17_10:
	.cv_loc	17 1 1181 0
	movq	-72(%rbp), %rax
	movq	%rax, -32(%rbp)
.Ltmp40:
	.cv_inline_site_id 18 within 17 inlined_at 1 1181 0
	.cv_loc	18 1 1608 0
	movq	-32(%rbp), %rax
	movq	(%rax), %rax
	movq	%rax, -24(%rbp)
.Ltmp41:
	.cv_loc	18 1 1609 0
	movq	-32(%rbp), %rax
	movq	(%rax), %rax
	movq	%rax, -16(%rbp)
	movq	$1, -8(%rbp)
.Ltmp42:
	.cv_inline_site_id 19 within 18 inlined_at 1 1609 0
	.cv_loc	19 1 1624 0
	movq	-16(%rbp), %rax
	movq	%rax, 8(%rbp)
.Ltmp43:
	.cv_loc	19 1 247 0
	movq	8(%rbp), %rcx
	callq	_ZN4core5slice13size_from_ptr17h42569c3209718e30E
	cmpq	$0, %rax
	jne	.LBB17_12
	.cv_loc	19 1 248 0
	movq	8(%rbp), %rax
	.cv_loc	19 1 1624 0
	movq	-8(%rbp), %rdx
	.cv_loc	19 1 248 0
	movq	%rax, %rcx
	callq	_ZN4core3ptr31_$LT$impl$u20$$BP$mut$u20$T$GT$15wrapping_offset17h6bb45fda0aa3abcaE
	movq	%rax, (%rbp)
	.cv_loc	19 1 247 0
	jmp	.LBB17_13
.LBB17_12:
	.cv_loc	19 1 250 0
	movq	8(%rbp), %rcx
	.cv_loc	19 1 1624 0
	movq	-8(%rbp), %rdx
	.cv_loc	19 1 250 0
	callq	_ZN4core3ptr33_$LT$impl$u20$$BP$const$u20$T$GT$6offset17hf2a2afa92084a586E
	movq	%rax, (%rbp)
.Ltmp44:
.LBB17_13:
	.cv_loc	19 1 1625 0
	movq	(%rbp), %rax
.Ltmp45:
	.cv_loc	18 1 1609 0
	movq	-32(%rbp), %rcx
	movq	%rax, (%rcx)
	.cv_loc	18 1 1610 0
	movq	-24(%rbp), %rax
.Ltmp46:
	.cv_loc	17 1 1181 0
	movq	%rax, -40(%rbp)
.Ltmp47:
	.cv_loc	17 1 259 0
	movq	-40(%rbp), %rcx
	callq	_ZN4core5slice13size_from_ptr17h42569c3209718e30E
	movq	%rax, -96(%rbp)
	movq	-96(%rbp), %rax
	cmpq	$0, %rax
	jne	.LBB17_17
	movl	$1, %eax
	movl	%eax, %ecx
	.cv_loc	17 1 261 0
	movq	%rcx, -48(%rbp)
	.cv_loc	17 1 259 0
	jmp	.LBB17_18
.LBB17_17:
	.cv_loc	17 1 263 0
	movq	-40(%rbp), %rax
	movq	%rax, -48(%rbp)
.Ltmp48:
.LBB17_18:
	.cv_loc	17 1 1181 0
	movq	-48(%rbp), %rax
	movq	%rax, -64(%rbp)
.Ltmp49:
.LBB17_19:
	.cv_loc	17 1 1184 0
	movq	-64(%rbp), %rax
	addq	$144, %rsp
	popq	%rbp
	retq
.Ltmp50:
.Lfunc_end17:
	.seh_handlerdata
	.section	.text,"xr",one_only,_ZN91_$LT$core..slice..Iter$LT$$u27$a$C$$u20$T$GT$$u20$as$u20$core..iter..iterator..Iterator$GT$4next17h857574a67b077f09E
.Lcfi107:
	.seh_endproc
