	.text
	.def	 _ZN35_$LT$alloc..boxed..Box$LT$T$GT$$GT$11into_unique17hb053ff9ca68c5f17E;
	.scl	3;
	.type	32;
	.endef
	.section	.text,"xr",one_only,_ZN35_$LT$alloc..boxed..Box$LT$T$GT$$GT$11into_unique17hb053ff9ca68c5f17E
	.p2align	4, 0x90
_ZN35_$LT$alloc..boxed..Box$LT$T$GT$$GT$11into_unique17hb053ff9ca68c5f17E:
.Lfunc_begin0:
	.cv_func_id 0
	.cv_file	1 "C:\\projects\\rust\\src\\liballoc\\boxed.rs"
	.cv_loc	0 1 335 0 is_stmt 0
.Lcfi0:
.seh_proc _ZN35_$LT$alloc..boxed..Box$LT$T$GT$$GT$11into_unique17hb053ff9ca68c5f17E
	pushq	%rbp
.Lcfi1:
	.seh_pushreg 5
	subq	$48, %rsp
.Lcfi2:
	.seh_stackalloc 48
	leaq	48(%rsp), %rbp
.Lcfi3:
	.seh_setframe 5, 48
.Lcfi4:
	.seh_endprologue
	movq	%rcx, -16(%rbp)
.Ltmp0:
	.cv_loc	0 1 336 0
	movq	-16(%rbp), %rcx
	movq	%rcx, -8(%rbp)
.Ltmp1:
	.cv_loc	0 1 337 0
	movq	-16(%rbp), %rcx
	callq	_ZN4core3mem6forget17h4becc2b7500e5e41E
	.cv_loc	0 1 338 0
	movq	-8(%rbp), %rax
.Ltmp2:
	.cv_loc	0 1 339 0
	addq	$48, %rsp
	popq	%rbp
	retq
.Ltmp3:
.Lfunc_end0:
	.seh_handlerdata
	.section	.text,"xr",one_only,_ZN35_$LT$alloc..boxed..Box$LT$T$GT$$GT$11into_unique17hb053ff9ca68c5f17E
.Lcfi5:
	.seh_endproc

	.def	 _ZN35_$LT$alloc..boxed..Box$LT$T$GT$$GT$11into_unique17hdc061ea93a410a3fE;
	.scl	3;
	.type	32;
	.endef
	.section	.text,"xr",one_only,_ZN35_$LT$alloc..boxed..Box$LT$T$GT$$GT$11into_unique17hdc061ea93a410a3fE
	.p2align	4, 0x90
_ZN35_$LT$alloc..boxed..Box$LT$T$GT$$GT$11into_unique17hdc061ea93a410a3fE:
.Lfunc_begin1:
	.cv_func_id 1
	.cv_loc	1 1 335 0
.Lcfi6:
.seh_proc _ZN35_$LT$alloc..boxed..Box$LT$T$GT$$GT$11into_unique17hdc061ea93a410a3fE
	pushq	%rbp
.Lcfi7:
	.seh_pushreg 5
	subq	$48, %rsp
.Lcfi8:
	.seh_stackalloc 48
	leaq	48(%rsp), %rbp
.Lcfi9:
	.seh_setframe 5, 48
.Lcfi10:
	.seh_endprologue
	movq	%rcx, -16(%rbp)
.Ltmp4:
	.cv_loc	1 1 336 0
	movq	-16(%rbp), %rcx
	movq	%rcx, -8(%rbp)
.Ltmp5:
	.cv_loc	1 1 337 0
	movq	-16(%rbp), %rcx
	callq	_ZN4core3mem6forget17h4c90e2ef1039e766E
	.cv_loc	1 1 338 0
	movq	-8(%rbp), %rax
.Ltmp6:
	.cv_loc	1 1 339 0
	addq	$48, %rsp
	popq	%rbp
	retq
.Ltmp7:
.Lfunc_end1:
	.seh_handlerdata
	.section	.text,"xr",one_only,_ZN35_$LT$alloc..boxed..Box$LT$T$GT$$GT$11into_unique17hdc061ea93a410a3fE
.Lcfi11:
	.seh_endproc

	.def	 _ZN35_$LT$alloc..boxed..Box$LT$T$GT$$GT$17into_raw_non_null17h52b764b0f9e92fdeE;
	.scl	2;
	.type	32;
	.endef
	.section	.text,"xr",one_only,_ZN35_$LT$alloc..boxed..Box$LT$T$GT$$GT$17into_raw_non_null17h52b764b0f9e92fdeE
	.globl	_ZN35_$LT$alloc..boxed..Box$LT$T$GT$$GT$17into_raw_non_null17h52b764b0f9e92fdeE
	.p2align	4, 0x90
_ZN35_$LT$alloc..boxed..Box$LT$T$GT$$GT$17into_raw_non_null17h52b764b0f9e92fdeE:
.Lfunc_begin2:
	.cv_func_id 2
	.cv_loc	2 1 329 0
.Lcfi12:
.seh_proc _ZN35_$LT$alloc..boxed..Box$LT$T$GT$$GT$17into_raw_non_null17h52b764b0f9e92fdeE
	pushq	%rbp
.Lcfi13:
	.seh_pushreg 5
	subq	$64, %rsp
.Lcfi14:
	.seh_stackalloc 64
	leaq	64(%rsp), %rbp
.Lcfi15:
	.seh_setframe 5, 64
.Lcfi16:
	.seh_endprologue
	movq	%rcx, -8(%rbp)
.Ltmp8:
	.cv_loc	2 1 330 0
	movq	-8(%rbp), %rcx
	callq	_ZN35_$LT$alloc..boxed..Box$LT$T$GT$$GT$11into_unique17hb053ff9ca68c5f17E
	movq	%rax, -16(%rbp)
	movq	-16(%rbp), %rcx
	callq	_ZN50_$LT$T$u20$as$u20$core..convert..Into$LT$U$GT$$GT$4into17ha1bf4c736c17da51E
	movq	%rax, -24(%rbp)
	.cv_loc	2 1 331 0
	movq	-24(%rbp), %rax
	addq	$64, %rsp
	popq	%rbp
	retq
.Ltmp9:
.Lfunc_end2:
	.seh_handlerdata
	.section	.text,"xr",one_only,_ZN35_$LT$alloc..boxed..Box$LT$T$GT$$GT$17into_raw_non_null17h52b764b0f9e92fdeE
.Lcfi17:
	.seh_endproc

	.def	 _ZN35_$LT$alloc..boxed..Box$LT$T$GT$$GT$17into_raw_non_null17hb2214ee5682ad082E;
	.scl	2;
	.type	32;
	.endef
	.section	.text,"xr",one_only,_ZN35_$LT$alloc..boxed..Box$LT$T$GT$$GT$17into_raw_non_null17hb2214ee5682ad082E
	.globl	_ZN35_$LT$alloc..boxed..Box$LT$T$GT$$GT$17into_raw_non_null17hb2214ee5682ad082E
	.p2align	4, 0x90
_ZN35_$LT$alloc..boxed..Box$LT$T$GT$$GT$17into_raw_non_null17hb2214ee5682ad082E:
.Lfunc_begin3:
	.cv_func_id 3
	.cv_loc	3 1 329 0
.Lcfi18:
.seh_proc _ZN35_$LT$alloc..boxed..Box$LT$T$GT$$GT$17into_raw_non_null17hb2214ee5682ad082E
	pushq	%rbp
.Lcfi19:
	.seh_pushreg 5
	subq	$64, %rsp
.Lcfi20:
	.seh_stackalloc 64
	leaq	64(%rsp), %rbp
.Lcfi21:
	.seh_setframe 5, 64
.Lcfi22:
	.seh_endprologue
	movq	%rcx, -8(%rbp)
.Ltmp10:
	.cv_loc	3 1 330 0
	movq	-8(%rbp), %rcx
	callq	_ZN35_$LT$alloc..boxed..Box$LT$T$GT$$GT$11into_unique17hdc061ea93a410a3fE
	movq	%rax, -16(%rbp)
	movq	-16(%rbp), %rcx
	callq	_ZN50_$LT$T$u20$as$u20$core..convert..Into$LT$U$GT$$GT$4into17h586a5e9df13bb4fbE
	movq	%rax, -24(%rbp)
	.cv_loc	3 1 331 0
	movq	-24(%rbp), %rax
	addq	$64, %rsp
	popq	%rbp
	retq
.Ltmp11:
.Lfunc_end3:
	.seh_handlerdata
	.section	.text,"xr",one_only,_ZN35_$LT$alloc..boxed..Box$LT$T$GT$$GT$17into_raw_non_null17hb2214ee5682ad082E
.Lcfi23:
	.seh_endproc

	.def	 _ZN4core3ptr31_$LT$impl$u20$$BP$mut$u20$T$GT$6offset17h89d9b70c20845cf3E;
	.scl	2;
	.type	32;
	.endef
	.section	.text,"xr",one_only,_ZN4core3ptr31_$LT$impl$u20$$BP$mut$u20$T$GT$6offset17h89d9b70c20845cf3E
	.globl	_ZN4core3ptr31_$LT$impl$u20$$BP$mut$u20$T$GT$6offset17h89d9b70c20845cf3E
	.p2align	4, 0x90
_ZN4core3ptr31_$LT$impl$u20$$BP$mut$u20$T$GT$6offset17h89d9b70c20845cf3E:
.Lfunc_begin4:
	.cv_func_id 4
	.cv_file	2 "C:\\projects\\rust\\src\\libcore\\ptr.rs"
	.cv_loc	4 2 1257 0
.Lcfi24:
.seh_proc _ZN4core3ptr31_$LT$impl$u20$$BP$mut$u20$T$GT$6offset17h89d9b70c20845cf3E
	pushq	%rbp
.Lcfi25:
	.seh_pushreg 5
	subq	$32, %rsp
.Lcfi26:
	.seh_stackalloc 32
	leaq	32(%rsp), %rbp
.Lcfi27:
	.seh_setframe 5, 32
.Lcfi28:
	.seh_endprologue
	movq	%rcx, -24(%rbp)
	movq	%rdx, -16(%rbp)
.Ltmp12:
	.cv_loc	4 2 1258 0
	movq	-24(%rbp), %rcx
	movq	-16(%rbp), %rdx
	shlq	$4, %rdx
	addq	%rdx, %rcx
	movq	%rcx, -8(%rbp)
	movq	-8(%rbp), %rax
	movq	%rax, -32(%rbp)
	.cv_loc	4 2 1259 0
	movq	-32(%rbp), %rax
	addq	$32, %rsp
	popq	%rbp
	retq
.Ltmp13:
.Lfunc_end4:
	.seh_handlerdata
	.section	.text,"xr",one_only,_ZN4core3ptr31_$LT$impl$u20$$BP$mut$u20$T$GT$6offset17h89d9b70c20845cf3E
.Lcfi29:
	.seh_endproc

	.def	 _ZN4core3ptr31_$LT$impl$u20$$BP$mut$u20$T$GT$7is_null17h6ddb816c053fce10E;
	.scl	2;
	.type	32;
	.endef
	.section	.text,"xr",one_only,_ZN4core3ptr31_$LT$impl$u20$$BP$mut$u20$T$GT$7is_null17h6ddb816c053fce10E
	.globl	_ZN4core3ptr31_$LT$impl$u20$$BP$mut$u20$T$GT$7is_null17h6ddb816c053fce10E
	.p2align	4, 0x90
_ZN4core3ptr31_$LT$impl$u20$$BP$mut$u20$T$GT$7is_null17h6ddb816c053fce10E:
.Lfunc_begin5:
	.cv_func_id 5
	.cv_loc	5 2 1165 0
.Lcfi30:
.seh_proc _ZN4core3ptr31_$LT$impl$u20$$BP$mut$u20$T$GT$7is_null17h6ddb816c053fce10E
	pushq	%rbp
.Lcfi31:
	.seh_pushreg 5
	subq	$64, %rsp
.Lcfi32:
	.seh_stackalloc 64
	leaq	64(%rsp), %rbp
.Lcfi33:
	.seh_setframe 5, 64
.Lcfi34:
	.seh_endprologue
	movq	%rcx, -8(%rbp)
.Ltmp14:
	.cv_loc	5 2 1168 0
	movq	-8(%rbp), %rcx
	movq	%rcx, -16(%rbp)
	callq	_ZN4core3ptr8null_mut17h3b43a16dddb6aa7bE
	movq	%rax, -24(%rbp)
	movq	-16(%rbp), %rax
	movq	-24(%rbp), %rcx
	cmpq	%rcx, %rax
	sete	%dl
	.cv_loc	5 2 1169 0
	andb	$1, %dl
	movzbl	%dl, %eax
	addq	$64, %rsp
	popq	%rbp
	retq
.Ltmp15:
.Lfunc_end5:
	.seh_handlerdata
	.section	.text,"xr",one_only,_ZN4core3ptr31_$LT$impl$u20$$BP$mut$u20$T$GT$7is_null17h6ddb816c053fce10E
.Lcfi35:
	.seh_endproc

	.def	 _ZN4core3ptr33_$LT$impl$u20$$BP$const$u20$T$GT$6offset17hb18686ad8b5322eaE;
	.scl	2;
	.type	32;
	.endef
	.section	.text,"xr",one_only,_ZN4core3ptr33_$LT$impl$u20$$BP$const$u20$T$GT$6offset17hb18686ad8b5322eaE
	.globl	_ZN4core3ptr33_$LT$impl$u20$$BP$const$u20$T$GT$6offset17hb18686ad8b5322eaE
	.p2align	4, 0x90
_ZN4core3ptr33_$LT$impl$u20$$BP$const$u20$T$GT$6offset17hb18686ad8b5322eaE:
.Lfunc_begin6:
	.cv_func_id 6
	.cv_loc	6 2 621 0
.Lcfi36:
.seh_proc _ZN4core3ptr33_$LT$impl$u20$$BP$const$u20$T$GT$6offset17hb18686ad8b5322eaE
	pushq	%rbp
.Lcfi37:
	.seh_pushreg 5
	subq	$32, %rsp
.Lcfi38:
	.seh_stackalloc 32
	leaq	32(%rsp), %rbp
.Lcfi39:
	.seh_setframe 5, 32
.Lcfi40:
	.seh_endprologue
	movq	%rcx, -24(%rbp)
	movq	%rdx, -16(%rbp)
.Ltmp16:
	.cv_loc	6 2 622 0
	movq	-24(%rbp), %rcx
	movq	-16(%rbp), %rdx
	shlq	$4, %rdx
	addq	%rdx, %rcx
	movq	%rcx, -8(%rbp)
	movq	-8(%rbp), %rax
	movq	%rax, -32(%rbp)
	.cv_loc	6 2 623 0
	movq	-32(%rbp), %rax
	addq	$32, %rsp
	popq	%rbp
	retq
.Ltmp17:
.Lfunc_end6:
	.seh_handlerdata
	.section	.text,"xr",one_only,_ZN4core3ptr33_$LT$impl$u20$$BP$const$u20$T$GT$6offset17hb18686ad8b5322eaE
.Lcfi41:
	.seh_endproc

	.def	 _ZN53_$LT$$u5b$T$u5d$$u20$as$u20$core..slice..SliceExt$GT$10as_mut_ptr17h030c7d0042ec7fe7E;
	.scl	3;
	.type	32;
	.endef
	.section	.text,"xr",one_only,_ZN53_$LT$$u5b$T$u5d$$u20$as$u20$core..slice..SliceExt$GT$10as_mut_ptr17h030c7d0042ec7fe7E
	.p2align	4, 0x90
_ZN53_$LT$$u5b$T$u5d$$u20$as$u20$core..slice..SliceExt$GT$10as_mut_ptr17h030c7d0042ec7fe7E:
.Lfunc_begin7:
	.cv_func_id 7
	.cv_file	3 "C:\\projects\\rust\\src\\libcore\\slice\\mod.rs"
	.cv_loc	7 3 646 0
.Lcfi42:
.seh_proc _ZN53_$LT$$u5b$T$u5d$$u20$as$u20$core..slice..SliceExt$GT$10as_mut_ptr17h030c7d0042ec7fe7E
	pushq	%rbp
.Lcfi43:
	.seh_pushreg 5
	subq	$16, %rsp
.Lcfi44:
	.seh_stackalloc 16
	leaq	16(%rsp), %rbp
.Lcfi45:
	.seh_setframe 5, 16
.Lcfi46:
	.seh_endprologue
	movq	%rcx, -16(%rbp)
	movq	%rdx, -8(%rbp)
.Ltmp18:
	.cv_loc	7 3 647 0
	movq	-16(%rbp), %rcx
	.cv_loc	7 3 648 0
	movq	%rcx, %rax
	addq	$16, %rsp
	popq	%rbp
	retq
.Ltmp19:
.Lfunc_end7:
	.seh_handlerdata
	.section	.text,"xr",one_only,_ZN53_$LT$$u5b$T$u5d$$u20$as$u20$core..slice..SliceExt$GT$10as_mut_ptr17h030c7d0042ec7fe7E
.Lcfi47:
	.seh_endproc

	.def	 _ZN5alloc5slice29_$LT$impl$u20$$u5b$T$u5d$$GT$10as_mut_ptr17he8f732123ffd7259E;
	.scl	2;
	.type	32;
	.endef
	.section	.text,"xr",one_only,_ZN5alloc5slice29_$LT$impl$u20$$u5b$T$u5d$$GT$10as_mut_ptr17he8f732123ffd7259E
	.globl	_ZN5alloc5slice29_$LT$impl$u20$$u5b$T$u5d$$GT$10as_mut_ptr17he8f732123ffd7259E
	.p2align	4, 0x90
_ZN5alloc5slice29_$LT$impl$u20$$u5b$T$u5d$$GT$10as_mut_ptr17he8f732123ffd7259E:
.Lfunc_begin8:
	.cv_func_id 8
	.cv_file	4 "C:\\projects\\rust\\src\\liballoc\\slice.rs"
	.cv_loc	8 4 500 0
.Lcfi48:
.seh_proc _ZN5alloc5slice29_$LT$impl$u20$$u5b$T$u5d$$GT$10as_mut_ptr17he8f732123ffd7259E
	pushq	%rbp
.Lcfi49:
	.seh_pushreg 5
	subq	$64, %rsp
.Lcfi50:
	.seh_stackalloc 64
	leaq	64(%rsp), %rbp
.Lcfi51:
	.seh_setframe 5, 64
.Lcfi52:
	.seh_endprologue
	movq	%rcx, -16(%rbp)
	movq	%rdx, -8(%rbp)
.Ltmp20:
	.cv_loc	8 4 501 0
	movq	-16(%rbp), %rcx
	movq	-8(%rbp), %rdx
	callq	_ZN53_$LT$$u5b$T$u5d$$u20$as$u20$core..slice..SliceExt$GT$10as_mut_ptr17h030c7d0042ec7fe7E
	movq	%rax, -24(%rbp)
	.cv_loc	8 4 502 0
	movq	-24(%rbp), %rax
	addq	$64, %rsp
	popq	%rbp
	retq
.Ltmp21:
.Lfunc_end8:
	.seh_handlerdata
	.section	.text,"xr",one_only,_ZN5alloc5slice29_$LT$impl$u20$$u5b$T$u5d$$GT$10as_mut_ptr17he8f732123ffd7259E
.Lcfi53:
	.seh_endproc

	.def	 _ZN63_$LT$alloc..boxed..Box$LT$T$GT$$u20$as$u20$core..fmt..Debug$GT$3fmt17h7c7066931c3bba9cE;
	.scl	2;
	.type	32;
	.endef
	.section	.text,"xr",one_only,_ZN63_$LT$alloc..boxed..Box$LT$T$GT$$u20$as$u20$core..fmt..Debug$GT$3fmt17h7c7066931c3bba9cE
	.globl	_ZN63_$LT$alloc..boxed..Box$LT$T$GT$$u20$as$u20$core..fmt..Debug$GT$3fmt17h7c7066931c3bba9cE
	.p2align	4, 0x90
_ZN63_$LT$alloc..boxed..Box$LT$T$GT$$u20$as$u20$core..fmt..Debug$GT$3fmt17h7c7066931c3bba9cE:
.Lfunc_begin9:
	.cv_func_id 9
	.cv_loc	9 1 670 0
.Lcfi54:
.seh_proc _ZN63_$LT$alloc..boxed..Box$LT$T$GT$$u20$as$u20$core..fmt..Debug$GT$3fmt17h7c7066931c3bba9cE
	pushq	%rbp
.Lcfi55:
	.seh_pushreg 5
	subq	$64, %rsp
.Lcfi56:
	.seh_stackalloc 64
	leaq	64(%rsp), %rbp
.Lcfi57:
	.seh_setframe 5, 64
.Lcfi58:
	.seh_endprologue
	movq	%rcx, -16(%rbp)
	movq	%rdx, -8(%rbp)
.Ltmp22:
	.cv_loc	9 1 671 0
	movq	-16(%rbp), %rcx
	movq	(%rcx), %rdx
	movq	8(%rcx), %rcx
	movq	-8(%rbp), %rax
	movq	%rcx, -24(%rbp)
	movq	%rdx, %rcx
	movq	%rax, %rdx
	movq	-24(%rbp), %rax
	callq	*56(%rax)
	movb	%al, -25(%rbp)
	.cv_loc	9 1 672 0
	movb	-25(%rbp), %al
	andb	$1, %al
	movzbl	%al, %eax
	addq	$64, %rsp
	popq	%rbp
	retq
.Ltmp23:
.Lfunc_end9:
	.seh_handlerdata
	.section	.text,"xr",one_only,_ZN63_$LT$alloc..boxed..Box$LT$T$GT$$u20$as$u20$core..fmt..Debug$GT$3fmt17h7c7066931c3bba9cE
.Lcfi59:
	.seh_endproc

	.def	 _ZN65_$LT$alloc..boxed..Box$LT$T$GT$$u20$as$u20$core..fmt..Display$GT$3fmt17h5cb2c0e540dc9cadE;
	.scl	2;
	.type	32;
	.endef
	.section	.text,"xr",one_only,_ZN65_$LT$alloc..boxed..Box$LT$T$GT$$u20$as$u20$core..fmt..Display$GT$3fmt17h5cb2c0e540dc9cadE
	.globl	_ZN65_$LT$alloc..boxed..Box$LT$T$GT$$u20$as$u20$core..fmt..Display$GT$3fmt17h5cb2c0e540dc9cadE
	.p2align	4, 0x90
_ZN65_$LT$alloc..boxed..Box$LT$T$GT$$u20$as$u20$core..fmt..Display$GT$3fmt17h5cb2c0e540dc9cadE:
.Lfunc_begin10:
	.cv_func_id 10
	.cv_loc	10 1 663 0
.Lcfi60:
.seh_proc _ZN65_$LT$alloc..boxed..Box$LT$T$GT$$u20$as$u20$core..fmt..Display$GT$3fmt17h5cb2c0e540dc9cadE
	pushq	%rbp
.Lcfi61:
	.seh_pushreg 5
	subq	$64, %rsp
.Lcfi62:
	.seh_stackalloc 64
	leaq	64(%rsp), %rbp
.Lcfi63:
	.seh_setframe 5, 64
.Lcfi64:
	.seh_endprologue
	movq	%rcx, -16(%rbp)
	movq	%rdx, -8(%rbp)
.Ltmp24:
	.cv_loc	10 1 664 0
	movq	-16(%rbp), %rcx
	movq	(%rcx), %rdx
	movq	8(%rcx), %rcx
	movq	-8(%rbp), %rax
	movq	%rcx, -24(%rbp)
	movq	%rdx, %rcx
	movq	%rax, %rdx
	movq	-24(%rbp), %rax
	callq	*48(%rax)
	movb	%al, -25(%rbp)
	.cv_loc	10 1 665 0
	movb	-25(%rbp), %al
	andb	$1, %al
	movzbl	%al, %eax
	addq	$64, %rsp
	popq	%rbp
	retq
.Ltmp25:
.Lfunc_end10:
	.seh_handlerdata
	.section	.text,"xr",one_only,_ZN65_$LT$alloc..boxed..Box$LT$T$GT$$u20$as$u20$core..fmt..Display$GT$3fmt17h5cb2c0e540dc9cadE
.Lcfi65:
	.seh_endproc
