	.text
	.def	 _ZN5alloc5slice4hack8into_vec17h012dd3310f346c80E;
	.scl	2;
	.type	32;
	.endef
	.section	.text,"xr",one_only,_ZN5alloc5slice4hack8into_vec17h012dd3310f346c80E
	.globl	_ZN5alloc5slice4hack8into_vec17h012dd3310f346c80E
	.p2align	4, 0x90
_ZN5alloc5slice4hack8into_vec17h012dd3310f346c80E:
.Lfunc_begin0:
	.cv_func_id 0
	.cv_file	1 "C:\\projects\\rust\\src\\liballoc\\slice.rs"
	.cv_loc	0 1 155 0 is_stmt 0
.Lcfi0:
.seh_proc _ZN5alloc5slice4hack8into_vec17h012dd3310f346c80E
	.seh_handler __CxxFrameHandler3, @unwind, @except
	pushq	%rbp
.Lcfi1:
	.seh_pushreg 5
	subq	$160, %rsp
.Lcfi2:
	.seh_stackalloc 160
	leaq	128(%rsp), %rbp
.Lcfi3:
	.seh_setframe 5, 128
.Lcfi4:
	.seh_endprologue
	movq	$-2, 24(%rbp)
	movq	%rcx, %rax
	movq	%rdx, -48(%rbp)
	movq	%r8, -40(%rbp)
.Ltmp10:
	.cv_loc	0 1 157 0
	movb	$0, 23(%rbp)
	movb	$1, 23(%rbp)
	movq	-48(%rbp), %rdx
	movq	-40(%rbp), %r8
.Ltmp0:
	movq	%rcx, -56(%rbp)
	movq	%rdx, %rcx
	movq	%r8, %rdx
	movq	%rax, -64(%rbp)
	callq	_ZN5alloc5slice29_$LT$impl$u20$$u5b$T$u5d$$GT$10as_mut_ptr17hc422afcb33e96610E
.Ltmp1:
	movq	%rax, -72(%rbp)
	jmp	.LBB0_2
.Ltmp11:
.LBB0_2:
	movq	-48(%rbp), %rcx
	movq	-40(%rbp), %rdx
.Ltmp2:
	callq	_ZN5alloc5slice29_$LT$impl$u20$$u5b$T$u5d$$GT$3len17h2a6998a82cce7bd1E
.Ltmp3:
	movq	%rax, -80(%rbp)
	jmp	.LBB0_3
.Ltmp12:
.LBB0_3:
	movq	-48(%rbp), %rcx
	movq	-40(%rbp), %rdx
.Ltmp4:
	callq	_ZN5alloc5slice29_$LT$impl$u20$$u5b$T$u5d$$GT$3len17h2a6998a82cce7bd1E
.Ltmp5:
	movq	%rax, -88(%rbp)
	jmp	.LBB0_4
.Ltmp13:
.LBB0_4:
.Ltmp6:
	leaq	-32(%rbp), %rcx
	movq	-72(%rbp), %rdx
	movq	-80(%rbp), %r8
	movq	-88(%rbp), %r9
	callq	_ZN33_$LT$alloc..vec..Vec$LT$T$GT$$GT$14from_raw_parts17h4c823e3766905677E
.Ltmp7:
	jmp	.LBB0_5
.Ltmp14:
.LBB0_5:
	.cv_loc	0 1 158 0
	movb	$0, 23(%rbp)
	movq	-48(%rbp), %rcx
	movq	-40(%rbp), %rdx
.Ltmp8:
	callq	_ZN4core3mem6forget17h53ab9a01b5d7d0dbE
.Ltmp9:
	jmp	.LBB0_6
.Ltmp15:
.LBB0_6:
	.cv_loc	0 1 159 0
	movq	-32(%rbp), %rax
	movq	%rax, -8(%rbp)
	movq	-24(%rbp), %rax
	movq	%rax, (%rbp)
	movq	-16(%rbp), %rax
	movq	%rax, 8(%rbp)
	movq	-8(%rbp), %rax
	movq	-56(%rbp), %rcx
	movq	%rax, (%rcx)
	movq	(%rbp), %rax
	movq	%rax, 8(%rcx)
	movq	8(%rbp), %rax
	movq	%rax, 16(%rcx)
.Ltmp16:
	.cv_loc	0 1 161 0
	movq	-64(%rbp), %rax
	addq	$160, %rsp
	popq	%rbp
.Ltmp17:
	retq
	.seh_handlerdata
	.long	($cppxdata$_ZN5alloc5slice4hack8into_vec17h012dd3310f346c80E)@IMGREL
	.section	.text,"xr",one_only,_ZN5alloc5slice4hack8into_vec17h012dd3310f346c80E
.Lcfi5:
	.seh_endproc
	.def	 "?dtor$8@?0?_ZN5alloc5slice4hack8into_vec17h012dd3310f346c80E@4HA";
	.scl	3;
	.type	32;
	.endef
	.p2align	4, 0x90
"?dtor$8@?0?_ZN5alloc5slice4hack8into_vec17h012dd3310f346c80E@4HA":
.Lcfi6:
.seh_proc "?dtor$8@?0?_ZN5alloc5slice4hack8into_vec17h012dd3310f346c80E@4HA"
.LBB0_8:
.Ltmp18:
	movq	%rdx, 16(%rsp)
	pushq	%rbp
.Lcfi7:
	.seh_pushreg 5
	subq	$32, %rsp
.Lcfi8:
	.seh_stackalloc 32
	leaq	128(%rdx), %rbp
.Ltmp19:
.Lcfi9:
	.seh_endprologue
	leaq	-32(%rbp), %rcx
.Ltmp20:
	.cv_loc	0 1 160 0
	callq	_ZN4core3ptr13drop_in_place17he87ea5237a1bab48E
	nop
	addq	$32, %rsp
	popq	%rbp
	retq
.Ltmp21:
.LBB0_1:
	.cv_loc	0 1 155 0
	addq	$32, %rsp
	popq	%rbp
	retq
.LBB0_7:
	leaq	-48(%rbp), %rcx
	.cv_loc	0 1 161 0
	movb	$0, 23(%rbp)
	callq	_ZN4core3ptr13drop_in_place17hf4f53841c71b8883E
	jmp	.LBB0_1
	.seh_handlerdata
	.section	.text,"xr",one_only,_ZN5alloc5slice4hack8into_vec17h012dd3310f346c80E
.Lcfi10:
	.seh_endproc
	.def	 "?dtor$9@?0?_ZN5alloc5slice4hack8into_vec17h012dd3310f346c80E@4HA";
	.scl	3;
	.type	32;
	.endef
	.p2align	4, 0x90
"?dtor$9@?0?_ZN5alloc5slice4hack8into_vec17h012dd3310f346c80E@4HA":
.Lcfi11:
.seh_proc "?dtor$9@?0?_ZN5alloc5slice4hack8into_vec17h012dd3310f346c80E@4HA"
.LBB0_9:
	movq	%rdx, 16(%rsp)
	pushq	%rbp
.Lcfi12:
	.seh_pushreg 5
	subq	$32, %rsp
.Lcfi13:
	.seh_stackalloc 32
	leaq	128(%rdx), %rbp
.Lcfi14:
	.seh_endprologue
	testb	$1, 23(%rbp)
	jne	.LBB0_7
	jmp	.LBB0_1
.Ltmp22:
.Lfunc_end0:
	.seh_handlerdata
	.section	.text,"xr",one_only,_ZN5alloc5slice4hack8into_vec17h012dd3310f346c80E
.Lcfi15:
	.seh_endproc
	.section	.xdata,"dr",associative,_ZN5alloc5slice4hack8into_vec17h012dd3310f346c80E
	.p2align	2
$cppxdata$_ZN5alloc5slice4hack8into_vec17h012dd3310f346c80E:
	.long	429065506
	.long	2
	.long	($stateUnwindMap$_ZN5alloc5slice4hack8into_vec17h012dd3310f346c80E)@IMGREL
	.long	0
	.long	0
	.long	4
	.long	($ip2state$_ZN5alloc5slice4hack8into_vec17h012dd3310f346c80E)@IMGREL
	.long	152
	.long	0
	.long	1
$stateUnwindMap$_ZN5alloc5slice4hack8into_vec17h012dd3310f346c80E:
	.long	-1
	.long	"?dtor$9@?0?_ZN5alloc5slice4hack8into_vec17h012dd3310f346c80E@4HA"@IMGREL
	.long	0
	.long	"?dtor$8@?0?_ZN5alloc5slice4hack8into_vec17h012dd3310f346c80E@4HA"@IMGREL
$ip2state$_ZN5alloc5slice4hack8into_vec17h012dd3310f346c80E:
	.long	.Lfunc_begin0@IMGREL
	.long	-1
	.long	.Ltmp0@IMGREL+1
	.long	0
	.long	.Ltmp8@IMGREL+1
	.long	1
	.long	.Ltmp9@IMGREL+1
	.long	-1
	.section	.text,"xr",one_only,_ZN5alloc5slice4hack8into_vec17h012dd3310f346c80E
