	.text
	.def	 _ZN46_$LT$std..thread..local..LocalKey$LT$T$GT$$GT$4init17h392c49462c8e0ee7E;
	.scl	3;
	.type	32;
	.endef
	.section	.text,"xr",one_only,_ZN46_$LT$std..thread..local..LocalKey$LT$T$GT$$GT$4init17h392c49462c8e0ee7E
	.p2align	4, 0x90
_ZN46_$LT$std..thread..local..LocalKey$LT$T$GT$$GT$4init17h392c49462c8e0ee7E:
.Lfunc_begin0:
	.cv_func_id 0
	.cv_file	1 "C:\\projects\\rust\\src\\libstd\\thread\\local.rs"
	.cv_loc	0 1 292 0 is_stmt 0
.Lcfi0:
.seh_proc _ZN46_$LT$std..thread..local..LocalKey$LT$T$GT$$GT$4init17h392c49462c8e0ee7E
	.seh_handler __CxxFrameHandler3, @unwind, @except
	pushq	%rbp
.Lcfi1:
	.seh_pushreg 5
	subq	$160, %rsp
.Lcfi2:
	.seh_stackalloc 160
	leaq	128(%rsp), %rbp
.Lcfi3:
	.seh_setframe 5, 128
.Lcfi4:
	.seh_endprologue
	movq	$-2, 24(%rbp)
	movq	%rcx, -72(%rbp)
	movq	%rdx, -64(%rbp)
.Ltmp8:
	.cv_loc	0 1 295 0
	movb	$0, 23(%rbp)
	movq	-72(%rbp), %rcx
	movq	8(%rcx), %rcx
	movb	$1, 23(%rbp)
	callq	*%rcx
	movq	%rdx, -48(%rbp)
	movq	%rax, -56(%rbp)
.Ltmp9:
	.cv_loc	0 1 296 0
	movq	-64(%rbp), %rcx
.Ltmp0:
	callq	_ZN40_$LT$core..cell..UnsafeCell$LT$T$GT$$GT$3get17hf462045771fe9898E
.Ltmp1:
	movq	%rax, -80(%rbp)
	jmp	.LBB0_2
.Ltmp10:
.LBB0_2:
	movq	-80(%rbp), %rax
	movq	%rax, -40(%rbp)
.Ltmp11:
	.cv_loc	0 1 310 0
	movq	-40(%rbp), %rdx
	movb	$0, 23(%rbp)
	movq	-56(%rbp), %rcx
	movq	-48(%rbp), %r8
	movq	$1, -8(%rbp)
	movq	%rcx, (%rbp)
	movq	%r8, 8(%rbp)
.Ltmp2:
	leaq	-32(%rbp), %rcx
	leaq	-8(%rbp), %r8
	callq	_ZN4core3mem7replace17ha38e20021f36411aE
.Ltmp3:
	jmp	.LBB0_3
.Ltmp12:
.LBB0_3:
	.cv_loc	0 1 312 0
	movq	-40(%rbp), %rcx
.Ltmp4:
	callq	_ZN38_$LT$core..option..Option$LT$T$GT$$GT$6as_ref17hcbfeb21b5e25cdc6E
.Ltmp5:
	movq	%rax, -88(%rbp)
	jmp	.LBB0_4
.Ltmp13:
.LBB0_4:
.Ltmp6:
	movq	-88(%rbp), %rcx
	callq	_ZN38_$LT$core..option..Option$LT$T$GT$$GT$6unwrap17he604a8a38af1cc83E
.Ltmp7:
	movq	%rax, -96(%rbp)
	jmp	.LBB0_5
.Ltmp14:
.LBB0_5:
	.cv_loc	0 1 313 0
	movb	$0, 23(%rbp)
	movq	-96(%rbp), %rax
	addq	$160, %rsp
	popq	%rbp
.Ltmp15:
	retq
.LBB0_1:
	.cv_loc	0 1 292 0
	addq	$32, %rsp
	popq	%rbp
	retq
.LBB0_6:
	.cv_loc	0 1 313 0
	movb	$0, 23(%rbp)
	jmp	.LBB0_1
	.seh_handlerdata
	.long	($cppxdata$_ZN46_$LT$std..thread..local..LocalKey$LT$T$GT$$GT$4init17h392c49462c8e0ee7E)@IMGREL
	.section	.text,"xr",one_only,_ZN46_$LT$std..thread..local..LocalKey$LT$T$GT$$GT$4init17h392c49462c8e0ee7E
.Lcfi5:
	.seh_endproc
	.def	 "?dtor$7@?0?_ZN46_$LT$std..thread..local..LocalKey$LT$T$GT$$GT$4init17h392c49462c8e0ee7E@4HA";
	.scl	3;
	.type	32;
	.endef
	.p2align	4, 0x90
"?dtor$7@?0?_ZN46_$LT$std..thread..local..LocalKey$LT$T$GT$$GT$4init17h392c49462c8e0ee7E@4HA":
.Lcfi6:
.seh_proc "?dtor$7@?0?_ZN46_$LT$std..thread..local..LocalKey$LT$T$GT$$GT$4init17h392c49462c8e0ee7E@4HA"
.LBB0_7:
	movq	%rdx, 16(%rsp)
	pushq	%rbp
.Lcfi7:
	.seh_pushreg 5
	subq	$32, %rsp
.Lcfi8:
	.seh_stackalloc 32
	leaq	128(%rdx), %rbp
.Lcfi9:
	.seh_endprologue
	testb	$1, 23(%rbp)
	jne	.LBB0_6
	jmp	.LBB0_1
.Ltmp16:
.Lfunc_end0:
	.seh_handlerdata
	.section	.text,"xr",one_only,_ZN46_$LT$std..thread..local..LocalKey$LT$T$GT$$GT$4init17h392c49462c8e0ee7E
.Lcfi10:
	.seh_endproc
	.section	.xdata,"dr",associative,_ZN46_$LT$std..thread..local..LocalKey$LT$T$GT$$GT$4init17h392c49462c8e0ee7E
	.p2align	2
$cppxdata$_ZN46_$LT$std..thread..local..LocalKey$LT$T$GT$$GT$4init17h392c49462c8e0ee7E:
	.long	429065506
	.long	1
	.long	($stateUnwindMap$_ZN46_$LT$std..thread..local..LocalKey$LT$T$GT$$GT$4init17h392c49462c8e0ee7E)@IMGREL
	.long	0
	.long	0
	.long	3
	.long	($ip2state$_ZN46_$LT$std..thread..local..LocalKey$LT$T$GT$$GT$4init17h392c49462c8e0ee7E)@IMGREL
	.long	152
	.long	0
	.long	1
$stateUnwindMap$_ZN46_$LT$std..thread..local..LocalKey$LT$T$GT$$GT$4init17h392c49462c8e0ee7E:
	.long	-1
	.long	"?dtor$7@?0?_ZN46_$LT$std..thread..local..LocalKey$LT$T$GT$$GT$4init17h392c49462c8e0ee7E@4HA"@IMGREL
$ip2state$_ZN46_$LT$std..thread..local..LocalKey$LT$T$GT$$GT$4init17h392c49462c8e0ee7E:
	.long	.Lfunc_begin0@IMGREL
	.long	-1
	.long	.Ltmp0@IMGREL+1
	.long	0
	.long	.Ltmp7@IMGREL+1
	.long	-1
	.section	.text,"xr",one_only,_ZN46_$LT$std..thread..local..LocalKey$LT$T$GT$$GT$4init17h392c49462c8e0ee7E

	.def	 _ZN46_$LT$std..thread..local..LocalKey$LT$T$GT$$GT$4with17hb8a857f74efe27f0E;
	.scl	2;
	.type	32;
	.endef
	.section	.text,"xr",one_only,_ZN46_$LT$std..thread..local..LocalKey$LT$T$GT$$GT$4with17hb8a857f74efe27f0E
	.globl	_ZN46_$LT$std..thread..local..LocalKey$LT$T$GT$$GT$4with17hb8a857f74efe27f0E
	.p2align	4, 0x90
_ZN46_$LT$std..thread..local..LocalKey$LT$T$GT$$GT$4with17hb8a857f74efe27f0E:
.Lfunc_begin1:
	.cv_func_id 1
	.cv_loc	1 1 286 0
.Lcfi11:
.seh_proc _ZN46_$LT$std..thread..local..LocalKey$LT$T$GT$$GT$4with17hb8a857f74efe27f0E
	pushq	%rbp
.Lcfi12:
	.seh_pushreg 5
	subq	$96, %rsp
.Lcfi13:
	.seh_stackalloc 96
	leaq	96(%rsp), %rbp
.Lcfi14:
	.seh_setframe 5, 96
.Lcfi15:
	.seh_endprologue
	leaq	-24(%rbp), %rax
	movq	%rcx, -40(%rbp)
.Ltmp17:
	.cv_loc	1 1 288 0
	movq	-40(%rbp), %rdx
	movq	%rax, %rcx
	callq	_ZN46_$LT$std..thread..local..LocalKey$LT$T$GT$$GT$8try_with17h9e957c047d4b5bc3E
	leaq	-24(%rbp), %rcx
	leaq	str.0(%rip), %rax
	movl	$57, %edx
	movl	%edx, %r8d
	movq	%rax, %rdx
	callq	_ZN47_$LT$core..result..Result$LT$T$C$$u20$E$GT$$GT$6expect17hd95f18353ff49bb5E
	movq	%rax, -48(%rbp)
	movq	%rdx, -56(%rbp)
	.cv_loc	1 1 290 0
	movq	-48(%rbp), %rax
	movq	-56(%rbp), %rdx
	addq	$96, %rsp
	popq	%rbp
	retq
.Ltmp18:
.Lfunc_end1:
	.seh_handlerdata
	.section	.text,"xr",one_only,_ZN46_$LT$std..thread..local..LocalKey$LT$T$GT$$GT$4with17hb8a857f74efe27f0E
.Lcfi16:
	.seh_endproc

	.def	 _ZN46_$LT$std..thread..local..LocalKey$LT$T$GT$$GT$8try_with17h9e957c047d4b5bc3E;
	.scl	3;
	.type	32;
	.endef
	.section	.text,"xr",one_only,_ZN46_$LT$std..thread..local..LocalKey$LT$T$GT$$GT$8try_with17h9e957c047d4b5bc3E
	.p2align	4, 0x90
_ZN46_$LT$std..thread..local..LocalKey$LT$T$GT$$GT$8try_with17h9e957c047d4b5bc3E:
.Lfunc_begin2:
	.cv_func_id 2
	.cv_loc	2 1 371 0
.Lcfi17:
.seh_proc _ZN46_$LT$std..thread..local..LocalKey$LT$T$GT$$GT$8try_with17h9e957c047d4b5bc3E
	.seh_handler __CxxFrameHandler3, @unwind, @except
	pushq	%rbp
.Lcfi18:
	.seh_pushreg 5
	subq	$208, %rsp
.Lcfi19:
	.seh_stackalloc 208
	leaq	128(%rsp), %rbp
.Lcfi20:
	.seh_setframe 5, 128
.Lcfi21:
	.seh_endprologue
	movq	$-2, 72(%rbp)
	movq	%rcx, %rax
	movq	%rdx, 8(%rbp)
.Ltmp35:
	.cv_loc	2 1 374 0
	movb	$0, 71(%rbp)
	movb	$0, 70(%rbp)
	movb	$1, 70(%rbp)
	movq	8(%rbp), %rdx
	movq	(%rdx), %rdx
.Ltmp19:
	movq	%rax, (%rbp)
	movq	%rcx, -8(%rbp)
	callq	*%rdx
.Ltmp20:
	movq	%rax, -16(%rbp)
	jmp	.LBB2_2
.Ltmp36:
.LBB2_2:
.Ltmp21:
	movq	-16(%rbp), %rcx
	callq	_ZN38_$LT$core..option..Option$LT$T$GT$$GT$5ok_or17h8bafa7b8d46ceda2E
.Ltmp22:
	movq	%rax, -24(%rbp)
	jmp	.LBB2_3
.Ltmp37:
.LBB2_3:
.Ltmp23:
	movq	-24(%rbp), %rcx
	callq	_ZN78_$LT$core..result..Result$LT$T$C$$u20$E$GT$$u20$as$u20$core..ops..try..Try$GT$11into_result17h0e042b448c192fcfE
.Ltmp24:
	movq	%rax, -32(%rbp)
	jmp	.LBB2_4
.Ltmp38:
.LBB2_4:
	movq	-32(%rbp), %rax
	movq	%rax, 24(%rbp)
	movq	24(%rbp), %rcx
	testq	%rcx, %rcx
	sete	%dl
	movzbl	%dl, %r8d
	movl	%r8d, %ecx
	movq	%rcx, -40(%rbp)
	jne	.LBB2_6
	jmp	.LBB2_22
.Ltmp39:
.LBB2_22:
	movq	-40(%rbp), %rax
	subq	$1, %rax
	movq	%rax, -48(%rbp)
	je	.LBB2_7
	jmp	.LBB2_5
.Ltmp40:
.LBB2_5:
	.cv_loc	2 1 382 0
	ud2
.Ltmp41:
.LBB2_6:
	.cv_loc	2 1 374 0
	movq	24(%rbp), %rax
	movq	%rax, 32(%rbp)
.Ltmp42:
	.cv_loc	2 1 374 0
	movq	32(%rbp), %rax
	movq	%rax, 16(%rbp)
.Ltmp43:
	.cv_loc	2 1 377 0
	movb	$0, 70(%rbp)
	movb	$1, 71(%rbp)
	movq	16(%rbp), %rcx
.Ltmp29:
	callq	_ZN40_$LT$core..cell..UnsafeCell$LT$T$GT$$GT$3get17hf462045771fe9898E
.Ltmp30:
	movq	%rax, -56(%rbp)
	jmp	.LBB2_11
.Ltmp44:
.LBB2_7:
	.cv_loc	2 1 374 0
.Ltmp25:
	callq	_ZN50_$LT$T$u20$as$u20$core..convert..From$LT$T$GT$$GT$4from17h373c54e2dda9db83E
.Ltmp26:
	jmp	.LBB2_8
.Ltmp45:
.LBB2_8:
.Ltmp27:
	movq	-8(%rbp), %rcx
	callq	_ZN78_$LT$core..result..Result$LT$T$C$$u20$E$GT$$u20$as$u20$core..ops..try..Try$GT$10from_error17h87acfb7d55ac37a2E
.Ltmp28:
	jmp	.LBB2_9
.Ltmp46:
.LBB2_9:
	.cv_loc	2 1 382 0
	movb	$0, 70(%rbp)
.Ltmp47:
.LBB2_10:
	movq	(%rbp), %rax
	addq	$208, %rsp
	popq	%rbp
.Ltmp48:
	retq
.LBB2_11:
.Ltmp49:
	.cv_loc	2 1 378 0
	movq	-56(%rbp), %rax
	movq	(%rax), %rcx
	testq	%rcx, %rcx
	movq	%rcx, -64(%rbp)
	je	.LBB2_12
	jmp	.LBB2_23
.Ltmp50:
.LBB2_23:
	movq	-64(%rbp), %rax
	subq	$1, %rax
	movq	%rax, -72(%rbp)
	je	.LBB2_13
	jmp	.LBB2_5
.Ltmp51:
.LBB2_12:
	.cv_loc	2 1 379 0
	movq	8(%rbp), %rcx
	movq	16(%rbp), %rdx
.Ltmp31:
	callq	_ZN46_$LT$std..thread..local..LocalKey$LT$T$GT$$GT$4init17h392c49462c8e0ee7E
.Ltmp32:
	movq	%rax, -80(%rbp)
	jmp	.LBB2_15
.Ltmp52:
.LBB2_13:
	.cv_loc	2 1 378 0
	movq	-56(%rbp), %rax
	addq	$8, %rax
	movq	%rax, 56(%rbp)
.Ltmp53:
	.cv_loc	2 1 378 0
	movq	56(%rbp), %rax
	movq	%rax, 48(%rbp)
.Ltmp54:
.LBB2_14:
	.cv_loc	2 1 377 0
	movq	48(%rbp), %rax
	movq	%rax, 40(%rbp)
	movb	$0, 71(%rbp)
	movq	40(%rbp), %rcx
.Ltmp33:
	callq	_ZN3std11collections4hash3map11RandomState3new28_$u7b$$u7b$closure$u7d$$u7d$17h4fbd1df07ffba523E
.Ltmp34:
	movq	%rdx, -88(%rbp)
	movq	%rax, -96(%rbp)
	jmp	.LBB2_16
.Ltmp55:
.LBB2_15:
	.cv_loc	2 1 379 0
	movq	-80(%rbp), %rax
	movq	%rax, 48(%rbp)
	.cv_loc	2 1 377 0
	jmp	.LBB2_14
.Ltmp56:
.LBB2_16:
	.cv_loc	2 1 380 0
	movb	$0, 71(%rbp)
	.cv_loc	2 1 377 0
	movq	-8(%rbp), %rax
	movq	$0, (%rax)
	movq	-96(%rbp), %rcx
	movq	%rcx, 8(%rax)
	movq	-88(%rbp), %rcx
	movq	%rcx, 16(%rax)
.Ltmp57:
	.cv_loc	2 1 382 0
	jmp	.LBB2_10
.Ltmp58:
.LBB2_1:
	.cv_loc	2 1 371 0
	addq	$32, %rsp
	popq	%rbp
	retq
.LBB2_17:
	.cv_loc	2 1 382 0
	movb	$0, 70(%rbp)
	jmp	.LBB2_1
	.seh_handlerdata
	.long	($cppxdata$_ZN46_$LT$std..thread..local..LocalKey$LT$T$GT$$GT$8try_with17h9e957c047d4b5bc3E)@IMGREL
	.section	.text,"xr",one_only,_ZN46_$LT$std..thread..local..LocalKey$LT$T$GT$$GT$8try_with17h9e957c047d4b5bc3E
.Lcfi22:
	.seh_endproc
	.def	 "?dtor$19@?0?_ZN46_$LT$std..thread..local..LocalKey$LT$T$GT$$GT$8try_with17h9e957c047d4b5bc3E@4HA";
	.scl	3;
	.type	32;
	.endef
	.p2align	4, 0x90
"?dtor$19@?0?_ZN46_$LT$std..thread..local..LocalKey$LT$T$GT$$GT$8try_with17h9e957c047d4b5bc3E@4HA":
.Lcfi23:
.seh_proc "?dtor$19@?0?_ZN46_$LT$std..thread..local..LocalKey$LT$T$GT$$GT$8try_with17h9e957c047d4b5bc3E@4HA"
.LBB2_19:
	movq	%rdx, 16(%rsp)
	pushq	%rbp
.Lcfi24:
	.seh_pushreg 5
	subq	$32, %rsp
.Lcfi25:
	.seh_stackalloc 32
	leaq	128(%rdx), %rbp
.Lcfi26:
	.seh_endprologue
	testb	$1, 70(%rbp)
	jne	.LBB2_17
	jmp	.LBB2_1
.LBB2_18:
.Ltmp59:
	.cv_loc	2 1 380 0
	movb	$0, 71(%rbp)
	addq	$32, %rsp
	popq	%rbp
	retq
	.seh_handlerdata
	.section	.text,"xr",one_only,_ZN46_$LT$std..thread..local..LocalKey$LT$T$GT$$GT$8try_with17h9e957c047d4b5bc3E
.Lcfi27:
	.seh_endproc
	.def	 "?dtor$20@?0?_ZN46_$LT$std..thread..local..LocalKey$LT$T$GT$$GT$8try_with17h9e957c047d4b5bc3E@4HA";
	.scl	3;
	.type	32;
	.endef
	.p2align	4, 0x90
"?dtor$20@?0?_ZN46_$LT$std..thread..local..LocalKey$LT$T$GT$$GT$8try_with17h9e957c047d4b5bc3E@4HA":
.Lcfi28:
.seh_proc "?dtor$20@?0?_ZN46_$LT$std..thread..local..LocalKey$LT$T$GT$$GT$8try_with17h9e957c047d4b5bc3E@4HA"
.LBB2_20:
.Ltmp60:
	movq	%rdx, 16(%rsp)
	pushq	%rbp
.Lcfi29:
	.seh_pushreg 5
	subq	$32, %rsp
.Lcfi30:
	.seh_stackalloc 32
	leaq	128(%rdx), %rbp
.Ltmp61:
.Lcfi31:
	.seh_endprologue
	testb	$1, 71(%rbp)
	jne	.LBB2_18
.Ltmp62:
	addq	$32, %rsp
	popq	%rbp
	retq
.Lfunc_end2:
	.seh_handlerdata
	.section	.text,"xr",one_only,_ZN46_$LT$std..thread..local..LocalKey$LT$T$GT$$GT$8try_with17h9e957c047d4b5bc3E
.Lcfi32:
	.seh_endproc
	.section	.xdata,"dr",associative,_ZN46_$LT$std..thread..local..LocalKey$LT$T$GT$$GT$8try_with17h9e957c047d4b5bc3E
	.p2align	2
$cppxdata$_ZN46_$LT$std..thread..local..LocalKey$LT$T$GT$$GT$8try_with17h9e957c047d4b5bc3E:
	.long	429065506
	.long	2
	.long	($stateUnwindMap$_ZN46_$LT$std..thread..local..LocalKey$LT$T$GT$$GT$8try_with17h9e957c047d4b5bc3E)@IMGREL
	.long	0
	.long	0
	.long	6
	.long	($ip2state$_ZN46_$LT$std..thread..local..LocalKey$LT$T$GT$$GT$8try_with17h9e957c047d4b5bc3E)@IMGREL
	.long	200
	.long	0
	.long	1
$stateUnwindMap$_ZN46_$LT$std..thread..local..LocalKey$LT$T$GT$$GT$8try_with17h9e957c047d4b5bc3E:
	.long	-1
	.long	"?dtor$19@?0?_ZN46_$LT$std..thread..local..LocalKey$LT$T$GT$$GT$8try_with17h9e957c047d4b5bc3E@4HA"@IMGREL
	.long	0
	.long	"?dtor$20@?0?_ZN46_$LT$std..thread..local..LocalKey$LT$T$GT$$GT$8try_with17h9e957c047d4b5bc3E@4HA"@IMGREL
$ip2state$_ZN46_$LT$std..thread..local..LocalKey$LT$T$GT$$GT$8try_with17h9e957c047d4b5bc3E:
	.long	.Lfunc_begin2@IMGREL
	.long	-1
	.long	.Ltmp19@IMGREL+1
	.long	0
	.long	.Ltmp29@IMGREL+1
	.long	1
	.long	.Ltmp25@IMGREL+1
	.long	0
	.long	.Ltmp31@IMGREL+1
	.long	1
	.long	.Ltmp34@IMGREL+1
	.long	-1
	.section	.text,"xr",one_only,_ZN46_$LT$std..thread..local..LocalKey$LT$T$GT$$GT$8try_with17h9e957c047d4b5bc3E

	.def	 _ZN50_$LT$T$u20$as$u20$core..convert..From$LT$T$GT$$GT$4from17h373c54e2dda9db83E;
	.scl	3;
	.type	32;
	.endef
	.section	.text,"xr",one_only,_ZN50_$LT$T$u20$as$u20$core..convert..From$LT$T$GT$$GT$4from17h373c54e2dda9db83E
	.p2align	4, 0x90
_ZN50_$LT$T$u20$as$u20$core..convert..From$LT$T$GT$$GT$4from17h373c54e2dda9db83E:
.Lfunc_begin3:
	.cv_func_id 3
	.cv_file	2 "C:\\projects\\rust\\src\\libcore\\convert.rs"
	.cv_loc	3 2 422 0
.Lcfi33:
.seh_proc _ZN50_$LT$T$u20$as$u20$core..convert..From$LT$T$GT$$GT$4from17h373c54e2dda9db83E
	pushq	%rbp
.Lcfi34:
	.seh_pushreg 5
.Ltmp63:
	pushq	%rax
.Lcfi35:
	.seh_stackalloc 8
	movq	%rsp, %rbp
.Lcfi36:
	.seh_setframe 5, 0
.Lcfi37:
	.seh_endprologue
	addq	$8, %rsp
	popq	%rbp
	retq
.Ltmp64:
.Lfunc_end3:
	.seh_handlerdata
	.section	.text,"xr",one_only,_ZN50_$LT$T$u20$as$u20$core..convert..From$LT$T$GT$$GT$4from17h373c54e2dda9db83E
.Lcfi38:
	.seh_endproc

	.section	.rdata,"dr",one_only,str.0
	.p2align	4
str.0:
	.ascii	"cannot access a TLS value during or after it is destroyed"
