	.text
	.def	 _ZN4core3ptr33_$LT$impl$u20$$BP$const$u20$T$GT$6offset17he20fa56a42dc415bE;
	.scl	2;
	.type	32;
	.endef
	.section	.text,"xr",one_only,_ZN4core3ptr33_$LT$impl$u20$$BP$const$u20$T$GT$6offset17he20fa56a42dc415bE
	.globl	_ZN4core3ptr33_$LT$impl$u20$$BP$const$u20$T$GT$6offset17he20fa56a42dc415bE
	.p2align	4, 0x90
_ZN4core3ptr33_$LT$impl$u20$$BP$const$u20$T$GT$6offset17he20fa56a42dc415bE:
.Lfunc_begin0:
	.cv_func_id 0
	.cv_file	1 "C:\\projects\\rust\\src\\libcore\\ptr.rs"
	.cv_loc	0 1 621 0 is_stmt 0
.Lcfi0:
.seh_proc _ZN4core3ptr33_$LT$impl$u20$$BP$const$u20$T$GT$6offset17he20fa56a42dc415bE
	pushq	%rbp
.Lcfi1:
	.seh_pushreg 5
	subq	$32, %rsp
.Lcfi2:
	.seh_stackalloc 32
	leaq	32(%rsp), %rbp
.Lcfi3:
	.seh_setframe 5, 32
.Lcfi4:
	.seh_endprologue
	movq	%rcx, -24(%rbp)
	movq	%rdx, -16(%rbp)
.Ltmp0:
	.cv_loc	0 1 622 0
	movq	-24(%rbp), %rcx
	movq	-16(%rbp), %rdx
	shlq	$3, %rdx
	addq	%rdx, %rcx
	movq	%rcx, -8(%rbp)
	movq	-8(%rbp), %rax
	movq	%rax, -32(%rbp)
	.cv_loc	0 1 623 0
	movq	-32(%rbp), %rax
	addq	$32, %rsp
	popq	%rbp
	retq
.Ltmp1:
.Lfunc_end0:
	.seh_handlerdata
	.section	.text,"xr",one_only,_ZN4core3ptr33_$LT$impl$u20$$BP$const$u20$T$GT$6offset17he20fa56a42dc415bE
.Lcfi5:
	.seh_endproc

	.def	 _ZN51_$LT$T$u20$as$u20$core..borrow..Borrow$LT$T$GT$$GT$6borrow17hbc9d1b63d6ce2a8fE;
	.scl	2;
	.type	32;
	.endef
	.section	.text,"xr",one_only,_ZN51_$LT$T$u20$as$u20$core..borrow..Borrow$LT$T$GT$$GT$6borrow17hbc9d1b63d6ce2a8fE
	.globl	_ZN51_$LT$T$u20$as$u20$core..borrow..Borrow$LT$T$GT$$GT$6borrow17hbc9d1b63d6ce2a8fE
	.p2align	4, 0x90
_ZN51_$LT$T$u20$as$u20$core..borrow..Borrow$LT$T$GT$$GT$6borrow17hbc9d1b63d6ce2a8fE:
.Lfunc_begin1:
	.cv_func_id 1
	.cv_file	2 "C:\\projects\\rust\\src\\libcore\\borrow.rs"
	.cv_loc	1 2 86 0
.Lcfi6:
.seh_proc _ZN51_$LT$T$u20$as$u20$core..borrow..Borrow$LT$T$GT$$GT$6borrow17hbc9d1b63d6ce2a8fE
	pushq	%rbp
.Lcfi7:
	.seh_pushreg 5
	pushq	%rax
.Lcfi8:
	.seh_stackalloc 8
	movq	%rsp, %rbp
.Lcfi9:
	.seh_setframe 5, 0
.Lcfi10:
	.seh_endprologue
	movq	%rcx, (%rbp)
.Ltmp2:
	movq	(%rbp), %rax
	addq	$8, %rsp
	popq	%rbp
	retq
.Ltmp3:
.Lfunc_end1:
	.seh_handlerdata
	.section	.text,"xr",one_only,_ZN51_$LT$T$u20$as$u20$core..borrow..Borrow$LT$T$GT$$GT$6borrow17hbc9d1b63d6ce2a8fE
.Lcfi11:
	.seh_endproc

	.def	 _ZN69_$LT$sdl2..keyboard..keycode..Keycode$u20$as$u20$core..hash..Hash$GT$4hash17h9c8aae8c0b4801c8E;
	.scl	2;
	.type	32;
	.endef
	.section	.text,"xr",one_only,_ZN69_$LT$sdl2..keyboard..keycode..Keycode$u20$as$u20$core..hash..Hash$GT$4hash17h9c8aae8c0b4801c8E
	.globl	_ZN69_$LT$sdl2..keyboard..keycode..Keycode$u20$as$u20$core..hash..Hash$GT$4hash17h9c8aae8c0b4801c8E
	.p2align	4, 0x90
_ZN69_$LT$sdl2..keyboard..keycode..Keycode$u20$as$u20$core..hash..Hash$GT$4hash17h9c8aae8c0b4801c8E:
.Lfunc_begin2:
	.cv_func_id 2
	.cv_file	3 "C:\\Users\\Zack\\.cargo\\registry\\src\\github.com-1ecc6299db9ec823\\sdl2-0.30.0\\src\\sdl2\\keyboard\\keycode.rs"
	.cv_loc	2 3 6 0
.Lcfi12:
.seh_proc _ZN69_$LT$sdl2..keyboard..keycode..Keycode$u20$as$u20$core..hash..Hash$GT$4hash17h9c8aae8c0b4801c8E
	pushq	%rbp
.Lcfi13:
	.seh_pushreg 5
	subq	$64, %rsp
.Lcfi14:
	.seh_stackalloc 64
	leaq	64(%rsp), %rbp
.Lcfi15:
	.seh_setframe 5, 64
.Lcfi16:
	.seh_endprologue
	movq	%rcx, -32(%rbp)
	movq	%rdx, -24(%rbp)
.Ltmp4:
	movq	-32(%rbp), %rcx
	movq	%rcx, -16(%rbp)
.Ltmp5:
	.cv_loc	2 3 6 0
	movq	-32(%rbp), %rcx
	movslq	(%rcx), %rcx
	movq	%rcx, -8(%rbp)
.Ltmp6:
	leaq	-8(%rbp), %rcx
	.cv_loc	2 3 6 0
	movq	-24(%rbp), %rdx
	callq	_ZN4core4hash5impls50_$LT$impl$u20$core..hash..Hash$u20$for$u20$u64$GT$4hash17h6eb80e68e883313fE
	nop
	addq	$64, %rsp
	popq	%rbp
	retq
.Ltmp7:
.Lfunc_end2:
	.seh_handlerdata
	.section	.text,"xr",one_only,_ZN69_$LT$sdl2..keyboard..keycode..Keycode$u20$as$u20$core..hash..Hash$GT$4hash17h9c8aae8c0b4801c8E
.Lcfi17:
	.seh_endproc
