	.text
	.def	 _ZN5alloc4heap15exchange_malloc17hc861eca9d8f05e82E;
	.scl	2;
	.type	32;
	.endef
	.section	.text,"xr",one_only,_ZN5alloc4heap15exchange_malloc17hc861eca9d8f05e82E
	.globl	_ZN5alloc4heap15exchange_malloc17hc861eca9d8f05e82E
	.p2align	4, 0x90
_ZN5alloc4heap15exchange_malloc17hc861eca9d8f05e82E:
.Lfunc_begin0:
	.cv_func_id 0
	.cv_file	1 "C:\\projects\\rust\\src\\liballoc\\heap.rs"
	.cv_loc	0 1 244 0 is_stmt 0
.Lcfi0:
.seh_proc _ZN5alloc4heap15exchange_malloc17hc861eca9d8f05e82E
	pushq	%rbp
.Lcfi1:
	.seh_pushreg 5
	subq	$112, %rsp
.Lcfi2:
	.seh_stackalloc 112
	leaq	112(%rsp), %rbp
.Lcfi3:
	.seh_setframe 5, 112
.Lcfi4:
	.seh_endprologue
	movq	%rcx, -80(%rbp)
	movq	%rdx, -72(%rbp)
.Ltmp0:
	.cv_loc	0 1 245 0
	cmpq	$0, -80(%rbp)
	jne	.LBB0_2
	.cv_loc	0 1 246 0
	movq	-72(%rbp), %rax
	movq	%rax, -64(%rbp)
	.cv_loc	0 1 245 0
	jmp	.LBB0_6
.LBB0_2:
	.cv_loc	0 1 248 0
	movq	-80(%rbp), %rcx
	movq	-72(%rbp), %rdx
	callq	_ZN5alloc9allocator6Layout25from_size_align_unchecked17h34ef790e2b9f779dE
	movq	%rdx, -48(%rbp)
	movq	%rax, -56(%rbp)
	leaq	-40(%rbp), %rcx
	leaq	-8(%rbp), %rdx
.Ltmp1:
	.cv_loc	0 1 249 0
	movq	-56(%rbp), %r8
	movq	-48(%rbp), %r9
	callq	_ZN61_$LT$alloc..heap..Heap$u20$as$u20$alloc..allocator..Alloc$GT$5alloc17h039b41712ea8f7dfE
	leaq	-40(%rbp), %rcx
	callq	_ZN47_$LT$core..result..Result$LT$T$C$$u20$E$GT$$GT$14unwrap_or_else17hb74ce1d116aaae0aE
	movq	%rax, -64(%rbp)
.Ltmp2:
	.cv_loc	0 1 245 0
	jmp	.LBB0_6
.LBB0_6:
	.cv_loc	0 1 253 0
	movq	-64(%rbp), %rax
	addq	$112, %rsp
	popq	%rbp
	retq
.Ltmp3:
.Lfunc_end0:
	.seh_handlerdata
	.section	.text,"xr",one_only,_ZN5alloc4heap15exchange_malloc17hc861eca9d8f05e82E
.Lcfi5:
	.seh_endproc

	.def	 _ZN61_$LT$alloc..heap..Heap$u20$as$u20$alloc..allocator..Alloc$GT$3oom17h179880119db49d40E;
	.scl	2;
	.type	32;
	.endef
	.section	.text,"xr",one_only,_ZN61_$LT$alloc..heap..Heap$u20$as$u20$alloc..allocator..Alloc$GT$3oom17h179880119db49d40E
	.globl	_ZN61_$LT$alloc..heap..Heap$u20$as$u20$alloc..allocator..Alloc$GT$3oom17h179880119db49d40E
	.p2align	4, 0x90
_ZN61_$LT$alloc..heap..Heap$u20$as$u20$alloc..allocator..Alloc$GT$3oom17h179880119db49d40E:
.Lfunc_begin1:
	.cv_func_id 1
	.cv_loc	1 1 96 0
.Lcfi6:
.seh_proc _ZN61_$LT$alloc..heap..Heap$u20$as$u20$alloc..allocator..Alloc$GT$3oom17h179880119db49d40E
	pushq	%rbp
.Lcfi7:
	.seh_pushreg 5
	subq	$48, %rsp
.Lcfi8:
	.seh_stackalloc 48
	leaq	48(%rsp), %rbp
.Lcfi9:
	.seh_setframe 5, 48
.Lcfi10:
	.seh_endprologue
	movq	%rcx, -8(%rbp)
.Ltmp4:
	.cv_loc	1 1 98 0
	movq	%rdx, %rcx
	callq	__rust_oom
.Ltmp5:
	ud2
.Ltmp6:
.Lfunc_end1:
	.seh_handlerdata
	.section	.text,"xr",one_only,_ZN61_$LT$alloc..heap..Heap$u20$as$u20$alloc..allocator..Alloc$GT$3oom17h179880119db49d40E
.Lcfi11:
	.seh_endproc

	.def	 _ZN61_$LT$alloc..heap..Heap$u20$as$u20$alloc..allocator..Alloc$GT$5alloc17h039b41712ea8f7dfE;
	.scl	2;
	.type	32;
	.endef
	.section	.text,"xr",one_only,_ZN61_$LT$alloc..heap..Heap$u20$as$u20$alloc..allocator..Alloc$GT$5alloc17h039b41712ea8f7dfE
	.globl	_ZN61_$LT$alloc..heap..Heap$u20$as$u20$alloc..allocator..Alloc$GT$5alloc17h039b41712ea8f7dfE
	.p2align	4, 0x90
_ZN61_$LT$alloc..heap..Heap$u20$as$u20$alloc..allocator..Alloc$GT$5alloc17h039b41712ea8f7dfE:
.Lfunc_begin2:
	.cv_func_id 2
	.cv_loc	2 1 82 0
.Lcfi12:
.seh_proc _ZN61_$LT$alloc..heap..Heap$u20$as$u20$alloc..allocator..Alloc$GT$5alloc17h039b41712ea8f7dfE
	pushq	%rbp
.Lcfi13:
	.seh_pushreg 5
	subq	$208, %rsp
.Lcfi14:
	.seh_stackalloc 208
	leaq	128(%rsp), %rbp
.Lcfi15:
	.seh_setframe 5, 128
.Lcfi16:
	.seh_endprologue
	movq	%rcx, %rax
	movq	%rbp, %r10
	movq	%rdx, -48(%rbp)
	movq	%r8, -40(%rbp)
	movq	%r9, -32(%rbp)
.Ltmp7:
	.cv_loc	2 1 83 0
	movq	%rcx, -56(%rbp)
	movq	%r10, %rcx
	movq	%rax, -64(%rbp)
	callq	_ZN4core3mem13uninitialized17hb023d224c7bd5041E
	leaq	-24(%rbp), %rcx
	movq	%rbp, %rdx
	callq	_ZN41_$LT$core..mem..ManuallyDrop$LT$T$GT$$GT$3new17h7954e1ab8c42eb55E
	leaq	-40(%rbp), %rcx
.Ltmp8:
	.cv_loc	2 1 84 0
	callq	_ZN5alloc9allocator6Layout4size17h4f53ea62db9da096E
	movq	%rax, -72(%rbp)
	leaq	-40(%rbp), %rcx
	.cv_loc	2 1 85 0
	callq	_ZN5alloc9allocator6Layout5align17h162c551242688cdfE
	movq	%rax, -80(%rbp)
	leaq	-24(%rbp), %rcx
	.cv_loc	2 1 86 0
	callq	_ZN79_$LT$core..mem..ManuallyDrop$LT$T$GT$$u20$as$u20$core..ops..deref..DerefMut$GT$9deref_mut17h0b2cba13d868aaa8E
	movq	%rax, -88(%rbp)
	movq	-88(%rbp), %rax
	.cv_loc	2 1 84 0
	movq	-72(%rbp), %rcx
	movq	-80(%rbp), %rdx
	movq	%rax, %r8
	callq	__rust_alloc
	movq	%rax, 24(%rbp)
.Ltmp9:
	.cv_loc	2 1 87 0
	movq	24(%rbp), %rcx
	callq	_ZN4core3ptr31_$LT$impl$u20$$BP$mut$u20$T$GT$7is_null17hc32a60ae8be00c4aE
	movb	%al, -89(%rbp)
	movb	-89(%rbp), %al
	testb	$1, %al
	jne	.LBB2_8
	jmp	.LBB2_9
.LBB2_8:
	leaq	32(%rbp), %rcx
	leaq	56(%rbp), %rdx
	.cv_loc	2 1 88 0
	movq	-24(%rbp), %rax
	movq	%rax, 56(%rbp)
	movq	-16(%rbp), %rax
	movq	%rax, 64(%rbp)
	movq	-8(%rbp), %rax
	movq	%rax, 72(%rbp)
	callq	_ZN41_$LT$core..mem..ManuallyDrop$LT$T$GT$$GT$10into_inner17h2c761351d55d98b7E
	jmp	.LBB2_10
.LBB2_9:
	.cv_loc	2 1 90 0
	movq	24(%rbp), %rax
	movq	-56(%rbp), %rcx
	movq	$0, (%rcx)
	movq	%rax, 8(%rcx)
	.cv_loc	2 1 87 0
	jmp	.LBB2_11
.LBB2_10:
	.cv_loc	2 1 88 0
	movq	-56(%rbp), %rax
	movq	$1, (%rax)
	movq	32(%rbp), %rcx
	movq	%rcx, 8(%rax)
	movq	40(%rbp), %rcx
	movq	%rcx, 16(%rax)
	movq	48(%rbp), %rcx
	movq	%rcx, 24(%rax)
.Ltmp10:
.LBB2_11:
	.cv_loc	2 1 92 0
	movq	-64(%rbp), %rax
	addq	$208, %rsp
	popq	%rbp
	retq
.Ltmp11:
.Lfunc_end2:
	.seh_handlerdata
	.section	.text,"xr",one_only,_ZN61_$LT$alloc..heap..Heap$u20$as$u20$alloc..allocator..Alloc$GT$5alloc17h039b41712ea8f7dfE
.Lcfi17:
	.seh_endproc

	.def	 _ZN61_$LT$alloc..heap..Heap$u20$as$u20$alloc..allocator..Alloc$GT$7dealloc17h64d7aec95d22a4e9E;
	.scl	2;
	.type	32;
	.endef
	.section	.text,"xr",one_only,_ZN61_$LT$alloc..heap..Heap$u20$as$u20$alloc..allocator..Alloc$GT$7dealloc17h64d7aec95d22a4e9E
	.globl	_ZN61_$LT$alloc..heap..Heap$u20$as$u20$alloc..allocator..Alloc$GT$7dealloc17h64d7aec95d22a4e9E
	.p2align	4, 0x90
_ZN61_$LT$alloc..heap..Heap$u20$as$u20$alloc..allocator..Alloc$GT$7dealloc17h64d7aec95d22a4e9E:
.Lfunc_begin3:
	.cv_func_id 3
	.cv_loc	3 1 103 0
.Lcfi18:
.seh_proc _ZN61_$LT$alloc..heap..Heap$u20$as$u20$alloc..allocator..Alloc$GT$7dealloc17h64d7aec95d22a4e9E
	pushq	%rbp
.Lcfi19:
	.seh_pushreg 5
	subq	$96, %rsp
.Lcfi20:
	.seh_stackalloc 96
	leaq	96(%rsp), %rbp
.Lcfi21:
	.seh_setframe 5, 96
.Lcfi22:
	.seh_endprologue
	leaq	-16(%rbp), %rax
	movq	%rcx, -32(%rbp)
	movq	%rdx, -24(%rbp)
	movq	%r8, -16(%rbp)
	movq	%r9, -8(%rbp)
.Ltmp12:
	.cv_loc	3 1 104 0
	movq	-24(%rbp), %rcx
	movq	%rcx, -40(%rbp)
	movq	%rax, %rcx
	callq	_ZN5alloc9allocator6Layout4size17h4f53ea62db9da096E
.Ltmp13:
	movq	%rax, -48(%rbp)
	leaq	-16(%rbp), %rcx
	callq	_ZN5alloc9allocator6Layout5align17h162c551242688cdfE
	movq	%rax, -56(%rbp)
	movq	-40(%rbp), %rcx
	movq	-48(%rbp), %rdx
	movq	-56(%rbp), %r8
	callq	__rust_dealloc
	.cv_loc	3 1 105 0
	nop
	addq	$96, %rsp
	popq	%rbp
	retq
.Ltmp14:
.Lfunc_end3:
	.seh_handlerdata
	.section	.text,"xr",one_only,_ZN61_$LT$alloc..heap..Heap$u20$as$u20$alloc..allocator..Alloc$GT$7dealloc17h64d7aec95d22a4e9E
.Lcfi23:
	.seh_endproc

	.def	 _ZN61_$LT$alloc..heap..Heap$u20$as$u20$alloc..allocator..Alloc$GT$7realloc17hfb06fe7abe695f32E;
	.scl	2;
	.type	32;
	.endef
	.section	.text,"xr",one_only,_ZN61_$LT$alloc..heap..Heap$u20$as$u20$alloc..allocator..Alloc$GT$7realloc17hfb06fe7abe695f32E
	.globl	_ZN61_$LT$alloc..heap..Heap$u20$as$u20$alloc..allocator..Alloc$GT$7realloc17hfb06fe7abe695f32E
	.p2align	4, 0x90
_ZN61_$LT$alloc..heap..Heap$u20$as$u20$alloc..allocator..Alloc$GT$7realloc17hfb06fe7abe695f32E:
.Lfunc_begin4:
	.cv_func_id 4
	.cv_loc	4 1 120 0
.Lcfi24:
.seh_proc _ZN61_$LT$alloc..heap..Heap$u20$as$u20$alloc..allocator..Alloc$GT$7realloc17hfb06fe7abe695f32E
	pushq	%rbp
.Lcfi25:
	.seh_pushreg 5
	pushq	%rsi
.Lcfi26:
	.seh_pushreg 6
	pushq	%rdi
.Lcfi27:
	.seh_pushreg 7
	subq	$304, %rsp
.Lcfi28:
	.seh_stackalloc 304
	leaq	128(%rsp), %rbp
.Lcfi29:
	.seh_setframe 5, 128
.Lcfi30:
	.seh_endprologue
	movq	%rcx, %rax
	movq	256(%rbp), %r10
	movq	248(%rbp), %r11
	movq	240(%rbp), %rsi
	leaq	72(%rbp), %rdi
	movq	%rdx, (%rbp)
	movq	%r8, 8(%rbp)
	movq	%r9, 16(%rbp)
	movq	%rsi, 24(%rbp)
	movq	%r11, 32(%rbp)
	movq	%r10, 40(%rbp)
.Ltmp15:
	.cv_loc	4 1 126 0
	movq	%rcx, -8(%rbp)
	movq	%rdi, %rcx
	movq	%rax, -16(%rbp)
	callq	_ZN4core3mem13uninitialized17hb023d224c7bd5041E
	leaq	48(%rbp), %rcx
	leaq	72(%rbp), %rdx
	callq	_ZN41_$LT$core..mem..ManuallyDrop$LT$T$GT$$GT$3new17h7954e1ab8c42eb55E
	leaq	16(%rbp), %rcx
.Ltmp16:
	.cv_loc	4 1 127 0
	movq	8(%rbp), %rax
	.cv_loc	4 1 128 0
	movq	%rax, -24(%rbp)
	callq	_ZN5alloc9allocator6Layout4size17h4f53ea62db9da096E
	movq	%rax, -32(%rbp)
	leaq	16(%rbp), %rcx
	.cv_loc	4 1 129 0
	callq	_ZN5alloc9allocator6Layout5align17h162c551242688cdfE
	movq	%rax, -40(%rbp)
	leaq	32(%rbp), %rcx
	.cv_loc	4 1 130 0
	callq	_ZN5alloc9allocator6Layout4size17h4f53ea62db9da096E
	movq	%rax, -48(%rbp)
	leaq	32(%rbp), %rcx
	.cv_loc	4 1 131 0
	callq	_ZN5alloc9allocator6Layout5align17h162c551242688cdfE
	movq	%rax, -56(%rbp)
	leaq	48(%rbp), %rcx
	.cv_loc	4 1 132 0
	callq	_ZN79_$LT$core..mem..ManuallyDrop$LT$T$GT$$u20$as$u20$core..ops..deref..DerefMut$GT$9deref_mut17h0b2cba13d868aaa8E
	movq	%rax, -64(%rbp)
	movq	-64(%rbp), %rax
	.cv_loc	4 1 127 0
	movq	-24(%rbp), %rcx
	movq	-32(%rbp), %rdx
	movq	-40(%rbp), %r8
	movq	-48(%rbp), %r9
	movq	-56(%rbp), %r10
	movq	%r10, 32(%rsp)
	movq	%rax, 40(%rsp)
	callq	__rust_realloc
	movq	%rax, 96(%rbp)
.Ltmp17:
	.cv_loc	4 1 133 0
	movq	96(%rbp), %rcx
	callq	_ZN4core3ptr31_$LT$impl$u20$$BP$mut$u20$T$GT$7is_null17hc32a60ae8be00c4aE
	movb	%al, -65(%rbp)
	movb	-65(%rbp), %al
	testb	$1, %al
	jne	.LBB4_10
	jmp	.LBB4_11
.LBB4_10:
	leaq	104(%rbp), %rcx
	leaq	128(%rbp), %rdx
	.cv_loc	4 1 134 0
	movq	48(%rbp), %rax
	movq	%rax, 128(%rbp)
	movq	56(%rbp), %rax
	movq	%rax, 136(%rbp)
	movq	64(%rbp), %rax
	movq	%rax, 144(%rbp)
	callq	_ZN41_$LT$core..mem..ManuallyDrop$LT$T$GT$$GT$10into_inner17h2c761351d55d98b7E
	jmp	.LBB4_12
.LBB4_11:
	leaq	152(%rbp), %rcx
	.cv_loc	4 1 136 0
	movq	48(%rbp), %rax
	movq	%rax, 152(%rbp)
	movq	56(%rbp), %rax
	movq	%rax, 160(%rbp)
	movq	64(%rbp), %rax
	movq	%rax, 168(%rbp)
	callq	_ZN4core3mem6forget17h9250f9763c6a8022E
	jmp	.LBB4_13
.LBB4_12:
	.cv_loc	4 1 134 0
	movq	-8(%rbp), %rax
	movq	$1, (%rax)
	movq	104(%rbp), %rcx
	movq	%rcx, 8(%rax)
	movq	112(%rbp), %rcx
	movq	%rcx, 16(%rax)
	movq	120(%rbp), %rcx
	movq	%rcx, 24(%rax)
	.cv_loc	4 1 133 0
	jmp	.LBB4_14
.LBB4_13:
	.cv_loc	4 1 137 0
	movq	96(%rbp), %rax
	movq	-8(%rbp), %rcx
	movq	$0, (%rcx)
	movq	%rax, 8(%rcx)
.Ltmp18:
.LBB4_14:
	.cv_loc	4 1 139 0
	movq	-16(%rbp), %rax
	addq	$304, %rsp
	popq	%rdi
	popq	%rsi
	popq	%rbp
	retq
.Ltmp19:
.Lfunc_end4:
	.seh_handlerdata
	.section	.text,"xr",one_only,_ZN61_$LT$alloc..heap..Heap$u20$as$u20$alloc..allocator..Alloc$GT$7realloc17hfb06fe7abe695f32E
.Lcfi31:
	.seh_endproc
