	.text
	.def	 _ZN3std11collections4hash3map11RandomState3new17h5229f93d1cc209acE;
	.scl	3;
	.type	32;
	.endef
	.section	.text,"xr",one_only,_ZN3std11collections4hash3map11RandomState3new17h5229f93d1cc209acE
	.p2align	4, 0x90
_ZN3std11collections4hash3map11RandomState3new17h5229f93d1cc209acE:
.Lfunc_begin0:
	.cv_func_id 0
	.cv_file	1 "C:\\projects\\rust\\src\\libstd\\collections\\hash\\map.rs"
	.cv_loc	0 1 2523 0 is_stmt 0
.Lcfi0:
.seh_proc _ZN3std11collections4hash3map11RandomState3new17h5229f93d1cc209acE
	pushq	%rbp
.Lcfi1:
	.seh_pushreg 5
.Ltmp0:
	subq	$48, %rsp
.Lcfi2:
	.seh_stackalloc 48
	leaq	48(%rsp), %rbp
.Lcfi3:
	.seh_setframe 5, 48
.Lcfi4:
	.seh_endprologue
	.cv_loc	0 1 2539 0
	movq	const.1(%rip), %rcx
	callq	_ZN46_$LT$std..thread..local..LocalKey$LT$T$GT$$GT$4with17hb8a857f74efe27f0E
	movq	%rax, -8(%rbp)
	movq	%rdx, -16(%rbp)
	.cv_loc	0 1 2544 0
	movq	-8(%rbp), %rax
	movq	-16(%rbp), %rdx
	addq	$48, %rsp
	popq	%rbp
	retq
.Ltmp1:
.Lfunc_end0:
	.seh_handlerdata
	.section	.text,"xr",one_only,_ZN3std11collections4hash3map11RandomState3new17h5229f93d1cc209acE
.Lcfi5:
	.seh_endproc

	.def	 _ZN3std11collections4hash3map11RandomState3new4KEYS6__init17hf9a4e47f5123e13eE;
	.scl	3;
	.type	32;
	.endef
	.section	.text,"xr",one_only,_ZN3std11collections4hash3map11RandomState3new4KEYS6__init17hf9a4e47f5123e13eE
	.p2align	4, 0x90
_ZN3std11collections4hash3map11RandomState3new4KEYS6__init17hf9a4e47f5123e13eE:
.Lfunc_begin1:
	.cv_func_id 1
	.cv_file	2 "C:\\projects\\rust\\src\\libstd\\thread\\local.rs"
	.cv_loc	1 2 169 0
.Lcfi6:
.seh_proc _ZN3std11collections4hash3map11RandomState3new4KEYS6__init17hf9a4e47f5123e13eE
	pushq	%rbp
.Lcfi7:
	.seh_pushreg 5
.Ltmp2:
	subq	$64, %rsp
.Lcfi8:
	.seh_stackalloc 64
	leaq	64(%rsp), %rbp
.Lcfi9:
	.seh_setframe 5, 64
.Lcfi10:
	.seh_endprologue
	.cv_loc	1 1 2536 0
	callq	_ZN3std3sys7windows4rand19hashmap_random_keys17h272f8d98a7427f94E
	movq	%rax, -8(%rbp)
	movq	%rdx, -16(%rbp)
	movq	-8(%rbp), %rcx
	movq	-16(%rbp), %rdx
	callq	_ZN34_$LT$core..cell..Cell$LT$T$GT$$GT$3new17he28b2a52061979e2E
	movq	%rax, -24(%rbp)
	movq	%rdx, -32(%rbp)
	.cv_loc	1 2 169 0
	movq	-24(%rbp), %rax
	movq	-32(%rbp), %rdx
	addq	$64, %rsp
	popq	%rbp
	retq
.Ltmp3:
.Lfunc_end1:
	.seh_handlerdata
	.section	.text,"xr",one_only,_ZN3std11collections4hash3map11RandomState3new4KEYS6__init17hf9a4e47f5123e13eE
.Lcfi11:
	.seh_endproc

	.def	 _ZN3std11collections4hash3map19DefaultResizePolicy12raw_capacity17h20c8231958df7e41E;
	.scl	2;
	.type	32;
	.endef
	.section	.text,"xr",one_only,_ZN3std11collections4hash3map19DefaultResizePolicy12raw_capacity17h20c8231958df7e41E
	.globl	_ZN3std11collections4hash3map19DefaultResizePolicy12raw_capacity17h20c8231958df7e41E
	.p2align	4, 0x90
_ZN3std11collections4hash3map19DefaultResizePolicy12raw_capacity17h20c8231958df7e41E:
.Lfunc_begin2:
	.cv_func_id 2
	.cv_loc	2 1 45 0
.Lcfi12:
.seh_proc _ZN3std11collections4hash3map19DefaultResizePolicy12raw_capacity17h20c8231958df7e41E
	pushq	%rbp
.Lcfi13:
	.seh_pushreg 5
	subq	$112, %rsp
.Lcfi14:
	.seh_stackalloc 112
	leaq	112(%rsp), %rbp
.Lcfi15:
	.seh_setframe 5, 112
.Lcfi16:
	.seh_endprologue
	movq	%rcx, -48(%rbp)
	movq	%rdx, -40(%rbp)
.Ltmp4:
	.cv_loc	2 1 46 0
	cmpq	$0, -40(%rbp)
	jne	.LBB2_2
	.cv_loc	2 1 47 0
	movq	$0, -32(%rbp)
	.cv_loc	2 1 46 0
	jmp	.LBB2_9
.LBB2_2:
	.cv_loc	2 1 52 0
	imulq	$11, -40(%rbp), %rax
	movq	%rax, -56(%rbp)
	movl	$10, %eax
	movl	%eax, %ecx
	movq	-56(%rbp), %rax
	xorl	%edx, %edx
	divq	%rcx
	movq	%rax, -24(%rbp)
.Ltmp5:
	.cv_loc	2 1 53 0
	movq	-24(%rbp), %rax
	cmpq	-40(%rbp), %rax
	setae	%r8b
	.cv_file	3 "\\<assert macros>"
	.cv_loc	2 3 5 0
	xorb	$-1, %r8b
	testb	$1, %r8b
	jne	.LBB2_4
	jmp	.LBB2_5
.LBB2_4:
	.cv_file	4 "C:\\projects\\rust\\src\\libstd\\macros.rs"
	.cv_loc	2 4 69 0
	movq	const.4(%rip), %r8
	leaq	str.5(%rip), %rcx
	movl	$16, %eax
	movl	%eax, %edx
	callq	_ZN3std9panicking11begin_panic17h83790f2ca815c643E
	ud2
.LBB2_5:
	leaq	-16(%rbp), %rcx
	.cv_loc	2 1 54 0
	movq	-24(%rbp), %rdx
	callq	_ZN4core3num23_$LT$impl$u20$usize$GT$25checked_next_power_of_two17hdc4f7b17e24107f1E
	leaq	-16(%rbp), %rcx
	leaq	str.6(%rip), %rax
	movl	$21, %edx
	movl	%edx, %r8d
	movq	%rax, %rdx
	callq	_ZN38_$LT$core..option..Option$LT$T$GT$$GT$6expect17hccd3d6bd46d363aaE
	movq	%rax, -64(%rbp)
	movl	$32, %eax
	movl	%eax, %ecx
	movq	-64(%rbp), %rdx
	movq	%rdx, -24(%rbp)
	.cv_loc	2 1 55 0
	movq	-24(%rbp), %rdx
	callq	_ZN4core3cmp3max17h82a9f940d3d84c32E
	movq	%rax, -72(%rbp)
	movq	-72(%rbp), %rax
	movq	%rax, -24(%rbp)
	.cv_loc	2 1 56 0
	movq	-24(%rbp), %rcx
	movq	%rcx, -32(%rbp)
.Ltmp6:
.LBB2_9:
	.cv_loc	2 1 58 0
	movq	-32(%rbp), %rax
	addq	$112, %rsp
	popq	%rbp
	retq
.Ltmp7:
.Lfunc_end2:
	.seh_handlerdata
	.section	.text,"xr",one_only,_ZN3std11collections4hash3map19DefaultResizePolicy12raw_capacity17h20c8231958df7e41E
.Lcfi17:
	.seh_endproc

	.def	 _ZN3std11collections4hash3map19DefaultResizePolicy8capacity17hab879b5e49215f69E;
	.scl	2;
	.type	32;
	.endef
	.section	.text,"xr",one_only,_ZN3std11collections4hash3map19DefaultResizePolicy8capacity17hab879b5e49215f69E
	.globl	_ZN3std11collections4hash3map19DefaultResizePolicy8capacity17hab879b5e49215f69E
	.p2align	4, 0x90
_ZN3std11collections4hash3map19DefaultResizePolicy8capacity17hab879b5e49215f69E:
.Lfunc_begin3:
	.cv_func_id 3
	.cv_loc	3 1 62 0
.Lcfi18:
.seh_proc _ZN3std11collections4hash3map19DefaultResizePolicy8capacity17hab879b5e49215f69E
	pushq	%rbp
.Lcfi19:
	.seh_pushreg 5
	subq	$24, %rsp
.Lcfi20:
	.seh_stackalloc 24
	leaq	16(%rsp), %rbp
.Lcfi21:
	.seh_setframe 5, 16
.Lcfi22:
	.seh_endprologue
	movq	%rcx, -8(%rbp)
	movq	%rdx, (%rbp)
.Ltmp8:
	.cv_loc	3 1 68 0
	imulq	$10, (%rbp), %rcx
	addq	$10, %rcx
	subq	$1, %rcx
	movq	%rcx, -16(%rbp)
	movl	$11, %eax
	movl	%eax, %ecx
	movq	-16(%rbp), %rax
	xorl	%edx, %edx
	divq	%rcx
	.cv_loc	3 1 69 0
	addq	$24, %rsp
	popq	%rbp
	retq
.Ltmp9:
.Lfunc_end3:
	.seh_handlerdata
	.section	.text,"xr",one_only,_ZN3std11collections4hash3map19DefaultResizePolicy8capacity17hab879b5e49215f69E
.Lcfi23:
	.seh_endproc

	.def	 _ZN81_$LT$std..collections..hash..map..DefaultHasher$u20$as$u20$core..hash..Hasher$GT$5write17hfdb78320a71d0087E;
	.scl	2;
	.type	32;
	.endef
	.section	.text,"xr",one_only,_ZN81_$LT$std..collections..hash..map..DefaultHasher$u20$as$u20$core..hash..Hasher$GT$5write17hfdb78320a71d0087E
	.globl	_ZN81_$LT$std..collections..hash..map..DefaultHasher$u20$as$u20$core..hash..Hasher$GT$5write17hfdb78320a71d0087E
	.p2align	4, 0x90
_ZN81_$LT$std..collections..hash..map..DefaultHasher$u20$as$u20$core..hash..Hasher$GT$5write17hfdb78320a71d0087E:
.Lfunc_begin4:
	.cv_func_id 4
	.cv_loc	4 1 2595 0
.Lcfi24:
.seh_proc _ZN81_$LT$std..collections..hash..map..DefaultHasher$u20$as$u20$core..hash..Hasher$GT$5write17hfdb78320a71d0087E
	pushq	%rbp
.Lcfi25:
	.seh_pushreg 5
	subq	$64, %rsp
.Lcfi26:
	.seh_stackalloc 64
	leaq	64(%rsp), %rbp
.Lcfi27:
	.seh_setframe 5, 64
.Lcfi28:
	.seh_endprologue
	movq	%rcx, -24(%rbp)
	movq	%rdx, -16(%rbp)
	movq	%r8, -8(%rbp)
.Ltmp10:
	.cv_loc	4 1 2596 0
	movq	-24(%rbp), %rcx
	movq	-16(%rbp), %rdx
	movq	-8(%rbp), %r8
	callq	_ZN67_$LT$core..hash..sip..SipHasher13$u20$as$u20$core..hash..Hasher$GT$5write17h6d05d4c9445748a0E
	.cv_loc	4 1 2597 0
	nop
	addq	$64, %rsp
	popq	%rbp
	retq
.Ltmp11:
.Lfunc_end4:
	.seh_handlerdata
	.section	.text,"xr",one_only,_ZN81_$LT$std..collections..hash..map..DefaultHasher$u20$as$u20$core..hash..Hasher$GT$5write17hfdb78320a71d0087E
.Lcfi29:
	.seh_endproc

	.def	 _ZN81_$LT$std..collections..hash..map..DefaultHasher$u20$as$u20$core..hash..Hasher$GT$6finish17hebda5a34e0ef8e46E;
	.scl	2;
	.type	32;
	.endef
	.section	.text,"xr",one_only,_ZN81_$LT$std..collections..hash..map..DefaultHasher$u20$as$u20$core..hash..Hasher$GT$6finish17hebda5a34e0ef8e46E
	.globl	_ZN81_$LT$std..collections..hash..map..DefaultHasher$u20$as$u20$core..hash..Hasher$GT$6finish17hebda5a34e0ef8e46E
	.p2align	4, 0x90
_ZN81_$LT$std..collections..hash..map..DefaultHasher$u20$as$u20$core..hash..Hasher$GT$6finish17hebda5a34e0ef8e46E:
.Lfunc_begin5:
	.cv_func_id 5
	.cv_loc	5 1 2600 0
.Lcfi30:
.seh_proc _ZN81_$LT$std..collections..hash..map..DefaultHasher$u20$as$u20$core..hash..Hasher$GT$6finish17hebda5a34e0ef8e46E
	pushq	%rbp
.Lcfi31:
	.seh_pushreg 5
	subq	$48, %rsp
.Lcfi32:
	.seh_stackalloc 48
	leaq	48(%rsp), %rbp
.Lcfi33:
	.seh_setframe 5, 48
.Lcfi34:
	.seh_endprologue
	movq	%rcx, -8(%rbp)
.Ltmp12:
	.cv_loc	5 1 2601 0
	movq	-8(%rbp), %rcx
	callq	_ZN67_$LT$core..hash..sip..SipHasher13$u20$as$u20$core..hash..Hasher$GT$6finish17h53530748c1b57291E
	movq	%rax, -16(%rbp)
	.cv_loc	5 1 2602 0
	movq	-16(%rbp), %rax
	addq	$48, %rsp
	popq	%rbp
	retq
.Ltmp13:
.Lfunc_end5:
	.seh_handlerdata
	.section	.text,"xr",one_only,_ZN81_$LT$std..collections..hash..map..DefaultHasher$u20$as$u20$core..hash..Hasher$GT$6finish17hebda5a34e0ef8e46E
.Lcfi35:
	.seh_endproc

	.def	 _ZN83_$LT$std..collections..hash..map..RandomState$u20$as$u20$core..default..Default$GT$7default17h9693d1707dfcb0ceE;
	.scl	2;
	.type	32;
	.endef
	.section	.text,"xr",one_only,_ZN83_$LT$std..collections..hash..map..RandomState$u20$as$u20$core..default..Default$GT$7default17h9693d1707dfcb0ceE
	.globl	_ZN83_$LT$std..collections..hash..map..RandomState$u20$as$u20$core..default..Default$GT$7default17h9693d1707dfcb0ceE
	.p2align	4, 0x90
_ZN83_$LT$std..collections..hash..map..RandomState$u20$as$u20$core..default..Default$GT$7default17h9693d1707dfcb0ceE:
.Lfunc_begin6:
	.cv_func_id 6
	.cv_loc	6 1 2609 0
.Lcfi36:
.seh_proc _ZN83_$LT$std..collections..hash..map..RandomState$u20$as$u20$core..default..Default$GT$7default17h9693d1707dfcb0ceE
	pushq	%rbp
.Lcfi37:
	.seh_pushreg 5
.Ltmp14:
	subq	$48, %rsp
.Lcfi38:
	.seh_stackalloc 48
	leaq	48(%rsp), %rbp
.Lcfi39:
	.seh_setframe 5, 48
.Lcfi40:
	.seh_endprologue
	.cv_loc	6 1 2610 0
	callq	_ZN3std11collections4hash3map11RandomState3new17h5229f93d1cc209acE
	movq	%rax, -8(%rbp)
	movq	%rdx, -16(%rbp)
	.cv_loc	6 1 2611 0
	movq	-8(%rbp), %rax
	movq	-16(%rbp), %rdx
	addq	$48, %rsp
	popq	%rbp
	retq
.Ltmp15:
.Lfunc_end6:
	.seh_handlerdata
	.section	.text,"xr",one_only,_ZN83_$LT$std..collections..hash..map..RandomState$u20$as$u20$core..default..Default$GT$7default17h9693d1707dfcb0ceE
.Lcfi41:
	.seh_endproc

	.def	 _ZN84_$LT$std..collections..hash..map..RandomState$u20$as$u20$core..hash..BuildHasher$GT$12build_hasher17h0634234ecb2a8a5dE;
	.scl	2;
	.type	32;
	.endef
	.section	.text,"xr",one_only,_ZN84_$LT$std..collections..hash..map..RandomState$u20$as$u20$core..hash..BuildHasher$GT$12build_hasher17h0634234ecb2a8a5dE
	.globl	_ZN84_$LT$std..collections..hash..map..RandomState$u20$as$u20$core..hash..BuildHasher$GT$12build_hasher17h0634234ecb2a8a5dE
	.p2align	4, 0x90
_ZN84_$LT$std..collections..hash..map..RandomState$u20$as$u20$core..hash..BuildHasher$GT$12build_hasher17h0634234ecb2a8a5dE:
.Lfunc_begin7:
	.cv_func_id 7
	.cv_loc	7 1 2552 0
.Lcfi42:
.seh_proc _ZN84_$LT$std..collections..hash..map..RandomState$u20$as$u20$core..hash..BuildHasher$GT$12build_hasher17h0634234ecb2a8a5dE
	pushq	%rbp
.Lcfi43:
	.seh_pushreg 5
	subq	$144, %rsp
.Lcfi44:
	.seh_stackalloc 144
	leaq	128(%rsp), %rbp
.Lcfi45:
	.seh_setframe 5, 128
.Lcfi46:
	.seh_endprologue
	movq	%rcx, %rax
	leaq	-56(%rbp), %r8
	movq	%rdx, -64(%rbp)
.Ltmp16:
	.cv_loc	7 1 2553 0
	movq	-64(%rbp), %rdx
	movq	(%rdx), %rdx
	movq	-64(%rbp), %r9
	movq	8(%r9), %r9
	movq	%rcx, -72(%rbp)
	movq	%r8, %rcx
	movq	%r9, %r8
	movq	%rax, -80(%rbp)
	callq	_ZN4core4hash3sip11SipHasher1313new_with_keys17hb5b22fe39285aa69E
	movl	$72, %eax
	movl	%eax, %r8d
	leaq	-56(%rbp), %rcx
	movq	-72(%rbp), %rdx
	movq	%rcx, -88(%rbp)
	movq	%rdx, %rcx
	movq	-88(%rbp), %rdx
	callq	memcpy
	.cv_loc	7 1 2554 0
	movq	-80(%rbp), %rax
	addq	$144, %rsp
	popq	%rbp
	retq
.Ltmp17:
.Lfunc_end7:
	.seh_handlerdata
	.section	.text,"xr",one_only,_ZN84_$LT$std..collections..hash..map..RandomState$u20$as$u20$core..hash..BuildHasher$GT$12build_hasher17h0634234ecb2a8a5dE
.Lcfi47:
	.seh_endproc

	.section	.rdata,"dr",one_only,ref.0
	.p2align	3
ref.0:
	.quad	_ZN3std11collections4hash3map11RandomState3new4KEYS7__getit17hb3e08997f2645665E
	.quad	_ZN3std11collections4hash3map11RandomState3new4KEYS6__init17hf9a4e47f5123e13eE

	.section	.rdata,"dr",one_only,const.1
	.p2align	3
const.1:
	.quad	ref.0

	.section	.rdata,"dr",one_only,str.2
	.p2align	4
str.2:
	.ascii	"libstd\\collections\\hash\\map.rs"

	.section	.rdata,"dr",one_only,ref.3
	.p2align	3
ref.3:
	.quad	str.2
	.quad	30
	.long	53
	.long	13

	.section	.rdata,"dr",one_only,const.4
	.p2align	3
const.4:
	.quad	ref.3

	.section	.rdata,"dr",one_only,str.5
str.5:
	.ascii	"raw_cap overflow"

	.section	.rdata,"dr",one_only,str.6
	.p2align	4
str.6:
	.ascii	"raw_capacity overflow"
