	.text
	.def	 _ZN3std11collections4hash5table16round_up_to_next17h81b4ea820932c2a8E;
	.scl	3;
	.type	32;
	.endef
	.section	.text,"xr",one_only,_ZN3std11collections4hash5table16round_up_to_next17h81b4ea820932c2a8E
	.p2align	4, 0x90
_ZN3std11collections4hash5table16round_up_to_next17h81b4ea820932c2a8E:
.Lfunc_begin0:
	.cv_func_id 0
	.cv_file	1 "C:\\projects\\rust\\src\\libstd\\collections\\hash\\table.rs"
	.cv_loc	0 1 689 0 is_stmt 0
.Lcfi0:
.seh_proc _ZN3std11collections4hash5table16round_up_to_next17h81b4ea820932c2a8E
	pushq	%rbp
.Lcfi1:
	.seh_pushreg 5
	subq	$64, %rsp
.Lcfi2:
	.seh_stackalloc 64
	leaq	64(%rsp), %rbp
.Lcfi3:
	.seh_setframe 5, 64
.Lcfi4:
	.seh_endprologue
	movq	%rcx, -16(%rbp)
	movq	%rdx, -8(%rbp)
.Ltmp0:
	.cv_loc	0 1 690 0
	movq	-8(%rbp), %rcx
	callq	_ZN4core3num23_$LT$impl$u20$usize$GT$15is_power_of_two17h47775aceccb15faeE
	movb	%al, -17(%rbp)
	.cv_file	2 "\\<assert macros>"
	.cv_loc	0 2 2 0
	movb	-17(%rbp), %al
	xorb	$-1, %al
	testb	$1, %al
	jne	.LBB0_2
	jmp	.LBB0_3
.LBB0_2:
	.cv_file	3 "C:\\projects\\rust\\src\\libstd\\macros.rs"
	.cv_loc	0 3 69 0
	movq	const.2(%rip), %r8
	leaq	str.3(%rip), %rcx
	movl	$52, %eax
	movl	%eax, %edx
	callq	_ZN3std9panicking11begin_panic17h83790f2ca815c643E
	ud2
.LBB0_3:
	.cv_loc	0 1 691 0
	movq	-16(%rbp), %rax
	addq	-8(%rbp), %rax
	subq	$1, %rax
	movq	-8(%rbp), %rcx
	subq	$1, %rcx
	xorq	$-1, %rcx
	andq	%rcx, %rax
	.cv_loc	0 1 692 0
	addq	$64, %rsp
	popq	%rbp
	retq
.Ltmp1:
.Lfunc_end0:
	.seh_handlerdata
	.section	.text,"xr",one_only,_ZN3std11collections4hash5table16round_up_to_next17h81b4ea820932c2a8E
.Lcfi5:
	.seh_endproc

	.def	 _ZN3std11collections4hash5table17TaggedHashUintPtr3new17hee80b70ebe128e89E;
	.scl	2;
	.type	32;
	.endef
	.section	.text,"xr",one_only,_ZN3std11collections4hash5table17TaggedHashUintPtr3new17hee80b70ebe128e89E
	.globl	_ZN3std11collections4hash5table17TaggedHashUintPtr3new17hee80b70ebe128e89E
	.p2align	4, 0x90
_ZN3std11collections4hash5table17TaggedHashUintPtr3new17hee80b70ebe128e89E:
.Lfunc_begin1:
	.cv_func_id 1
	.cv_loc	1 1 45 0
.Lcfi6:
.seh_proc _ZN3std11collections4hash5table17TaggedHashUintPtr3new17hee80b70ebe128e89E
	pushq	%rbp
.Lcfi7:
	.seh_pushreg 5
	subq	$64, %rsp
.Lcfi8:
	.seh_stackalloc 64
	leaq	64(%rsp), %rbp
.Lcfi9:
	.seh_setframe 5, 64
.Lcfi10:
	.seh_endprologue
	movq	%rcx, -16(%rbp)
.Ltmp2:
	.cv_loc	1 1 47 0
	movq	-16(%rbp), %rcx
	callq	_ZN35_$LT$core..ptr..Unique$LT$T$GT$$GT$13new_unchecked17hf8733d979e5322b9E
	movq	%rax, -24(%rbp)
	movq	-24(%rbp), %rax
	movq	%rax, -8(%rbp)
	.cv_loc	1 1 48 0
	movq	-8(%rbp), %rax
	addq	$64, %rsp
	popq	%rbp
	retq
.Ltmp3:
.Lfunc_end1:
	.seh_handlerdata
	.section	.text,"xr",one_only,_ZN3std11collections4hash5table17TaggedHashUintPtr3new17hee80b70ebe128e89E
.Lcfi11:
	.seh_endproc

	.def	 _ZN3std11collections4hash5table17TaggedHashUintPtr3ptr17h919960a4778dd7e4E;
	.scl	2;
	.type	32;
	.endef
	.section	.text,"xr",one_only,_ZN3std11collections4hash5table17TaggedHashUintPtr3ptr17h919960a4778dd7e4E
	.globl	_ZN3std11collections4hash5table17TaggedHashUintPtr3ptr17h919960a4778dd7e4E
	.p2align	4, 0x90
_ZN3std11collections4hash5table17TaggedHashUintPtr3ptr17h919960a4778dd7e4E:
.Lfunc_begin2:
	.cv_func_id 2
	.cv_loc	2 1 69 0
.Lcfi12:
.seh_proc _ZN3std11collections4hash5table17TaggedHashUintPtr3ptr17h919960a4778dd7e4E
	pushq	%rbp
.Lcfi13:
	.seh_pushreg 5
	subq	$48, %rsp
.Lcfi14:
	.seh_stackalloc 48
	leaq	48(%rsp), %rbp
.Lcfi15:
	.seh_setframe 5, 48
.Lcfi16:
	.seh_endprologue
	movq	%rcx, -8(%rbp)
.Ltmp4:
	.cv_loc	2 1 70 0
	movq	-8(%rbp), %rcx
	movq	(%rcx), %rcx
	callq	_ZN35_$LT$core..ptr..Unique$LT$T$GT$$GT$6as_ptr17h32af635448f16e68E
	movq	%rax, -16(%rbp)
	movq	-16(%rbp), %rax
	andq	$-2, %rax
	.cv_loc	2 1 71 0
	addq	$48, %rsp
	popq	%rbp
	retq
.Ltmp5:
.Lfunc_end2:
	.seh_handlerdata
	.section	.text,"xr",one_only,_ZN3std11collections4hash5table17TaggedHashUintPtr3ptr17h919960a4778dd7e4E
.Lcfi17:
	.seh_endproc

	.def	 _ZN3std11collections4hash5table17TaggedHashUintPtr3tag17hc8be96f06832bf13E;
	.scl	2;
	.type	32;
	.endef
	.section	.text,"xr",one_only,_ZN3std11collections4hash5table17TaggedHashUintPtr3tag17hc8be96f06832bf13E
	.globl	_ZN3std11collections4hash5table17TaggedHashUintPtr3tag17hc8be96f06832bf13E
	.p2align	4, 0x90
_ZN3std11collections4hash5table17TaggedHashUintPtr3tag17hc8be96f06832bf13E:
.Lfunc_begin3:
	.cv_func_id 3
	.cv_loc	3 1 64 0
.Lcfi18:
.seh_proc _ZN3std11collections4hash5table17TaggedHashUintPtr3tag17hc8be96f06832bf13E
	pushq	%rbp
.Lcfi19:
	.seh_pushreg 5
	subq	$48, %rsp
.Lcfi20:
	.seh_stackalloc 48
	leaq	48(%rsp), %rbp
.Lcfi21:
	.seh_setframe 5, 48
.Lcfi22:
	.seh_endprologue
	movq	%rcx, -8(%rbp)
.Ltmp6:
	.cv_loc	3 1 65 0
	movq	-8(%rbp), %rcx
	movq	(%rcx), %rcx
	callq	_ZN35_$LT$core..ptr..Unique$LT$T$GT$$GT$6as_ptr17h32af635448f16e68E
	movq	%rax, -16(%rbp)
	movq	-16(%rbp), %rax
	andq	$1, %rax
	cmpq	$1, %rax
	sete	%cl
	.cv_loc	3 1 66 0
	andb	$1, %cl
	movzbl	%cl, %eax
	addq	$48, %rsp
	popq	%rbp
	retq
.Ltmp7:
.Lfunc_end3:
	.seh_handlerdata
	.section	.text,"xr",one_only,_ZN3std11collections4hash5table17TaggedHashUintPtr3tag17hc8be96f06832bf13E
.Lcfi23:
	.seh_endproc

	.def	 _ZN3std11collections4hash5table17TaggedHashUintPtr7set_tag17h5cd6c89267ce31a5E;
	.scl	2;
	.type	32;
	.endef
	.section	.text,"xr",one_only,_ZN3std11collections4hash5table17TaggedHashUintPtr7set_tag17h5cd6c89267ce31a5E
	.globl	_ZN3std11collections4hash5table17TaggedHashUintPtr7set_tag17h5cd6c89267ce31a5E
	.p2align	4, 0x90
_ZN3std11collections4hash5table17TaggedHashUintPtr7set_tag17h5cd6c89267ce31a5E:
.Lfunc_begin4:
	.cv_func_id 4
	.cv_loc	4 1 51 0
.Lcfi24:
.seh_proc _ZN3std11collections4hash5table17TaggedHashUintPtr7set_tag17h5cd6c89267ce31a5E
	pushq	%rbp
.Lcfi25:
	.seh_pushreg 5
	subq	$80, %rsp
.Lcfi26:
	.seh_stackalloc 80
	leaq	80(%rsp), %rbp
.Lcfi27:
	.seh_setframe 5, 80
.Lcfi28:
	.seh_endprologue
	movb	%dl, %al
	movq	%rcx, -32(%rbp)
	andb	$1, %al
	movb	%al, -17(%rbp)
.Ltmp8:
	.cv_loc	4 1 52 0
	movq	-32(%rbp), %rcx
	movq	(%rcx), %rcx
	callq	_ZN35_$LT$core..ptr..Unique$LT$T$GT$$GT$6as_ptr17h32af635448f16e68E
	movq	%rax, -40(%rbp)
	movq	-40(%rbp), %rax
	movq	%rax, -16(%rbp)
.Ltmp9:
	.cv_loc	4 1 54 0
	testb	$1, -17(%rbp)
	je	.LBB4_3
	.cv_loc	4 1 55 0
	movq	-16(%rbp), %rax
	orq	$1, %rax
	movq	%rax, -16(%rbp)
	.cv_loc	4 1 54 0
	jmp	.LBB4_4
.LBB4_3:
	.cv_loc	4 1 57 0
	movq	-16(%rbp), %rax
	andq	$-2, %rax
	movq	%rax, -16(%rbp)
.LBB4_4:
	.cv_loc	4 1 59 0
	movq	-16(%rbp), %rcx
	callq	_ZN35_$LT$core..ptr..Unique$LT$T$GT$$GT$13new_unchecked17hf8733d979e5322b9E
	movq	%rax, -48(%rbp)
	movq	-32(%rbp), %rax
	movq	-48(%rbp), %rcx
	movq	%rcx, (%rax)
.Ltmp10:
	.cv_loc	4 1 61 0
	addq	$80, %rsp
	popq	%rbp
	retq
.Ltmp11:
.Lfunc_end4:
	.seh_handlerdata
	.section	.text,"xr",one_only,_ZN3std11collections4hash5table17TaggedHashUintPtr7set_tag17h5cd6c89267ce31a5E
.Lcfi29:
	.seh_endproc

	.def	 _ZN3std11collections4hash5table17calculate_offsets17h5a22d05ee840de45E;
	.scl	2;
	.type	32;
	.endef
	.section	.text,"xr",one_only,_ZN3std11collections4hash5table17calculate_offsets17h5a22d05ee840de45E
	.globl	_ZN3std11collections4hash5table17calculate_offsets17h5a22d05ee840de45E
	.p2align	4, 0x90
_ZN3std11collections4hash5table17calculate_offsets17h5a22d05ee840de45E:
.Lfunc_begin5:
	.cv_func_id 5
	.cv_loc	5 1 707 0
.Lcfi30:
.seh_proc _ZN3std11collections4hash5table17calculate_offsets17h5a22d05ee840de45E
	pushq	%rbp
.Lcfi31:
	.seh_pushreg 5
	subq	$112, %rsp
.Lcfi32:
	.seh_stackalloc 112
	leaq	112(%rsp), %rbp
.Lcfi33:
	.seh_setframe 5, 112
.Lcfi34:
	.seh_endprologue
	movq	%rcx, %rax
	movq	%rdx, -48(%rbp)
	movq	%r8, -40(%rbp)
	movq	%r9, -32(%rbp)
.Ltmp12:
	.cv_loc	5 1 711 0
	movq	-48(%rbp), %rdx
	movq	-32(%rbp), %r8
	movq	%rcx, -56(%rbp)
	movq	%rdx, %rcx
	movq	%r8, %rdx
	movq	%rax, -64(%rbp)
	callq	_ZN3std11collections4hash5table16round_up_to_next17h81b4ea820932c2a8E
	movq	%rax, -24(%rbp)
.Ltmp13:
	.cv_loc	5 1 712 0
	movq	-24(%rbp), %rcx
	movq	-40(%rbp), %rdx
	callq	_ZN4core3num23_$LT$impl$u20$usize$GT$15overflowing_add17hec405971a6f447d9E
	movq	%rax, -72(%rbp)
	movb	%dl, -73(%rbp)
	movq	-72(%rbp), %rax
	movq	%rax, -16(%rbp)
	movb	-73(%rbp), %cl
	andb	$1, %cl
	movb	%cl, -1(%rbp)
.Ltmp14:
	.cv_loc	5 1 714 0
	movq	-24(%rbp), %rdx
	movq	-16(%rbp), %r8
	movb	-1(%rbp), %cl
	movq	-56(%rbp), %r9
	movq	%rdx, (%r9)
	movq	%r8, 8(%r9)
	andb	$1, %cl
	movb	%cl, 16(%r9)
.Ltmp15:
	.cv_loc	5 1 715 0
	movq	-64(%rbp), %rax
	addq	$112, %rsp
	popq	%rbp
	retq
.Ltmp16:
.Lfunc_end5:
	.seh_handlerdata
	.section	.text,"xr",one_only,_ZN3std11collections4hash5table17calculate_offsets17h5a22d05ee840de45E
.Lcfi35:
	.seh_endproc

	.def	 _ZN80_$LT$std..collections..hash..table..SafeHash$u20$as$u20$core..cmp..PartialEq$GT$2eq17h3010ab25e61f8eb8E;
	.scl	2;
	.type	32;
	.endef
	.section	.text,"xr",one_only,_ZN80_$LT$std..collections..hash..table..SafeHash$u20$as$u20$core..cmp..PartialEq$GT$2eq17h3010ab25e61f8eb8E
	.globl	_ZN80_$LT$std..collections..hash..table..SafeHash$u20$as$u20$core..cmp..PartialEq$GT$2eq17h3010ab25e61f8eb8E
	.p2align	4, 0x90
_ZN80_$LT$std..collections..hash..table..SafeHash$u20$as$u20$core..cmp..PartialEq$GT$2eq17h3010ab25e61f8eb8E:
.Lfunc_begin6:
	.cv_func_id 6
	.cv_loc	6 1 182 0
.Lcfi36:
.seh_proc _ZN80_$LT$std..collections..hash..table..SafeHash$u20$as$u20$core..cmp..PartialEq$GT$2eq17h3010ab25e61f8eb8E
	pushq	%rbp
.Lcfi37:
	.seh_pushreg 5
	subq	$40, %rsp
.Lcfi38:
	.seh_stackalloc 40
	leaq	32(%rsp), %rbp
.Lcfi39:
	.seh_setframe 5, 32
.Lcfi40:
	.seh_endprologue
	movq	%rcx, -32(%rbp)
	movq	%rdx, -24(%rbp)
.Ltmp17:
	.cv_loc	6 1 184 0
	movq	-24(%rbp), %rcx
	movq	%rcx, -8(%rbp)
.Ltmp18:
	.cv_loc	6 1 184 0
	movq	-32(%rbp), %rcx
	movq	%rcx, (%rbp)
.Ltmp19:
	.cv_loc	6 1 184 0
	movq	(%rbp), %rcx
	movq	(%rcx), %rcx
	movq	-8(%rbp), %rdx
	cmpq	(%rdx), %rcx
	jne	.LBB6_2
	movb	$1, -9(%rbp)
	jmp	.LBB6_3
.LBB6_2:
	movb	$0, -9(%rbp)
.Ltmp20:
.LBB6_3:
	.cv_loc	6 1 182 0
	movb	-9(%rbp), %al
	andb	$1, %al
	movzbl	%al, %eax
	addq	$40, %rsp
	popq	%rbp
	retq
.Ltmp21:
.Lfunc_end6:
	.seh_handlerdata
	.section	.text,"xr",one_only,_ZN80_$LT$std..collections..hash..table..SafeHash$u20$as$u20$core..cmp..PartialEq$GT$2eq17h3010ab25e61f8eb8E
.Lcfi41:
	.seh_endproc

	.section	.rdata,"dr",one_only,str.0
	.p2align	4
str.0:
	.ascii	"libstd\\collections\\hash\\table.rs"

	.section	.rdata,"dr",one_only,ref.1
	.p2align	3
ref.1:
	.quad	str.0
	.quad	32
	.long	690
	.long	5

	.section	.rdata,"dr",one_only,const.2
	.p2align	3
const.2:
	.quad	ref.1

	.section	.rdata,"dr",one_only,str.3
	.p2align	4
str.3:
	.ascii	"assertion failed: target_alignment.is_power_of_two()"
