	.text
	.def	 _ZN5alloc5slice29_$LT$impl$u20$$u5b$T$u5d$$GT$10as_mut_ptr17hc422afcb33e96610E;
	.scl	2;
	.type	32;
	.endef
	.section	.text,"xr",one_only,_ZN5alloc5slice29_$LT$impl$u20$$u5b$T$u5d$$GT$10as_mut_ptr17hc422afcb33e96610E
	.globl	_ZN5alloc5slice29_$LT$impl$u20$$u5b$T$u5d$$GT$10as_mut_ptr17hc422afcb33e96610E
	.p2align	4, 0x90
_ZN5alloc5slice29_$LT$impl$u20$$u5b$T$u5d$$GT$10as_mut_ptr17hc422afcb33e96610E:
.Lfunc_begin0:
	.cv_func_id 0
	.cv_file	1 "C:\\projects\\rust\\src\\liballoc\\slice.rs"
	.cv_loc	0 1 500 0 is_stmt 0
.Lcfi0:
.seh_proc _ZN5alloc5slice29_$LT$impl$u20$$u5b$T$u5d$$GT$10as_mut_ptr17hc422afcb33e96610E
	pushq	%rbp
.Lcfi1:
	.seh_pushreg 5
	subq	$64, %rsp
.Lcfi2:
	.seh_stackalloc 64
	leaq	64(%rsp), %rbp
.Lcfi3:
	.seh_setframe 5, 64
.Lcfi4:
	.seh_endprologue
	movq	%rcx, -16(%rbp)
	movq	%rdx, -8(%rbp)
.Ltmp0:
	.cv_loc	0 1 501 0
	movq	-16(%rbp), %rcx
	movq	-8(%rbp), %rdx
	callq	_ZN53_$LT$$u5b$T$u5d$$u20$as$u20$core..slice..SliceExt$GT$10as_mut_ptr17h76e21ad0a07bc7d6E
	movq	%rax, -24(%rbp)
	.cv_loc	0 1 502 0
	movq	-24(%rbp), %rax
	addq	$64, %rsp
	popq	%rbp
	retq
.Ltmp1:
.Lfunc_end0:
	.seh_handlerdata
	.section	.text,"xr",one_only,_ZN5alloc5slice29_$LT$impl$u20$$u5b$T$u5d$$GT$10as_mut_ptr17hc422afcb33e96610E
.Lcfi5:
	.seh_endproc

	.def	 _ZN5alloc5slice29_$LT$impl$u20$$u5b$T$u5d$$GT$3len17h2a6998a82cce7bd1E;
	.scl	2;
	.type	32;
	.endef
	.section	.text,"xr",one_only,_ZN5alloc5slice29_$LT$impl$u20$$u5b$T$u5d$$GT$3len17h2a6998a82cce7bd1E
	.globl	_ZN5alloc5slice29_$LT$impl$u20$$u5b$T$u5d$$GT$3len17h2a6998a82cce7bd1E
	.p2align	4, 0x90
_ZN5alloc5slice29_$LT$impl$u20$$u5b$T$u5d$$GT$3len17h2a6998a82cce7bd1E:
.Lfunc_begin1:
	.cv_func_id 1
	.cv_loc	1 1 186 0
.Lcfi6:
.seh_proc _ZN5alloc5slice29_$LT$impl$u20$$u5b$T$u5d$$GT$3len17h2a6998a82cce7bd1E
	pushq	%rbp
.Lcfi7:
	.seh_pushreg 5
	subq	$64, %rsp
.Lcfi8:
	.seh_stackalloc 64
	leaq	64(%rsp), %rbp
.Lcfi9:
	.seh_setframe 5, 64
.Lcfi10:
	.seh_endprologue
	movq	%rcx, -16(%rbp)
	movq	%rdx, -8(%rbp)
.Ltmp2:
	.cv_loc	1 1 187 0
	movq	-16(%rbp), %rcx
	movq	-8(%rbp), %rdx
	callq	_ZN53_$LT$$u5b$T$u5d$$u20$as$u20$core..slice..SliceExt$GT$3len17hc58d8d85d54a83afE
	movq	%rax, -24(%rbp)
	.cv_loc	1 1 188 0
	movq	-24(%rbp), %rax
	addq	$64, %rsp
	popq	%rbp
	retq
.Ltmp3:
.Lfunc_end1:
	.seh_handlerdata
	.section	.text,"xr",one_only,_ZN5alloc5slice29_$LT$impl$u20$$u5b$T$u5d$$GT$3len17h2a6998a82cce7bd1E
.Lcfi11:
	.seh_endproc

	.def	 _ZN5alloc5slice29_$LT$impl$u20$$u5b$T$u5d$$GT$8into_vec17h8cfcb9579e6e89caE;
	.scl	2;
	.type	32;
	.endef
	.section	.text,"xr",one_only,_ZN5alloc5slice29_$LT$impl$u20$$u5b$T$u5d$$GT$8into_vec17h8cfcb9579e6e89caE
	.globl	_ZN5alloc5slice29_$LT$impl$u20$$u5b$T$u5d$$GT$8into_vec17h8cfcb9579e6e89caE
	.p2align	4, 0x90
_ZN5alloc5slice29_$LT$impl$u20$$u5b$T$u5d$$GT$8into_vec17h8cfcb9579e6e89caE:
.Lfunc_begin2:
	.cv_func_id 2
	.cv_loc	2 1 1727 0
.Lcfi12:
.seh_proc _ZN5alloc5slice29_$LT$impl$u20$$u5b$T$u5d$$GT$8into_vec17h8cfcb9579e6e89caE
	pushq	%rbp
.Lcfi13:
	.seh_pushreg 5
	subq	$64, %rsp
.Lcfi14:
	.seh_stackalloc 64
	leaq	64(%rsp), %rbp
.Lcfi15:
	.seh_setframe 5, 64
.Lcfi16:
	.seh_endprologue
	movq	%rcx, %rax
	movq	%rdx, -16(%rbp)
	movq	%r8, -8(%rbp)
.Ltmp4:
	.cv_loc	2 1 1729 0
	movq	-16(%rbp), %rdx
	movq	-8(%rbp), %r8
	movq	%rax, -24(%rbp)
	callq	_ZN5alloc5slice4hack8into_vec17h012dd3310f346c80E
	.cv_loc	2 1 1730 0
	movq	-24(%rbp), %rax
	addq	$64, %rsp
	popq	%rbp
	retq
.Ltmp5:
.Lfunc_end2:
	.seh_handlerdata
	.section	.text,"xr",one_only,_ZN5alloc5slice29_$LT$impl$u20$$u5b$T$u5d$$GT$8into_vec17h8cfcb9579e6e89caE
.Lcfi17:
	.seh_endproc
