	.text
	.def	 _ZN38_$LT$sdl2..render..Canvas$LT$T$GT$$GT$10draw_point17h3ac267d0c38d8f7cE;
	.scl	2;
	.type	32;
	.endef
	.section	.text,"xr",one_only,_ZN38_$LT$sdl2..render..Canvas$LT$T$GT$$GT$10draw_point17h3ac267d0c38d8f7cE
	.globl	_ZN38_$LT$sdl2..render..Canvas$LT$T$GT$$GT$10draw_point17h3ac267d0c38d8f7cE
	.p2align	4, 0x90
_ZN38_$LT$sdl2..render..Canvas$LT$T$GT$$GT$10draw_point17h3ac267d0c38d8f7cE:
.Lfunc_begin0:
	.cv_func_id 0
	.cv_file	1 "C:\\Users\\Zack\\.cargo\\registry\\src\\github.com-1ecc6299db9ec823\\sdl2-0.30.0\\src\\sdl2\\render.rs"
	.cv_loc	0 1 1013 0 is_stmt 0
.Lcfi0:
.seh_proc _ZN38_$LT$sdl2..render..Canvas$LT$T$GT$$GT$10draw_point17h3ac267d0c38d8f7cE
	pushq	%rbp
.Lcfi1:
	.seh_pushreg 5
	subq	$144, %rsp
.Lcfi2:
	.seh_stackalloc 144
	leaq	128(%rsp), %rbp
.Lcfi3:
	.seh_setframe 5, 128
.Lcfi4:
	.seh_endprologue
	movq	%rcx, %rax
	movq	%rdx, -56(%rbp)
	movl	%r8d, -48(%rbp)
	movl	%r9d, -44(%rbp)
.Ltmp0:
	.cv_loc	0 1 1014 0
	movl	-48(%rbp), %r8d
	movl	-44(%rbp), %edx
	movq	%rcx, -64(%rbp)
	movl	%r8d, %ecx
	movq	%rax, -72(%rbp)
	callq	_ZN50_$LT$T$u20$as$u20$core..convert..Into$LT$U$GT$$GT$4into17h64744336e527990dE
	movl	%edx, -36(%rbp)
	movl	%eax, -40(%rbp)
.Ltmp1:
	.cv_loc	0 1 1015 0
	movq	-56(%rbp), %rax
	addq	$8, %rax
	movq	%rax, (%rbp)
.Ltmp2:
	.cv_file	2 "C:\\projects\\rust\\src\\liballoc\\rc.rs"
	.cv_inline_site_id 1 within 0 inlined_at 1 1015 0
	.cv_loc	1 2 802 0
	movq	(%rbp), %rax
	movq	%rax, 8(%rbp)
.Ltmp3:
	.cv_inline_site_id 2 within 1 inlined_at 2 802 0
	.cv_loc	2 2 1377 0
	movq	8(%rbp), %rcx
	callq	_ZN36_$LT$core..ptr..NonNull$LT$T$GT$$GT$6as_ref17h1190cb24cc04b005E
.Ltmp4:
	.cv_loc	1 2 802 0
	addq	$16, %rax
	movq	%rax, -80(%rbp)
.Ltmp5:
	leaq	-40(%rbp), %rcx
	.cv_loc	0 1 1015 0
	movq	-80(%rbp), %rax
	movq	(%rax), %rdx
	movq	%rdx, -88(%rbp)
	callq	_ZN4sdl24rect5Point1x17h43cd8ebaa107244fE
	movl	%eax, -92(%rbp)
.Ltmp6:
	leaq	-40(%rbp), %rcx
	callq	_ZN4sdl24rect5Point1y17h442377c40ddbdb8cE
	movl	%eax, -96(%rbp)
.Ltmp7:
	movq	-88(%rbp), %rcx
	movl	-92(%rbp), %edx
	movl	-96(%rbp), %r8d
	callq	SDL_RenderDrawPoint
	movl	%eax, -28(%rbp)
.Ltmp8:
	.cv_loc	0 1 1016 0
	cmpl	$0, -28(%rbp)
	je	.LBB0_7
.Ltmp9:
	leaq	-24(%rbp), %rcx
	.cv_loc	0 1 1017 0
	callq	_ZN4sdl23sdl9get_error17h3db0674b72dfcaa2E
	jmp	.LBB0_8
.Ltmp10:
.LBB0_7:
	.cv_loc	0 1 1019 0
	movq	-64(%rbp), %rax
	movq	$0, (%rax)
	.cv_loc	0 1 1016 0
	jmp	.LBB0_9
.Ltmp11:
.LBB0_8:
	.cv_loc	0 1 1017 0
	movq	-24(%rbp), %rax
	movq	-64(%rbp), %rcx
	movq	%rax, (%rcx)
	movq	-16(%rbp), %rax
	movq	%rax, 8(%rcx)
	movq	-8(%rbp), %rax
	movq	%rax, 16(%rcx)
.Ltmp12:
.LBB0_9:
	.cv_loc	0 1 1021 0
	movq	-72(%rbp), %rax
	addq	$144, %rsp
	popq	%rbp
.Ltmp13:
	retq
.Ltmp14:
.Lfunc_end0:
	.seh_handlerdata
	.section	.text,"xr",one_only,_ZN38_$LT$sdl2..render..Canvas$LT$T$GT$$GT$10draw_point17h3ac267d0c38d8f7cE
.Lcfi5:
	.seh_endproc

	.def	 _ZN38_$LT$sdl2..render..Canvas$LT$T$GT$$GT$14set_draw_color17ha1f3de5ffac9bc12E;
	.scl	2;
	.type	32;
	.endef
	.section	.text,"xr",one_only,_ZN38_$LT$sdl2..render..Canvas$LT$T$GT$$GT$14set_draw_color17ha1f3de5ffac9bc12E
	.globl	_ZN38_$LT$sdl2..render..Canvas$LT$T$GT$$GT$14set_draw_color17ha1f3de5ffac9bc12E
	.p2align	4, 0x90
_ZN38_$LT$sdl2..render..Canvas$LT$T$GT$$GT$14set_draw_color17ha1f3de5ffac9bc12E:
.Lfunc_begin1:
	.cv_func_id 3
	.cv_loc	3 1 846 0
.Lcfi6:
.seh_proc _ZN38_$LT$sdl2..render..Canvas$LT$T$GT$$GT$14set_draw_color17ha1f3de5ffac9bc12E
	pushq	%rbp
.Lcfi7:
	.seh_pushreg 5
	subq	$112, %rsp
.Lcfi8:
	.seh_stackalloc 112
	leaq	112(%rsp), %rbp
.Lcfi9:
	.seh_setframe 5, 112
.Lcfi10:
	.seh_endprologue
	leaq	-56(%rbp), %rax
	movq	%rcx, -64(%rbp)
	movl	%edx, -48(%rbp)
	movl	-48(%rbp), %edx
	movl	%edx, -56(%rbp)
.Ltmp15:
	.cv_loc	3 1 847 0
	movq	%rax, %rcx
	callq	_ZN4sdl26pixels5Color4rgba17ha8c14bd60546b73dE
.Ltmp16:
	movl	%eax, -4(%rbp)
	movl	-4(%rbp), %eax
	movl	%eax, -40(%rbp)
	movb	-40(%rbp), %al
	movb	%al, -44(%rbp)
	movb	-39(%rbp), %al
	movb	%al, -43(%rbp)
	movb	-38(%rbp), %al
	movb	%al, -42(%rbp)
	movb	-37(%rbp), %al
	movb	%al, -41(%rbp)
.Ltmp17:
	.cv_loc	3 1 848 0
	movq	-64(%rbp), %rcx
	callq	_ZN73_$LT$sdl2..render..Canvas$LT$T$GT$$u20$as$u20$core..ops..deref..Deref$GT$5deref17h1667166654b25d3bE
	movq	%rax, -72(%rbp)
	movq	-72(%rbp), %rax
	movq	(%rax), %rcx
	movb	-44(%rbp), %dl
	movb	-43(%rbp), %r8b
	movb	-42(%rbp), %r9b
	movzbl	%dl, %edx
	movzbl	%r8b, %r8d
	movzbl	%r9b, %r9d
	movzbl	-41(%rbp), %r10d
	movl	%r10d, 32(%rsp)
	callq	SDL_SetRenderDrawColor
	movl	%eax, -36(%rbp)
.Ltmp18:
	.cv_loc	3 1 850 0
	cmpl	$0, -36(%rbp)
	je	.LBB1_5
	leaq	-32(%rbp), %rcx
	.cv_loc	3 1 851 0
	callq	_ZN4sdl23sdl9get_error17h3db0674b72dfcaa2E
	jmp	.LBB1_6
.Ltmp19:
.LBB1_5:
	.cv_loc	3 1 853 0
	addq	$112, %rsp
	popq	%rbp
	retq
.LBB1_6:
.Ltmp20:
	.cv_file	3 "\\<panic macros>"
	.cv_loc	3 3 4 0
	movq	const.2(%rip), %rdx
	leaq	-32(%rbp), %rcx
	.cv_loc	3 3 3 0
	callq	_ZN3std9panicking11begin_panic17hecd1e890c84fa976E
	ud2
.Ltmp21:
.Lfunc_end1:
	.seh_handlerdata
	.section	.text,"xr",one_only,_ZN38_$LT$sdl2..render..Canvas$LT$T$GT$$GT$14set_draw_color17ha1f3de5ffac9bc12E
.Lcfi11:
	.seh_endproc

	.def	 _ZN38_$LT$sdl2..render..Canvas$LT$T$GT$$GT$9draw_line17h4436f1769420c747E;
	.scl	2;
	.type	32;
	.endef
	.section	.text,"xr",one_only,_ZN38_$LT$sdl2..render..Canvas$LT$T$GT$$GT$9draw_line17h4436f1769420c747E
	.globl	_ZN38_$LT$sdl2..render..Canvas$LT$T$GT$$GT$9draw_line17h4436f1769420c747E
	.p2align	4, 0x90
_ZN38_$LT$sdl2..render..Canvas$LT$T$GT$$GT$9draw_line17h4436f1769420c747E:
.Lfunc_begin2:
	.cv_func_id 4
	.cv_loc	4 1 1041 0
.Lcfi12:
.seh_proc _ZN38_$LT$sdl2..render..Canvas$LT$T$GT$$GT$9draw_line17h4436f1769420c747E
	.seh_handler __CxxFrameHandler3, @unwind, @except
	pushq	%rbp
.Lcfi13:
	.seh_pushreg 5
	subq	$208, %rsp
.Lcfi14:
	.seh_stackalloc 208
	leaq	128(%rsp), %rbp
.Lcfi15:
	.seh_setframe 5, 128
.Lcfi16:
	.seh_endprologue
	movq	$-2, 72(%rbp)
	movq	%rcx, %rax
	movl	136(%rbp), %r10d
	movl	128(%rbp), %r11d
	movq	%rdx, -24(%rbp)
	movl	%r8d, -16(%rbp)
	movl	%r9d, -12(%rbp)
	movl	%r11d, -8(%rbp)
	movl	%r10d, -4(%rbp)
.Ltmp38:
	.cv_loc	4 1 1045 0
	movb	$0, 55(%rbp)
	movb	$1, 55(%rbp)
	movl	-16(%rbp), %r8d
	movl	-12(%rbp), %edx
.Ltmp22:
	movq	%rcx, -32(%rbp)
	movl	%r8d, %ecx
	movq	%rax, -40(%rbp)
	callq	_ZN50_$LT$T$u20$as$u20$core..convert..Into$LT$U$GT$$GT$4into17h64744336e527990dE
.Ltmp23:
	movl	%edx, -44(%rbp)
	movl	%eax, -48(%rbp)
	jmp	.LBB2_2
.Ltmp39:
.LBB2_2:
	movl	-48(%rbp), %eax
	movl	%eax, (%rbp)
	movl	-44(%rbp), %ecx
	movl	%ecx, 4(%rbp)
.Ltmp40:
	.cv_loc	4 1 1046 0
	movb	$0, 55(%rbp)
	movl	-8(%rbp), %ecx
	movl	-4(%rbp), %edx
.Ltmp24:
	callq	_ZN50_$LT$T$u20$as$u20$core..convert..Into$LT$U$GT$$GT$4into17h64744336e527990dE
.Ltmp25:
	movl	%edx, -52(%rbp)
	movl	%eax, -56(%rbp)
	jmp	.LBB2_3
.Ltmp41:
.LBB2_3:
	movl	-56(%rbp), %eax
	movl	%eax, 8(%rbp)
	movl	-52(%rbp), %ecx
	movl	%ecx, 12(%rbp)
.Ltmp42:
	.cv_loc	4 1 1048 0
	movq	-24(%rbp), %rdx
	addq	$8, %rdx
	movq	%rdx, 56(%rbp)
.Ltmp43:
	.cv_inline_site_id 5 within 4 inlined_at 1 1048 0
	.cv_loc	5 2 802 0
	movq	56(%rbp), %rdx
	movq	%rdx, 64(%rbp)
.Ltmp44:
	.cv_inline_site_id 6 within 5 inlined_at 2 802 0
	.cv_loc	6 2 1377 0
	movq	64(%rbp), %rcx
.Ltmp26:
	callq	_ZN36_$LT$core..ptr..NonNull$LT$T$GT$$GT$6as_ref17h1190cb24cc04b005E
.Ltmp27:
	movq	%rax, -64(%rbp)
	jmp	.LBB2_4
.Ltmp45:
.LBB2_4:
	.cv_loc	4 1 1048 0
	movq	-64(%rbp), %rax
	movq	16(%rax), %rcx
.Ltmp28:
	movq	%rbp, %rdx
	movq	%rcx, -72(%rbp)
	movq	%rdx, %rcx
	callq	_ZN4sdl24rect5Point1x17h43cd8ebaa107244fE
.Ltmp29:
	movl	%eax, -76(%rbp)
	jmp	.LBB2_5
.Ltmp46:
.LBB2_5:
.Ltmp30:
	movq	%rbp, %rcx
	callq	_ZN4sdl24rect5Point1y17h442377c40ddbdb8cE
.Ltmp31:
	movl	%eax, -80(%rbp)
	jmp	.LBB2_6
.Ltmp47:
.LBB2_6:
.Ltmp32:
	leaq	8(%rbp), %rcx
	callq	_ZN4sdl24rect5Point1x17h43cd8ebaa107244fE
.Ltmp33:
	movl	%eax, -84(%rbp)
	jmp	.LBB2_7
.Ltmp48:
.LBB2_7:
.Ltmp34:
	leaq	8(%rbp), %rcx
	callq	_ZN4sdl24rect5Point1y17h442377c40ddbdb8cE
.Ltmp35:
	movl	%eax, -88(%rbp)
	jmp	.LBB2_8
.Ltmp49:
.LBB2_8:
	movq	-72(%rbp), %rcx
	movl	-76(%rbp), %edx
	movl	-80(%rbp), %r8d
	movl	-84(%rbp), %r9d
	movl	-88(%rbp), %eax
	movl	%eax, 32(%rsp)
	callq	SDL_RenderDrawLine
	movl	%eax, 20(%rbp)
.Ltmp50:
	.cv_loc	4 1 1050 0
	cmpl	$0, 20(%rbp)
	je	.LBB2_10
.Ltmp51:
	.cv_loc	4 1 1051 0
.Ltmp36:
	leaq	24(%rbp), %rcx
	callq	_ZN4sdl23sdl9get_error17h3db0674b72dfcaa2E
.Ltmp37:
	jmp	.LBB2_11
.Ltmp52:
.LBB2_10:
	.cv_loc	4 1 1053 0
	movq	-32(%rbp), %rax
	movq	$0, (%rax)
	.cv_loc	4 1 1050 0
	jmp	.LBB2_12
.Ltmp53:
.LBB2_11:
	.cv_loc	4 1 1051 0
	movq	24(%rbp), %rax
	movq	-32(%rbp), %rcx
	movq	%rax, (%rcx)
	movq	32(%rbp), %rax
	movq	%rax, 8(%rcx)
	movq	40(%rbp), %rax
	movq	%rax, 16(%rcx)
.Ltmp54:
.LBB2_12:
	.cv_loc	4 1 1055 0
	movq	-40(%rbp), %rax
	addq	$208, %rsp
	popq	%rbp
.Ltmp55:
	retq
.LBB2_1:
	.cv_loc	4 1 1041 0
	addq	$48, %rsp
	popq	%rbp
	retq
.LBB2_13:
	.cv_loc	4 1 1055 0
	movb	$0, 55(%rbp)
	jmp	.LBB2_1
	.seh_handlerdata
	.long	($cppxdata$_ZN38_$LT$sdl2..render..Canvas$LT$T$GT$$GT$9draw_line17h4436f1769420c747E)@IMGREL
	.section	.text,"xr",one_only,_ZN38_$LT$sdl2..render..Canvas$LT$T$GT$$GT$9draw_line17h4436f1769420c747E
.Lcfi17:
	.seh_endproc
	.def	 "?dtor$14@?0?_ZN38_$LT$sdl2..render..Canvas$LT$T$GT$$GT$9draw_line17h4436f1769420c747E@4HA";
	.scl	3;
	.type	32;
	.endef
	.p2align	4, 0x90
"?dtor$14@?0?_ZN38_$LT$sdl2..render..Canvas$LT$T$GT$$GT$9draw_line17h4436f1769420c747E@4HA":
.Lcfi18:
.seh_proc "?dtor$14@?0?_ZN38_$LT$sdl2..render..Canvas$LT$T$GT$$GT$9draw_line17h4436f1769420c747E@4HA"
.LBB2_14:
	movq	%rdx, 16(%rsp)
	pushq	%rbp
.Lcfi19:
	.seh_pushreg 5
	subq	$48, %rsp
.Lcfi20:
	.seh_stackalloc 48
	leaq	128(%rdx), %rbp
.Lcfi21:
	.seh_endprologue
	testb	$1, 55(%rbp)
	jne	.LBB2_13
	jmp	.LBB2_1
.Ltmp56:
.Lfunc_end2:
	.seh_handlerdata
	.section	.text,"xr",one_only,_ZN38_$LT$sdl2..render..Canvas$LT$T$GT$$GT$9draw_line17h4436f1769420c747E
.Lcfi22:
	.seh_endproc
	.section	.xdata,"dr",associative,_ZN38_$LT$sdl2..render..Canvas$LT$T$GT$$GT$9draw_line17h4436f1769420c747E
	.p2align	2
$cppxdata$_ZN38_$LT$sdl2..render..Canvas$LT$T$GT$$GT$9draw_line17h4436f1769420c747E:
	.long	429065506
	.long	1
	.long	($stateUnwindMap$_ZN38_$LT$sdl2..render..Canvas$LT$T$GT$$GT$9draw_line17h4436f1769420c747E)@IMGREL
	.long	0
	.long	0
	.long	3
	.long	($ip2state$_ZN38_$LT$sdl2..render..Canvas$LT$T$GT$$GT$9draw_line17h4436f1769420c747E)@IMGREL
	.long	200
	.long	0
	.long	1
$stateUnwindMap$_ZN38_$LT$sdl2..render..Canvas$LT$T$GT$$GT$9draw_line17h4436f1769420c747E:
	.long	-1
	.long	"?dtor$14@?0?_ZN38_$LT$sdl2..render..Canvas$LT$T$GT$$GT$9draw_line17h4436f1769420c747E@4HA"@IMGREL
$ip2state$_ZN38_$LT$sdl2..render..Canvas$LT$T$GT$$GT$9draw_line17h4436f1769420c747E:
	.long	.Lfunc_begin2@IMGREL
	.long	-1
	.long	.Ltmp22@IMGREL+1
	.long	0
	.long	.Ltmp37@IMGREL+1
	.long	-1
	.section	.text,"xr",one_only,_ZN38_$LT$sdl2..render..Canvas$LT$T$GT$$GT$9draw_line17h4436f1769420c747E

	.def	 _ZN38_$LT$sdl2..render..Canvas$LT$T$GT$$GT$9draw_rect17ha9498369d395c7f4E;
	.scl	2;
	.type	32;
	.endef
	.section	.text,"xr",one_only,_ZN38_$LT$sdl2..render..Canvas$LT$T$GT$$GT$9draw_rect17ha9498369d395c7f4E
	.globl	_ZN38_$LT$sdl2..render..Canvas$LT$T$GT$$GT$9draw_rect17ha9498369d395c7f4E
	.p2align	4, 0x90
_ZN38_$LT$sdl2..render..Canvas$LT$T$GT$$GT$9draw_rect17ha9498369d395c7f4E:
.Lfunc_begin3:
	.cv_func_id 7
	.cv_loc	7 1 1075 0
.Lcfi23:
.seh_proc _ZN38_$LT$sdl2..render..Canvas$LT$T$GT$$GT$9draw_rect17ha9498369d395c7f4E
	pushq	%rbp
.Lcfi24:
	.seh_pushreg 5
	subq	$144, %rsp
.Lcfi25:
	.seh_stackalloc 144
	leaq	128(%rsp), %rbp
.Lcfi26:
	.seh_setframe 5, 128
.Lcfi27:
	.seh_endprologue
	movq	%rcx, %rax
	movq	%rdx, -40(%rbp)
.Ltmp57:
	.cv_loc	7 1 1076 0
	movq	-40(%rbp), %rdx
	addq	$8, %rdx
	movq	%rdx, (%rbp)
.Ltmp58:
	.cv_inline_site_id 8 within 7 inlined_at 1 1076 0
	.cv_loc	8 2 802 0
	movq	(%rbp), %rdx
	movq	%rdx, 8(%rbp)
.Ltmp59:
	.cv_inline_site_id 9 within 8 inlined_at 2 802 0
	.cv_loc	9 2 1377 0
	movq	8(%rbp), %rdx
	movq	%rcx, -48(%rbp)
	movq	%rdx, %rcx
	movq	%rax, -56(%rbp)
	movq	%r8, -64(%rbp)
.Ltmp60:
	callq	_ZN36_$LT$core..ptr..NonNull$LT$T$GT$$GT$6as_ref17h1190cb24cc04b005E
.Ltmp61:
	.cv_loc	8 2 802 0
	addq	$16, %rax
	movq	%rax, -72(%rbp)
.Ltmp62:
	.cv_loc	7 1 1076 0
	movq	-72(%rbp), %rax
	movq	(%rax), %rcx
	movq	-64(%rbp), %rdx
	movq	%rcx, -80(%rbp)
	movq	%rdx, %rcx
	callq	_ZN4sdl24rect4Rect3raw17h851006e8f1581494E
	movq	%rax, -88(%rbp)
.Ltmp63:
	movq	-80(%rbp), %rcx
	movq	-88(%rbp), %rdx
	callq	SDL_RenderDrawRect
	movl	%eax, -28(%rbp)
.Ltmp64:
	.cv_loc	7 1 1077 0
	cmpl	$0, -28(%rbp)
	je	.LBB3_5
.Ltmp65:
	leaq	-24(%rbp), %rcx
	.cv_loc	7 1 1078 0
	callq	_ZN4sdl23sdl9get_error17h3db0674b72dfcaa2E
	jmp	.LBB3_6
.Ltmp66:
.LBB3_5:
	.cv_loc	7 1 1080 0
	movq	-48(%rbp), %rax
	movq	$0, (%rax)
	.cv_loc	7 1 1077 0
	jmp	.LBB3_7
.Ltmp67:
.LBB3_6:
	.cv_loc	7 1 1078 0
	movq	-24(%rbp), %rax
	movq	-48(%rbp), %rcx
	movq	%rax, (%rcx)
	movq	-16(%rbp), %rax
	movq	%rax, 8(%rcx)
	movq	-8(%rbp), %rax
	movq	%rax, 16(%rcx)
.Ltmp68:
.LBB3_7:
	.cv_loc	7 1 1082 0
	movq	-56(%rbp), %rax
	addq	$144, %rsp
	popq	%rbp
.Ltmp69:
	retq
.Ltmp70:
.Lfunc_end3:
	.seh_handlerdata
	.section	.text,"xr",one_only,_ZN38_$LT$sdl2..render..Canvas$LT$T$GT$$GT$9draw_rect17ha9498369d395c7f4E
.Lcfi28:
	.seh_endproc

	.def	 _ZN38_$LT$sdl2..render..Canvas$LT$T$GT$$GT$9fill_rect17hf13f44ff9bf9629fE;
	.scl	2;
	.type	32;
	.endef
	.section	.text,"xr",one_only,_ZN38_$LT$sdl2..render..Canvas$LT$T$GT$$GT$9fill_rect17hf13f44ff9bf9629fE
	.globl	_ZN38_$LT$sdl2..render..Canvas$LT$T$GT$$GT$9fill_rect17hf13f44ff9bf9629fE
	.p2align	4, 0x90
_ZN38_$LT$sdl2..render..Canvas$LT$T$GT$$GT$9fill_rect17hf13f44ff9bf9629fE:
.Lfunc_begin4:
	.cv_func_id 10
	.cv_loc	10 1 1103 0
.Lcfi29:
.seh_proc _ZN38_$LT$sdl2..render..Canvas$LT$T$GT$$GT$9fill_rect17hf13f44ff9bf9629fE
	.seh_handler __CxxFrameHandler3, @unwind, @except
	pushq	%rbp
.Lcfi30:
	.seh_pushreg 5
	subq	$240, %rsp
.Lcfi31:
	.seh_stackalloc 240
	leaq	128(%rsp), %rbp
.Lcfi32:
	.seh_setframe 5, 128
.Lcfi33:
	.seh_endprologue
	movq	$-2, 104(%rbp)
	movq	%rcx, %rax
	movq	%rdx, -24(%rbp)
.Ltmp85:
	.cv_loc	10 1 1104 0
	movb	$0, 87(%rbp)
	movb	$1, 87(%rbp)
.Ltmp86:
	.cv_loc	10 1 1105 0
	movq	-24(%rbp), %rdx
	addq	$8, %rdx
	movq	%rdx, 88(%rbp)
.Ltmp87:
	.cv_inline_site_id 11 within 10 inlined_at 1 1105 0
	.cv_loc	11 2 802 0
	movq	88(%rbp), %rdx
	movq	%rdx, 96(%rbp)
.Ltmp88:
	.cv_inline_site_id 12 within 11 inlined_at 2 802 0
	.cv_loc	12 2 1377 0
	movq	96(%rbp), %rdx
.Ltmp71:
	movq	%rcx, -32(%rbp)
	movq	%rdx, %rcx
	movq	%rax, -40(%rbp)
	movq	%r8, -48(%rbp)
.Ltmp89:
	callq	_ZN36_$LT$core..ptr..NonNull$LT$T$GT$$GT$6as_ref17h1190cb24cc04b005E
.Ltmp72:
	movq	%rax, -56(%rbp)
	jmp	.LBB4_1
.Ltmp90:
.LBB4_1:
	.cv_loc	10 1 1105 0
	movq	-56(%rbp), %rax
	movq	16(%rax), %rcx
	.cv_loc	10 1 1106 0
	movb	$0, 87(%rbp)
	movq	-48(%rbp), %rdx
	movups	(%rdx), %xmm0
	movaps	%xmm0, 32(%rbp)
.Ltmp73:
	leaq	8(%rbp), %r8
	leaq	32(%rbp), %rdx
	movq	%rcx, -64(%rbp)
	movq	%r8, %rcx
	callq	_ZN50_$LT$T$u20$as$u20$core..convert..Into$LT$U$GT$$GT$4into17h0c0122f485ed3fa7E
.Ltmp74:
	jmp	.LBB4_3
.Ltmp91:
.LBB4_3:
.Ltmp75:
	leaq	8(%rbp), %rcx
	callq	_ZN38_$LT$core..option..Option$LT$T$GT$$GT$6as_ref17h976aac3cda136c4bE
.Ltmp76:
	movq	%rax, -72(%rbp)
	jmp	.LBB4_4
.Ltmp92:
.LBB4_4:
.Ltmp77:
	leaq	-8(%rbp), %rcx
	movq	-72(%rbp), %rdx
	callq	_ZN38_$LT$core..option..Option$LT$T$GT$$GT$3map17ha8ea4e4544920cedE
.Ltmp78:
	jmp	.LBB4_5
.Ltmp93:
.LBB4_5:
	.cv_loc	10 1 1109 0
.Ltmp79:
	callq	_ZN4core3ptr4null17h812594e02d3b2588E
.Ltmp80:
	movq	%rax, -80(%rbp)
	jmp	.LBB4_6
.Ltmp94:
.LBB4_6:
	.cv_loc	10 1 1106 0
.Ltmp81:
	leaq	-8(%rbp), %rcx
	movq	-80(%rbp), %rdx
	callq	_ZN38_$LT$core..option..Option$LT$T$GT$$GT$9unwrap_or17h3fb47e26adfdb868E
.Ltmp82:
	movq	%rax, -88(%rbp)
	jmp	.LBB4_7
.Ltmp95:
.LBB4_7:
	.cv_loc	10 1 1105 0
	movq	-64(%rbp), %rcx
	movq	-88(%rbp), %rdx
	callq	SDL_RenderFillRect
	movl	%eax, -12(%rbp)
.Ltmp96:
	.cv_loc	10 1 1111 0
	cmpl	$0, -12(%rbp)
	je	.LBB4_9
.Ltmp97:
	.cv_loc	10 1 1112 0
.Ltmp83:
	leaq	56(%rbp), %rcx
	callq	_ZN4sdl23sdl9get_error17h3db0674b72dfcaa2E
.Ltmp84:
	jmp	.LBB4_10
.Ltmp98:
.LBB4_9:
	.cv_loc	10 1 1114 0
	movq	-32(%rbp), %rax
	movq	$0, (%rax)
	.cv_loc	10 1 1111 0
	jmp	.LBB4_11
.Ltmp99:
.LBB4_10:
	.cv_loc	10 1 1112 0
	movq	56(%rbp), %rax
	movq	-32(%rbp), %rcx
	movq	%rax, (%rcx)
	movq	64(%rbp), %rax
	movq	%rax, 8(%rcx)
	movq	72(%rbp), %rax
	movq	%rax, 16(%rcx)
.Ltmp100:
.LBB4_11:
	.cv_loc	10 1 1116 0
	movq	-40(%rbp), %rax
	addq	$240, %rsp
	popq	%rbp
.Ltmp101:
	retq
.LBB4_2:
	.cv_loc	10 1 1103 0
	addq	$32, %rsp
	popq	%rbp
	retq
.LBB4_12:
	.cv_loc	10 1 1116 0
	movb	$0, 87(%rbp)
	jmp	.LBB4_2
	.seh_handlerdata
	.long	($cppxdata$_ZN38_$LT$sdl2..render..Canvas$LT$T$GT$$GT$9fill_rect17hf13f44ff9bf9629fE)@IMGREL
	.section	.text,"xr",one_only,_ZN38_$LT$sdl2..render..Canvas$LT$T$GT$$GT$9fill_rect17hf13f44ff9bf9629fE
.Lcfi34:
	.seh_endproc
	.def	 "?dtor$13@?0?_ZN38_$LT$sdl2..render..Canvas$LT$T$GT$$GT$9fill_rect17hf13f44ff9bf9629fE@4HA";
	.scl	3;
	.type	32;
	.endef
	.p2align	4, 0x90
"?dtor$13@?0?_ZN38_$LT$sdl2..render..Canvas$LT$T$GT$$GT$9fill_rect17hf13f44ff9bf9629fE@4HA":
.Lcfi35:
.seh_proc "?dtor$13@?0?_ZN38_$LT$sdl2..render..Canvas$LT$T$GT$$GT$9fill_rect17hf13f44ff9bf9629fE@4HA"
.LBB4_13:
	movq	%rdx, 16(%rsp)
	pushq	%rbp
.Lcfi36:
	.seh_pushreg 5
	subq	$32, %rsp
.Lcfi37:
	.seh_stackalloc 32
	leaq	128(%rdx), %rbp
.Lcfi38:
	.seh_endprologue
	testb	$1, 87(%rbp)
	jne	.LBB4_12
	jmp	.LBB4_2
.Ltmp102:
.Lfunc_end4:
	.seh_handlerdata
	.section	.text,"xr",one_only,_ZN38_$LT$sdl2..render..Canvas$LT$T$GT$$GT$9fill_rect17hf13f44ff9bf9629fE
.Lcfi39:
	.seh_endproc
	.section	.xdata,"dr",associative,_ZN38_$LT$sdl2..render..Canvas$LT$T$GT$$GT$9fill_rect17hf13f44ff9bf9629fE
	.p2align	2
$cppxdata$_ZN38_$LT$sdl2..render..Canvas$LT$T$GT$$GT$9fill_rect17hf13f44ff9bf9629fE:
	.long	429065506
	.long	1
	.long	($stateUnwindMap$_ZN38_$LT$sdl2..render..Canvas$LT$T$GT$$GT$9fill_rect17hf13f44ff9bf9629fE)@IMGREL
	.long	0
	.long	0
	.long	3
	.long	($ip2state$_ZN38_$LT$sdl2..render..Canvas$LT$T$GT$$GT$9fill_rect17hf13f44ff9bf9629fE)@IMGREL
	.long	232
	.long	0
	.long	1
$stateUnwindMap$_ZN38_$LT$sdl2..render..Canvas$LT$T$GT$$GT$9fill_rect17hf13f44ff9bf9629fE:
	.long	-1
	.long	"?dtor$13@?0?_ZN38_$LT$sdl2..render..Canvas$LT$T$GT$$GT$9fill_rect17hf13f44ff9bf9629fE@4HA"@IMGREL
$ip2state$_ZN38_$LT$sdl2..render..Canvas$LT$T$GT$$GT$9fill_rect17hf13f44ff9bf9629fE:
	.long	.Lfunc_begin4@IMGREL
	.long	-1
	.long	.Ltmp71@IMGREL+1
	.long	0
	.long	.Ltmp84@IMGREL+1
	.long	-1
	.section	.text,"xr",one_only,_ZN38_$LT$sdl2..render..Canvas$LT$T$GT$$GT$9fill_rect17hf13f44ff9bf9629fE

	.def	 _ZN38_$LT$sdl2..render..Canvas$LT$T$GT$$GT$9fill_rect28_$u7b$$u7b$closure$u7d$$u7d$17h24fbd5b2d8158cbdE;
	.scl	2;
	.type	32;
	.endef
	.section	.text,"xr",one_only,_ZN38_$LT$sdl2..render..Canvas$LT$T$GT$$GT$9fill_rect28_$u7b$$u7b$closure$u7d$$u7d$17h24fbd5b2d8158cbdE
	.globl	_ZN38_$LT$sdl2..render..Canvas$LT$T$GT$$GT$9fill_rect28_$u7b$$u7b$closure$u7d$$u7d$17h24fbd5b2d8158cbdE
	.p2align	4, 0x90
_ZN38_$LT$sdl2..render..Canvas$LT$T$GT$$GT$9fill_rect28_$u7b$$u7b$closure$u7d$$u7d$17h24fbd5b2d8158cbdE:
.Lfunc_begin5:
	.cv_func_id 13
	.cv_loc	13 1 1108 0
.Lcfi40:
.seh_proc _ZN38_$LT$sdl2..render..Canvas$LT$T$GT$$GT$9fill_rect28_$u7b$$u7b$closure$u7d$$u7d$17h24fbd5b2d8158cbdE
	pushq	%rbp
.Lcfi41:
	.seh_pushreg 5
	subq	$64, %rsp
.Lcfi42:
	.seh_stackalloc 64
	leaq	64(%rsp), %rbp
.Lcfi43:
	.seh_setframe 5, 64
.Lcfi44:
	.seh_endprologue
	movq	%rcx, -8(%rbp)
.Ltmp103:
	movq	-8(%rbp), %rcx
	callq	_ZN4sdl24rect4Rect3raw17h851006e8f1581494E
	movq	%rax, -24(%rbp)
	movq	-24(%rbp), %rax
	addq	$64, %rsp
	popq	%rbp
	retq
.Ltmp104:
.Lfunc_end5:
	.seh_handlerdata
	.section	.text,"xr",one_only,_ZN38_$LT$sdl2..render..Canvas$LT$T$GT$$GT$9fill_rect28_$u7b$$u7b$closure$u7d$$u7d$17h24fbd5b2d8158cbdE
.Lcfi45:
	.seh_endproc

	.def	 _ZN73_$LT$sdl2..render..Canvas$LT$T$GT$$u20$as$u20$core..ops..deref..Deref$GT$5deref17h1667166654b25d3bE;
	.scl	3;
	.type	32;
	.endef
	.section	.text,"xr",one_only,_ZN73_$LT$sdl2..render..Canvas$LT$T$GT$$u20$as$u20$core..ops..deref..Deref$GT$5deref17h1667166654b25d3bE
	.p2align	4, 0x90
_ZN73_$LT$sdl2..render..Canvas$LT$T$GT$$u20$as$u20$core..ops..deref..Deref$GT$5deref17h1667166654b25d3bE:
.Lfunc_begin6:
	.cv_func_id 14
	.cv_loc	14 1 240 0
.Lcfi46:
.seh_proc _ZN73_$LT$sdl2..render..Canvas$LT$T$GT$$u20$as$u20$core..ops..deref..Deref$GT$5deref17h1667166654b25d3bE
	pushq	%rbp
.Lcfi47:
	.seh_pushreg 5
	subq	$48, %rsp
.Lcfi48:
	.seh_stackalloc 48
	leaq	48(%rsp), %rbp
.Lcfi49:
	.seh_setframe 5, 48
.Lcfi50:
	.seh_endprologue
	movq	%rcx, -8(%rbp)
.Ltmp105:
	.cv_loc	14 1 241 0
	movq	-8(%rbp), %rcx
	addq	$8, %rcx
	callq	_ZN72_$LT$alloc..rc..Rc$LT$T$GT$$u20$as$u20$core..convert..AsRef$LT$T$GT$$GT$6as_ref17hc415fe0dfe8f3c33E
	movq	%rax, -16(%rbp)
	.cv_loc	14 1 242 0
	movq	-16(%rbp), %rax
	addq	$48, %rsp
	popq	%rbp
	retq
.Ltmp106:
.Lfunc_end6:
	.seh_handlerdata
	.section	.text,"xr",one_only,_ZN73_$LT$sdl2..render..Canvas$LT$T$GT$$u20$as$u20$core..ops..deref..Deref$GT$5deref17h1667166654b25d3bE
.Lcfi51:
	.seh_endproc

	.section	.rdata,"dr",one_only,str.0
	.p2align	4
str.0:
	.ascii	"C:\\Users\\Zack\\.cargo\\registry\\src\\github.com-1ecc6299db9ec823\\sdl2-0.30.0\\src/sdl2\\render.rs"

	.section	.rdata,"dr",one_only,ref.1
	.p2align	3
ref.1:
	.quad	str.0
	.quad	92
	.long	851
	.long	13

	.section	.rdata,"dr",one_only,const.2
	.p2align	3
const.2:
	.quad	ref.1
