	.text
	.def	 _ZN101_$LT$core..ptr..NonNull$LT$T$GT$$u20$as$u20$core..convert..From$LT$core..ptr..Unique$LT$T$GT$$GT$$GT$4from17h1359ad18d0f1b263E;
	.scl	3;
	.type	32;
	.endef
	.section	.text,"xr",one_only,_ZN101_$LT$core..ptr..NonNull$LT$T$GT$$u20$as$u20$core..convert..From$LT$core..ptr..Unique$LT$T$GT$$GT$$GT$4from17h1359ad18d0f1b263E
	.p2align	4, 0x90
_ZN101_$LT$core..ptr..NonNull$LT$T$GT$$u20$as$u20$core..convert..From$LT$core..ptr..Unique$LT$T$GT$$GT$$GT$4from17h1359ad18d0f1b263E:
.Lfunc_begin0:
	.cv_func_id 0
	.cv_file	1 "C:\\projects\\rust\\src\\libcore\\ptr.rs"
	.cv_loc	0 1 2587 0 is_stmt 0
.Lcfi0:
.seh_proc _ZN101_$LT$core..ptr..NonNull$LT$T$GT$$u20$as$u20$core..convert..From$LT$core..ptr..Unique$LT$T$GT$$GT$$GT$4from17h1359ad18d0f1b263E
	pushq	%rbp
.Lcfi1:
	.seh_pushreg 5
	subq	$16, %rsp
.Lcfi2:
	.seh_stackalloc 16
	leaq	16(%rsp), %rbp
.Lcfi3:
	.seh_setframe 5, 16
.Lcfi4:
	.seh_endprologue
	movq	%rcx, -16(%rbp)
.Ltmp0:
	.cv_loc	0 1 2588 0
	movq	-16(%rbp), %rcx
	movq	%rcx, -8(%rbp)
	.cv_loc	0 1 2589 0
	movq	-8(%rbp), %rax
	addq	$16, %rsp
	popq	%rbp
	retq
.Ltmp1:
.Lfunc_end0:
	.seh_handlerdata
	.section	.text,"xr",one_only,_ZN101_$LT$core..ptr..NonNull$LT$T$GT$$u20$as$u20$core..convert..From$LT$core..ptr..Unique$LT$T$GT$$GT$$GT$4from17h1359ad18d0f1b263E
.Lcfi5:
	.seh_endproc

	.def	 _ZN101_$LT$core..ptr..NonNull$LT$T$GT$$u20$as$u20$core..convert..From$LT$core..ptr..Unique$LT$T$GT$$GT$$GT$4from17hb727782b9ee05a51E;
	.scl	3;
	.type	32;
	.endef
	.section	.text,"xr",one_only,_ZN101_$LT$core..ptr..NonNull$LT$T$GT$$u20$as$u20$core..convert..From$LT$core..ptr..Unique$LT$T$GT$$GT$$GT$4from17hb727782b9ee05a51E
	.p2align	4, 0x90
_ZN101_$LT$core..ptr..NonNull$LT$T$GT$$u20$as$u20$core..convert..From$LT$core..ptr..Unique$LT$T$GT$$GT$$GT$4from17hb727782b9ee05a51E:
.Lfunc_begin1:
	.cv_func_id 1
	.cv_loc	1 1 2587 0
.Lcfi6:
.seh_proc _ZN101_$LT$core..ptr..NonNull$LT$T$GT$$u20$as$u20$core..convert..From$LT$core..ptr..Unique$LT$T$GT$$GT$$GT$4from17hb727782b9ee05a51E
	pushq	%rbp
.Lcfi7:
	.seh_pushreg 5
	subq	$16, %rsp
.Lcfi8:
	.seh_stackalloc 16
	leaq	16(%rsp), %rbp
.Lcfi9:
	.seh_setframe 5, 16
.Lcfi10:
	.seh_endprologue
	movq	%rcx, -16(%rbp)
.Ltmp2:
	.cv_loc	1 1 2588 0
	movq	-16(%rbp), %rcx
	movq	%rcx, -8(%rbp)
	.cv_loc	1 1 2589 0
	movq	-8(%rbp), %rax
	addq	$16, %rsp
	popq	%rbp
	retq
.Ltmp3:
.Lfunc_end1:
	.seh_handlerdata
	.section	.text,"xr",one_only,_ZN101_$LT$core..ptr..NonNull$LT$T$GT$$u20$as$u20$core..convert..From$LT$core..ptr..Unique$LT$T$GT$$GT$$GT$4from17hb727782b9ee05a51E
.Lcfi11:
	.seh_endproc

	.def	 _ZN101_$LT$core..ptr..Unique$LT$T$GT$$u20$as$u20$core..convert..From$LT$core..ptr..NonNull$LT$T$GT$$GT$$GT$4from17hdd28f1c8936d31a1E;
	.scl	3;
	.type	32;
	.endef
	.section	.text,"xr",one_only,_ZN101_$LT$core..ptr..Unique$LT$T$GT$$u20$as$u20$core..convert..From$LT$core..ptr..NonNull$LT$T$GT$$GT$$GT$4from17hdd28f1c8936d31a1E
	.p2align	4, 0x90
_ZN101_$LT$core..ptr..Unique$LT$T$GT$$u20$as$u20$core..convert..From$LT$core..ptr..NonNull$LT$T$GT$$GT$$GT$4from17hdd28f1c8936d31a1E:
.Lfunc_begin2:
	.cv_func_id 2
	.cv_loc	2 1 2458 0
.Lcfi12:
.seh_proc _ZN101_$LT$core..ptr..Unique$LT$T$GT$$u20$as$u20$core..convert..From$LT$core..ptr..NonNull$LT$T$GT$$GT$$GT$4from17hdd28f1c8936d31a1E
	pushq	%rbp
.Lcfi13:
	.seh_pushreg 5
	subq	$16, %rsp
.Lcfi14:
	.seh_stackalloc 16
	leaq	16(%rsp), %rbp
.Lcfi15:
	.seh_setframe 5, 16
.Lcfi16:
	.seh_endprologue
	movq	%rcx, -16(%rbp)
.Ltmp4:
	.cv_loc	2 1 2459 0
	movq	-16(%rbp), %rcx
	movq	%rcx, -8(%rbp)
	.cv_loc	2 1 2460 0
	movq	-8(%rbp), %rax
	addq	$16, %rsp
	popq	%rbp
	retq
.Ltmp5:
.Lfunc_end2:
	.seh_handlerdata
	.section	.text,"xr",one_only,_ZN101_$LT$core..ptr..Unique$LT$T$GT$$u20$as$u20$core..convert..From$LT$core..ptr..NonNull$LT$T$GT$$GT$$GT$4from17hdd28f1c8936d31a1E
.Lcfi17:
	.seh_endproc

	.def	 _ZN35_$LT$core..ptr..Unique$LT$T$GT$$GT$13new_unchecked17h5c77a5dcbcad0691E;
	.scl	2;
	.type	32;
	.endef
	.section	.text,"xr",one_only,_ZN35_$LT$core..ptr..Unique$LT$T$GT$$GT$13new_unchecked17h5c77a5dcbcad0691E
	.globl	_ZN35_$LT$core..ptr..Unique$LT$T$GT$$GT$13new_unchecked17h5c77a5dcbcad0691E
	.p2align	4, 0x90
_ZN35_$LT$core..ptr..Unique$LT$T$GT$$GT$13new_unchecked17h5c77a5dcbcad0691E:
.Lfunc_begin3:
	.cv_func_id 3
	.cv_loc	3 1 2389 0
.Lcfi18:
.seh_proc _ZN35_$LT$core..ptr..Unique$LT$T$GT$$GT$13new_unchecked17h5c77a5dcbcad0691E
	pushq	%rbp
.Lcfi19:
	.seh_pushreg 5
	subq	$64, %rsp
.Lcfi20:
	.seh_stackalloc 64
	leaq	64(%rsp), %rbp
.Lcfi21:
	.seh_setframe 5, 64
.Lcfi22:
	.seh_endprologue
	movq	%rcx, -16(%rbp)
.Ltmp6:
	.cv_loc	3 1 2390 0
	movq	-16(%rbp), %rcx
	callq	_ZN40_$LT$core..nonzero..NonZero$LT$T$GT$$GT$13new_unchecked17he4852267727e2a25E
	movq	%rax, -24(%rbp)
	movq	-24(%rbp), %rax
	movq	%rax, -8(%rbp)
	.cv_loc	3 1 2391 0
	movq	-8(%rbp), %rax
	addq	$64, %rsp
	popq	%rbp
	retq
.Ltmp7:
.Lfunc_end3:
	.seh_handlerdata
	.section	.text,"xr",one_only,_ZN35_$LT$core..ptr..Unique$LT$T$GT$$GT$13new_unchecked17h5c77a5dcbcad0691E
.Lcfi23:
	.seh_endproc

	.def	 _ZN35_$LT$core..ptr..Unique$LT$T$GT$$GT$13new_unchecked17h9ab81edf380fb13cE;
	.scl	2;
	.type	32;
	.endef
	.section	.text,"xr",one_only,_ZN35_$LT$core..ptr..Unique$LT$T$GT$$GT$13new_unchecked17h9ab81edf380fb13cE
	.globl	_ZN35_$LT$core..ptr..Unique$LT$T$GT$$GT$13new_unchecked17h9ab81edf380fb13cE
	.p2align	4, 0x90
_ZN35_$LT$core..ptr..Unique$LT$T$GT$$GT$13new_unchecked17h9ab81edf380fb13cE:
.Lfunc_begin4:
	.cv_func_id 4
	.cv_loc	4 1 2389 0
.Lcfi24:
.seh_proc _ZN35_$LT$core..ptr..Unique$LT$T$GT$$GT$13new_unchecked17h9ab81edf380fb13cE
	pushq	%rbp
.Lcfi25:
	.seh_pushreg 5
	subq	$64, %rsp
.Lcfi26:
	.seh_stackalloc 64
	leaq	64(%rsp), %rbp
.Lcfi27:
	.seh_setframe 5, 64
.Lcfi28:
	.seh_endprologue
	movq	%rcx, -16(%rbp)
.Ltmp8:
	.cv_loc	4 1 2390 0
	movq	-16(%rbp), %rcx
	callq	_ZN40_$LT$core..nonzero..NonZero$LT$T$GT$$GT$13new_unchecked17h3de90eb9bf94c495E
	movq	%rax, -24(%rbp)
	movq	-24(%rbp), %rax
	movq	%rax, -8(%rbp)
	.cv_loc	4 1 2391 0
	movq	-8(%rbp), %rax
	addq	$64, %rsp
	popq	%rbp
	retq
.Ltmp9:
.Lfunc_end4:
	.seh_handlerdata
	.section	.text,"xr",one_only,_ZN35_$LT$core..ptr..Unique$LT$T$GT$$GT$13new_unchecked17h9ab81edf380fb13cE
.Lcfi29:
	.seh_endproc

	.def	 _ZN35_$LT$core..ptr..Unique$LT$T$GT$$GT$13new_unchecked17hee585a94cf410bf2E;
	.scl	2;
	.type	32;
	.endef
	.section	.text,"xr",one_only,_ZN35_$LT$core..ptr..Unique$LT$T$GT$$GT$13new_unchecked17hee585a94cf410bf2E
	.globl	_ZN35_$LT$core..ptr..Unique$LT$T$GT$$GT$13new_unchecked17hee585a94cf410bf2E
	.p2align	4, 0x90
_ZN35_$LT$core..ptr..Unique$LT$T$GT$$GT$13new_unchecked17hee585a94cf410bf2E:
.Lfunc_begin5:
	.cv_func_id 5
	.cv_loc	5 1 2389 0
.Lcfi30:
.seh_proc _ZN35_$LT$core..ptr..Unique$LT$T$GT$$GT$13new_unchecked17hee585a94cf410bf2E
	pushq	%rbp
.Lcfi31:
	.seh_pushreg 5
	subq	$64, %rsp
.Lcfi32:
	.seh_stackalloc 64
	leaq	64(%rsp), %rbp
.Lcfi33:
	.seh_setframe 5, 64
.Lcfi34:
	.seh_endprologue
	movq	%rcx, -16(%rbp)
.Ltmp10:
	.cv_loc	5 1 2390 0
	movq	-16(%rbp), %rcx
	callq	_ZN40_$LT$core..nonzero..NonZero$LT$T$GT$$GT$13new_unchecked17hcef501c0b3af4485E
	movq	%rax, -24(%rbp)
	movq	-24(%rbp), %rax
	movq	%rax, -8(%rbp)
	.cv_loc	5 1 2391 0
	movq	-8(%rbp), %rax
	addq	$64, %rsp
	popq	%rbp
	retq
.Ltmp11:
.Lfunc_end5:
	.seh_handlerdata
	.section	.text,"xr",one_only,_ZN35_$LT$core..ptr..Unique$LT$T$GT$$GT$13new_unchecked17hee585a94cf410bf2E
.Lcfi35:
	.seh_endproc

	.def	 _ZN35_$LT$core..ptr..Unique$LT$T$GT$$GT$13new_unchecked17hf8733d979e5322b9E;
	.scl	2;
	.type	32;
	.endef
	.section	.text,"xr",one_only,_ZN35_$LT$core..ptr..Unique$LT$T$GT$$GT$13new_unchecked17hf8733d979e5322b9E
	.globl	_ZN35_$LT$core..ptr..Unique$LT$T$GT$$GT$13new_unchecked17hf8733d979e5322b9E
	.p2align	4, 0x90
_ZN35_$LT$core..ptr..Unique$LT$T$GT$$GT$13new_unchecked17hf8733d979e5322b9E:
.Lfunc_begin6:
	.cv_func_id 6
	.cv_loc	6 1 2389 0
.Lcfi36:
.seh_proc _ZN35_$LT$core..ptr..Unique$LT$T$GT$$GT$13new_unchecked17hf8733d979e5322b9E
	pushq	%rbp
.Lcfi37:
	.seh_pushreg 5
	subq	$64, %rsp
.Lcfi38:
	.seh_stackalloc 64
	leaq	64(%rsp), %rbp
.Lcfi39:
	.seh_setframe 5, 64
.Lcfi40:
	.seh_endprologue
	movq	%rcx, -16(%rbp)
.Ltmp12:
	.cv_loc	6 1 2390 0
	movq	-16(%rbp), %rcx
	callq	_ZN40_$LT$core..nonzero..NonZero$LT$T$GT$$GT$13new_unchecked17hab5160b04d52662bE
	movq	%rax, -24(%rbp)
	movq	-24(%rbp), %rax
	movq	%rax, -8(%rbp)
	.cv_loc	6 1 2391 0
	movq	-8(%rbp), %rax
	addq	$64, %rsp
	popq	%rbp
	retq
.Ltmp13:
.Lfunc_end6:
	.seh_handlerdata
	.section	.text,"xr",one_only,_ZN35_$LT$core..ptr..Unique$LT$T$GT$$GT$13new_unchecked17hf8733d979e5322b9E
.Lcfi41:
	.seh_endproc

	.def	 _ZN35_$LT$core..ptr..Unique$LT$T$GT$$GT$6as_ptr17h0515891646619fcbE;
	.scl	2;
	.type	32;
	.endef
	.section	.text,"xr",one_only,_ZN35_$LT$core..ptr..Unique$LT$T$GT$$GT$6as_ptr17h0515891646619fcbE
	.globl	_ZN35_$LT$core..ptr..Unique$LT$T$GT$$GT$6as_ptr17h0515891646619fcbE
	.p2align	4, 0x90
_ZN35_$LT$core..ptr..Unique$LT$T$GT$$GT$6as_ptr17h0515891646619fcbE:
.Lfunc_begin7:
	.cv_func_id 7
	.cv_loc	7 1 2399 0
.Lcfi42:
.seh_proc _ZN35_$LT$core..ptr..Unique$LT$T$GT$$GT$6as_ptr17h0515891646619fcbE
	pushq	%rbp
.Lcfi43:
	.seh_pushreg 5
	subq	$48, %rsp
.Lcfi44:
	.seh_stackalloc 48
	leaq	48(%rsp), %rbp
.Lcfi45:
	.seh_setframe 5, 48
.Lcfi46:
	.seh_endprologue
	movq	%rcx, -8(%rbp)
.Ltmp14:
	.cv_loc	7 1 2400 0
	movq	-8(%rbp), %rcx
	callq	_ZN40_$LT$core..nonzero..NonZero$LT$T$GT$$GT$3get17hdcb42aa5867b0d0aE
	movq	%rax, -16(%rbp)
	.cv_loc	7 1 2401 0
	movq	-16(%rbp), %rax
	addq	$48, %rsp
	popq	%rbp
	retq
.Ltmp15:
.Lfunc_end7:
	.seh_handlerdata
	.section	.text,"xr",one_only,_ZN35_$LT$core..ptr..Unique$LT$T$GT$$GT$6as_ptr17h0515891646619fcbE
.Lcfi47:
	.seh_endproc

	.def	 _ZN35_$LT$core..ptr..Unique$LT$T$GT$$GT$6as_ptr17h32af635448f16e68E;
	.scl	2;
	.type	32;
	.endef
	.section	.text,"xr",one_only,_ZN35_$LT$core..ptr..Unique$LT$T$GT$$GT$6as_ptr17h32af635448f16e68E
	.globl	_ZN35_$LT$core..ptr..Unique$LT$T$GT$$GT$6as_ptr17h32af635448f16e68E
	.p2align	4, 0x90
_ZN35_$LT$core..ptr..Unique$LT$T$GT$$GT$6as_ptr17h32af635448f16e68E:
.Lfunc_begin8:
	.cv_func_id 8
	.cv_loc	8 1 2399 0
.Lcfi48:
.seh_proc _ZN35_$LT$core..ptr..Unique$LT$T$GT$$GT$6as_ptr17h32af635448f16e68E
	pushq	%rbp
.Lcfi49:
	.seh_pushreg 5
	subq	$48, %rsp
.Lcfi50:
	.seh_stackalloc 48
	leaq	48(%rsp), %rbp
.Lcfi51:
	.seh_setframe 5, 48
.Lcfi52:
	.seh_endprologue
	movq	%rcx, -8(%rbp)
.Ltmp16:
	.cv_loc	8 1 2400 0
	movq	-8(%rbp), %rcx
	callq	_ZN40_$LT$core..nonzero..NonZero$LT$T$GT$$GT$3get17h449fe5feb3d70b52E
	movq	%rax, -16(%rbp)
	.cv_loc	8 1 2401 0
	movq	-16(%rbp), %rax
	addq	$48, %rsp
	popq	%rbp
	retq
.Ltmp17:
.Lfunc_end8:
	.seh_handlerdata
	.section	.text,"xr",one_only,_ZN35_$LT$core..ptr..Unique$LT$T$GT$$GT$6as_ptr17h32af635448f16e68E
.Lcfi53:
	.seh_endproc

	.def	 _ZN35_$LT$core..ptr..Unique$LT$T$GT$$GT$6as_ptr17h398d99290faa56afE;
	.scl	2;
	.type	32;
	.endef
	.section	.text,"xr",one_only,_ZN35_$LT$core..ptr..Unique$LT$T$GT$$GT$6as_ptr17h398d99290faa56afE
	.globl	_ZN35_$LT$core..ptr..Unique$LT$T$GT$$GT$6as_ptr17h398d99290faa56afE
	.p2align	4, 0x90
_ZN35_$LT$core..ptr..Unique$LT$T$GT$$GT$6as_ptr17h398d99290faa56afE:
.Lfunc_begin9:
	.cv_func_id 9
	.cv_loc	9 1 2399 0
.Lcfi54:
.seh_proc _ZN35_$LT$core..ptr..Unique$LT$T$GT$$GT$6as_ptr17h398d99290faa56afE
	pushq	%rbp
.Lcfi55:
	.seh_pushreg 5
	subq	$48, %rsp
.Lcfi56:
	.seh_stackalloc 48
	leaq	48(%rsp), %rbp
.Lcfi57:
	.seh_setframe 5, 48
.Lcfi58:
	.seh_endprologue
	movq	%rcx, -8(%rbp)
.Ltmp18:
	.cv_loc	9 1 2400 0
	movq	-8(%rbp), %rcx
	callq	_ZN40_$LT$core..nonzero..NonZero$LT$T$GT$$GT$3get17h321be3e6a6f8574eE
	movq	%rax, -16(%rbp)
	.cv_loc	9 1 2401 0
	movq	-16(%rbp), %rax
	addq	$48, %rsp
	popq	%rbp
	retq
.Ltmp19:
.Lfunc_end9:
	.seh_handlerdata
	.section	.text,"xr",one_only,_ZN35_$LT$core..ptr..Unique$LT$T$GT$$GT$6as_ptr17h398d99290faa56afE
.Lcfi59:
	.seh_endproc

	.def	 _ZN35_$LT$core..ptr..Unique$LT$T$GT$$GT$6as_ptr17h9967f744baa2df3bE;
	.scl	2;
	.type	32;
	.endef
	.section	.text,"xr",one_only,_ZN35_$LT$core..ptr..Unique$LT$T$GT$$GT$6as_ptr17h9967f744baa2df3bE
	.globl	_ZN35_$LT$core..ptr..Unique$LT$T$GT$$GT$6as_ptr17h9967f744baa2df3bE
	.p2align	4, 0x90
_ZN35_$LT$core..ptr..Unique$LT$T$GT$$GT$6as_ptr17h9967f744baa2df3bE:
.Lfunc_begin10:
	.cv_func_id 10
	.cv_loc	10 1 2399 0
.Lcfi60:
.seh_proc _ZN35_$LT$core..ptr..Unique$LT$T$GT$$GT$6as_ptr17h9967f744baa2df3bE
	pushq	%rbp
.Lcfi61:
	.seh_pushreg 5
	subq	$48, %rsp
.Lcfi62:
	.seh_stackalloc 48
	leaq	48(%rsp), %rbp
.Lcfi63:
	.seh_setframe 5, 48
.Lcfi64:
	.seh_endprologue
	movq	%rcx, -8(%rbp)
.Ltmp20:
	.cv_loc	10 1 2400 0
	movq	-8(%rbp), %rcx
	callq	_ZN40_$LT$core..nonzero..NonZero$LT$T$GT$$GT$3get17h0de013db69979796E
	movq	%rax, -16(%rbp)
	.cv_loc	10 1 2401 0
	movq	-16(%rbp), %rax
	addq	$48, %rsp
	popq	%rbp
	retq
.Ltmp21:
.Lfunc_end10:
	.seh_handlerdata
	.section	.text,"xr",one_only,_ZN35_$LT$core..ptr..Unique$LT$T$GT$$GT$6as_ptr17h9967f744baa2df3bE
.Lcfi65:
	.seh_endproc

	.def	 _ZN35_$LT$core..ptr..Unique$LT$T$GT$$GT$6as_ptr17hae71a6a4cbb9bcc8E;
	.scl	2;
	.type	32;
	.endef
	.section	.text,"xr",one_only,_ZN35_$LT$core..ptr..Unique$LT$T$GT$$GT$6as_ptr17hae71a6a4cbb9bcc8E
	.globl	_ZN35_$LT$core..ptr..Unique$LT$T$GT$$GT$6as_ptr17hae71a6a4cbb9bcc8E
	.p2align	4, 0x90
_ZN35_$LT$core..ptr..Unique$LT$T$GT$$GT$6as_ptr17hae71a6a4cbb9bcc8E:
.Lfunc_begin11:
	.cv_func_id 11
	.cv_loc	11 1 2399 0
.Lcfi66:
.seh_proc _ZN35_$LT$core..ptr..Unique$LT$T$GT$$GT$6as_ptr17hae71a6a4cbb9bcc8E
	pushq	%rbp
.Lcfi67:
	.seh_pushreg 5
	subq	$48, %rsp
.Lcfi68:
	.seh_stackalloc 48
	leaq	48(%rsp), %rbp
.Lcfi69:
	.seh_setframe 5, 48
.Lcfi70:
	.seh_endprologue
	movq	%rcx, -8(%rbp)
.Ltmp22:
	.cv_loc	11 1 2400 0
	movq	-8(%rbp), %rcx
	callq	_ZN40_$LT$core..nonzero..NonZero$LT$T$GT$$GT$3get17hb370368f6d55d523E
	movq	%rax, -16(%rbp)
	.cv_loc	11 1 2401 0
	movq	-16(%rbp), %rax
	addq	$48, %rsp
	popq	%rbp
	retq
.Ltmp23:
.Lfunc_end11:
	.seh_handlerdata
	.section	.text,"xr",one_only,_ZN35_$LT$core..ptr..Unique$LT$T$GT$$GT$6as_ptr17hae71a6a4cbb9bcc8E
.Lcfi71:
	.seh_endproc

	.def	 _ZN35_$LT$core..ptr..Unique$LT$T$GT$$GT$6as_ptr17hdebbfd1bd36af33bE;
	.scl	2;
	.type	32;
	.endef
	.section	.text,"xr",one_only,_ZN35_$LT$core..ptr..Unique$LT$T$GT$$GT$6as_ptr17hdebbfd1bd36af33bE
	.globl	_ZN35_$LT$core..ptr..Unique$LT$T$GT$$GT$6as_ptr17hdebbfd1bd36af33bE
	.p2align	4, 0x90
_ZN35_$LT$core..ptr..Unique$LT$T$GT$$GT$6as_ptr17hdebbfd1bd36af33bE:
.Lfunc_begin12:
	.cv_func_id 12
	.cv_loc	12 1 2399 0
.Lcfi72:
.seh_proc _ZN35_$LT$core..ptr..Unique$LT$T$GT$$GT$6as_ptr17hdebbfd1bd36af33bE
	pushq	%rbp
.Lcfi73:
	.seh_pushreg 5
	subq	$48, %rsp
.Lcfi74:
	.seh_stackalloc 48
	leaq	48(%rsp), %rbp
.Lcfi75:
	.seh_setframe 5, 48
.Lcfi76:
	.seh_endprologue
	movq	%rcx, -8(%rbp)
.Ltmp24:
	.cv_loc	12 1 2400 0
	movq	-8(%rbp), %rcx
	callq	_ZN40_$LT$core..nonzero..NonZero$LT$T$GT$$GT$3get17h566edca7f4bda38eE
	movq	%rax, -16(%rbp)
	.cv_loc	12 1 2401 0
	movq	-16(%rbp), %rax
	addq	$48, %rsp
	popq	%rbp
	retq
.Ltmp25:
.Lfunc_end12:
	.seh_handlerdata
	.section	.text,"xr",one_only,_ZN35_$LT$core..ptr..Unique$LT$T$GT$$GT$6as_ptr17hdebbfd1bd36af33bE
.Lcfi77:
	.seh_endproc

	.def	 _ZN36_$LT$core..ptr..NonNull$LT$T$GT$$GT$13new_unchecked17h1554658b70f4d889E;
	.scl	2;
	.type	32;
	.endef
	.section	.text,"xr",one_only,_ZN36_$LT$core..ptr..NonNull$LT$T$GT$$GT$13new_unchecked17h1554658b70f4d889E
	.globl	_ZN36_$LT$core..ptr..NonNull$LT$T$GT$$GT$13new_unchecked17h1554658b70f4d889E
	.p2align	4, 0x90
_ZN36_$LT$core..ptr..NonNull$LT$T$GT$$GT$13new_unchecked17h1554658b70f4d889E:
.Lfunc_begin13:
	.cv_func_id 13
	.cv_loc	13 1 2528 0
.Lcfi78:
.seh_proc _ZN36_$LT$core..ptr..NonNull$LT$T$GT$$GT$13new_unchecked17h1554658b70f4d889E
	pushq	%rbp
.Lcfi79:
	.seh_pushreg 5
	subq	$64, %rsp
.Lcfi80:
	.seh_stackalloc 64
	leaq	64(%rsp), %rbp
.Lcfi81:
	.seh_setframe 5, 64
.Lcfi82:
	.seh_endprologue
	movq	%rcx, -16(%rbp)
.Ltmp26:
	.cv_loc	13 1 2529 0
	movq	-16(%rbp), %rcx
	callq	_ZN40_$LT$core..nonzero..NonZero$LT$T$GT$$GT$13new_unchecked17he4852267727e2a25E
	movq	%rax, -24(%rbp)
	movq	-24(%rbp), %rax
	movq	%rax, -8(%rbp)
	.cv_loc	13 1 2530 0
	movq	-8(%rbp), %rax
	addq	$64, %rsp
	popq	%rbp
	retq
.Ltmp27:
.Lfunc_end13:
	.seh_handlerdata
	.section	.text,"xr",one_only,_ZN36_$LT$core..ptr..NonNull$LT$T$GT$$GT$13new_unchecked17h1554658b70f4d889E
.Lcfi83:
	.seh_endproc

	.def	 _ZN36_$LT$core..ptr..NonNull$LT$T$GT$$GT$13new_unchecked17h37c850a542f83c5bE;
	.scl	2;
	.type	32;
	.endef
	.section	.text,"xr",one_only,_ZN36_$LT$core..ptr..NonNull$LT$T$GT$$GT$13new_unchecked17h37c850a542f83c5bE
	.globl	_ZN36_$LT$core..ptr..NonNull$LT$T$GT$$GT$13new_unchecked17h37c850a542f83c5bE
	.p2align	4, 0x90
_ZN36_$LT$core..ptr..NonNull$LT$T$GT$$GT$13new_unchecked17h37c850a542f83c5bE:
.Lfunc_begin14:
	.cv_func_id 14
	.cv_loc	14 1 2528 0
.Lcfi84:
.seh_proc _ZN36_$LT$core..ptr..NonNull$LT$T$GT$$GT$13new_unchecked17h37c850a542f83c5bE
	pushq	%rbp
.Lcfi85:
	.seh_pushreg 5
	subq	$64, %rsp
.Lcfi86:
	.seh_stackalloc 64
	leaq	64(%rsp), %rbp
.Lcfi87:
	.seh_setframe 5, 64
.Lcfi88:
	.seh_endprologue
	movq	%rcx, -16(%rbp)
.Ltmp28:
	.cv_loc	14 1 2529 0
	movq	-16(%rbp), %rcx
	callq	_ZN40_$LT$core..nonzero..NonZero$LT$T$GT$$GT$13new_unchecked17hcef501c0b3af4485E
	movq	%rax, -24(%rbp)
	movq	-24(%rbp), %rax
	movq	%rax, -8(%rbp)
	.cv_loc	14 1 2530 0
	movq	-8(%rbp), %rax
	addq	$64, %rsp
	popq	%rbp
	retq
.Ltmp29:
.Lfunc_end14:
	.seh_handlerdata
	.section	.text,"xr",one_only,_ZN36_$LT$core..ptr..NonNull$LT$T$GT$$GT$13new_unchecked17h37c850a542f83c5bE
.Lcfi89:
	.seh_endproc

	.def	 _ZN36_$LT$core..ptr..NonNull$LT$T$GT$$GT$13new_unchecked17h75e424613ba0aaefE;
	.scl	2;
	.type	32;
	.endef
	.section	.text,"xr",one_only,_ZN36_$LT$core..ptr..NonNull$LT$T$GT$$GT$13new_unchecked17h75e424613ba0aaefE
	.globl	_ZN36_$LT$core..ptr..NonNull$LT$T$GT$$GT$13new_unchecked17h75e424613ba0aaefE
	.p2align	4, 0x90
_ZN36_$LT$core..ptr..NonNull$LT$T$GT$$GT$13new_unchecked17h75e424613ba0aaefE:
.Lfunc_begin15:
	.cv_func_id 15
	.cv_loc	15 1 2528 0
.Lcfi90:
.seh_proc _ZN36_$LT$core..ptr..NonNull$LT$T$GT$$GT$13new_unchecked17h75e424613ba0aaefE
	pushq	%rbp
.Lcfi91:
	.seh_pushreg 5
	subq	$64, %rsp
.Lcfi92:
	.seh_stackalloc 64
	leaq	64(%rsp), %rbp
.Lcfi93:
	.seh_setframe 5, 64
.Lcfi94:
	.seh_endprologue
	movq	%rcx, -16(%rbp)
.Ltmp30:
	.cv_loc	15 1 2529 0
	movq	-16(%rbp), %rcx
	callq	_ZN40_$LT$core..nonzero..NonZero$LT$T$GT$$GT$13new_unchecked17h3de90eb9bf94c495E
	movq	%rax, -24(%rbp)
	movq	-24(%rbp), %rax
	movq	%rax, -8(%rbp)
	.cv_loc	15 1 2530 0
	movq	-8(%rbp), %rax
	addq	$64, %rsp
	popq	%rbp
	retq
.Ltmp31:
.Lfunc_end15:
	.seh_handlerdata
	.section	.text,"xr",one_only,_ZN36_$LT$core..ptr..NonNull$LT$T$GT$$GT$13new_unchecked17h75e424613ba0aaefE
.Lcfi95:
	.seh_endproc

	.def	 _ZN36_$LT$core..ptr..NonNull$LT$T$GT$$GT$6as_mut17h296ccad924335c4cE;
	.scl	2;
	.type	32;
	.endef
	.section	.text,"xr",one_only,_ZN36_$LT$core..ptr..NonNull$LT$T$GT$$GT$6as_mut17h296ccad924335c4cE
	.globl	_ZN36_$LT$core..ptr..NonNull$LT$T$GT$$GT$6as_mut17h296ccad924335c4cE
	.p2align	4, 0x90
_ZN36_$LT$core..ptr..NonNull$LT$T$GT$$GT$6as_mut17h296ccad924335c4cE:
.Lfunc_begin16:
	.cv_func_id 16
	.cv_loc	16 1 2560 0
.Lcfi96:
.seh_proc _ZN36_$LT$core..ptr..NonNull$LT$T$GT$$GT$6as_mut17h296ccad924335c4cE
	pushq	%rbp
.Lcfi97:
	.seh_pushreg 5
	subq	$48, %rsp
.Lcfi98:
	.seh_stackalloc 48
	leaq	48(%rsp), %rbp
.Lcfi99:
	.seh_setframe 5, 48
.Lcfi100:
	.seh_endprologue
	movq	%rcx, -8(%rbp)
.Ltmp32:
	.cv_loc	16 1 2561 0
	movq	-8(%rbp), %rcx
	movq	(%rcx), %rcx
	callq	_ZN36_$LT$core..ptr..NonNull$LT$T$GT$$GT$6as_ptr17ha0dc9376f8325ad3E
	movq	%rax, -16(%rbp)
	.cv_loc	16 1 2562 0
	movq	-16(%rbp), %rax
	addq	$48, %rsp
	popq	%rbp
	retq
.Ltmp33:
.Lfunc_end16:
	.seh_handlerdata
	.section	.text,"xr",one_only,_ZN36_$LT$core..ptr..NonNull$LT$T$GT$$GT$6as_mut17h296ccad924335c4cE
.Lcfi101:
	.seh_endproc

	.def	 _ZN36_$LT$core..ptr..NonNull$LT$T$GT$$GT$6as_mut17h49f2823cffb297ddE;
	.scl	2;
	.type	32;
	.endef
	.section	.text,"xr",one_only,_ZN36_$LT$core..ptr..NonNull$LT$T$GT$$GT$6as_mut17h49f2823cffb297ddE
	.globl	_ZN36_$LT$core..ptr..NonNull$LT$T$GT$$GT$6as_mut17h49f2823cffb297ddE
	.p2align	4, 0x90
_ZN36_$LT$core..ptr..NonNull$LT$T$GT$$GT$6as_mut17h49f2823cffb297ddE:
.Lfunc_begin17:
	.cv_func_id 17
	.cv_loc	17 1 2560 0
.Lcfi102:
.seh_proc _ZN36_$LT$core..ptr..NonNull$LT$T$GT$$GT$6as_mut17h49f2823cffb297ddE
	pushq	%rbp
.Lcfi103:
	.seh_pushreg 5
	subq	$48, %rsp
.Lcfi104:
	.seh_stackalloc 48
	leaq	48(%rsp), %rbp
.Lcfi105:
	.seh_setframe 5, 48
.Lcfi106:
	.seh_endprologue
	movq	%rcx, -8(%rbp)
.Ltmp34:
	.cv_loc	17 1 2561 0
	movq	-8(%rbp), %rcx
	movq	(%rcx), %rcx
	callq	_ZN36_$LT$core..ptr..NonNull$LT$T$GT$$GT$6as_ptr17h9f4ed189f8323803E
	movq	%rax, -16(%rbp)
	.cv_loc	17 1 2562 0
	movq	-16(%rbp), %rax
	addq	$48, %rsp
	popq	%rbp
	retq
.Ltmp35:
.Lfunc_end17:
	.seh_handlerdata
	.section	.text,"xr",one_only,_ZN36_$LT$core..ptr..NonNull$LT$T$GT$$GT$6as_mut17h49f2823cffb297ddE
.Lcfi107:
	.seh_endproc

	.def	 _ZN36_$LT$core..ptr..NonNull$LT$T$GT$$GT$6as_mut17h4f92e8c232c223eaE;
	.scl	2;
	.type	32;
	.endef
	.section	.text,"xr",one_only,_ZN36_$LT$core..ptr..NonNull$LT$T$GT$$GT$6as_mut17h4f92e8c232c223eaE
	.globl	_ZN36_$LT$core..ptr..NonNull$LT$T$GT$$GT$6as_mut17h4f92e8c232c223eaE
	.p2align	4, 0x90
_ZN36_$LT$core..ptr..NonNull$LT$T$GT$$GT$6as_mut17h4f92e8c232c223eaE:
.Lfunc_begin18:
	.cv_func_id 18
	.cv_loc	18 1 2560 0
.Lcfi108:
.seh_proc _ZN36_$LT$core..ptr..NonNull$LT$T$GT$$GT$6as_mut17h4f92e8c232c223eaE
	pushq	%rbp
.Lcfi109:
	.seh_pushreg 5
	subq	$48, %rsp
.Lcfi110:
	.seh_stackalloc 48
	leaq	48(%rsp), %rbp
.Lcfi111:
	.seh_setframe 5, 48
.Lcfi112:
	.seh_endprologue
	movq	%rcx, -8(%rbp)
.Ltmp36:
	.cv_loc	18 1 2561 0
	movq	-8(%rbp), %rcx
	movq	(%rcx), %rcx
	callq	_ZN36_$LT$core..ptr..NonNull$LT$T$GT$$GT$6as_ptr17hc4b3c265bb71e80aE
	movq	%rax, -16(%rbp)
	.cv_loc	18 1 2562 0
	movq	-16(%rbp), %rax
	addq	$48, %rsp
	popq	%rbp
	retq
.Ltmp37:
.Lfunc_end18:
	.seh_handlerdata
	.section	.text,"xr",one_only,_ZN36_$LT$core..ptr..NonNull$LT$T$GT$$GT$6as_mut17h4f92e8c232c223eaE
.Lcfi113:
	.seh_endproc

	.def	 _ZN36_$LT$core..ptr..NonNull$LT$T$GT$$GT$6as_mut17h7d1fe366217530e9E;
	.scl	2;
	.type	32;
	.endef
	.section	.text,"xr",one_only,_ZN36_$LT$core..ptr..NonNull$LT$T$GT$$GT$6as_mut17h7d1fe366217530e9E
	.globl	_ZN36_$LT$core..ptr..NonNull$LT$T$GT$$GT$6as_mut17h7d1fe366217530e9E
	.p2align	4, 0x90
_ZN36_$LT$core..ptr..NonNull$LT$T$GT$$GT$6as_mut17h7d1fe366217530e9E:
.Lfunc_begin19:
	.cv_func_id 19
	.cv_loc	19 1 2560 0
.Lcfi114:
.seh_proc _ZN36_$LT$core..ptr..NonNull$LT$T$GT$$GT$6as_mut17h7d1fe366217530e9E
	pushq	%rbp
.Lcfi115:
	.seh_pushreg 5
	subq	$48, %rsp
.Lcfi116:
	.seh_stackalloc 48
	leaq	48(%rsp), %rbp
.Lcfi117:
	.seh_setframe 5, 48
.Lcfi118:
	.seh_endprologue
	movq	%rcx, -8(%rbp)
.Ltmp38:
	.cv_loc	19 1 2561 0
	movq	-8(%rbp), %rcx
	movq	(%rcx), %rcx
	callq	_ZN36_$LT$core..ptr..NonNull$LT$T$GT$$GT$6as_ptr17hb6fe51c530149080E
	movq	%rax, -16(%rbp)
	.cv_loc	19 1 2562 0
	movq	-16(%rbp), %rax
	addq	$48, %rsp
	popq	%rbp
	retq
.Ltmp39:
.Lfunc_end19:
	.seh_handlerdata
	.section	.text,"xr",one_only,_ZN36_$LT$core..ptr..NonNull$LT$T$GT$$GT$6as_mut17h7d1fe366217530e9E
.Lcfi119:
	.seh_endproc

	.def	 _ZN36_$LT$core..ptr..NonNull$LT$T$GT$$GT$6as_ptr17h1f24179dff653dd3E;
	.scl	2;
	.type	32;
	.endef
	.section	.text,"xr",one_only,_ZN36_$LT$core..ptr..NonNull$LT$T$GT$$GT$6as_ptr17h1f24179dff653dd3E
	.globl	_ZN36_$LT$core..ptr..NonNull$LT$T$GT$$GT$6as_ptr17h1f24179dff653dd3E
	.p2align	4, 0x90
_ZN36_$LT$core..ptr..NonNull$LT$T$GT$$GT$6as_ptr17h1f24179dff653dd3E:
.Lfunc_begin20:
	.cv_func_id 20
	.cv_loc	20 1 2540 0
.Lcfi120:
.seh_proc _ZN36_$LT$core..ptr..NonNull$LT$T$GT$$GT$6as_ptr17h1f24179dff653dd3E
	pushq	%rbp
.Lcfi121:
	.seh_pushreg 5
	subq	$48, %rsp
.Lcfi122:
	.seh_stackalloc 48
	leaq	48(%rsp), %rbp
.Lcfi123:
	.seh_setframe 5, 48
.Lcfi124:
	.seh_endprologue
	movq	%rcx, -8(%rbp)
.Ltmp40:
	.cv_loc	20 1 2541 0
	movq	-8(%rbp), %rcx
	callq	_ZN40_$LT$core..nonzero..NonZero$LT$T$GT$$GT$3get17h321be3e6a6f8574eE
	movq	%rax, -16(%rbp)
	.cv_loc	20 1 2542 0
	movq	-16(%rbp), %rax
	addq	$48, %rsp
	popq	%rbp
	retq
.Ltmp41:
.Lfunc_end20:
	.seh_handlerdata
	.section	.text,"xr",one_only,_ZN36_$LT$core..ptr..NonNull$LT$T$GT$$GT$6as_ptr17h1f24179dff653dd3E
.Lcfi125:
	.seh_endproc

	.def	 _ZN36_$LT$core..ptr..NonNull$LT$T$GT$$GT$6as_ptr17h9f4ed189f8323803E;
	.scl	2;
	.type	32;
	.endef
	.section	.text,"xr",one_only,_ZN36_$LT$core..ptr..NonNull$LT$T$GT$$GT$6as_ptr17h9f4ed189f8323803E
	.globl	_ZN36_$LT$core..ptr..NonNull$LT$T$GT$$GT$6as_ptr17h9f4ed189f8323803E
	.p2align	4, 0x90
_ZN36_$LT$core..ptr..NonNull$LT$T$GT$$GT$6as_ptr17h9f4ed189f8323803E:
.Lfunc_begin21:
	.cv_func_id 21
	.cv_loc	21 1 2540 0
.Lcfi126:
.seh_proc _ZN36_$LT$core..ptr..NonNull$LT$T$GT$$GT$6as_ptr17h9f4ed189f8323803E
	pushq	%rbp
.Lcfi127:
	.seh_pushreg 5
	subq	$48, %rsp
.Lcfi128:
	.seh_stackalloc 48
	leaq	48(%rsp), %rbp
.Lcfi129:
	.seh_setframe 5, 48
.Lcfi130:
	.seh_endprologue
	movq	%rcx, -8(%rbp)
.Ltmp42:
	.cv_loc	21 1 2541 0
	movq	-8(%rbp), %rcx
	callq	_ZN40_$LT$core..nonzero..NonZero$LT$T$GT$$GT$3get17h09174f10b0f1e9b0E
	movq	%rax, -16(%rbp)
	.cv_loc	21 1 2542 0
	movq	-16(%rbp), %rax
	addq	$48, %rsp
	popq	%rbp
	retq
.Ltmp43:
.Lfunc_end21:
	.seh_handlerdata
	.section	.text,"xr",one_only,_ZN36_$LT$core..ptr..NonNull$LT$T$GT$$GT$6as_ptr17h9f4ed189f8323803E
.Lcfi131:
	.seh_endproc

	.def	 _ZN36_$LT$core..ptr..NonNull$LT$T$GT$$GT$6as_ptr17ha0dc9376f8325ad3E;
	.scl	2;
	.type	32;
	.endef
	.section	.text,"xr",one_only,_ZN36_$LT$core..ptr..NonNull$LT$T$GT$$GT$6as_ptr17ha0dc9376f8325ad3E
	.globl	_ZN36_$LT$core..ptr..NonNull$LT$T$GT$$GT$6as_ptr17ha0dc9376f8325ad3E
	.p2align	4, 0x90
_ZN36_$LT$core..ptr..NonNull$LT$T$GT$$GT$6as_ptr17ha0dc9376f8325ad3E:
.Lfunc_begin22:
	.cv_func_id 22
	.cv_loc	22 1 2540 0
.Lcfi132:
.seh_proc _ZN36_$LT$core..ptr..NonNull$LT$T$GT$$GT$6as_ptr17ha0dc9376f8325ad3E
	pushq	%rbp
.Lcfi133:
	.seh_pushreg 5
	subq	$48, %rsp
.Lcfi134:
	.seh_stackalloc 48
	leaq	48(%rsp), %rbp
.Lcfi135:
	.seh_setframe 5, 48
.Lcfi136:
	.seh_endprologue
	movq	%rcx, -8(%rbp)
.Ltmp44:
	.cv_loc	22 1 2541 0
	movq	-8(%rbp), %rcx
	callq	_ZN40_$LT$core..nonzero..NonZero$LT$T$GT$$GT$3get17hcd32639cd25890f0E
	movq	%rax, -16(%rbp)
	.cv_loc	22 1 2542 0
	movq	-16(%rbp), %rax
	addq	$48, %rsp
	popq	%rbp
	retq
.Ltmp45:
.Lfunc_end22:
	.seh_handlerdata
	.section	.text,"xr",one_only,_ZN36_$LT$core..ptr..NonNull$LT$T$GT$$GT$6as_ptr17ha0dc9376f8325ad3E
.Lcfi137:
	.seh_endproc

	.def	 _ZN36_$LT$core..ptr..NonNull$LT$T$GT$$GT$6as_ptr17hac08cf063c921720E;
	.scl	2;
	.type	32;
	.endef
	.section	.text,"xr",one_only,_ZN36_$LT$core..ptr..NonNull$LT$T$GT$$GT$6as_ptr17hac08cf063c921720E
	.globl	_ZN36_$LT$core..ptr..NonNull$LT$T$GT$$GT$6as_ptr17hac08cf063c921720E
	.p2align	4, 0x90
_ZN36_$LT$core..ptr..NonNull$LT$T$GT$$GT$6as_ptr17hac08cf063c921720E:
.Lfunc_begin23:
	.cv_func_id 23
	.cv_loc	23 1 2540 0
.Lcfi138:
.seh_proc _ZN36_$LT$core..ptr..NonNull$LT$T$GT$$GT$6as_ptr17hac08cf063c921720E
	pushq	%rbp
.Lcfi139:
	.seh_pushreg 5
	subq	$48, %rsp
.Lcfi140:
	.seh_stackalloc 48
	leaq	48(%rsp), %rbp
.Lcfi141:
	.seh_setframe 5, 48
.Lcfi142:
	.seh_endprologue
	movq	%rcx, -8(%rbp)
.Ltmp46:
	.cv_loc	23 1 2541 0
	movq	-8(%rbp), %rcx
	callq	_ZN40_$LT$core..nonzero..NonZero$LT$T$GT$$GT$3get17hb370368f6d55d523E
	movq	%rax, -16(%rbp)
	.cv_loc	23 1 2542 0
	movq	-16(%rbp), %rax
	addq	$48, %rsp
	popq	%rbp
	retq
.Ltmp47:
.Lfunc_end23:
	.seh_handlerdata
	.section	.text,"xr",one_only,_ZN36_$LT$core..ptr..NonNull$LT$T$GT$$GT$6as_ptr17hac08cf063c921720E
.Lcfi143:
	.seh_endproc

	.def	 _ZN36_$LT$core..ptr..NonNull$LT$T$GT$$GT$6as_ptr17hb6fe51c530149080E;
	.scl	2;
	.type	32;
	.endef
	.section	.text,"xr",one_only,_ZN36_$LT$core..ptr..NonNull$LT$T$GT$$GT$6as_ptr17hb6fe51c530149080E
	.globl	_ZN36_$LT$core..ptr..NonNull$LT$T$GT$$GT$6as_ptr17hb6fe51c530149080E
	.p2align	4, 0x90
_ZN36_$LT$core..ptr..NonNull$LT$T$GT$$GT$6as_ptr17hb6fe51c530149080E:
.Lfunc_begin24:
	.cv_func_id 24
	.cv_loc	24 1 2540 0
.Lcfi144:
.seh_proc _ZN36_$LT$core..ptr..NonNull$LT$T$GT$$GT$6as_ptr17hb6fe51c530149080E
	pushq	%rbp
.Lcfi145:
	.seh_pushreg 5
	subq	$48, %rsp
.Lcfi146:
	.seh_stackalloc 48
	leaq	48(%rsp), %rbp
.Lcfi147:
	.seh_setframe 5, 48
.Lcfi148:
	.seh_endprologue
	movq	%rcx, -8(%rbp)
.Ltmp48:
	.cv_loc	24 1 2541 0
	movq	-8(%rbp), %rcx
	callq	_ZN40_$LT$core..nonzero..NonZero$LT$T$GT$$GT$3get17h9c5e90ef81b0078bE
	movq	%rax, -16(%rbp)
	.cv_loc	24 1 2542 0
	movq	-16(%rbp), %rax
	addq	$48, %rsp
	popq	%rbp
	retq
.Ltmp49:
.Lfunc_end24:
	.seh_handlerdata
	.section	.text,"xr",one_only,_ZN36_$LT$core..ptr..NonNull$LT$T$GT$$GT$6as_ptr17hb6fe51c530149080E
.Lcfi149:
	.seh_endproc

	.def	 _ZN36_$LT$core..ptr..NonNull$LT$T$GT$$GT$6as_ptr17hc4b3c265bb71e80aE;
	.scl	2;
	.type	32;
	.endef
	.section	.text,"xr",one_only,_ZN36_$LT$core..ptr..NonNull$LT$T$GT$$GT$6as_ptr17hc4b3c265bb71e80aE
	.globl	_ZN36_$LT$core..ptr..NonNull$LT$T$GT$$GT$6as_ptr17hc4b3c265bb71e80aE
	.p2align	4, 0x90
_ZN36_$LT$core..ptr..NonNull$LT$T$GT$$GT$6as_ptr17hc4b3c265bb71e80aE:
.Lfunc_begin25:
	.cv_func_id 25
	.cv_loc	25 1 2540 0
.Lcfi150:
.seh_proc _ZN36_$LT$core..ptr..NonNull$LT$T$GT$$GT$6as_ptr17hc4b3c265bb71e80aE
	pushq	%rbp
.Lcfi151:
	.seh_pushreg 5
	subq	$48, %rsp
.Lcfi152:
	.seh_stackalloc 48
	leaq	48(%rsp), %rbp
.Lcfi153:
	.seh_setframe 5, 48
.Lcfi154:
	.seh_endprologue
	movq	%rcx, -8(%rbp)
.Ltmp50:
	.cv_loc	25 1 2541 0
	movq	-8(%rbp), %rcx
	callq	_ZN40_$LT$core..nonzero..NonZero$LT$T$GT$$GT$3get17h1a21c070ba5f0d87E
	movq	%rax, -16(%rbp)
	.cv_loc	25 1 2542 0
	movq	-16(%rbp), %rax
	addq	$48, %rsp
	popq	%rbp
	retq
.Ltmp51:
.Lfunc_end25:
	.seh_handlerdata
	.section	.text,"xr",one_only,_ZN36_$LT$core..ptr..NonNull$LT$T$GT$$GT$6as_ptr17hc4b3c265bb71e80aE
.Lcfi155:
	.seh_endproc

	.def	 _ZN36_$LT$core..ptr..NonNull$LT$T$GT$$GT$6as_ref17h1190cb24cc04b005E;
	.scl	2;
	.type	32;
	.endef
	.section	.text,"xr",one_only,_ZN36_$LT$core..ptr..NonNull$LT$T$GT$$GT$6as_ref17h1190cb24cc04b005E
	.globl	_ZN36_$LT$core..ptr..NonNull$LT$T$GT$$GT$6as_ref17h1190cb24cc04b005E
	.p2align	4, 0x90
_ZN36_$LT$core..ptr..NonNull$LT$T$GT$$GT$6as_ref17h1190cb24cc04b005E:
.Lfunc_begin26:
	.cv_func_id 26
	.cv_loc	26 1 2550 0
.Lcfi156:
.seh_proc _ZN36_$LT$core..ptr..NonNull$LT$T$GT$$GT$6as_ref17h1190cb24cc04b005E
	pushq	%rbp
.Lcfi157:
	.seh_pushreg 5
	subq	$48, %rsp
.Lcfi158:
	.seh_stackalloc 48
	leaq	48(%rsp), %rbp
.Lcfi159:
	.seh_setframe 5, 48
.Lcfi160:
	.seh_endprologue
	movq	%rcx, -8(%rbp)
.Ltmp52:
	.cv_loc	26 1 2551 0
	movq	-8(%rbp), %rcx
	movq	(%rcx), %rcx
	callq	_ZN36_$LT$core..ptr..NonNull$LT$T$GT$$GT$6as_ptr17h9f4ed189f8323803E
	movq	%rax, -16(%rbp)
	.cv_loc	26 1 2552 0
	movq	-16(%rbp), %rax
	addq	$48, %rsp
	popq	%rbp
	retq
.Ltmp53:
.Lfunc_end26:
	.seh_handlerdata
	.section	.text,"xr",one_only,_ZN36_$LT$core..ptr..NonNull$LT$T$GT$$GT$6as_ref17h1190cb24cc04b005E
.Lcfi161:
	.seh_endproc

	.def	 _ZN36_$LT$core..ptr..NonNull$LT$T$GT$$GT$6as_ref17h1ae6be5215b7c70aE;
	.scl	2;
	.type	32;
	.endef
	.section	.text,"xr",one_only,_ZN36_$LT$core..ptr..NonNull$LT$T$GT$$GT$6as_ref17h1ae6be5215b7c70aE
	.globl	_ZN36_$LT$core..ptr..NonNull$LT$T$GT$$GT$6as_ref17h1ae6be5215b7c70aE
	.p2align	4, 0x90
_ZN36_$LT$core..ptr..NonNull$LT$T$GT$$GT$6as_ref17h1ae6be5215b7c70aE:
.Lfunc_begin27:
	.cv_func_id 27
	.cv_loc	27 1 2550 0
.Lcfi162:
.seh_proc _ZN36_$LT$core..ptr..NonNull$LT$T$GT$$GT$6as_ref17h1ae6be5215b7c70aE
	pushq	%rbp
.Lcfi163:
	.seh_pushreg 5
	subq	$48, %rsp
.Lcfi164:
	.seh_stackalloc 48
	leaq	48(%rsp), %rbp
.Lcfi165:
	.seh_setframe 5, 48
.Lcfi166:
	.seh_endprologue
	movq	%rcx, -8(%rbp)
.Ltmp54:
	.cv_loc	27 1 2551 0
	movq	-8(%rbp), %rcx
	movq	(%rcx), %rcx
	callq	_ZN36_$LT$core..ptr..NonNull$LT$T$GT$$GT$6as_ptr17hb6fe51c530149080E
	movq	%rax, -16(%rbp)
	.cv_loc	27 1 2552 0
	movq	-16(%rbp), %rax
	addq	$48, %rsp
	popq	%rbp
	retq
.Ltmp55:
.Lfunc_end27:
	.seh_handlerdata
	.section	.text,"xr",one_only,_ZN36_$LT$core..ptr..NonNull$LT$T$GT$$GT$6as_ref17h1ae6be5215b7c70aE
.Lcfi167:
	.seh_endproc

	.def	 _ZN36_$LT$core..ptr..NonNull$LT$T$GT$$GT$6as_ref17hb6594acc53d506d1E;
	.scl	2;
	.type	32;
	.endef
	.section	.text,"xr",one_only,_ZN36_$LT$core..ptr..NonNull$LT$T$GT$$GT$6as_ref17hb6594acc53d506d1E
	.globl	_ZN36_$LT$core..ptr..NonNull$LT$T$GT$$GT$6as_ref17hb6594acc53d506d1E
	.p2align	4, 0x90
_ZN36_$LT$core..ptr..NonNull$LT$T$GT$$GT$6as_ref17hb6594acc53d506d1E:
.Lfunc_begin28:
	.cv_func_id 28
	.cv_loc	28 1 2550 0
.Lcfi168:
.seh_proc _ZN36_$LT$core..ptr..NonNull$LT$T$GT$$GT$6as_ref17hb6594acc53d506d1E
	pushq	%rbp
.Lcfi169:
	.seh_pushreg 5
	subq	$48, %rsp
.Lcfi170:
	.seh_stackalloc 48
	leaq	48(%rsp), %rbp
.Lcfi171:
	.seh_setframe 5, 48
.Lcfi172:
	.seh_endprologue
	movq	%rcx, -8(%rbp)
.Ltmp56:
	.cv_loc	28 1 2551 0
	movq	-8(%rbp), %rcx
	movq	(%rcx), %rcx
	callq	_ZN36_$LT$core..ptr..NonNull$LT$T$GT$$GT$6as_ptr17ha0dc9376f8325ad3E
	movq	%rax, -16(%rbp)
	.cv_loc	28 1 2552 0
	movq	-16(%rbp), %rax
	addq	$48, %rsp
	popq	%rbp
	retq
.Ltmp57:
.Lfunc_end28:
	.seh_handlerdata
	.section	.text,"xr",one_only,_ZN36_$LT$core..ptr..NonNull$LT$T$GT$$GT$6as_ref17hb6594acc53d506d1E
.Lcfi173:
	.seh_endproc

	.def	 _ZN36_$LT$core..ptr..NonNull$LT$T$GT$$GT$6as_ref17he42989c7a2524859E;
	.scl	2;
	.type	32;
	.endef
	.section	.text,"xr",one_only,_ZN36_$LT$core..ptr..NonNull$LT$T$GT$$GT$6as_ref17he42989c7a2524859E
	.globl	_ZN36_$LT$core..ptr..NonNull$LT$T$GT$$GT$6as_ref17he42989c7a2524859E
	.p2align	4, 0x90
_ZN36_$LT$core..ptr..NonNull$LT$T$GT$$GT$6as_ref17he42989c7a2524859E:
.Lfunc_begin29:
	.cv_func_id 29
	.cv_loc	29 1 2550 0
.Lcfi174:
.seh_proc _ZN36_$LT$core..ptr..NonNull$LT$T$GT$$GT$6as_ref17he42989c7a2524859E
	pushq	%rbp
.Lcfi175:
	.seh_pushreg 5
	subq	$48, %rsp
.Lcfi176:
	.seh_stackalloc 48
	leaq	48(%rsp), %rbp
.Lcfi177:
	.seh_setframe 5, 48
.Lcfi178:
	.seh_endprologue
	movq	%rcx, -8(%rbp)
.Ltmp58:
	.cv_loc	29 1 2551 0
	movq	-8(%rbp), %rcx
	movq	(%rcx), %rcx
	callq	_ZN36_$LT$core..ptr..NonNull$LT$T$GT$$GT$6as_ptr17hc4b3c265bb71e80aE
	movq	%rax, -16(%rbp)
	.cv_loc	29 1 2552 0
	movq	-16(%rbp), %rax
	addq	$48, %rsp
	popq	%rbp
	retq
.Ltmp59:
.Lfunc_end29:
	.seh_handlerdata
	.section	.text,"xr",one_only,_ZN36_$LT$core..ptr..NonNull$LT$T$GT$$GT$6as_ref17he42989c7a2524859E
.Lcfi179:
	.seh_endproc

	.def	 _ZN4core3ptr19swap_nonoverlapping17h405d5c5eabda2e37E;
	.scl	2;
	.type	32;
	.endef
	.section	.text,"xr",one_only,_ZN4core3ptr19swap_nonoverlapping17h405d5c5eabda2e37E
	.globl	_ZN4core3ptr19swap_nonoverlapping17h405d5c5eabda2e37E
	.p2align	4, 0x90
_ZN4core3ptr19swap_nonoverlapping17h405d5c5eabda2e37E:
.Lfunc_begin30:
	.cv_func_id 30
	.cv_loc	30 1 185 0
.Lcfi180:
.seh_proc _ZN4core3ptr19swap_nonoverlapping17h405d5c5eabda2e37E
	pushq	%rbp
.Lcfi181:
	.seh_pushreg 5
	subq	$96, %rsp
.Lcfi182:
	.seh_stackalloc 96
	leaq	96(%rsp), %rbp
.Lcfi183:
	.seh_setframe 5, 96
.Lcfi184:
	.seh_endprologue
	movq	%rcx, -48(%rbp)
	movq	%rdx, -40(%rbp)
	movq	%r8, -32(%rbp)
.Ltmp60:
	.cv_loc	30 1 186 0
	movq	-48(%rbp), %rcx
	movq	%rcx, -24(%rbp)
.Ltmp61:
	.cv_loc	30 1 187 0
	movq	-40(%rbp), %rcx
	movq	%rcx, -16(%rbp)
.Ltmp62:
	.cv_loc	30 1 188 0
	callq	_ZN4core3mem7size_of17h456cc8efa0344641E
	movq	%rax, -56(%rbp)
	movq	-56(%rbp), %rax
	imulq	-32(%rbp), %rax
	movq	%rax, -8(%rbp)
.Ltmp63:
	.cv_loc	30 1 189 0
	movq	-24(%rbp), %rcx
	movq	-16(%rbp), %rdx
	movq	-8(%rbp), %r8
	callq	_ZN4core3ptr25swap_nonoverlapping_bytes17hab8bccb0fe5d2043E
.Ltmp64:
	.cv_loc	30 1 190 0
	nop
	addq	$96, %rsp
	popq	%rbp
	retq
.Ltmp65:
.Lfunc_end30:
	.seh_handlerdata
	.section	.text,"xr",one_only,_ZN4core3ptr19swap_nonoverlapping17h405d5c5eabda2e37E
.Lcfi185:
	.seh_endproc

	.def	 _ZN4core3ptr19swap_nonoverlapping17h6e0872cb6b9ed424E;
	.scl	2;
	.type	32;
	.endef
	.section	.text,"xr",one_only,_ZN4core3ptr19swap_nonoverlapping17h6e0872cb6b9ed424E
	.globl	_ZN4core3ptr19swap_nonoverlapping17h6e0872cb6b9ed424E
	.p2align	4, 0x90
_ZN4core3ptr19swap_nonoverlapping17h6e0872cb6b9ed424E:
.Lfunc_begin31:
	.cv_func_id 31
	.cv_loc	31 1 185 0
.Lcfi186:
.seh_proc _ZN4core3ptr19swap_nonoverlapping17h6e0872cb6b9ed424E
	pushq	%rbp
.Lcfi187:
	.seh_pushreg 5
	subq	$96, %rsp
.Lcfi188:
	.seh_stackalloc 96
	leaq	96(%rsp), %rbp
.Lcfi189:
	.seh_setframe 5, 96
.Lcfi190:
	.seh_endprologue
	movq	%rcx, -48(%rbp)
	movq	%rdx, -40(%rbp)
	movq	%r8, -32(%rbp)
.Ltmp66:
	.cv_loc	31 1 186 0
	movq	-48(%rbp), %rcx
	movq	%rcx, -24(%rbp)
.Ltmp67:
	.cv_loc	31 1 187 0
	movq	-40(%rbp), %rcx
	movq	%rcx, -16(%rbp)
.Ltmp68:
	.cv_loc	31 1 188 0
	callq	_ZN4core3mem7size_of17hc724a53b1165917dE
	movq	%rax, -56(%rbp)
	movq	-56(%rbp), %rax
	imulq	-32(%rbp), %rax
	movq	%rax, -8(%rbp)
.Ltmp69:
	.cv_loc	31 1 189 0
	movq	-24(%rbp), %rcx
	movq	-16(%rbp), %rdx
	movq	-8(%rbp), %r8
	callq	_ZN4core3ptr25swap_nonoverlapping_bytes17hab8bccb0fe5d2043E
.Ltmp70:
	.cv_loc	31 1 190 0
	nop
	addq	$96, %rsp
	popq	%rbp
	retq
.Ltmp71:
.Lfunc_end31:
	.seh_handlerdata
	.section	.text,"xr",one_only,_ZN4core3ptr19swap_nonoverlapping17h6e0872cb6b9ed424E
.Lcfi191:
	.seh_endproc

	.def	 _ZN4core3ptr19swap_nonoverlapping17h7d531141f70dc590E;
	.scl	2;
	.type	32;
	.endef
	.section	.text,"xr",one_only,_ZN4core3ptr19swap_nonoverlapping17h7d531141f70dc590E
	.globl	_ZN4core3ptr19swap_nonoverlapping17h7d531141f70dc590E
	.p2align	4, 0x90
_ZN4core3ptr19swap_nonoverlapping17h7d531141f70dc590E:
.Lfunc_begin32:
	.cv_func_id 32
	.cv_loc	32 1 185 0
.Lcfi192:
.seh_proc _ZN4core3ptr19swap_nonoverlapping17h7d531141f70dc590E
	pushq	%rbp
.Lcfi193:
	.seh_pushreg 5
	subq	$96, %rsp
.Lcfi194:
	.seh_stackalloc 96
	leaq	96(%rsp), %rbp
.Lcfi195:
	.seh_setframe 5, 96
.Lcfi196:
	.seh_endprologue
	movq	%rcx, -48(%rbp)
	movq	%rdx, -40(%rbp)
	movq	%r8, -32(%rbp)
.Ltmp72:
	.cv_loc	32 1 186 0
	movq	-48(%rbp), %rcx
	movq	%rcx, -24(%rbp)
.Ltmp73:
	.cv_loc	32 1 187 0
	movq	-40(%rbp), %rcx
	movq	%rcx, -16(%rbp)
.Ltmp74:
	.cv_loc	32 1 188 0
	callq	_ZN4core3mem7size_of17h445681a68a33c793E
	movq	%rax, -56(%rbp)
	movq	-56(%rbp), %rax
	imulq	-32(%rbp), %rax
	movq	%rax, -8(%rbp)
.Ltmp75:
	.cv_loc	32 1 189 0
	movq	-24(%rbp), %rcx
	movq	-16(%rbp), %rdx
	movq	-8(%rbp), %r8
	callq	_ZN4core3ptr25swap_nonoverlapping_bytes17hab8bccb0fe5d2043E
.Ltmp76:
	.cv_loc	32 1 190 0
	nop
	addq	$96, %rsp
	popq	%rbp
	retq
.Ltmp77:
.Lfunc_end32:
	.seh_handlerdata
	.section	.text,"xr",one_only,_ZN4core3ptr19swap_nonoverlapping17h7d531141f70dc590E
.Lcfi197:
	.seh_endproc

	.def	 _ZN4core3ptr19swap_nonoverlapping17h8f867256065c1a6dE;
	.scl	2;
	.type	32;
	.endef
	.section	.text,"xr",one_only,_ZN4core3ptr19swap_nonoverlapping17h8f867256065c1a6dE
	.globl	_ZN4core3ptr19swap_nonoverlapping17h8f867256065c1a6dE
	.p2align	4, 0x90
_ZN4core3ptr19swap_nonoverlapping17h8f867256065c1a6dE:
.Lfunc_begin33:
	.cv_func_id 33
	.cv_loc	33 1 185 0
.Lcfi198:
.seh_proc _ZN4core3ptr19swap_nonoverlapping17h8f867256065c1a6dE
	pushq	%rbp
.Lcfi199:
	.seh_pushreg 5
	subq	$96, %rsp
.Lcfi200:
	.seh_stackalloc 96
	leaq	96(%rsp), %rbp
.Lcfi201:
	.seh_setframe 5, 96
.Lcfi202:
	.seh_endprologue
	movq	%rcx, -48(%rbp)
	movq	%rdx, -40(%rbp)
	movq	%r8, -32(%rbp)
.Ltmp78:
	.cv_loc	33 1 186 0
	movq	-48(%rbp), %rcx
	movq	%rcx, -24(%rbp)
.Ltmp79:
	.cv_loc	33 1 187 0
	movq	-40(%rbp), %rcx
	movq	%rcx, -16(%rbp)
.Ltmp80:
	.cv_loc	33 1 188 0
	callq	_ZN4core3mem7size_of17h630bbc1c78794dc6E
	movq	%rax, -56(%rbp)
	movq	-56(%rbp), %rax
	imulq	-32(%rbp), %rax
	movq	%rax, -8(%rbp)
.Ltmp81:
	.cv_loc	33 1 189 0
	movq	-24(%rbp), %rcx
	movq	-16(%rbp), %rdx
	movq	-8(%rbp), %r8
	callq	_ZN4core3ptr25swap_nonoverlapping_bytes17hab8bccb0fe5d2043E
.Ltmp82:
	.cv_loc	33 1 190 0
	nop
	addq	$96, %rsp
	popq	%rbp
	retq
.Ltmp83:
.Lfunc_end33:
	.seh_handlerdata
	.section	.text,"xr",one_only,_ZN4core3ptr19swap_nonoverlapping17h8f867256065c1a6dE
.Lcfi203:
	.seh_endproc

	.def	 _ZN4core3ptr19swap_nonoverlapping17h91affafd204f8b86E;
	.scl	2;
	.type	32;
	.endef
	.section	.text,"xr",one_only,_ZN4core3ptr19swap_nonoverlapping17h91affafd204f8b86E
	.globl	_ZN4core3ptr19swap_nonoverlapping17h91affafd204f8b86E
	.p2align	4, 0x90
_ZN4core3ptr19swap_nonoverlapping17h91affafd204f8b86E:
.Lfunc_begin34:
	.cv_func_id 34
	.cv_loc	34 1 185 0
.Lcfi204:
.seh_proc _ZN4core3ptr19swap_nonoverlapping17h91affafd204f8b86E
	pushq	%rbp
.Lcfi205:
	.seh_pushreg 5
	subq	$96, %rsp
.Lcfi206:
	.seh_stackalloc 96
	leaq	96(%rsp), %rbp
.Lcfi207:
	.seh_setframe 5, 96
.Lcfi208:
	.seh_endprologue
	movq	%rcx, -48(%rbp)
	movq	%rdx, -40(%rbp)
	movq	%r8, -32(%rbp)
.Ltmp84:
	.cv_loc	34 1 186 0
	movq	-48(%rbp), %rcx
	movq	%rcx, -24(%rbp)
.Ltmp85:
	.cv_loc	34 1 187 0
	movq	-40(%rbp), %rcx
	movq	%rcx, -16(%rbp)
.Ltmp86:
	.cv_loc	34 1 188 0
	callq	_ZN4core3mem7size_of17h618a48b999316791E
	movq	%rax, -56(%rbp)
	movq	-56(%rbp), %rax
	imulq	-32(%rbp), %rax
	movq	%rax, -8(%rbp)
.Ltmp87:
	.cv_loc	34 1 189 0
	movq	-24(%rbp), %rcx
	movq	-16(%rbp), %rdx
	movq	-8(%rbp), %r8
	callq	_ZN4core3ptr25swap_nonoverlapping_bytes17hab8bccb0fe5d2043E
.Ltmp88:
	.cv_loc	34 1 190 0
	nop
	addq	$96, %rsp
	popq	%rbp
	retq
.Ltmp89:
.Lfunc_end34:
	.seh_handlerdata
	.section	.text,"xr",one_only,_ZN4core3ptr19swap_nonoverlapping17h91affafd204f8b86E
.Lcfi209:
	.seh_endproc

	.def	 _ZN4core3ptr19swap_nonoverlapping17had3123bd1f666ca5E;
	.scl	2;
	.type	32;
	.endef
	.section	.text,"xr",one_only,_ZN4core3ptr19swap_nonoverlapping17had3123bd1f666ca5E
	.globl	_ZN4core3ptr19swap_nonoverlapping17had3123bd1f666ca5E
	.p2align	4, 0x90
_ZN4core3ptr19swap_nonoverlapping17had3123bd1f666ca5E:
.Lfunc_begin35:
	.cv_func_id 35
	.cv_loc	35 1 185 0
.Lcfi210:
.seh_proc _ZN4core3ptr19swap_nonoverlapping17had3123bd1f666ca5E
	pushq	%rbp
.Lcfi211:
	.seh_pushreg 5
	subq	$96, %rsp
.Lcfi212:
	.seh_stackalloc 96
	leaq	96(%rsp), %rbp
.Lcfi213:
	.seh_setframe 5, 96
.Lcfi214:
	.seh_endprologue
	movq	%rcx, -48(%rbp)
	movq	%rdx, -40(%rbp)
	movq	%r8, -32(%rbp)
.Ltmp90:
	.cv_loc	35 1 186 0
	movq	-48(%rbp), %rcx
	movq	%rcx, -24(%rbp)
.Ltmp91:
	.cv_loc	35 1 187 0
	movq	-40(%rbp), %rcx
	movq	%rcx, -16(%rbp)
.Ltmp92:
	.cv_loc	35 1 188 0
	callq	_ZN4core3mem7size_of17h6fc3a79eb596635dE
	movq	%rax, -56(%rbp)
	movq	-56(%rbp), %rax
	imulq	-32(%rbp), %rax
	movq	%rax, -8(%rbp)
.Ltmp93:
	.cv_loc	35 1 189 0
	movq	-24(%rbp), %rcx
	movq	-16(%rbp), %rdx
	movq	-8(%rbp), %r8
	callq	_ZN4core3ptr25swap_nonoverlapping_bytes17hab8bccb0fe5d2043E
.Ltmp94:
	.cv_loc	35 1 190 0
	nop
	addq	$96, %rsp
	popq	%rbp
	retq
.Ltmp95:
.Lfunc_end35:
	.seh_handlerdata
	.section	.text,"xr",one_only,_ZN4core3ptr19swap_nonoverlapping17had3123bd1f666ca5E
.Lcfi215:
	.seh_endproc

	.def	 _ZN4core3ptr19swap_nonoverlapping17hbac5e3363343480fE;
	.scl	2;
	.type	32;
	.endef
	.section	.text,"xr",one_only,_ZN4core3ptr19swap_nonoverlapping17hbac5e3363343480fE
	.globl	_ZN4core3ptr19swap_nonoverlapping17hbac5e3363343480fE
	.p2align	4, 0x90
_ZN4core3ptr19swap_nonoverlapping17hbac5e3363343480fE:
.Lfunc_begin36:
	.cv_func_id 36
	.cv_loc	36 1 185 0
.Lcfi216:
.seh_proc _ZN4core3ptr19swap_nonoverlapping17hbac5e3363343480fE
	pushq	%rbp
.Lcfi217:
	.seh_pushreg 5
	subq	$96, %rsp
.Lcfi218:
	.seh_stackalloc 96
	leaq	96(%rsp), %rbp
.Lcfi219:
	.seh_setframe 5, 96
.Lcfi220:
	.seh_endprologue
	movq	%rcx, -48(%rbp)
	movq	%rdx, -40(%rbp)
	movq	%r8, -32(%rbp)
.Ltmp96:
	.cv_loc	36 1 186 0
	movq	-48(%rbp), %rcx
	movq	%rcx, -24(%rbp)
.Ltmp97:
	.cv_loc	36 1 187 0
	movq	-40(%rbp), %rcx
	movq	%rcx, -16(%rbp)
.Ltmp98:
	.cv_loc	36 1 188 0
	callq	_ZN4core3mem7size_of17h4ae4183d94813f8fE
	movq	%rax, -56(%rbp)
	movq	-56(%rbp), %rax
	imulq	-32(%rbp), %rax
	movq	%rax, -8(%rbp)
.Ltmp99:
	.cv_loc	36 1 189 0
	movq	-24(%rbp), %rcx
	movq	-16(%rbp), %rdx
	movq	-8(%rbp), %r8
	callq	_ZN4core3ptr25swap_nonoverlapping_bytes17hab8bccb0fe5d2043E
.Ltmp100:
	.cv_loc	36 1 190 0
	nop
	addq	$96, %rsp
	popq	%rbp
	retq
.Ltmp101:
.Lfunc_end36:
	.seh_handlerdata
	.section	.text,"xr",one_only,_ZN4core3ptr19swap_nonoverlapping17hbac5e3363343480fE
.Lcfi221:
	.seh_endproc

	.def	 _ZN4core3ptr31_$LT$impl$u20$$BP$mut$u20$T$GT$15wrapping_offset17h6bb45fda0aa3abcaE;
	.scl	2;
	.type	32;
	.endef
	.section	.text,"xr",one_only,_ZN4core3ptr31_$LT$impl$u20$$BP$mut$u20$T$GT$15wrapping_offset17h6bb45fda0aa3abcaE
	.globl	_ZN4core3ptr31_$LT$impl$u20$$BP$mut$u20$T$GT$15wrapping_offset17h6bb45fda0aa3abcaE
	.p2align	4, 0x90
_ZN4core3ptr31_$LT$impl$u20$$BP$mut$u20$T$GT$15wrapping_offset17h6bb45fda0aa3abcaE:
.Lfunc_begin37:
	.cv_func_id 37
	.cv_loc	37 1 1294 0
.Lcfi222:
.seh_proc _ZN4core3ptr31_$LT$impl$u20$$BP$mut$u20$T$GT$15wrapping_offset17h6bb45fda0aa3abcaE
	pushq	%rbp
.Lcfi223:
	.seh_pushreg 5
	subq	$32, %rsp
.Lcfi224:
	.seh_stackalloc 32
	leaq	32(%rsp), %rbp
.Lcfi225:
	.seh_setframe 5, 32
.Lcfi226:
	.seh_endprologue
	movq	%rcx, -24(%rbp)
	movq	%rdx, -16(%rbp)
.Ltmp102:
	.cv_loc	37 1 1296 0
	movq	-24(%rbp), %rcx
	addq	-16(%rbp), %rcx
	movq	%rcx, -8(%rbp)
	movq	-8(%rbp), %rax
	movq	%rax, -32(%rbp)
.Ltmp103:
	.cv_loc	37 1 1298 0
	movq	-32(%rbp), %rax
	addq	$32, %rsp
	popq	%rbp
	retq
.Ltmp104:
.Lfunc_end37:
	.seh_handlerdata
	.section	.text,"xr",one_only,_ZN4core3ptr31_$LT$impl$u20$$BP$mut$u20$T$GT$15wrapping_offset17h6bb45fda0aa3abcaE
.Lcfi227:
	.seh_endproc

	.def	 _ZN4core3ptr31_$LT$impl$u20$$BP$mut$u20$T$GT$6offset17h0456ce4d0e380147E;
	.scl	2;
	.type	32;
	.endef
	.section	.text,"xr",one_only,_ZN4core3ptr31_$LT$impl$u20$$BP$mut$u20$T$GT$6offset17h0456ce4d0e380147E
	.globl	_ZN4core3ptr31_$LT$impl$u20$$BP$mut$u20$T$GT$6offset17h0456ce4d0e380147E
	.p2align	4, 0x90
_ZN4core3ptr31_$LT$impl$u20$$BP$mut$u20$T$GT$6offset17h0456ce4d0e380147E:
.Lfunc_begin38:
	.cv_func_id 38
	.cv_loc	38 1 1257 0
.Lcfi228:
.seh_proc _ZN4core3ptr31_$LT$impl$u20$$BP$mut$u20$T$GT$6offset17h0456ce4d0e380147E
	pushq	%rbp
.Lcfi229:
	.seh_pushreg 5
	subq	$32, %rsp
.Lcfi230:
	.seh_stackalloc 32
	leaq	32(%rsp), %rbp
.Lcfi231:
	.seh_setframe 5, 32
.Lcfi232:
	.seh_endprologue
	movq	%rcx, -24(%rbp)
	movq	%rdx, -16(%rbp)
.Ltmp105:
	.cv_loc	38 1 1258 0
	movq	-24(%rbp), %rcx
	addq	-16(%rbp), %rcx
	movq	%rcx, -8(%rbp)
	movq	-8(%rbp), %rax
	movq	%rax, -32(%rbp)
	.cv_loc	38 1 1259 0
	movq	-32(%rbp), %rax
	addq	$32, %rsp
	popq	%rbp
	retq
.Ltmp106:
.Lfunc_end38:
	.seh_handlerdata
	.section	.text,"xr",one_only,_ZN4core3ptr31_$LT$impl$u20$$BP$mut$u20$T$GT$6offset17h0456ce4d0e380147E
.Lcfi233:
	.seh_endproc

	.def	 _ZN4core3ptr31_$LT$impl$u20$$BP$mut$u20$T$GT$6offset17h940bd719a5e434b1E;
	.scl	2;
	.type	32;
	.endef
	.section	.text,"xr",one_only,_ZN4core3ptr31_$LT$impl$u20$$BP$mut$u20$T$GT$6offset17h940bd719a5e434b1E
	.globl	_ZN4core3ptr31_$LT$impl$u20$$BP$mut$u20$T$GT$6offset17h940bd719a5e434b1E
	.p2align	4, 0x90
_ZN4core3ptr31_$LT$impl$u20$$BP$mut$u20$T$GT$6offset17h940bd719a5e434b1E:
.Lfunc_begin39:
	.cv_func_id 39
	.cv_loc	39 1 1257 0
.Lcfi234:
.seh_proc _ZN4core3ptr31_$LT$impl$u20$$BP$mut$u20$T$GT$6offset17h940bd719a5e434b1E
	pushq	%rbp
.Lcfi235:
	.seh_pushreg 5
	subq	$32, %rsp
.Lcfi236:
	.seh_stackalloc 32
	leaq	32(%rsp), %rbp
.Lcfi237:
	.seh_setframe 5, 32
.Lcfi238:
	.seh_endprologue
	movq	%rcx, -24(%rbp)
	movq	%rdx, -16(%rbp)
.Ltmp107:
	.cv_loc	39 1 1258 0
	movq	-24(%rbp), %rcx
	movq	-16(%rbp), %rdx
	shlq	$3, %rdx
	addq	%rdx, %rcx
	movq	%rcx, -8(%rbp)
	movq	-8(%rbp), %rax
	movq	%rax, -32(%rbp)
	.cv_loc	39 1 1259 0
	movq	-32(%rbp), %rax
	addq	$32, %rsp
	popq	%rbp
	retq
.Ltmp108:
.Lfunc_end39:
	.seh_handlerdata
	.section	.text,"xr",one_only,_ZN4core3ptr31_$LT$impl$u20$$BP$mut$u20$T$GT$6offset17h940bd719a5e434b1E
.Lcfi239:
	.seh_endproc

	.def	 _ZN4core3ptr31_$LT$impl$u20$$BP$mut$u20$T$GT$6offset17hb97f745451934a01E;
	.scl	2;
	.type	32;
	.endef
	.section	.text,"xr",one_only,_ZN4core3ptr31_$LT$impl$u20$$BP$mut$u20$T$GT$6offset17hb97f745451934a01E
	.globl	_ZN4core3ptr31_$LT$impl$u20$$BP$mut$u20$T$GT$6offset17hb97f745451934a01E
	.p2align	4, 0x90
_ZN4core3ptr31_$LT$impl$u20$$BP$mut$u20$T$GT$6offset17hb97f745451934a01E:
.Lfunc_begin40:
	.cv_func_id 40
	.cv_loc	40 1 1257 0
.Lcfi240:
.seh_proc _ZN4core3ptr31_$LT$impl$u20$$BP$mut$u20$T$GT$6offset17hb97f745451934a01E
	pushq	%rbp
.Lcfi241:
	.seh_pushreg 5
	subq	$32, %rsp
.Lcfi242:
	.seh_stackalloc 32
	leaq	32(%rsp), %rbp
.Lcfi243:
	.seh_setframe 5, 32
.Lcfi244:
	.seh_endprologue
	movq	%rcx, -24(%rbp)
	movq	%rdx, -16(%rbp)
.Ltmp109:
	.cv_loc	40 1 1258 0
	movq	-24(%rbp), %rcx
	movq	-16(%rbp), %rdx
	shlq	$2, %rdx
	addq	%rdx, %rcx
	movq	%rcx, -8(%rbp)
	movq	-8(%rbp), %rax
	movq	%rax, -32(%rbp)
	.cv_loc	40 1 1259 0
	movq	-32(%rbp), %rax
	addq	$32, %rsp
	popq	%rbp
	retq
.Ltmp110:
.Lfunc_end40:
	.seh_handlerdata
	.section	.text,"xr",one_only,_ZN4core3ptr31_$LT$impl$u20$$BP$mut$u20$T$GT$6offset17hb97f745451934a01E
.Lcfi245:
	.seh_endproc

	.def	 _ZN4core3ptr31_$LT$impl$u20$$BP$mut$u20$T$GT$7is_null17hb7de37faaff3e8e3E;
	.scl	2;
	.type	32;
	.endef
	.section	.text,"xr",one_only,_ZN4core3ptr31_$LT$impl$u20$$BP$mut$u20$T$GT$7is_null17hb7de37faaff3e8e3E
	.globl	_ZN4core3ptr31_$LT$impl$u20$$BP$mut$u20$T$GT$7is_null17hb7de37faaff3e8e3E
	.p2align	4, 0x90
_ZN4core3ptr31_$LT$impl$u20$$BP$mut$u20$T$GT$7is_null17hb7de37faaff3e8e3E:
.Lfunc_begin41:
	.cv_func_id 41
	.cv_loc	41 1 1165 0
.Lcfi246:
.seh_proc _ZN4core3ptr31_$LT$impl$u20$$BP$mut$u20$T$GT$7is_null17hb7de37faaff3e8e3E
	pushq	%rbp
.Lcfi247:
	.seh_pushreg 5
	subq	$64, %rsp
.Lcfi248:
	.seh_stackalloc 64
	leaq	64(%rsp), %rbp
.Lcfi249:
	.seh_setframe 5, 64
.Lcfi250:
	.seh_endprologue
	movq	%rcx, -8(%rbp)
.Ltmp111:
	.cv_loc	41 1 1168 0
	movq	-8(%rbp), %rcx
	movq	%rcx, -16(%rbp)
	callq	_ZN4core3ptr8null_mut17h3b43a16dddb6aa7bE
	movq	%rax, -24(%rbp)
	movq	-16(%rbp), %rax
	movq	-24(%rbp), %rcx
	cmpq	%rcx, %rax
	sete	%dl
	.cv_loc	41 1 1169 0
	andb	$1, %dl
	movzbl	%dl, %eax
	addq	$64, %rsp
	popq	%rbp
	retq
.Ltmp112:
.Lfunc_end41:
	.seh_handlerdata
	.section	.text,"xr",one_only,_ZN4core3ptr31_$LT$impl$u20$$BP$mut$u20$T$GT$7is_null17hb7de37faaff3e8e3E
.Lcfi251:
	.seh_endproc

	.def	 _ZN4core3ptr31_$LT$impl$u20$$BP$mut$u20$T$GT$7is_null17hc32a60ae8be00c4aE;
	.scl	2;
	.type	32;
	.endef
	.section	.text,"xr",one_only,_ZN4core3ptr31_$LT$impl$u20$$BP$mut$u20$T$GT$7is_null17hc32a60ae8be00c4aE
	.globl	_ZN4core3ptr31_$LT$impl$u20$$BP$mut$u20$T$GT$7is_null17hc32a60ae8be00c4aE
	.p2align	4, 0x90
_ZN4core3ptr31_$LT$impl$u20$$BP$mut$u20$T$GT$7is_null17hc32a60ae8be00c4aE:
.Lfunc_begin42:
	.cv_func_id 42
	.cv_loc	42 1 1165 0
.Lcfi252:
.seh_proc _ZN4core3ptr31_$LT$impl$u20$$BP$mut$u20$T$GT$7is_null17hc32a60ae8be00c4aE
	pushq	%rbp
.Lcfi253:
	.seh_pushreg 5
	subq	$64, %rsp
.Lcfi254:
	.seh_stackalloc 64
	leaq	64(%rsp), %rbp
.Lcfi255:
	.seh_setframe 5, 64
.Lcfi256:
	.seh_endprologue
	movq	%rcx, -8(%rbp)
.Ltmp113:
	.cv_loc	42 1 1168 0
	movq	-8(%rbp), %rcx
	movq	%rcx, -16(%rbp)
	callq	_ZN4core3ptr8null_mut17h3b43a16dddb6aa7bE
	movq	%rax, -24(%rbp)
	movq	-16(%rbp), %rax
	movq	-24(%rbp), %rcx
	cmpq	%rcx, %rax
	sete	%dl
	.cv_loc	42 1 1169 0
	andb	$1, %dl
	movzbl	%dl, %eax
	addq	$64, %rsp
	popq	%rbp
	retq
.Ltmp114:
.Lfunc_end42:
	.seh_handlerdata
	.section	.text,"xr",one_only,_ZN4core3ptr31_$LT$impl$u20$$BP$mut$u20$T$GT$7is_null17hc32a60ae8be00c4aE
.Lcfi257:
	.seh_endproc

	.def	 _ZN4core3ptr33_$LT$impl$u20$$BP$const$u20$T$GT$6offset17h57f354c5c0bbd845E;
	.scl	2;
	.type	32;
	.endef
	.section	.text,"xr",one_only,_ZN4core3ptr33_$LT$impl$u20$$BP$const$u20$T$GT$6offset17h57f354c5c0bbd845E
	.globl	_ZN4core3ptr33_$LT$impl$u20$$BP$const$u20$T$GT$6offset17h57f354c5c0bbd845E
	.p2align	4, 0x90
_ZN4core3ptr33_$LT$impl$u20$$BP$const$u20$T$GT$6offset17h57f354c5c0bbd845E:
.Lfunc_begin43:
	.cv_func_id 43
	.cv_loc	43 1 621 0
.Lcfi258:
.seh_proc _ZN4core3ptr33_$LT$impl$u20$$BP$const$u20$T$GT$6offset17h57f354c5c0bbd845E
	pushq	%rbp
.Lcfi259:
	.seh_pushreg 5
	subq	$32, %rsp
.Lcfi260:
	.seh_stackalloc 32
	leaq	32(%rsp), %rbp
.Lcfi261:
	.seh_setframe 5, 32
.Lcfi262:
	.seh_endprologue
	movq	%rcx, -24(%rbp)
	movq	%rdx, -16(%rbp)
.Ltmp115:
	.cv_loc	43 1 622 0
	movq	-24(%rbp), %rcx
	addq	-16(%rbp), %rcx
	movq	%rcx, -8(%rbp)
	movq	-8(%rbp), %rax
	movq	%rax, -32(%rbp)
	.cv_loc	43 1 623 0
	movq	-32(%rbp), %rax
	addq	$32, %rsp
	popq	%rbp
	retq
.Ltmp116:
.Lfunc_end43:
	.seh_handlerdata
	.section	.text,"xr",one_only,_ZN4core3ptr33_$LT$impl$u20$$BP$const$u20$T$GT$6offset17h57f354c5c0bbd845E
.Lcfi263:
	.seh_endproc

	.def	 _ZN4core3ptr4null17h812594e02d3b2588E;
	.scl	2;
	.type	32;
	.endef
	.section	.text,"xr",one_only,_ZN4core3ptr4null17h812594e02d3b2588E
	.globl	_ZN4core3ptr4null17h812594e02d3b2588E
	.p2align	4, 0x90
_ZN4core3ptr4null17h812594e02d3b2588E:
.Lfunc_begin44:
	.cv_func_id 44
	.cv_loc	44 1 77 0
.Lcfi264:
.seh_proc _ZN4core3ptr4null17h812594e02d3b2588E
	pushq	%rbp
.Lcfi265:
	.seh_pushreg 5
	movq	%rsp, %rbp
.Lcfi266:
	.seh_setframe 5, 0
.Lcfi267:
	.seh_endprologue
	xorl	%eax, %eax
.Ltmp117:
	popq	%rbp
	retq
.Ltmp118:
.Lfunc_end44:
	.seh_handlerdata
	.section	.text,"xr",one_only,_ZN4core3ptr4null17h812594e02d3b2588E
.Lcfi268:
	.seh_endproc

	.def	 _ZN4core3ptr4null17h87d8c0f96b2ac6aeE;
	.scl	2;
	.type	32;
	.endef
	.section	.text,"xr",one_only,_ZN4core3ptr4null17h87d8c0f96b2ac6aeE
	.globl	_ZN4core3ptr4null17h87d8c0f96b2ac6aeE
	.p2align	4, 0x90
_ZN4core3ptr4null17h87d8c0f96b2ac6aeE:
.Lfunc_begin45:
	.cv_func_id 45
	.cv_loc	45 1 77 0
.Lcfi269:
.seh_proc _ZN4core3ptr4null17h87d8c0f96b2ac6aeE
	pushq	%rbp
.Lcfi270:
	.seh_pushreg 5
	movq	%rsp, %rbp
.Lcfi271:
	.seh_setframe 5, 0
.Lcfi272:
	.seh_endprologue
	xorl	%eax, %eax
.Ltmp119:
	popq	%rbp
	retq
.Ltmp120:
.Lfunc_end45:
	.seh_handlerdata
	.section	.text,"xr",one_only,_ZN4core3ptr4null17h87d8c0f96b2ac6aeE
.Lcfi273:
	.seh_endproc

	.def	 _ZN4core3ptr4read17h2e43306768fe4e33E;
	.scl	2;
	.type	32;
	.endef
	.section	.text,"xr",one_only,_ZN4core3ptr4read17h2e43306768fe4e33E
	.globl	_ZN4core3ptr4read17h2e43306768fe4e33E
	.p2align	4, 0x90
_ZN4core3ptr4read17h2e43306768fe4e33E:
.Lfunc_begin46:
	.cv_func_id 46
	.cv_loc	46 1 286 0
.Lcfi274:
.seh_proc _ZN4core3ptr4read17h2e43306768fe4e33E
	pushq	%rbp
.Lcfi275:
	.seh_pushreg 5
	subq	$48, %rsp
.Lcfi276:
	.seh_stackalloc 48
	leaq	48(%rsp), %rbp
.Lcfi277:
	.seh_setframe 5, 48
.Lcfi278:
	.seh_endprologue
	movq	%rcx, -16(%rbp)
.Ltmp121:
	.cv_loc	46 1 287 0
	callq	_ZN4core3mem13uninitialized17h83b572468d36daf7E
	movl	%eax, -8(%rbp)
	andb	$1, %dl
	movb	%dl, -4(%rbp)
.Ltmp122:
	.cv_loc	46 1 288 0
	movq	-16(%rbp), %rcx
	movq	(%rcx), %rcx
	movq	%rcx, -8(%rbp)
	.cv_loc	46 1 289 0
	movl	-8(%rbp), %eax
	movb	-4(%rbp), %dl
.Ltmp123:
	.cv_loc	46 1 290 0
	addq	$48, %rsp
	popq	%rbp
.Ltmp124:
	retq
.Ltmp125:
.Lfunc_end46:
	.seh_handlerdata
	.section	.text,"xr",one_only,_ZN4core3ptr4read17h2e43306768fe4e33E
.Lcfi279:
	.seh_endproc

	.def	 _ZN4core3ptr4read17hcf91635f193abe93E;
	.scl	2;
	.type	32;
	.endef
	.section	.text,"xr",one_only,_ZN4core3ptr4read17hcf91635f193abe93E
	.globl	_ZN4core3ptr4read17hcf91635f193abe93E
	.p2align	4, 0x90
_ZN4core3ptr4read17hcf91635f193abe93E:
.Lfunc_begin47:
	.cv_func_id 47
	.cv_loc	47 1 286 0
.Lcfi280:
.seh_proc _ZN4core3ptr4read17hcf91635f193abe93E
	pushq	%rbp
.Lcfi281:
	.seh_pushreg 5
	subq	$64, %rsp
.Lcfi282:
	.seh_stackalloc 64
	leaq	64(%rsp), %rbp
.Lcfi283:
	.seh_setframe 5, 64
.Lcfi284:
	.seh_endprologue
	movq	%rcx, -24(%rbp)
.Ltmp126:
	.cv_loc	47 1 287 0
	callq	_ZN4core3mem13uninitialized17h67fc41c0a4812048E
	movq	%rdx, -8(%rbp)
	movq	%rax, -16(%rbp)
.Ltmp127:
	.cv_loc	47 1 288 0
	movq	-24(%rbp), %rax
	movups	(%rax), %xmm0
	movaps	%xmm0, -16(%rbp)
	.cv_loc	47 1 289 0
	movq	-16(%rbp), %rax
	movq	-8(%rbp), %rdx
.Ltmp128:
	.cv_loc	47 1 290 0
	addq	$64, %rsp
	popq	%rbp
.Ltmp129:
	retq
.Ltmp130:
.Lfunc_end47:
	.seh_handlerdata
	.section	.text,"xr",one_only,_ZN4core3ptr4read17hcf91635f193abe93E
.Lcfi285:
	.seh_endproc

	.def	 _ZN4core3ptr4read17hd055c34ca1958591E;
	.scl	2;
	.type	32;
	.endef
	.section	.text,"xr",one_only,_ZN4core3ptr4read17hd055c34ca1958591E
	.globl	_ZN4core3ptr4read17hd055c34ca1958591E
	.p2align	4, 0x90
_ZN4core3ptr4read17hd055c34ca1958591E:
.Lfunc_begin48:
	.cv_func_id 48
	.cv_loc	48 1 286 0
.Lcfi286:
.seh_proc _ZN4core3ptr4read17hd055c34ca1958591E
	pushq	%rbp
.Lcfi287:
	.seh_pushreg 5
	subq	$128, %rsp
.Lcfi288:
	.seh_stackalloc 128
	leaq	128(%rsp), %rbp
.Lcfi289:
	.seh_setframe 5, 128
.Lcfi290:
	.seh_endprologue
	movq	%rcx, %rax
	leaq	-64(%rbp), %r8
	movq	%rdx, -72(%rbp)
.Ltmp131:
	.cv_loc	48 1 287 0
	movq	%rcx, -80(%rbp)
	movq	%r8, %rcx
	movq	%rax, -88(%rbp)
	callq	_ZN4core3mem13uninitialized17h43c5df2a2f5ab9acE
.Ltmp132:
	.cv_loc	48 1 288 0
	movq	-72(%rbp), %rax
	movq	(%rax), %rcx
	movq	%rcx, -64(%rbp)
	movq	8(%rax), %rcx
	movq	%rcx, -56(%rbp)
	movq	16(%rax), %rcx
	movq	%rcx, -48(%rbp)
	movq	24(%rax), %rax
	movq	%rax, -40(%rbp)
	.cv_loc	48 1 289 0
	movq	-64(%rbp), %rax
	movq	%rax, -32(%rbp)
	movq	-56(%rbp), %rax
	movq	%rax, -24(%rbp)
	movq	-48(%rbp), %rax
	movq	%rax, -16(%rbp)
	movq	-40(%rbp), %rax
	movq	%rax, -8(%rbp)
	movq	-32(%rbp), %rax
	movq	-80(%rbp), %rcx
	movq	%rax, (%rcx)
	movq	-24(%rbp), %rax
	movq	%rax, 8(%rcx)
	movq	-16(%rbp), %rax
	movq	%rax, 16(%rcx)
	movq	-8(%rbp), %rax
	movq	%rax, 24(%rcx)
.Ltmp133:
	.cv_loc	48 1 290 0
	movq	-88(%rbp), %rax
	addq	$128, %rsp
	popq	%rbp
	retq
.Ltmp134:
.Lfunc_end48:
	.seh_handlerdata
	.section	.text,"xr",one_only,_ZN4core3ptr4read17hd055c34ca1958591E
.Lcfi291:
	.seh_endproc

	.def	 _ZN4core3ptr5write17h736b349926f64314E;
	.scl	2;
	.type	32;
	.endef
	.section	.text,"xr",one_only,_ZN4core3ptr5write17h736b349926f64314E
	.globl	_ZN4core3ptr5write17h736b349926f64314E
	.p2align	4, 0x90
_ZN4core3ptr5write17h736b349926f64314E:
.Lfunc_begin49:
	.cv_func_id 49
	.cv_loc	49 1 363 0
.Lcfi292:
.seh_proc _ZN4core3ptr5write17h736b349926f64314E
	pushq	%rbp
.Lcfi293:
	.seh_pushreg 5
	subq	$16, %rsp
.Lcfi294:
	.seh_stackalloc 16
	leaq	16(%rsp), %rbp
.Lcfi295:
	.seh_setframe 5, 16
.Lcfi296:
	.seh_endprologue
	movq	%rcx, -16(%rbp)
	movl	%edx, -4(%rbp)
.Ltmp135:
	.cv_loc	49 1 364 0
	movq	-16(%rbp), %rcx
	movl	-4(%rbp), %edx
	movl	%edx, (%rcx)
	.cv_loc	49 1 365 0
	addq	$16, %rsp
	popq	%rbp
	retq
.Ltmp136:
.Lfunc_end49:
	.seh_handlerdata
	.section	.text,"xr",one_only,_ZN4core3ptr5write17h736b349926f64314E
.Lcfi297:
	.seh_endproc

	.def	 _ZN4core3ptr5write17hd51ea6f94a0c5033E;
	.scl	2;
	.type	32;
	.endef
	.section	.text,"xr",one_only,_ZN4core3ptr5write17hd51ea6f94a0c5033E
	.globl	_ZN4core3ptr5write17hd51ea6f94a0c5033E
	.p2align	4, 0x90
_ZN4core3ptr5write17hd51ea6f94a0c5033E:
.Lfunc_begin50:
	.cv_func_id 50
	.cv_loc	50 1 363 0
.Lcfi298:
.seh_proc _ZN4core3ptr5write17hd51ea6f94a0c5033E
	pushq	%rbp
.Lcfi299:
	.seh_pushreg 5
	subq	$16, %rsp
.Lcfi300:
	.seh_stackalloc 16
	leaq	16(%rsp), %rbp
.Lcfi301:
	.seh_setframe 5, 16
.Lcfi302:
	.seh_endprologue
	movb	%r8b, %al
	movq	%rcx, -16(%rbp)
	movl	%edx, -8(%rbp)
	andb	$1, %al
	movb	%al, -4(%rbp)
.Ltmp137:
	.cv_loc	50 1 364 0
	movq	-16(%rbp), %rcx
	movl	-8(%rbp), %edx
	movb	-4(%rbp), %al
	movl	%edx, (%rcx)
	andb	$1, %al
	movb	%al, 4(%rcx)
	.cv_loc	50 1 365 0
	addq	$16, %rsp
	popq	%rbp
	retq
.Ltmp138:
.Lfunc_end50:
	.seh_handlerdata
	.section	.text,"xr",one_only,_ZN4core3ptr5write17hd51ea6f94a0c5033E
.Lcfi303:
	.seh_endproc

	.def	 _ZN4core3ptr7replace17h2d9a94e5fda1b09dE;
	.scl	2;
	.type	32;
	.endef
	.section	.text,"xr",one_only,_ZN4core3ptr7replace17h2d9a94e5fda1b09dE
	.globl	_ZN4core3ptr7replace17h2d9a94e5fda1b09dE
	.p2align	4, 0x90
_ZN4core3ptr7replace17h2d9a94e5fda1b09dE:
.Lfunc_begin51:
	.cv_func_id 51
	.cv_loc	51 1 253 0
.Lcfi304:
.seh_proc _ZN4core3ptr7replace17h2d9a94e5fda1b09dE
	.seh_handler __CxxFrameHandler3, @unwind, @except
	pushq	%rbp
.Lcfi305:
	.seh_pushreg 5
	subq	$64, %rsp
.Lcfi306:
	.seh_stackalloc 64
	leaq	64(%rsp), %rbp
.Lcfi307:
	.seh_setframe 5, 64
.Lcfi308:
	.seh_endprologue
	movq	$-2, -8(%rbp)
	movb	%r8b, %al
	movq	%rcx, -24(%rbp)
	movl	%edx, -16(%rbp)
	andb	$1, %al
	movb	%al, -12(%rbp)
.Ltmp141:
	.cv_loc	51 1 254 0
	movq	-24(%rbp), %rcx
.Ltmp139:
	leaq	-16(%rbp), %rdx
	callq	_ZN4core3mem4swap17hc991a9d5e5ebccd5E
.Ltmp140:
	jmp	.LBB51_1
.Ltmp142:
.LBB51_1:
	.cv_loc	51 1 255 0
	movl	-16(%rbp), %eax
	movb	-12(%rbp), %dl
	.cv_loc	51 1 256 0
	addq	$64, %rsp
	popq	%rbp
.Ltmp143:
	retq
	.seh_handlerdata
	.long	($cppxdata$_ZN4core3ptr7replace17h2d9a94e5fda1b09dE)@IMGREL
	.section	.text,"xr",one_only,_ZN4core3ptr7replace17h2d9a94e5fda1b09dE
.Lcfi309:
	.seh_endproc
	.def	 "?dtor$2@?0?_ZN4core3ptr7replace17h2d9a94e5fda1b09dE@4HA";
	.scl	3;
	.type	32;
	.endef
	.p2align	4, 0x90
"?dtor$2@?0?_ZN4core3ptr7replace17h2d9a94e5fda1b09dE@4HA":
.Lcfi310:
.seh_proc "?dtor$2@?0?_ZN4core3ptr7replace17h2d9a94e5fda1b09dE@4HA"
.LBB51_2:
.Ltmp144:
	movq	%rdx, 16(%rsp)
	pushq	%rbp
.Lcfi311:
	.seh_pushreg 5
	subq	$32, %rsp
.Lcfi312:
	.seh_stackalloc 32
	leaq	64(%rdx), %rbp
.Ltmp145:
.Lcfi313:
	.seh_endprologue
	.cv_loc	51 1 253 0
	addq	$32, %rsp
	popq	%rbp
	retq
.Ltmp146:
.Lfunc_end51:
	.seh_handlerdata
	.section	.text,"xr",one_only,_ZN4core3ptr7replace17h2d9a94e5fda1b09dE
.Lcfi314:
	.seh_endproc
	.section	.xdata,"dr",associative,_ZN4core3ptr7replace17h2d9a94e5fda1b09dE
	.p2align	2
$cppxdata$_ZN4core3ptr7replace17h2d9a94e5fda1b09dE:
	.long	429065506
	.long	1
	.long	($stateUnwindMap$_ZN4core3ptr7replace17h2d9a94e5fda1b09dE)@IMGREL
	.long	0
	.long	0
	.long	3
	.long	($ip2state$_ZN4core3ptr7replace17h2d9a94e5fda1b09dE)@IMGREL
	.long	56
	.long	0
	.long	1
$stateUnwindMap$_ZN4core3ptr7replace17h2d9a94e5fda1b09dE:
	.long	-1
	.long	"?dtor$2@?0?_ZN4core3ptr7replace17h2d9a94e5fda1b09dE@4HA"@IMGREL
$ip2state$_ZN4core3ptr7replace17h2d9a94e5fda1b09dE:
	.long	.Lfunc_begin51@IMGREL
	.long	-1
	.long	.Ltmp139@IMGREL+1
	.long	0
	.long	.Ltmp140@IMGREL+1
	.long	-1
	.section	.text,"xr",one_only,_ZN4core3ptr7replace17h2d9a94e5fda1b09dE

	.def	 _ZN4core3ptr7replace17hd3bbf7686cf7db04E;
	.scl	2;
	.type	32;
	.endef
	.section	.text,"xr",one_only,_ZN4core3ptr7replace17hd3bbf7686cf7db04E
	.globl	_ZN4core3ptr7replace17hd3bbf7686cf7db04E
	.p2align	4, 0x90
_ZN4core3ptr7replace17hd3bbf7686cf7db04E:
.Lfunc_begin52:
	.cv_func_id 52
	.cv_loc	52 1 253 0
.Lcfi315:
.seh_proc _ZN4core3ptr7replace17hd3bbf7686cf7db04E
	.seh_handler __CxxFrameHandler3, @unwind, @except
	pushq	%rbp
.Lcfi316:
	.seh_pushreg 5
	subq	$64, %rsp
.Lcfi317:
	.seh_stackalloc 64
	leaq	64(%rsp), %rbp
.Lcfi318:
	.seh_setframe 5, 64
.Lcfi319:
	.seh_endprologue
	movq	$-2, -8(%rbp)
	movq	%rcx, -24(%rbp)
	movq	%rdx, -16(%rbp)
.Ltmp149:
	.cv_loc	52 1 254 0
	movq	-24(%rbp), %rcx
.Ltmp147:
	leaq	-16(%rbp), %rdx
	callq	_ZN4core3mem4swap17h0cd5d0d344757a17E
.Ltmp148:
	jmp	.LBB52_1
.Ltmp150:
.LBB52_1:
	.cv_loc	52 1 255 0
	movq	-16(%rbp), %rax
	.cv_loc	52 1 256 0
	addq	$64, %rsp
	popq	%rbp
.Ltmp151:
	retq
	.seh_handlerdata
	.long	($cppxdata$_ZN4core3ptr7replace17hd3bbf7686cf7db04E)@IMGREL
	.section	.text,"xr",one_only,_ZN4core3ptr7replace17hd3bbf7686cf7db04E
.Lcfi320:
	.seh_endproc
	.def	 "?dtor$2@?0?_ZN4core3ptr7replace17hd3bbf7686cf7db04E@4HA";
	.scl	3;
	.type	32;
	.endef
	.p2align	4, 0x90
"?dtor$2@?0?_ZN4core3ptr7replace17hd3bbf7686cf7db04E@4HA":
.Lcfi321:
.seh_proc "?dtor$2@?0?_ZN4core3ptr7replace17hd3bbf7686cf7db04E@4HA"
.LBB52_2:
.Ltmp152:
	movq	%rdx, 16(%rsp)
	pushq	%rbp
.Lcfi322:
	.seh_pushreg 5
	subq	$32, %rsp
.Lcfi323:
	.seh_stackalloc 32
	leaq	64(%rdx), %rbp
.Ltmp153:
.Lcfi324:
	.seh_endprologue
	.cv_loc	52 1 253 0
	addq	$32, %rsp
	popq	%rbp
	retq
.Ltmp154:
.Lfunc_end52:
	.seh_handlerdata
	.section	.text,"xr",one_only,_ZN4core3ptr7replace17hd3bbf7686cf7db04E
.Lcfi325:
	.seh_endproc
	.section	.xdata,"dr",associative,_ZN4core3ptr7replace17hd3bbf7686cf7db04E
	.p2align	2
$cppxdata$_ZN4core3ptr7replace17hd3bbf7686cf7db04E:
	.long	429065506
	.long	1
	.long	($stateUnwindMap$_ZN4core3ptr7replace17hd3bbf7686cf7db04E)@IMGREL
	.long	0
	.long	0
	.long	3
	.long	($ip2state$_ZN4core3ptr7replace17hd3bbf7686cf7db04E)@IMGREL
	.long	56
	.long	0
	.long	1
$stateUnwindMap$_ZN4core3ptr7replace17hd3bbf7686cf7db04E:
	.long	-1
	.long	"?dtor$2@?0?_ZN4core3ptr7replace17hd3bbf7686cf7db04E@4HA"@IMGREL
$ip2state$_ZN4core3ptr7replace17hd3bbf7686cf7db04E:
	.long	.Lfunc_begin52@IMGREL
	.long	-1
	.long	.Ltmp147@IMGREL+1
	.long	0
	.long	.Ltmp148@IMGREL+1
	.long	-1
	.section	.text,"xr",one_only,_ZN4core3ptr7replace17hd3bbf7686cf7db04E

	.def	 _ZN4core3ptr8null_mut17h3b43a16dddb6aa7bE;
	.scl	2;
	.type	32;
	.endef
	.section	.text,"xr",one_only,_ZN4core3ptr8null_mut17h3b43a16dddb6aa7bE
	.globl	_ZN4core3ptr8null_mut17h3b43a16dddb6aa7bE
	.p2align	4, 0x90
_ZN4core3ptr8null_mut17h3b43a16dddb6aa7bE:
.Lfunc_begin53:
	.cv_func_id 53
	.cv_loc	53 1 91 0
.Lcfi326:
.seh_proc _ZN4core3ptr8null_mut17h3b43a16dddb6aa7bE
	pushq	%rbp
.Lcfi327:
	.seh_pushreg 5
	movq	%rsp, %rbp
.Lcfi328:
	.seh_setframe 5, 0
.Lcfi329:
	.seh_endprologue
	xorl	%eax, %eax
.Ltmp155:
	popq	%rbp
	retq
.Ltmp156:
.Lfunc_end53:
	.seh_handlerdata
	.section	.text,"xr",one_only,_ZN4core3ptr8null_mut17h3b43a16dddb6aa7bE
.Lcfi330:
	.seh_endproc

	.def	 _ZN50_$LT$T$u20$as$u20$core..convert..Into$LT$U$GT$$GT$4into17h2fa3e750b0861dceE;
	.scl	2;
	.type	32;
	.endef
	.section	.text,"xr",one_only,_ZN50_$LT$T$u20$as$u20$core..convert..Into$LT$U$GT$$GT$4into17h2fa3e750b0861dceE
	.globl	_ZN50_$LT$T$u20$as$u20$core..convert..Into$LT$U$GT$$GT$4into17h2fa3e750b0861dceE
	.p2align	4, 0x90
_ZN50_$LT$T$u20$as$u20$core..convert..Into$LT$U$GT$$GT$4into17h2fa3e750b0861dceE:
.Lfunc_begin54:
	.cv_func_id 54
	.cv_file	2 "C:\\projects\\rust\\src\\libcore\\convert.rs"
	.cv_loc	54 2 414 0
.Lcfi331:
.seh_proc _ZN50_$LT$T$u20$as$u20$core..convert..Into$LT$U$GT$$GT$4into17h2fa3e750b0861dceE
	pushq	%rbp
.Lcfi332:
	.seh_pushreg 5
	subq	$48, %rsp
.Lcfi333:
	.seh_stackalloc 48
	leaq	48(%rsp), %rbp
.Lcfi334:
	.seh_setframe 5, 48
.Lcfi335:
	.seh_endprologue
	movq	%rcx, -8(%rbp)
.Ltmp157:
	.cv_loc	54 2 415 0
	movq	-8(%rbp), %rcx
	callq	_ZN101_$LT$core..ptr..Unique$LT$T$GT$$u20$as$u20$core..convert..From$LT$core..ptr..NonNull$LT$T$GT$$GT$$GT$4from17hdd28f1c8936d31a1E
	movq	%rax, -16(%rbp)
	.cv_loc	54 2 416 0
	movq	-16(%rbp), %rax
	addq	$48, %rsp
	popq	%rbp
	retq
.Ltmp158:
.Lfunc_end54:
	.seh_handlerdata
	.section	.text,"xr",one_only,_ZN50_$LT$T$u20$as$u20$core..convert..Into$LT$U$GT$$GT$4into17h2fa3e750b0861dceE
.Lcfi336:
	.seh_endproc

	.def	 _ZN50_$LT$T$u20$as$u20$core..convert..Into$LT$U$GT$$GT$4into17h586a5e9df13bb4fbE;
	.scl	2;
	.type	32;
	.endef
	.section	.text,"xr",one_only,_ZN50_$LT$T$u20$as$u20$core..convert..Into$LT$U$GT$$GT$4into17h586a5e9df13bb4fbE
	.globl	_ZN50_$LT$T$u20$as$u20$core..convert..Into$LT$U$GT$$GT$4into17h586a5e9df13bb4fbE
	.p2align	4, 0x90
_ZN50_$LT$T$u20$as$u20$core..convert..Into$LT$U$GT$$GT$4into17h586a5e9df13bb4fbE:
.Lfunc_begin55:
	.cv_func_id 55
	.cv_loc	55 2 414 0
.Lcfi337:
.seh_proc _ZN50_$LT$T$u20$as$u20$core..convert..Into$LT$U$GT$$GT$4into17h586a5e9df13bb4fbE
	pushq	%rbp
.Lcfi338:
	.seh_pushreg 5
	subq	$48, %rsp
.Lcfi339:
	.seh_stackalloc 48
	leaq	48(%rsp), %rbp
.Lcfi340:
	.seh_setframe 5, 48
.Lcfi341:
	.seh_endprologue
	movq	%rcx, -8(%rbp)
.Ltmp159:
	.cv_loc	55 2 415 0
	movq	-8(%rbp), %rcx
	callq	_ZN101_$LT$core..ptr..NonNull$LT$T$GT$$u20$as$u20$core..convert..From$LT$core..ptr..Unique$LT$T$GT$$GT$$GT$4from17hb727782b9ee05a51E
	movq	%rax, -16(%rbp)
	.cv_loc	55 2 416 0
	movq	-16(%rbp), %rax
	addq	$48, %rsp
	popq	%rbp
	retq
.Ltmp160:
.Lfunc_end55:
	.seh_handlerdata
	.section	.text,"xr",one_only,_ZN50_$LT$T$u20$as$u20$core..convert..Into$LT$U$GT$$GT$4into17h586a5e9df13bb4fbE
.Lcfi342:
	.seh_endproc

	.def	 _ZN50_$LT$T$u20$as$u20$core..convert..Into$LT$U$GT$$GT$4into17ha1bf4c736c17da51E;
	.scl	2;
	.type	32;
	.endef
	.section	.text,"xr",one_only,_ZN50_$LT$T$u20$as$u20$core..convert..Into$LT$U$GT$$GT$4into17ha1bf4c736c17da51E
	.globl	_ZN50_$LT$T$u20$as$u20$core..convert..Into$LT$U$GT$$GT$4into17ha1bf4c736c17da51E
	.p2align	4, 0x90
_ZN50_$LT$T$u20$as$u20$core..convert..Into$LT$U$GT$$GT$4into17ha1bf4c736c17da51E:
.Lfunc_begin56:
	.cv_func_id 56
	.cv_loc	56 2 414 0
.Lcfi343:
.seh_proc _ZN50_$LT$T$u20$as$u20$core..convert..Into$LT$U$GT$$GT$4into17ha1bf4c736c17da51E
	pushq	%rbp
.Lcfi344:
	.seh_pushreg 5
	subq	$48, %rsp
.Lcfi345:
	.seh_stackalloc 48
	leaq	48(%rsp), %rbp
.Lcfi346:
	.seh_setframe 5, 48
.Lcfi347:
	.seh_endprologue
	movq	%rcx, -8(%rbp)
.Ltmp161:
	.cv_loc	56 2 415 0
	movq	-8(%rbp), %rcx
	callq	_ZN101_$LT$core..ptr..NonNull$LT$T$GT$$u20$as$u20$core..convert..From$LT$core..ptr..Unique$LT$T$GT$$GT$$GT$4from17h1359ad18d0f1b263E
	movq	%rax, -16(%rbp)
	.cv_loc	56 2 416 0
	movq	-16(%rbp), %rax
	addq	$48, %rsp
	popq	%rbp
	retq
.Ltmp162:
.Lfunc_end56:
	.seh_handlerdata
	.section	.text,"xr",one_only,_ZN50_$LT$T$u20$as$u20$core..convert..Into$LT$U$GT$$GT$4into17ha1bf4c736c17da51E
.Lcfi348:
	.seh_endproc
