	.text
	.def	 _ZN8asteroid8graphics8Graphics3new17he3e7eadc9b0b4326E;
	.scl	2;
	.type	32;
	.endef
	.section	.text,"xr",one_only,_ZN8asteroid8graphics8Graphics3new17he3e7eadc9b0b4326E
	.globl	_ZN8asteroid8graphics8Graphics3new17he3e7eadc9b0b4326E
	.p2align	4, 0x90
_ZN8asteroid8graphics8Graphics3new17he3e7eadc9b0b4326E:
.Lfunc_begin0:
	.cv_func_id 0
	.cv_file	1 "C:\\Users\\Zack\\source\\asteroid\\src\\graphics.rs"
	.cv_loc	0 1 11 0 is_stmt 0
.Lcfi0:
.seh_proc _ZN8asteroid8graphics8Graphics3new17he3e7eadc9b0b4326E
	pushq	%rbp
.Lcfi1:
	.seh_pushreg 5
	subq	$32, %rsp
.Lcfi2:
	.seh_stackalloc 32
	leaq	32(%rsp), %rbp
.Lcfi3:
	.seh_setframe 5, 32
.Lcfi4:
	.seh_endprologue
	movq	%rcx, -32(%rbp)
	movq	%rdx, -24(%rbp)
.Ltmp0:
	.cv_loc	0 1 13 0
	movq	-32(%rbp), %rcx
	movq	-24(%rbp), %rdx
	.cv_loc	0 1 12 0
	movq	%rcx, -16(%rbp)
	movq	%rdx, -8(%rbp)
	.cv_loc	0 1 15 0
	movq	-16(%rbp), %rax
	movq	-8(%rbp), %rdx
	addq	$32, %rsp
	popq	%rbp
.Ltmp1:
	retq
.Ltmp2:
.Lfunc_end0:
	.seh_handlerdata
	.section	.text,"xr",one_only,_ZN8asteroid8graphics8Graphics3new17he3e7eadc9b0b4326E
.Lcfi5:
	.seh_endproc

	.def	 _ZN8asteroid8graphics8Graphics4draw17hb61fa7d8d875ad4bE;
	.scl	2;
	.type	32;
	.endef
	.section	.text,"xr",one_only,_ZN8asteroid8graphics8Graphics4draw17hb61fa7d8d875ad4bE
	.globl	_ZN8asteroid8graphics8Graphics4draw17hb61fa7d8d875ad4bE
	.p2align	4, 0x90
_ZN8asteroid8graphics8Graphics4draw17hb61fa7d8d875ad4bE:
.Lfunc_begin1:
	.cv_func_id 1
	.cv_loc	1 1 17 0
.Lcfi6:
.seh_proc _ZN8asteroid8graphics8Graphics4draw17hb61fa7d8d875ad4bE
	pushq	%rbp
.Lcfi7:
	.seh_pushreg 5
	pushq	%rsi
.Lcfi8:
	.seh_pushreg 6
	subq	$536, %rsp
.Lcfi9:
	.seh_stackalloc 536
	leaq	128(%rsp), %rbp
.Lcfi10:
	.seh_setframe 5, 128
.Lcfi11:
	.seh_endprologue
	movq	%rcx, 40(%rbp)
.Ltmp3:
	.cv_loc	1 1 19 0
	movl	(%rdx), %eax
	movl	%eax, %ecx
	movq	%rcx, %r8
	subq	$5, %r8
	movq	%rdx, 32(%rbp)
.Ltmp4:
	movq	%rcx, 24(%rbp)
	movq	%r8, 16(%rbp)
	ja	.LBB1_7
.Ltmp5:
	leaq	.LJTI1_0(%rip), %rax
	movq	24(%rbp), %rcx
	movslq	(%rax,%rcx,4), %rdx
	addq	%rax, %rdx
	jmpq	*%rdx
.Ltmp6:
.LBB1_1:
	movq	32(%rbp), %rax
	movl	4(%rax), %ecx
	movl	%ecx, 56(%rbp)
	movl	8(%rax), %ecx
	movl	%ecx, 60(%rbp)
	movl	12(%rax), %ecx
	movl	%ecx, 64(%rbp)
.Ltmp7:
	.cv_loc	1 1 20 0
	movq	40(%rbp), %rcx
	movl	56(%rbp), %edx
	addl	64(%rbp), %edx
	seto	%r8b
	testb	$1, %r8b
	movq	%rcx, 8(%rbp)
	movl	%edx, 4(%rbp)
	jne	.LBB1_29
	jmp	.LBB1_9
.Ltmp8:
.LBB1_2:
	.cv_loc	1 1 22 0
	movq	32(%rbp), %rax
	movl	4(%rax), %ecx
	movl	%ecx, 68(%rbp)
	movl	8(%rax), %ecx
	movl	%ecx, 72(%rbp)
	movl	12(%rax), %ecx
	movl	%ecx, 76(%rbp)
.Ltmp9:
	.cv_loc	1 1 23 0
	movq	40(%rbp), %rcx
	movl	68(%rbp), %edx
	addl	76(%rbp), %edx
	seto	%r8b
	testb	$1, %r8b
	movq	%rcx, -8(%rbp)
	movl	%edx, -12(%rbp)
	jne	.LBB1_27
	jmp	.LBB1_12
.Ltmp10:
.LBB1_3:
	leaq	192(%rbp), %rcx
	.cv_loc	1 1 25 0
	movq	32(%rbp), %rax
	movl	4(%rax), %edx
	movl	%edx, 80(%rbp)
	movl	8(%rax), %edx
	movl	%edx, 84(%rbp)
	movl	12(%rax), %edx
	movl	%edx, 88(%rbp)
	movl	16(%rax), %edx
	movl	%edx, 92(%rbp)
.Ltmp11:
	.cv_loc	1 1 26 0
	movq	40(%rbp), %rdx
	movl	80(%rbp), %r8d
	movl	84(%rbp), %r9d
	movl	88(%rbp), %r10d
	movl	92(%rbp), %r11d
	movq	%rdx, -24(%rbp)
	movl	%r8d, %edx
	movl	%r9d, %r8d
	movl	%r10d, %r9d
	movl	%r11d, 32(%rsp)
	callq	_ZN4sdl24rect4Rect3new17h764ad4223af14098E
	jmp	.LBB1_15
.Ltmp12:
.LBB1_4:
	leaq	232(%rbp), %rcx
	.cv_loc	1 1 28 0
	movq	32(%rbp), %rax
	movl	4(%rax), %edx
	movl	%edx, 96(%rbp)
	movl	8(%rax), %edx
	movl	%edx, 100(%rbp)
	movl	12(%rax), %edx
	movl	%edx, 104(%rbp)
	movl	16(%rax), %edx
	movl	%edx, 108(%rbp)
.Ltmp13:
	.cv_loc	1 1 29 0
	movq	40(%rbp), %rdx
	movl	96(%rbp), %r8d
	movl	100(%rbp), %r9d
	movl	104(%rbp), %r10d
	movl	108(%rbp), %r11d
	movq	%rdx, -32(%rbp)
	movl	%r8d, %edx
	movl	%r9d, %r8d
	movl	%r10d, %r9d
	movl	%r11d, 32(%rsp)
	callq	_ZN4sdl24rect4Rect3new17h764ad4223af14098E
	jmp	.LBB1_18
.Ltmp14:
.LBB1_5:
	movl	$1, %edx
	.cv_loc	1 1 31 0
	movq	32(%rbp), %rax
	movl	4(%rax), %ecx
	movl	%ecx, 112(%rbp)
	movl	8(%rax), %ecx
	movl	%ecx, 116(%rbp)
	movl	12(%rax), %ecx
	movl	%ecx, 120(%rbp)
	movl	16(%rax), %ecx
	movl	%ecx, 124(%rbp)
.Ltmp15:
	.cv_loc	1 1 32 0
	movq	40(%rbp), %rcx
	movl	112(%rbp), %r8d
	movl	116(%rbp), %r9d
	movl	120(%rbp), %r10d
	movl	124(%rbp), %r11d
	movl	%r10d, 32(%rsp)
	movl	%r11d, 40(%rsp)
	callq	_ZN8asteroid8graphics12draw_ellipse17hcf277a836583fad4E
	jmp	.LBB1_21
.Ltmp16:
.LBB1_6:
	xorl	%edx, %edx
	.cv_loc	1 1 34 0
	movq	32(%rbp), %rax
	movl	4(%rax), %ecx
	movl	%ecx, 128(%rbp)
	movl	8(%rax), %ecx
	movl	%ecx, 132(%rbp)
	movl	12(%rax), %ecx
	movl	%ecx, 136(%rbp)
	movl	16(%rax), %ecx
	movl	%ecx, 140(%rbp)
.Ltmp17:
	.cv_loc	1 1 35 0
	movq	40(%rbp), %rcx
	movl	128(%rbp), %r8d
	movl	132(%rbp), %r9d
	movl	136(%rbp), %r10d
	movl	140(%rbp), %r11d
	movl	%r10d, 32(%rsp)
	movl	%r11d, 40(%rsp)
	callq	_ZN8asteroid8graphics12draw_ellipse17hcf277a836583fad4E
	jmp	.LBB1_22
.Ltmp18:
.LBB1_7:
	leaq	_ZN61_$LT$asteroid..graphics..Draw$u20$as$u20$core..fmt..Debug$GT$3fmt17h35a4f553526b465bE(%rip), %rdx
	leaq	144(%rbp), %rax
	.cv_loc	1 1 38 0
	movq	32(%rbp), %rcx
	movq	(%rcx), %r8
	movq	%r8, 144(%rbp)
	movq	8(%rcx), %r8
	movq	%r8, 152(%rbp)
	movl	16(%rcx), %r9d
	movl	%r9d, 160(%rbp)
.Ltmp19:
	.cv_loc	1 1 39 0
	movq	%rax, 384(%rbp)
	movq	384(%rbp), %rax
	movq	%rax, 392(%rbp)
.Ltmp20:
	.cv_loc	1 1 39 0
	movq	392(%rbp), %rcx
	callq	_ZN4core3fmt10ArgumentV13new17hd93d38a0879647ffE
	movq	%rax, -40(%rbp)
	movq	%rdx, -48(%rbp)
	jmp	.LBB1_23
.Ltmp21:
.LBB1_8:
	.cv_loc	1 1 42 0
	addq	$536, %rsp
	popq	%rsi
	popq	%rbp
.Ltmp22:
	retq
.LBB1_9:
.Ltmp23:
	.cv_loc	1 1 20 0
	movl	60(%rbp), %eax
	addl	64(%rbp), %eax
	seto	%cl
	testb	$1, %cl
	movl	%eax, -52(%rbp)
	jne	.LBB1_30
.Ltmp24:
	movl	$1, %edx
	movl	64(%rbp), %eax
	movq	8(%rbp), %rcx
	movl	4(%rbp), %r8d
	movl	-52(%rbp), %r9d
	movl	%eax, 32(%rsp)
	callq	_ZN8asteroid8graphics11draw_circle17hfee8ea14744d9208E
.Ltmp25:
	.cv_loc	1 1 18 0
	jmp	.LBB1_8
.Ltmp26:
.LBB1_12:
	.cv_loc	1 1 23 0
	movl	72(%rbp), %eax
	addl	76(%rbp), %eax
	seto	%cl
	testb	$1, %cl
	movl	%eax, -56(%rbp)
	jne	.LBB1_28
.Ltmp27:
	xorl	%edx, %edx
	movl	76(%rbp), %eax
	movq	-8(%rbp), %rcx
	movl	-12(%rbp), %r8d
	movl	-56(%rbp), %r9d
	movl	%eax, 32(%rsp)
	callq	_ZN8asteroid8graphics11draw_circle17hfee8ea14744d9208E
.Ltmp28:
	.cv_loc	1 1 18 0
	jmp	.LBB1_8
.Ltmp29:
.LBB1_15:
	leaq	168(%rbp), %rcx
	leaq	192(%rbp), %r8
.Ltmp30:
	.cv_loc	1 1 26 0
	movq	-24(%rbp), %rdx
	callq	_ZN38_$LT$sdl2..render..Canvas$LT$T$GT$$GT$9fill_rect17hf13f44ff9bf9629fE
.Ltmp31:
	leaq	168(%rbp), %rcx
	callq	_ZN47_$LT$core..result..Result$LT$T$C$$u20$E$GT$$GT$6unwrap17hd7c7c77f09773cf5E
.Ltmp32:
	.cv_loc	1 1 18 0
	jmp	.LBB1_8
.Ltmp33:
.LBB1_18:
	leaq	208(%rbp), %rcx
	leaq	232(%rbp), %r8
.Ltmp34:
	.cv_loc	1 1 29 0
	movq	-32(%rbp), %rdx
	callq	_ZN38_$LT$sdl2..render..Canvas$LT$T$GT$$GT$9draw_rect17ha9498369d395c7f4E
.Ltmp35:
	leaq	208(%rbp), %rcx
	callq	_ZN47_$LT$core..result..Result$LT$T$C$$u20$E$GT$$GT$6unwrap17hd7c7c77f09773cf5E
.Ltmp36:
	.cv_loc	1 1 18 0
	jmp	.LBB1_8
.Ltmp37:
.LBB1_21:
	jmp	.LBB1_8
.Ltmp38:
.LBB1_22:
	jmp	.LBB1_8
.Ltmp39:
.LBB1_23:
	leaq	320(%rbp), %rcx
	leaq	ref.3(%rip), %rax
	movl	$1, %edx
	movl	%edx, %r8d
	leaq	368(%rbp), %r9
.Ltmp40:
	.cv_loc	1 1 39 0
	movq	-40(%rbp), %r10
	movq	%r10, 368(%rbp)
	movq	-48(%rbp), %r11
	movq	%r11, 376(%rbp)
.Ltmp41:
	.cv_loc	1 1 39 0
	movq	const.5(%rip), %rsi
	movq	%rax, %rdx
	movq	$1, 32(%rsp)
	movq	%rsi, 40(%rsp)
	movq	$1, 48(%rsp)
	callq	_ZN4core3fmt9Arguments16new_v1_formatted17h647572f4005f46b4E
.Ltmp42:
	leaq	_ZN73_$LT$core..fmt..Arguments$LT$$u27$a$GT$$u20$as$u20$core..fmt..Display$GT$3fmt17h9669ee5033e6af92E(%rip), %rdx
	leaq	320(%rbp), %rax
	movq	%rax, 312(%rbp)
	movq	312(%rbp), %rax
	movq	%rax, 400(%rbp)
.Ltmp43:
	.cv_loc	1 1 39 0
	movq	400(%rbp), %rcx
	callq	_ZN4core3fmt10ArgumentV13new17hf824271e495627a5E
	movq	%rax, -64(%rbp)
	movq	%rdx, -72(%rbp)
.Ltmp44:
	leaq	248(%rbp), %rcx
	leaq	ref.1(%rip), %rax
	movl	$1, %edx
	movl	%edx, %r8d
	leaq	296(%rbp), %r9
	movq	-64(%rbp), %r10
	movq	%r10, 296(%rbp)
	movq	-72(%rbp), %r11
	movq	%r11, 304(%rbp)
.Ltmp45:
	.cv_loc	1 1 39 0
	movq	const.5(%rip), %rsi
	movq	%rax, %rdx
	movq	$1, 32(%rsp)
	movq	%rsi, 40(%rsp)
	movq	$1, 48(%rsp)
	callq	_ZN4core3fmt9Arguments16new_v1_formatted17h647572f4005f46b4E
.Ltmp46:
	movq	const.8(%rip), %rdx
	leaq	248(%rbp), %rcx
	callq	_ZN3std9panicking15begin_panic_fmt17hfbb7d0ccbb7102e9E
	ud2
.Ltmp47:
.LBB1_27:
	.cv_loc	1 1 23 0
	leaq	panic_loc.a(%rip), %rcx
	callq	_ZN4core9panicking5panic17hb14241805eba0fdcE
	ud2
.Ltmp48:
.LBB1_28:
	leaq	panic_loc.b(%rip), %rcx
	callq	_ZN4core9panicking5panic17hb14241805eba0fdcE
	ud2
.Ltmp49:
.LBB1_29:
	.cv_loc	1 1 20 0
	leaq	panic_loc.c(%rip), %rcx
	callq	_ZN4core9panicking5panic17hb14241805eba0fdcE
	ud2
.Ltmp50:
.LBB1_30:
	leaq	panic_loc.d(%rip), %rcx
	callq	_ZN4core9panicking5panic17hb14241805eba0fdcE
	ud2
.Ltmp51:
.Lfunc_end1:
	.p2align	2, 0x90
.LJTI1_0:
	.long	.LBB1_1-.LJTI1_0
	.long	.LBB1_2-.LJTI1_0
	.long	.LBB1_3-.LJTI1_0
	.long	.LBB1_4-.LJTI1_0
	.long	.LBB1_5-.LJTI1_0
	.long	.LBB1_6-.LJTI1_0
	.seh_handlerdata
	.section	.text,"xr",one_only,_ZN8asteroid8graphics8Graphics4draw17hb61fa7d8d875ad4bE
.Lcfi12:
	.seh_endproc

	.def	 _ZN8asteroid8graphics8Graphics9set_color17heb19adb414cd643eE;
	.scl	2;
	.type	32;
	.endef
	.section	.text,"xr",one_only,_ZN8asteroid8graphics8Graphics9set_color17heb19adb414cd643eE
	.globl	_ZN8asteroid8graphics8Graphics9set_color17heb19adb414cd643eE
	.p2align	4, 0x90
_ZN8asteroid8graphics8Graphics9set_color17heb19adb414cd643eE:
.Lfunc_begin2:
	.cv_func_id 2
	.cv_loc	2 1 44 0
.Lcfi13:
.seh_proc _ZN8asteroid8graphics8Graphics9set_color17heb19adb414cd643eE
	pushq	%rbp
.Lcfi14:
	.seh_pushreg 5
	subq	$64, %rsp
.Lcfi15:
	.seh_stackalloc 64
	leaq	64(%rsp), %rbp
.Lcfi16:
	.seh_setframe 5, 64
.Lcfi17:
	.seh_endprologue
	movb	%r9b, %al
	movb	%r8b, %r10b
	movb	%dl, %r11b
	movq	%rcx, -24(%rbp)
	movb	%r11b, -11(%rbp)
	movb	%r10b, -10(%rbp)
	movb	%al, -9(%rbp)
.Ltmp52:
	.cv_loc	2 1 45 0
	movq	-24(%rbp), %rcx
	movb	-11(%rbp), %al
	movb	-10(%rbp), %r10b
	movzbl	%al, %edx
	movq	%rcx, -32(%rbp)
	movl	%edx, %ecx
	movzbl	%r10b, %edx
	movzbl	-9(%rbp), %r8d
	callq	_ZN4sdl26pixels5Color3RGB17h45ec15c7674b0687E
	movl	%eax, -4(%rbp)
	movl	-4(%rbp), %eax
	movl	%eax, -8(%rbp)
	movl	-8(%rbp), %edx
	movq	-32(%rbp), %rcx
	callq	_ZN38_$LT$sdl2..render..Canvas$LT$T$GT$$GT$14set_draw_color17ha1f3de5ffac9bc12E
	.cv_loc	2 1 46 0
	nop
	addq	$64, %rsp
	popq	%rbp
	retq
.Ltmp53:
.Lfunc_end2:
	.seh_handlerdata
	.section	.text,"xr",one_only,_ZN8asteroid8graphics8Graphics9set_color17heb19adb414cd643eE
.Lcfi18:
	.seh_endproc

	.def	 _ZN8asteroid8graphics11draw_circle17hfee8ea14744d9208E;
	.scl	3;
	.type	32;
	.endef
	.section	.text,"xr",one_only,_ZN8asteroid8graphics11draw_circle17hfee8ea14744d9208E
	.p2align	4, 0x90
_ZN8asteroid8graphics11draw_circle17hfee8ea14744d9208E:
.Lfunc_begin3:
	.cv_func_id 3
	.cv_loc	3 1 93 0
.Lcfi19:
.seh_proc _ZN8asteroid8graphics11draw_circle17hfee8ea14744d9208E
	pushq	%rbp
.Lcfi20:
	.seh_pushreg 5
	subq	$528, %rsp
.Lcfi21:
	.seh_stackalloc 528
	leaq	128(%rsp), %rbp
.Lcfi22:
	.seh_setframe 5, 128
.Lcfi23:
	.seh_endprologue
	movb	%dl, %al
	movl	448(%rbp), %edx
	movl	$2, %r10d
	movq	%rcx, 200(%rbp)
	andb	$1, %al
	movb	%al, 211(%rbp)
	movl	%r8d, 212(%rbp)
	movl	%r9d, 216(%rbp)
	movl	%edx, 220(%rbp)
.Ltmp54:
	.cv_loc	3 1 94 0
	movl	$0, 224(%rbp)
.Ltmp55:
	.cv_loc	3 1 95 0
	movl	220(%rbp), %edx
	movl	%edx, 228(%rbp)
.Ltmp56:
	.cv_loc	3 1 96 0
	imull	220(%rbp), %r10d
	seto	%al
	testb	$1, %al
	movl	%r10d, 196(%rbp)
	jne	.LBB3_77
	movl	$2, %eax
	movl	196(%rbp), %ecx
	subl	%ecx, %eax
	seto	%dl
	testb	$1, %dl
	movl	%eax, 192(%rbp)
	jne	.LBB3_78
	movl	192(%rbp), %eax
	movl	%eax, 232(%rbp)
.LBB3_3:
.Ltmp57:
	.cv_loc	3 1 99 0
	cmpl	$0, 228(%rbp)
	jge	.LBB3_5
.Ltmp58:
	.cv_loc	3 1 128 0
	addq	$528, %rsp
	popq	%rbp
	retq
.LBB3_5:
.Ltmp59:
	.cv_loc	3 1 100 0
	testb	$1, 211(%rbp)
	je	.LBB3_7
	.cv_loc	3 1 101 0
	movq	200(%rbp), %rdx
	movl	212(%rbp), %eax
	addl	224(%rbp), %eax
	seto	%cl
	testb	$1, %cl
	movq	%rdx, 184(%rbp)
	movl	%eax, 180(%rbp)
	jne	.LBB3_79
	jmp	.LBB3_8
.LBB3_7:
	.cv_loc	3 1 104 0
	movq	200(%rbp), %rdx
	movl	212(%rbp), %eax
	addl	224(%rbp), %eax
	seto	%cl
	testb	$1, %cl
	movq	%rdx, 168(%rbp)
	movl	%eax, 164(%rbp)
	jne	.LBB3_87
	jmp	.LBB3_24
.LBB3_8:
	.cv_loc	3 1 101 0
	movl	216(%rbp), %eax
	addl	228(%rbp), %eax
	seto	%cl
	testb	$1, %cl
	movl	%eax, 160(%rbp)
	jne	.LBB3_80
	movl	180(%rbp), %ecx
	movl	160(%rbp), %edx
	callq	_ZN4sdl24rect5Point3new17h9cb919e4df9f445fE
	movl	%eax, 156(%rbp)
	movl	%edx, 152(%rbp)
	movl	212(%rbp), %eax
	subl	224(%rbp), %eax
	seto	%cl
	testb	$1, %cl
	movl	%eax, 148(%rbp)
	jne	.LBB3_81
	movl	216(%rbp), %eax
	addl	228(%rbp), %eax
	seto	%cl
	testb	$1, %cl
	movl	%eax, 144(%rbp)
	jne	.LBB3_82
	movl	148(%rbp), %ecx
	movl	144(%rbp), %edx
	callq	_ZN4sdl24rect5Point3new17h9cb919e4df9f445fE
	movl	%eax, 140(%rbp)
	movl	%edx, 136(%rbp)
	leaq	248(%rbp), %rcx
	movq	184(%rbp), %rdx
	movl	156(%rbp), %r8d
	movl	152(%rbp), %r9d
	movl	140(%rbp), %eax
	movl	%eax, 32(%rsp)
	movl	136(%rbp), %r10d
	movl	%r10d, 40(%rsp)
	callq	_ZN38_$LT$sdl2..render..Canvas$LT$T$GT$$GT$9draw_line17h4436f1769420c747E
	leaq	248(%rbp), %rcx
	callq	_ZN47_$LT$core..result..Result$LT$T$C$$u20$E$GT$$GT$6unwrap17hd7c7c77f09773cf5E
	.cv_loc	3 1 102 0
	movq	200(%rbp), %rdx
	movl	212(%rbp), %eax
	addl	224(%rbp), %eax
	seto	%cl
	testb	$1, %cl
	movq	%rdx, 128(%rbp)
	movl	%eax, 124(%rbp)
	jne	.LBB3_83
	movl	216(%rbp), %eax
	subl	228(%rbp), %eax
	seto	%cl
	testb	$1, %cl
	movl	%eax, 120(%rbp)
	jne	.LBB3_84
	movl	124(%rbp), %ecx
	movl	120(%rbp), %edx
	callq	_ZN4sdl24rect5Point3new17h9cb919e4df9f445fE
	movl	%eax, 116(%rbp)
	movl	%edx, 112(%rbp)
	movl	212(%rbp), %eax
	subl	224(%rbp), %eax
	seto	%cl
	testb	$1, %cl
	movl	%eax, 108(%rbp)
	jne	.LBB3_85
	movl	216(%rbp), %eax
	subl	228(%rbp), %eax
	seto	%cl
	testb	$1, %cl
	movl	%eax, 104(%rbp)
	jne	.LBB3_86
	movl	108(%rbp), %ecx
	movl	104(%rbp), %edx
	callq	_ZN4sdl24rect5Point3new17h9cb919e4df9f445fE
	movl	%eax, 100(%rbp)
	movl	%edx, 96(%rbp)
	leaq	272(%rbp), %rcx
	movq	128(%rbp), %rdx
	movl	116(%rbp), %r8d
	movl	112(%rbp), %r9d
	movl	100(%rbp), %eax
	movl	%eax, 32(%rsp)
	movl	96(%rbp), %r10d
	movl	%r10d, 40(%rsp)
	callq	_ZN38_$LT$sdl2..render..Canvas$LT$T$GT$$GT$9draw_line17h4436f1769420c747E
	leaq	272(%rbp), %rcx
	callq	_ZN47_$LT$core..result..Result$LT$T$C$$u20$E$GT$$GT$6unwrap17hd7c7c77f09773cf5E
	.cv_loc	3 1 100 0
	jmp	.LBB3_44
.LBB3_24:
	.cv_loc	3 1 104 0
	movl	216(%rbp), %eax
	addl	228(%rbp), %eax
	seto	%cl
	testb	$1, %cl
	movl	%eax, 92(%rbp)
	jne	.LBB3_88
	movl	164(%rbp), %ecx
	movl	92(%rbp), %edx
	callq	_ZN4sdl24rect5Point3new17h9cb919e4df9f445fE
	movl	%eax, 88(%rbp)
	movl	%edx, 84(%rbp)
	leaq	296(%rbp), %rcx
	movq	168(%rbp), %rdx
	movl	88(%rbp), %r8d
	movl	84(%rbp), %r9d
	callq	_ZN38_$LT$sdl2..render..Canvas$LT$T$GT$$GT$10draw_point17h3ac267d0c38d8f7cE
	leaq	296(%rbp), %rcx
	callq	_ZN47_$LT$core..result..Result$LT$T$C$$u20$E$GT$$GT$6unwrap17hd7c7c77f09773cf5E
	.cv_loc	3 1 105 0
	movq	200(%rbp), %rdx
	movl	212(%rbp), %eax
	subl	224(%rbp), %eax
	seto	%cl
	testb	$1, %cl
	movq	%rdx, 72(%rbp)
	movl	%eax, 68(%rbp)
	jne	.LBB3_89
	movl	216(%rbp), %eax
	addl	228(%rbp), %eax
	seto	%cl
	testb	$1, %cl
	movl	%eax, 64(%rbp)
	jne	.LBB3_90
	movl	68(%rbp), %ecx
	movl	64(%rbp), %edx
	callq	_ZN4sdl24rect5Point3new17h9cb919e4df9f445fE
	movl	%eax, 60(%rbp)
	movl	%edx, 56(%rbp)
	leaq	320(%rbp), %rcx
	movq	72(%rbp), %rdx
	movl	60(%rbp), %r8d
	movl	56(%rbp), %r9d
	callq	_ZN38_$LT$sdl2..render..Canvas$LT$T$GT$$GT$10draw_point17h3ac267d0c38d8f7cE
	leaq	320(%rbp), %rcx
	callq	_ZN47_$LT$core..result..Result$LT$T$C$$u20$E$GT$$GT$6unwrap17hd7c7c77f09773cf5E
	.cv_loc	3 1 106 0
	movq	200(%rbp), %rdx
	movl	212(%rbp), %eax
	addl	224(%rbp), %eax
	seto	%cl
	testb	$1, %cl
	movq	%rdx, 48(%rbp)
	movl	%eax, 44(%rbp)
	jne	.LBB3_91
	movl	216(%rbp), %eax
	subl	228(%rbp), %eax
	seto	%cl
	testb	$1, %cl
	movl	%eax, 40(%rbp)
	jne	.LBB3_92
	movl	44(%rbp), %ecx
	movl	40(%rbp), %edx
	callq	_ZN4sdl24rect5Point3new17h9cb919e4df9f445fE
	movl	%eax, 36(%rbp)
	movl	%edx, 32(%rbp)
	leaq	344(%rbp), %rcx
	movq	48(%rbp), %rdx
	movl	36(%rbp), %r8d
	movl	32(%rbp), %r9d
	callq	_ZN38_$LT$sdl2..render..Canvas$LT$T$GT$$GT$10draw_point17h3ac267d0c38d8f7cE
	leaq	344(%rbp), %rcx
	callq	_ZN47_$LT$core..result..Result$LT$T$C$$u20$E$GT$$GT$6unwrap17hd7c7c77f09773cf5E
	.cv_loc	3 1 107 0
	movq	200(%rbp), %rdx
	movl	212(%rbp), %eax
	subl	224(%rbp), %eax
	seto	%cl
	testb	$1, %cl
	movq	%rdx, 24(%rbp)
	movl	%eax, 20(%rbp)
	jne	.LBB3_93
	movl	216(%rbp), %eax
	subl	228(%rbp), %eax
	seto	%cl
	testb	$1, %cl
	movl	%eax, 16(%rbp)
	jne	.LBB3_94
	movl	20(%rbp), %ecx
	movl	16(%rbp), %edx
	callq	_ZN4sdl24rect5Point3new17h9cb919e4df9f445fE
	movl	%eax, 12(%rbp)
	movl	%edx, 8(%rbp)
	leaq	368(%rbp), %rcx
	movq	24(%rbp), %rdx
	movl	12(%rbp), %r8d
	movl	8(%rbp), %r9d
	callq	_ZN38_$LT$sdl2..render..Canvas$LT$T$GT$$GT$10draw_point17h3ac267d0c38d8f7cE
	leaq	368(%rbp), %rcx
	callq	_ZN47_$LT$core..result..Result$LT$T$C$$u20$E$GT$$GT$6unwrap17hd7c7c77f09773cf5E
	.cv_loc	3 1 100 0
	jmp	.LBB3_44
.LBB3_44:
	.cv_loc	3 1 110 0
	movl	232(%rbp), %eax
	addl	228(%rbp), %eax
	seto	%cl
	testb	$1, %cl
	movl	%eax, 4(%rbp)
	jne	.LBB3_95
	movl	$2, %eax
	movl	4(%rbp), %ecx
	imull	%eax, %ecx
	seto	%dl
	testb	$1, %dl
	movl	%ecx, (%rbp)
	jne	.LBB3_96
	movl	(%rbp), %eax
	decl	%eax
	seto	%cl
	testb	$1, %cl
	movl	%eax, -4(%rbp)
	jne	.LBB3_97
	movl	-4(%rbp), %eax
	movl	%eax, 236(%rbp)
	.cv_loc	3 1 111 0
	cmpl	$0, 232(%rbp)
	jl	.LBB3_50
	jmp	.LBB3_49
.LBB3_48:
	movb	$1, 398(%rbp)
	jmp	.LBB3_51
.LBB3_49:
	movb	$0, 398(%rbp)
	jmp	.LBB3_51
.LBB3_50:
	cmpl	$0, 236(%rbp)
	jle	.LBB3_48
	jmp	.LBB3_49
.LBB3_51:
	testb	$1, 398(%rbp)
	je	.LBB3_53
	.cv_loc	3 1 112 0
	movl	224(%rbp), %eax
	incl	%eax
	seto	%cl
	testb	$1, %cl
	movl	%eax, -8(%rbp)
	jne	.LBB3_98
	jmp	.LBB3_54
.LBB3_53:
	.cv_loc	3 1 117 0
	movl	232(%rbp), %eax
	subl	224(%rbp), %eax
	seto	%cl
	testb	$1, %cl
	movl	%eax, -12(%rbp)
	jne	.LBB3_102
	jmp	.LBB3_59
.LBB3_54:
	movl	$2, %eax
	.cv_loc	3 1 112 0
	movl	-8(%rbp), %ecx
	movl	%ecx, 224(%rbp)
	.cv_loc	3 1 113 0
	imull	224(%rbp), %eax
	seto	%dl
	testb	$1, %dl
	movl	%eax, -16(%rbp)
	jne	.LBB3_99
	movl	-16(%rbp), %eax
	incl	%eax
	seto	%cl
	testb	$1, %cl
	movl	%eax, -20(%rbp)
	jne	.LBB3_100
	movl	-20(%rbp), %eax
	addl	232(%rbp), %eax
	seto	%cl
	testb	$1, %cl
	movl	%eax, -24(%rbp)
	jne	.LBB3_101
	movl	-24(%rbp), %eax
	movl	%eax, 232(%rbp)
.LBB3_58:
	.cv_loc	3 1 114 0
	jmp	.LBB3_3
.LBB3_59:
	movl	$2, %eax
	.cv_loc	3 1 117 0
	movl	-12(%rbp), %ecx
	imull	%eax, %ecx
	seto	%dl
	testb	$1, %dl
	movl	%ecx, -28(%rbp)
	jne	.LBB3_103
	movl	-28(%rbp), %eax
	decl	%eax
	seto	%cl
	testb	$1, %cl
	movl	%eax, -32(%rbp)
	jne	.LBB3_104
	movl	-32(%rbp), %eax
	movl	%eax, 236(%rbp)
	.cv_loc	3 1 118 0
	cmpl	$0, 232(%rbp)
	jg	.LBB3_64
	jmp	.LBB3_63
.LBB3_62:
	movb	$1, 399(%rbp)
	jmp	.LBB3_65
.LBB3_63:
	movb	$0, 399(%rbp)
	jmp	.LBB3_65
.LBB3_64:
	cmpl	$0, 236(%rbp)
	jg	.LBB3_62
	jmp	.LBB3_63
.LBB3_65:
	testb	$1, 399(%rbp)
	je	.LBB3_67
	.cv_loc	3 1 119 0
	movl	228(%rbp), %eax
	decl	%eax
	seto	%cl
	testb	$1, %cl
	movl	%eax, -36(%rbp)
	jne	.LBB3_105
	jmp	.LBB3_68
.LBB3_67:
	.cv_loc	3 1 124 0
	movl	224(%rbp), %eax
	incl	%eax
	seto	%cl
	testb	$1, %cl
	movl	%eax, -40(%rbp)
	jne	.LBB3_109
	jmp	.LBB3_72
.LBB3_68:
	movl	$2, %eax
	.cv_loc	3 1 119 0
	movl	-36(%rbp), %ecx
	movl	%ecx, 228(%rbp)
	.cv_loc	3 1 120 0
	imull	228(%rbp), %eax
	seto	%dl
	testb	$1, %dl
	movl	%eax, -44(%rbp)
	jne	.LBB3_106
	movl	$1, %eax
	movl	-44(%rbp), %ecx
	subl	%ecx, %eax
	seto	%dl
	testb	$1, %dl
	movl	%eax, -48(%rbp)
	jne	.LBB3_107
	movl	-48(%rbp), %eax
	addl	232(%rbp), %eax
	seto	%cl
	testb	$1, %cl
	movl	%eax, -52(%rbp)
	jne	.LBB3_108
	movl	-52(%rbp), %eax
	movl	%eax, 232(%rbp)
	.cv_loc	3 1 121 0
	jmp	.LBB3_58
.LBB3_72:
	.cv_loc	3 1 124 0
	movl	-40(%rbp), %eax
	movl	%eax, 224(%rbp)
	.cv_loc	3 1 125 0
	movl	224(%rbp), %ecx
	subl	228(%rbp), %ecx
	seto	%dl
	testb	$1, %dl
	movl	%ecx, -56(%rbp)
	jne	.LBB3_110
	movl	$2, %eax
	movl	-56(%rbp), %ecx
	imull	%eax, %ecx
	seto	%dl
	testb	$1, %dl
	movl	%ecx, -60(%rbp)
	jne	.LBB3_111
	movl	-60(%rbp), %eax
	addl	232(%rbp), %eax
	seto	%cl
	testb	$1, %cl
	movl	%eax, -64(%rbp)
	jne	.LBB3_112
	movl	-64(%rbp), %eax
	movl	%eax, 232(%rbp)
	.cv_loc	3 1 126 0
	movl	228(%rbp), %ecx
	decl	%ecx
	seto	%dl
	testb	$1, %dl
	movl	%ecx, -68(%rbp)
	jne	.LBB3_113
	movl	-68(%rbp), %eax
	movl	%eax, 228(%rbp)
	.cv_loc	3 1 99 0
	jmp	.LBB3_3
.Ltmp60:
.LBB3_77:
	.cv_loc	3 1 96 0
	leaq	panic_loc.f(%rip), %rcx
	callq	_ZN4core9panicking5panic17hb14241805eba0fdcE
	ud2
.LBB3_78:
	leaq	panic_loc.h(%rip), %rcx
	callq	_ZN4core9panicking5panic17hb14241805eba0fdcE
	ud2
.LBB3_79:
.Ltmp61:
	.cv_loc	3 1 101 0
	leaq	panic_loc.i(%rip), %rcx
	callq	_ZN4core9panicking5panic17hb14241805eba0fdcE
	ud2
.LBB3_80:
	leaq	panic_loc.j(%rip), %rcx
	callq	_ZN4core9panicking5panic17hb14241805eba0fdcE
	ud2
.LBB3_81:
	leaq	panic_loc.k(%rip), %rcx
	callq	_ZN4core9panicking5panic17hb14241805eba0fdcE
	ud2
.LBB3_82:
	leaq	panic_loc.l(%rip), %rcx
	callq	_ZN4core9panicking5panic17hb14241805eba0fdcE
	ud2
.LBB3_83:
	.cv_loc	3 1 102 0
	leaq	panic_loc.m(%rip), %rcx
	callq	_ZN4core9panicking5panic17hb14241805eba0fdcE
	ud2
.LBB3_84:
	leaq	panic_loc.n(%rip), %rcx
	callq	_ZN4core9panicking5panic17hb14241805eba0fdcE
	ud2
.LBB3_85:
	leaq	panic_loc.o(%rip), %rcx
	callq	_ZN4core9panicking5panic17hb14241805eba0fdcE
	ud2
.LBB3_86:
	leaq	panic_loc.p(%rip), %rcx
	callq	_ZN4core9panicking5panic17hb14241805eba0fdcE
	ud2
.LBB3_87:
	.cv_loc	3 1 104 0
	leaq	panic_loc.q(%rip), %rcx
	callq	_ZN4core9panicking5panic17hb14241805eba0fdcE
	ud2
.LBB3_88:
	leaq	panic_loc.r(%rip), %rcx
	callq	_ZN4core9panicking5panic17hb14241805eba0fdcE
	ud2
.LBB3_89:
	.cv_loc	3 1 105 0
	leaq	panic_loc.s(%rip), %rcx
	callq	_ZN4core9panicking5panic17hb14241805eba0fdcE
	ud2
.LBB3_90:
	leaq	panic_loc.t(%rip), %rcx
	callq	_ZN4core9panicking5panic17hb14241805eba0fdcE
	ud2
.LBB3_91:
	.cv_loc	3 1 106 0
	leaq	panic_loc.u(%rip), %rcx
	callq	_ZN4core9panicking5panic17hb14241805eba0fdcE
	ud2
.LBB3_92:
	leaq	panic_loc.v(%rip), %rcx
	callq	_ZN4core9panicking5panic17hb14241805eba0fdcE
	ud2
.LBB3_93:
	.cv_loc	3 1 107 0
	leaq	panic_loc.w(%rip), %rcx
	callq	_ZN4core9panicking5panic17hb14241805eba0fdcE
	ud2
.LBB3_94:
	leaq	panic_loc.x(%rip), %rcx
	callq	_ZN4core9panicking5panic17hb14241805eba0fdcE
	ud2
.LBB3_95:
	.cv_loc	3 1 110 0
	leaq	panic_loc.y(%rip), %rcx
	callq	_ZN4core9panicking5panic17hb14241805eba0fdcE
	ud2
.LBB3_96:
	leaq	panic_loc.z(%rip), %rcx
	callq	_ZN4core9panicking5panic17hb14241805eba0fdcE
	ud2
.LBB3_97:
	leaq	panic_loc.A(%rip), %rcx
	callq	_ZN4core9panicking5panic17hb14241805eba0fdcE
	ud2
.LBB3_98:
	.cv_loc	3 1 112 0
	leaq	panic_loc.B(%rip), %rcx
	callq	_ZN4core9panicking5panic17hb14241805eba0fdcE
	ud2
.LBB3_99:
	.cv_loc	3 1 113 0
	leaq	panic_loc.C(%rip), %rcx
	callq	_ZN4core9panicking5panic17hb14241805eba0fdcE
	ud2
.LBB3_100:
	leaq	panic_loc.D(%rip), %rcx
	callq	_ZN4core9panicking5panic17hb14241805eba0fdcE
	ud2
.LBB3_101:
	leaq	panic_loc.E(%rip), %rcx
	callq	_ZN4core9panicking5panic17hb14241805eba0fdcE
	ud2
.LBB3_102:
	.cv_loc	3 1 117 0
	leaq	panic_loc.F(%rip), %rcx
	callq	_ZN4core9panicking5panic17hb14241805eba0fdcE
	ud2
.LBB3_103:
	leaq	panic_loc.G(%rip), %rcx
	callq	_ZN4core9panicking5panic17hb14241805eba0fdcE
	ud2
.LBB3_104:
	leaq	panic_loc.H(%rip), %rcx
	callq	_ZN4core9panicking5panic17hb14241805eba0fdcE
	ud2
.LBB3_105:
	.cv_loc	3 1 119 0
	leaq	panic_loc.I(%rip), %rcx
	callq	_ZN4core9panicking5panic17hb14241805eba0fdcE
	ud2
.LBB3_106:
	.cv_loc	3 1 120 0
	leaq	panic_loc.J(%rip), %rcx
	callq	_ZN4core9panicking5panic17hb14241805eba0fdcE
	ud2
.LBB3_107:
	leaq	panic_loc.K(%rip), %rcx
	callq	_ZN4core9panicking5panic17hb14241805eba0fdcE
	ud2
.LBB3_108:
	leaq	panic_loc.L(%rip), %rcx
	callq	_ZN4core9panicking5panic17hb14241805eba0fdcE
	ud2
.LBB3_109:
	.cv_loc	3 1 124 0
	leaq	panic_loc.M(%rip), %rcx
	callq	_ZN4core9panicking5panic17hb14241805eba0fdcE
	ud2
.LBB3_110:
	.cv_loc	3 1 125 0
	leaq	panic_loc.N(%rip), %rcx
	callq	_ZN4core9panicking5panic17hb14241805eba0fdcE
	ud2
.LBB3_111:
	leaq	panic_loc.O(%rip), %rcx
	callq	_ZN4core9panicking5panic17hb14241805eba0fdcE
	ud2
.LBB3_112:
	leaq	panic_loc.P(%rip), %rcx
	callq	_ZN4core9panicking5panic17hb14241805eba0fdcE
	ud2
.LBB3_113:
	.cv_loc	3 1 126 0
	leaq	panic_loc.Q(%rip), %rcx
	callq	_ZN4core9panicking5panic17hb14241805eba0fdcE
	ud2
.Ltmp62:
.Lfunc_end3:
	.seh_handlerdata
	.section	.text,"xr",one_only,_ZN8asteroid8graphics11draw_circle17hfee8ea14744d9208E
.Lcfi24:
	.seh_endproc

	.def	 _ZN8asteroid8graphics12draw_ellipse17hcf277a836583fad4E;
	.scl	3;
	.type	32;
	.endef
	.section	.text,"xr",one_only,_ZN8asteroid8graphics12draw_ellipse17hcf277a836583fad4E
	.p2align	4, 0x90
_ZN8asteroid8graphics12draw_ellipse17hcf277a836583fad4E:
.Lfunc_begin4:
	.cv_func_id 4
	.cv_loc	4 1 130 0
.Lcfi25:
.seh_proc _ZN8asteroid8graphics12draw_ellipse17hcf277a836583fad4E
	pushq	%rbp
.Lcfi26:
	.seh_pushreg 5
	subq	$1008, %rsp
.Lcfi27:
	.seh_stackalloc 1008
	leaq	128(%rsp), %rbp
.Lcfi28:
	.seh_setframe 5, 128
.Lcfi29:
	.seh_endprologue
	movb	%dl, %al
	movl	936(%rbp), %edx
	movl	928(%rbp), %r10d
	movq	%rcx, 480(%rbp)
	andb	$1, %al
	movb	%al, 491(%rbp)
	movl	%r8d, 492(%rbp)
	movl	%r9d, 496(%rbp)
	movl	%r10d, 500(%rbp)
	movl	%edx, 504(%rbp)
.Ltmp63:
	.cv_loc	4 1 131 0
	movl	492(%rbp), %edx
	addl	500(%rbp), %edx
	seto	%al
	testb	$1, %al
	movl	%edx, 476(%rbp)
	jne	.LBB4_129
	movl	476(%rbp), %eax
	movl	%eax, 508(%rbp)
.Ltmp64:
	.cv_loc	4 1 132 0
	movl	496(%rbp), %ecx
	addl	504(%rbp), %ecx
	seto	%dl
	testb	$1, %dl
	movl	%ecx, 472(%rbp)
	jne	.LBB4_130
	movl	472(%rbp), %eax
	movl	%eax, 512(%rbp)
.Ltmp65:
	.cv_loc	4 1 134 0
	movl	500(%rbp), %ecx
	imull	500(%rbp), %ecx
	seto	%dl
	testb	$1, %dl
	movl	%ecx, 468(%rbp)
	jne	.LBB4_131
	movl	468(%rbp), %eax
	movl	%eax, 516(%rbp)
.Ltmp66:
	.cv_loc	4 1 135 0
	movl	504(%rbp), %ecx
	imull	504(%rbp), %ecx
	seto	%dl
	testb	$1, %dl
	movl	%ecx, 464(%rbp)
	jne	.LBB4_132
	movl	$4, %eax
	movl	464(%rbp), %ecx
	movl	%ecx, 520(%rbp)
.Ltmp67:
	.cv_loc	4 1 136 0
	imull	516(%rbp), %eax
	seto	%dl
	testb	$1, %dl
	movl	%eax, 460(%rbp)
	jne	.LBB4_133
	movl	$4, %eax
	movl	460(%rbp), %ecx
	movl	%ecx, 524(%rbp)
.Ltmp68:
	.cv_loc	4 1 137 0
	imull	520(%rbp), %eax
	seto	%dl
	testb	$1, %dl
	movl	%eax, 456(%rbp)
	jne	.LBB4_134
	movl	$2, %eax
	movl	456(%rbp), %ecx
	movl	%ecx, 528(%rbp)
.Ltmp69:
	.cv_loc	4 1 139 0
	movl	$0, 532(%rbp)
.Ltmp70:
	.cv_loc	4 1 140 0
	movl	504(%rbp), %edx
	movl	%edx, 536(%rbp)
.Ltmp71:
	.cv_loc	4 1 141 0
	imull	520(%rbp), %eax
	seto	%r8b
	testb	$1, %r8b
	movl	%eax, 452(%rbp)
	jne	.LBB4_135
	movl	$2, %eax
	movl	516(%rbp), %ecx
	imull	504(%rbp), %eax
	seto	%dl
	testb	$1, %dl
	movl	%ecx, 448(%rbp)
	movl	%eax, 444(%rbp)
	jne	.LBB4_136
	movl	$1, %eax
	movl	444(%rbp), %ecx
	subl	%ecx, %eax
	seto	%dl
	testb	$1, %dl
	movl	%eax, 440(%rbp)
	jne	.LBB4_137
	movl	448(%rbp), %eax
	movl	440(%rbp), %ecx
	imull	%ecx, %eax
	seto	%dl
	testb	$1, %dl
	movl	%eax, 436(%rbp)
	jne	.LBB4_138
	movl	452(%rbp), %eax
	movl	436(%rbp), %ecx
	addl	%ecx, %eax
	seto	%dl
	testb	$1, %dl
	movl	%eax, 432(%rbp)
	jne	.LBB4_139
	movl	432(%rbp), %eax
	movl	%eax, 540(%rbp)
.LBB4_12:
.Ltmp72:
	.cv_loc	4 1 143 0
	movl	520(%rbp), %eax
	imull	532(%rbp), %eax
	seto	%cl
	testb	$1, %cl
	movl	%eax, 428(%rbp)
	jne	.LBB4_140
	jmp	.LBB4_14
.LBB4_13:
	movl	$2, %eax
	.cv_loc	4 1 163 0
	movl	500(%rbp), %ecx
	movl	%ecx, 708(%rbp)
.Ltmp73:
	.cv_loc	4 1 164 0
	movl	$0, 712(%rbp)
.Ltmp74:
	.cv_loc	4 1 165 0
	imull	516(%rbp), %eax
	seto	%dl
	testb	$1, %dl
	movl	%eax, 424(%rbp)
	jne	.LBB4_167
	jmp	.LBB4_68
.Ltmp75:
.LBB4_14:
	.cv_loc	4 1 143 0
	movl	516(%rbp), %eax
	imull	536(%rbp), %eax
	seto	%cl
	testb	$1, %cl
	movl	%eax, 420(%rbp)
	jne	.LBB4_141
	movl	428(%rbp), %eax
	movl	420(%rbp), %ecx
	cmpl	%ecx, %eax
	jg	.LBB4_13
	.cv_loc	4 1 144 0
	testb	$1, 491(%rbp)
	je	.LBB4_18
	.cv_loc	4 1 145 0
	movq	480(%rbp), %rdx
	movl	508(%rbp), %eax
	addl	532(%rbp), %eax
	seto	%cl
	testb	$1, %cl
	movq	%rdx, 408(%rbp)
	movl	%eax, 404(%rbp)
	jne	.LBB4_142
	jmp	.LBB4_19
.LBB4_18:
	.cv_loc	4 1 148 0
	movq	480(%rbp), %rdx
	movl	508(%rbp), %eax
	addl	532(%rbp), %eax
	seto	%cl
	testb	$1, %cl
	movq	%rdx, 392(%rbp)
	movl	%eax, 388(%rbp)
	jne	.LBB4_150
	jmp	.LBB4_35
.LBB4_19:
	.cv_loc	4 1 145 0
	movl	512(%rbp), %eax
	addl	536(%rbp), %eax
	seto	%cl
	testb	$1, %cl
	movl	%eax, 384(%rbp)
	jne	.LBB4_143
	movl	404(%rbp), %ecx
	movl	384(%rbp), %edx
	callq	_ZN4sdl24rect5Point3new17h9cb919e4df9f445fE
	movl	%eax, 380(%rbp)
	movl	%edx, 376(%rbp)
	movl	508(%rbp), %eax
	subl	532(%rbp), %eax
	seto	%cl
	testb	$1, %cl
	movl	%eax, 372(%rbp)
	jne	.LBB4_144
	movl	512(%rbp), %eax
	addl	536(%rbp), %eax
	seto	%cl
	testb	$1, %cl
	movl	%eax, 368(%rbp)
	jne	.LBB4_145
	movl	372(%rbp), %ecx
	movl	368(%rbp), %edx
	callq	_ZN4sdl24rect5Point3new17h9cb919e4df9f445fE
	movl	%eax, 364(%rbp)
	movl	%edx, 360(%rbp)
	leaq	560(%rbp), %rcx
	movq	408(%rbp), %rdx
	movl	380(%rbp), %r8d
	movl	376(%rbp), %r9d
	movl	364(%rbp), %eax
	movl	%eax, 32(%rsp)
	movl	360(%rbp), %r10d
	movl	%r10d, 40(%rsp)
	callq	_ZN38_$LT$sdl2..render..Canvas$LT$T$GT$$GT$9draw_line17h4436f1769420c747E
	leaq	560(%rbp), %rcx
	callq	_ZN47_$LT$core..result..Result$LT$T$C$$u20$E$GT$$GT$6unwrap17hd7c7c77f09773cf5E
	.cv_loc	4 1 146 0
	movq	480(%rbp), %rdx
	movl	508(%rbp), %eax
	addl	532(%rbp), %eax
	seto	%cl
	testb	$1, %cl
	movq	%rdx, 352(%rbp)
	movl	%eax, 348(%rbp)
	jne	.LBB4_146
	movl	512(%rbp), %eax
	subl	536(%rbp), %eax
	seto	%cl
	testb	$1, %cl
	movl	%eax, 344(%rbp)
	jne	.LBB4_147
	movl	348(%rbp), %ecx
	movl	344(%rbp), %edx
	callq	_ZN4sdl24rect5Point3new17h9cb919e4df9f445fE
	movl	%eax, 340(%rbp)
	movl	%edx, 336(%rbp)
	movl	508(%rbp), %eax
	subl	532(%rbp), %eax
	seto	%cl
	testb	$1, %cl
	movl	%eax, 332(%rbp)
	jne	.LBB4_148
	movl	512(%rbp), %eax
	subl	536(%rbp), %eax
	seto	%cl
	testb	$1, %cl
	movl	%eax, 328(%rbp)
	jne	.LBB4_149
	movl	332(%rbp), %ecx
	movl	328(%rbp), %edx
	callq	_ZN4sdl24rect5Point3new17h9cb919e4df9f445fE
	movl	%eax, 324(%rbp)
	movl	%edx, 320(%rbp)
	leaq	584(%rbp), %rcx
	movq	352(%rbp), %rdx
	movl	340(%rbp), %r8d
	movl	336(%rbp), %r9d
	movl	324(%rbp), %eax
	movl	%eax, 32(%rsp)
	movl	320(%rbp), %r10d
	movl	%r10d, 40(%rsp)
	callq	_ZN38_$LT$sdl2..render..Canvas$LT$T$GT$$GT$9draw_line17h4436f1769420c747E
	leaq	584(%rbp), %rcx
	callq	_ZN47_$LT$core..result..Result$LT$T$C$$u20$E$GT$$GT$6unwrap17hd7c7c77f09773cf5E
	.cv_loc	4 1 144 0
	jmp	.LBB4_55
.LBB4_35:
	.cv_loc	4 1 148 0
	movl	512(%rbp), %eax
	addl	536(%rbp), %eax
	seto	%cl
	testb	$1, %cl
	movl	%eax, 316(%rbp)
	jne	.LBB4_151
	movl	388(%rbp), %ecx
	movl	316(%rbp), %edx
	callq	_ZN4sdl24rect5Point3new17h9cb919e4df9f445fE
	movl	%eax, 312(%rbp)
	movl	%edx, 308(%rbp)
	leaq	608(%rbp), %rcx
	movq	392(%rbp), %rdx
	movl	312(%rbp), %r8d
	movl	308(%rbp), %r9d
	callq	_ZN38_$LT$sdl2..render..Canvas$LT$T$GT$$GT$10draw_point17h3ac267d0c38d8f7cE
	leaq	608(%rbp), %rcx
	callq	_ZN47_$LT$core..result..Result$LT$T$C$$u20$E$GT$$GT$6unwrap17hd7c7c77f09773cf5E
	.cv_loc	4 1 149 0
	movq	480(%rbp), %rdx
	movl	508(%rbp), %eax
	subl	532(%rbp), %eax
	seto	%cl
	testb	$1, %cl
	movq	%rdx, 296(%rbp)
	movl	%eax, 292(%rbp)
	jne	.LBB4_152
	movl	512(%rbp), %eax
	addl	536(%rbp), %eax
	seto	%cl
	testb	$1, %cl
	movl	%eax, 288(%rbp)
	jne	.LBB4_153
	movl	292(%rbp), %ecx
	movl	288(%rbp), %edx
	callq	_ZN4sdl24rect5Point3new17h9cb919e4df9f445fE
	movl	%eax, 284(%rbp)
	movl	%edx, 280(%rbp)
	leaq	632(%rbp), %rcx
	movq	296(%rbp), %rdx
	movl	284(%rbp), %r8d
	movl	280(%rbp), %r9d
	callq	_ZN38_$LT$sdl2..render..Canvas$LT$T$GT$$GT$10draw_point17h3ac267d0c38d8f7cE
	leaq	632(%rbp), %rcx
	callq	_ZN47_$LT$core..result..Result$LT$T$C$$u20$E$GT$$GT$6unwrap17hd7c7c77f09773cf5E
	.cv_loc	4 1 150 0
	movq	480(%rbp), %rdx
	movl	508(%rbp), %eax
	addl	532(%rbp), %eax
	seto	%cl
	testb	$1, %cl
	movq	%rdx, 272(%rbp)
	movl	%eax, 268(%rbp)
	jne	.LBB4_154
	movl	512(%rbp), %eax
	subl	536(%rbp), %eax
	seto	%cl
	testb	$1, %cl
	movl	%eax, 264(%rbp)
	jne	.LBB4_155
	movl	268(%rbp), %ecx
	movl	264(%rbp), %edx
	callq	_ZN4sdl24rect5Point3new17h9cb919e4df9f445fE
	movl	%eax, 260(%rbp)
	movl	%edx, 256(%rbp)
	leaq	656(%rbp), %rcx
	movq	272(%rbp), %rdx
	movl	260(%rbp), %r8d
	movl	256(%rbp), %r9d
	callq	_ZN38_$LT$sdl2..render..Canvas$LT$T$GT$$GT$10draw_point17h3ac267d0c38d8f7cE
	leaq	656(%rbp), %rcx
	callq	_ZN47_$LT$core..result..Result$LT$T$C$$u20$E$GT$$GT$6unwrap17hd7c7c77f09773cf5E
	.cv_loc	4 1 151 0
	movq	480(%rbp), %rdx
	movl	508(%rbp), %eax
	subl	532(%rbp), %eax
	seto	%cl
	testb	$1, %cl
	movq	%rdx, 248(%rbp)
	movl	%eax, 244(%rbp)
	jne	.LBB4_156
	movl	512(%rbp), %eax
	subl	536(%rbp), %eax
	seto	%cl
	testb	$1, %cl
	movl	%eax, 240(%rbp)
	jne	.LBB4_157
	movl	244(%rbp), %ecx
	movl	240(%rbp), %edx
	callq	_ZN4sdl24rect5Point3new17h9cb919e4df9f445fE
	movl	%eax, 236(%rbp)
	movl	%edx, 232(%rbp)
	leaq	680(%rbp), %rcx
	movq	248(%rbp), %rdx
	movl	236(%rbp), %r8d
	movl	232(%rbp), %r9d
	callq	_ZN38_$LT$sdl2..render..Canvas$LT$T$GT$$GT$10draw_point17h3ac267d0c38d8f7cE
	leaq	680(%rbp), %rcx
	callq	_ZN47_$LT$core..result..Result$LT$T$C$$u20$E$GT$$GT$6unwrap17hd7c7c77f09773cf5E
	.cv_loc	4 1 144 0
	jmp	.LBB4_55
.LBB4_55:
	.cv_loc	4 1 154 0
	cmpl	$0, 540(%rbp)
	jl	.LBB4_57
	movl	$1, %eax
	.cv_loc	4 1 155 0
	movl	524(%rbp), %ecx
	subl	536(%rbp), %eax
	seto	%dl
	testb	$1, %dl
	movl	%ecx, 228(%rbp)
	movl	%eax, 224(%rbp)
	jne	.LBB4_158
	jmp	.LBB4_58
.LBB4_57:
	.cv_loc	4 1 154 0
	jmp	.LBB4_62
.LBB4_58:
	.cv_loc	4 1 155 0
	movl	228(%rbp), %eax
	movl	224(%rbp), %ecx
	imull	%ecx, %eax
	seto	%dl
	testb	$1, %dl
	movl	%eax, 220(%rbp)
	jne	.LBB4_159
	movl	220(%rbp), %eax
	addl	540(%rbp), %eax
	seto	%cl
	testb	$1, %cl
	movl	%eax, 216(%rbp)
	jne	.LBB4_160
	movl	216(%rbp), %eax
	movl	%eax, 540(%rbp)
	.cv_loc	4 1 156 0
	movl	536(%rbp), %ecx
	decl	%ecx
	seto	%dl
	testb	$1, %dl
	movl	%ecx, 212(%rbp)
	jne	.LBB4_161
	movl	212(%rbp), %eax
	movl	%eax, 536(%rbp)
.LBB4_62:
	movl	$4, %eax
	.cv_loc	4 1 159 0
	movl	520(%rbp), %ecx
	imull	532(%rbp), %eax
	seto	%dl
	testb	$1, %dl
	movl	%ecx, 208(%rbp)
	movl	%eax, 204(%rbp)
	jne	.LBB4_162
	movl	204(%rbp), %eax
	addl	$6, %eax
	seto	%cl
	testb	$1, %cl
	movl	%eax, 200(%rbp)
	jne	.LBB4_163
	movl	208(%rbp), %eax
	movl	200(%rbp), %ecx
	imull	%ecx, %eax
	seto	%dl
	testb	$1, %dl
	movl	%eax, 196(%rbp)
	jne	.LBB4_164
	movl	196(%rbp), %eax
	addl	540(%rbp), %eax
	seto	%cl
	testb	$1, %cl
	movl	%eax, 192(%rbp)
	jne	.LBB4_165
	movl	192(%rbp), %eax
	movl	%eax, 540(%rbp)
	.cv_loc	4 1 160 0
	movl	532(%rbp), %ecx
	incl	%ecx
	seto	%dl
	testb	$1, %dl
	movl	%ecx, 188(%rbp)
	jne	.LBB4_166
	movl	188(%rbp), %eax
	movl	%eax, 532(%rbp)
	.cv_loc	4 1 143 0
	jmp	.LBB4_12
.LBB4_68:
	movl	$2, %eax
.Ltmp76:
	.cv_loc	4 1 165 0
	movl	520(%rbp), %ecx
	imull	500(%rbp), %eax
	seto	%dl
	testb	$1, %dl
	movl	%ecx, 184(%rbp)
	movl	%eax, 180(%rbp)
	jne	.LBB4_168
	movl	$1, %eax
	movl	180(%rbp), %ecx
	subl	%ecx, %eax
	seto	%dl
	testb	$1, %dl
	movl	%eax, 176(%rbp)
	jne	.LBB4_169
	movl	184(%rbp), %eax
	movl	176(%rbp), %ecx
	imull	%ecx, %eax
	seto	%dl
	testb	$1, %dl
	movl	%eax, 172(%rbp)
	jne	.LBB4_170
	movl	424(%rbp), %eax
	movl	172(%rbp), %ecx
	addl	%ecx, %eax
	seto	%dl
	testb	$1, %dl
	movl	%eax, 168(%rbp)
	jne	.LBB4_171
	movl	168(%rbp), %eax
	movl	%eax, 716(%rbp)
.LBB4_73:
.Ltmp77:
	.cv_loc	4 1 167 0
	movl	516(%rbp), %eax
	imull	712(%rbp), %eax
	seto	%cl
	testb	$1, %cl
	movl	%eax, 164(%rbp)
	jne	.LBB4_172
	jmp	.LBB4_75
.Ltmp78:
.LBB4_74:
	.cv_loc	4 1 186 0
	addq	$1008, %rsp
	popq	%rbp
	retq
.LBB4_75:
.Ltmp79:
	.cv_loc	4 1 167 0
	movl	520(%rbp), %eax
	imull	708(%rbp), %eax
	seto	%cl
	testb	$1, %cl
	movl	%eax, 160(%rbp)
	jne	.LBB4_173
	movl	164(%rbp), %eax
	movl	160(%rbp), %ecx
	cmpl	%ecx, %eax
	jg	.LBB4_74
	.cv_loc	4 1 168 0
	testb	$1, 491(%rbp)
	je	.LBB4_79
	.cv_loc	4 1 169 0
	movq	480(%rbp), %rdx
	movl	508(%rbp), %eax
	addl	708(%rbp), %eax
	seto	%cl
	testb	$1, %cl
	movq	%rdx, 152(%rbp)
	movl	%eax, 148(%rbp)
	jne	.LBB4_174
	jmp	.LBB4_80
.LBB4_79:
	.cv_loc	4 1 172 0
	movq	480(%rbp), %rdx
	movl	508(%rbp), %eax
	addl	708(%rbp), %eax
	seto	%cl
	testb	$1, %cl
	movq	%rdx, 136(%rbp)
	movl	%eax, 132(%rbp)
	jne	.LBB4_182
	jmp	.LBB4_96
.LBB4_80:
	.cv_loc	4 1 169 0
	movl	512(%rbp), %eax
	addl	712(%rbp), %eax
	seto	%cl
	testb	$1, %cl
	movl	%eax, 128(%rbp)
	jne	.LBB4_175
	movl	148(%rbp), %ecx
	movl	128(%rbp), %edx
	callq	_ZN4sdl24rect5Point3new17h9cb919e4df9f445fE
	movl	%eax, 124(%rbp)
	movl	%edx, 120(%rbp)
	movl	508(%rbp), %eax
	subl	708(%rbp), %eax
	seto	%cl
	testb	$1, %cl
	movl	%eax, 116(%rbp)
	jne	.LBB4_176
	movl	512(%rbp), %eax
	addl	712(%rbp), %eax
	seto	%cl
	testb	$1, %cl
	movl	%eax, 112(%rbp)
	jne	.LBB4_177
	movl	116(%rbp), %ecx
	movl	112(%rbp), %edx
	callq	_ZN4sdl24rect5Point3new17h9cb919e4df9f445fE
	movl	%eax, 108(%rbp)
	movl	%edx, 104(%rbp)
	leaq	728(%rbp), %rcx
	movq	152(%rbp), %rdx
	movl	124(%rbp), %r8d
	movl	120(%rbp), %r9d
	movl	108(%rbp), %eax
	movl	%eax, 32(%rsp)
	movl	104(%rbp), %r10d
	movl	%r10d, 40(%rsp)
	callq	_ZN38_$LT$sdl2..render..Canvas$LT$T$GT$$GT$9draw_line17h4436f1769420c747E
	leaq	728(%rbp), %rcx
	callq	_ZN47_$LT$core..result..Result$LT$T$C$$u20$E$GT$$GT$6unwrap17hd7c7c77f09773cf5E
	.cv_loc	4 1 170 0
	movq	480(%rbp), %rdx
	movl	508(%rbp), %eax
	addl	708(%rbp), %eax
	seto	%cl
	testb	$1, %cl
	movq	%rdx, 96(%rbp)
	movl	%eax, 92(%rbp)
	jne	.LBB4_178
	movl	512(%rbp), %eax
	subl	712(%rbp), %eax
	seto	%cl
	testb	$1, %cl
	movl	%eax, 88(%rbp)
	jne	.LBB4_179
	movl	92(%rbp), %ecx
	movl	88(%rbp), %edx
	callq	_ZN4sdl24rect5Point3new17h9cb919e4df9f445fE
	movl	%eax, 84(%rbp)
	movl	%edx, 80(%rbp)
	movl	508(%rbp), %eax
	subl	708(%rbp), %eax
	seto	%cl
	testb	$1, %cl
	movl	%eax, 76(%rbp)
	jne	.LBB4_180
	movl	512(%rbp), %eax
	subl	712(%rbp), %eax
	seto	%cl
	testb	$1, %cl
	movl	%eax, 72(%rbp)
	jne	.LBB4_181
	movl	76(%rbp), %ecx
	movl	72(%rbp), %edx
	callq	_ZN4sdl24rect5Point3new17h9cb919e4df9f445fE
	movl	%eax, 68(%rbp)
	movl	%edx, 64(%rbp)
	leaq	752(%rbp), %rcx
	movq	96(%rbp), %rdx
	movl	84(%rbp), %r8d
	movl	80(%rbp), %r9d
	movl	68(%rbp), %eax
	movl	%eax, 32(%rsp)
	movl	64(%rbp), %r10d
	movl	%r10d, 40(%rsp)
	callq	_ZN38_$LT$sdl2..render..Canvas$LT$T$GT$$GT$9draw_line17h4436f1769420c747E
	leaq	752(%rbp), %rcx
	callq	_ZN47_$LT$core..result..Result$LT$T$C$$u20$E$GT$$GT$6unwrap17hd7c7c77f09773cf5E
	.cv_loc	4 1 168 0
	jmp	.LBB4_116
.LBB4_96:
	.cv_loc	4 1 172 0
	movl	512(%rbp), %eax
	addl	712(%rbp), %eax
	seto	%cl
	testb	$1, %cl
	movl	%eax, 60(%rbp)
	jne	.LBB4_183
	movl	132(%rbp), %ecx
	movl	60(%rbp), %edx
	callq	_ZN4sdl24rect5Point3new17h9cb919e4df9f445fE
	movl	%eax, 56(%rbp)
	movl	%edx, 52(%rbp)
	leaq	776(%rbp), %rcx
	movq	136(%rbp), %rdx
	movl	56(%rbp), %r8d
	movl	52(%rbp), %r9d
	callq	_ZN38_$LT$sdl2..render..Canvas$LT$T$GT$$GT$10draw_point17h3ac267d0c38d8f7cE
	leaq	776(%rbp), %rcx
	callq	_ZN47_$LT$core..result..Result$LT$T$C$$u20$E$GT$$GT$6unwrap17hd7c7c77f09773cf5E
	.cv_loc	4 1 173 0
	movq	480(%rbp), %rdx
	movl	508(%rbp), %eax
	subl	708(%rbp), %eax
	seto	%cl
	testb	$1, %cl
	movq	%rdx, 40(%rbp)
	movl	%eax, 36(%rbp)
	jne	.LBB4_184
	movl	512(%rbp), %eax
	addl	712(%rbp), %eax
	seto	%cl
	testb	$1, %cl
	movl	%eax, 32(%rbp)
	jne	.LBB4_185
	movl	36(%rbp), %ecx
	movl	32(%rbp), %edx
	callq	_ZN4sdl24rect5Point3new17h9cb919e4df9f445fE
	movl	%eax, 28(%rbp)
	movl	%edx, 24(%rbp)
	leaq	800(%rbp), %rcx
	movq	40(%rbp), %rdx
	movl	28(%rbp), %r8d
	movl	24(%rbp), %r9d
	callq	_ZN38_$LT$sdl2..render..Canvas$LT$T$GT$$GT$10draw_point17h3ac267d0c38d8f7cE
	leaq	800(%rbp), %rcx
	callq	_ZN47_$LT$core..result..Result$LT$T$C$$u20$E$GT$$GT$6unwrap17hd7c7c77f09773cf5E
	.cv_loc	4 1 174 0
	movq	480(%rbp), %rdx
	movl	508(%rbp), %eax
	addl	708(%rbp), %eax
	seto	%cl
	testb	$1, %cl
	movq	%rdx, 16(%rbp)
	movl	%eax, 12(%rbp)
	jne	.LBB4_186
	movl	512(%rbp), %eax
	subl	712(%rbp), %eax
	seto	%cl
	testb	$1, %cl
	movl	%eax, 8(%rbp)
	jne	.LBB4_187
	movl	12(%rbp), %ecx
	movl	8(%rbp), %edx
	callq	_ZN4sdl24rect5Point3new17h9cb919e4df9f445fE
	movl	%eax, 4(%rbp)
	movl	%edx, (%rbp)
	leaq	824(%rbp), %rcx
	movq	16(%rbp), %rdx
	movl	4(%rbp), %r8d
	movl	(%rbp), %r9d
	callq	_ZN38_$LT$sdl2..render..Canvas$LT$T$GT$$GT$10draw_point17h3ac267d0c38d8f7cE
	leaq	824(%rbp), %rcx
	callq	_ZN47_$LT$core..result..Result$LT$T$C$$u20$E$GT$$GT$6unwrap17hd7c7c77f09773cf5E
	.cv_loc	4 1 175 0
	movq	480(%rbp), %rdx
	movl	508(%rbp), %eax
	subl	708(%rbp), %eax
	seto	%cl
	testb	$1, %cl
	movq	%rdx, -8(%rbp)
	movl	%eax, -12(%rbp)
	jne	.LBB4_188
	movl	512(%rbp), %eax
	subl	712(%rbp), %eax
	seto	%cl
	testb	$1, %cl
	movl	%eax, -16(%rbp)
	jne	.LBB4_189
	movl	-12(%rbp), %ecx
	movl	-16(%rbp), %edx
	callq	_ZN4sdl24rect5Point3new17h9cb919e4df9f445fE
	movl	%eax, -20(%rbp)
	movl	%edx, -24(%rbp)
	leaq	848(%rbp), %rcx
	movq	-8(%rbp), %rdx
	movl	-20(%rbp), %r8d
	movl	-24(%rbp), %r9d
	callq	_ZN38_$LT$sdl2..render..Canvas$LT$T$GT$$GT$10draw_point17h3ac267d0c38d8f7cE
	leaq	848(%rbp), %rcx
	callq	_ZN47_$LT$core..result..Result$LT$T$C$$u20$E$GT$$GT$6unwrap17hd7c7c77f09773cf5E
	.cv_loc	4 1 168 0
	jmp	.LBB4_116
.LBB4_116:
	.cv_loc	4 1 178 0
	cmpl	$0, 716(%rbp)
	jl	.LBB4_118
	movl	$1, %eax
	.cv_loc	4 1 179 0
	movl	528(%rbp), %ecx
	subl	708(%rbp), %eax
	seto	%dl
	testb	$1, %dl
	movl	%ecx, -28(%rbp)
	movl	%eax, -32(%rbp)
	jne	.LBB4_190
	jmp	.LBB4_119
.LBB4_118:
	.cv_loc	4 1 178 0
	jmp	.LBB4_123
.LBB4_119:
	.cv_loc	4 1 179 0
	movl	-28(%rbp), %eax
	movl	-32(%rbp), %ecx
	imull	%ecx, %eax
	seto	%dl
	testb	$1, %dl
	movl	%eax, -36(%rbp)
	jne	.LBB4_191
	movl	-36(%rbp), %eax
	addl	716(%rbp), %eax
	seto	%cl
	testb	$1, %cl
	movl	%eax, -40(%rbp)
	jne	.LBB4_192
	movl	-40(%rbp), %eax
	movl	%eax, 716(%rbp)
	.cv_loc	4 1 180 0
	movl	708(%rbp), %ecx
	decl	%ecx
	seto	%dl
	testb	$1, %dl
	movl	%ecx, -44(%rbp)
	jne	.LBB4_193
	movl	-44(%rbp), %eax
	movl	%eax, 708(%rbp)
.LBB4_123:
	movl	$4, %eax
	.cv_loc	4 1 183 0
	movl	516(%rbp), %ecx
	imull	712(%rbp), %eax
	seto	%dl
	testb	$1, %dl
	movl	%ecx, -48(%rbp)
	movl	%eax, -52(%rbp)
	jne	.LBB4_194
	movl	-52(%rbp), %eax
	addl	$6, %eax
	seto	%cl
	testb	$1, %cl
	movl	%eax, -56(%rbp)
	jne	.LBB4_195
	movl	-48(%rbp), %eax
	movl	-56(%rbp), %ecx
	imull	%ecx, %eax
	seto	%dl
	testb	$1, %dl
	movl	%eax, -60(%rbp)
	jne	.LBB4_196
	movl	-60(%rbp), %eax
	addl	716(%rbp), %eax
	seto	%cl
	testb	$1, %cl
	movl	%eax, -64(%rbp)
	jne	.LBB4_197
	movl	-64(%rbp), %eax
	movl	%eax, 716(%rbp)
	.cv_loc	4 1 184 0
	movl	712(%rbp), %ecx
	incl	%ecx
	seto	%dl
	testb	$1, %dl
	movl	%ecx, -68(%rbp)
	jne	.LBB4_198
	movl	-68(%rbp), %eax
	movl	%eax, 712(%rbp)
	.cv_loc	4 1 167 0
	jmp	.LBB4_73
.Ltmp80:
.LBB4_129:
	.cv_loc	4 1 131 0
	leaq	panic_loc.R(%rip), %rcx
	callq	_ZN4core9panicking5panic17hb14241805eba0fdcE
	ud2
.LBB4_130:
.Ltmp81:
	.cv_loc	4 1 132 0
	leaq	panic_loc.S(%rip), %rcx
	callq	_ZN4core9panicking5panic17hb14241805eba0fdcE
	ud2
.LBB4_131:
.Ltmp82:
	.cv_loc	4 1 134 0
	leaq	panic_loc.T(%rip), %rcx
	callq	_ZN4core9panicking5panic17hb14241805eba0fdcE
	ud2
.LBB4_132:
.Ltmp83:
	.cv_loc	4 1 135 0
	leaq	panic_loc.U(%rip), %rcx
	callq	_ZN4core9panicking5panic17hb14241805eba0fdcE
	ud2
.LBB4_133:
.Ltmp84:
	.cv_loc	4 1 136 0
	leaq	panic_loc.V(%rip), %rcx
	callq	_ZN4core9panicking5panic17hb14241805eba0fdcE
	ud2
.LBB4_134:
.Ltmp85:
	.cv_loc	4 1 137 0
	leaq	panic_loc.W(%rip), %rcx
	callq	_ZN4core9panicking5panic17hb14241805eba0fdcE
	ud2
.LBB4_135:
.Ltmp86:
	.cv_loc	4 1 141 0
	leaq	panic_loc.X(%rip), %rcx
	callq	_ZN4core9panicking5panic17hb14241805eba0fdcE
	ud2
.LBB4_136:
	leaq	panic_loc.Y(%rip), %rcx
	callq	_ZN4core9panicking5panic17hb14241805eba0fdcE
	ud2
.LBB4_137:
	leaq	panic_loc.Z(%rip), %rcx
	callq	_ZN4core9panicking5panic17hb14241805eba0fdcE
	ud2
.LBB4_138:
	leaq	panic_loc.10(%rip), %rcx
	callq	_ZN4core9panicking5panic17hb14241805eba0fdcE
	ud2
.LBB4_139:
	leaq	panic_loc.11(%rip), %rcx
	callq	_ZN4core9panicking5panic17hb14241805eba0fdcE
	ud2
.LBB4_140:
.Ltmp87:
	.cv_loc	4 1 143 0
	leaq	panic_loc.12(%rip), %rcx
	callq	_ZN4core9panicking5panic17hb14241805eba0fdcE
	ud2
.LBB4_141:
	leaq	panic_loc.13(%rip), %rcx
	callq	_ZN4core9panicking5panic17hb14241805eba0fdcE
	ud2
.LBB4_142:
	.cv_loc	4 1 145 0
	leaq	panic_loc.14(%rip), %rcx
	callq	_ZN4core9panicking5panic17hb14241805eba0fdcE
	ud2
.LBB4_143:
	leaq	panic_loc.15(%rip), %rcx
	callq	_ZN4core9panicking5panic17hb14241805eba0fdcE
	ud2
.LBB4_144:
	leaq	panic_loc.16(%rip), %rcx
	callq	_ZN4core9panicking5panic17hb14241805eba0fdcE
	ud2
.LBB4_145:
	leaq	panic_loc.17(%rip), %rcx
	callq	_ZN4core9panicking5panic17hb14241805eba0fdcE
	ud2
.LBB4_146:
	.cv_loc	4 1 146 0
	leaq	panic_loc.18(%rip), %rcx
	callq	_ZN4core9panicking5panic17hb14241805eba0fdcE
	ud2
.LBB4_147:
	leaq	panic_loc.19(%rip), %rcx
	callq	_ZN4core9panicking5panic17hb14241805eba0fdcE
	ud2
.LBB4_148:
	leaq	panic_loc.1a(%rip), %rcx
	callq	_ZN4core9panicking5panic17hb14241805eba0fdcE
	ud2
.LBB4_149:
	leaq	panic_loc.1b(%rip), %rcx
	callq	_ZN4core9panicking5panic17hb14241805eba0fdcE
	ud2
.LBB4_150:
	.cv_loc	4 1 148 0
	leaq	panic_loc.1c(%rip), %rcx
	callq	_ZN4core9panicking5panic17hb14241805eba0fdcE
	ud2
.LBB4_151:
	leaq	panic_loc.1d(%rip), %rcx
	callq	_ZN4core9panicking5panic17hb14241805eba0fdcE
	ud2
.LBB4_152:
	.cv_loc	4 1 149 0
	leaq	panic_loc.1e(%rip), %rcx
	callq	_ZN4core9panicking5panic17hb14241805eba0fdcE
	ud2
.LBB4_153:
	leaq	panic_loc.1f(%rip), %rcx
	callq	_ZN4core9panicking5panic17hb14241805eba0fdcE
	ud2
.LBB4_154:
	.cv_loc	4 1 150 0
	leaq	panic_loc.1g(%rip), %rcx
	callq	_ZN4core9panicking5panic17hb14241805eba0fdcE
	ud2
.LBB4_155:
	leaq	panic_loc.1h(%rip), %rcx
	callq	_ZN4core9panicking5panic17hb14241805eba0fdcE
	ud2
.LBB4_156:
	.cv_loc	4 1 151 0
	leaq	panic_loc.1i(%rip), %rcx
	callq	_ZN4core9panicking5panic17hb14241805eba0fdcE
	ud2
.LBB4_157:
	leaq	panic_loc.1j(%rip), %rcx
	callq	_ZN4core9panicking5panic17hb14241805eba0fdcE
	ud2
.LBB4_158:
	.cv_loc	4 1 155 0
	leaq	panic_loc.1k(%rip), %rcx
	callq	_ZN4core9panicking5panic17hb14241805eba0fdcE
	ud2
.LBB4_159:
	leaq	panic_loc.1l(%rip), %rcx
	callq	_ZN4core9panicking5panic17hb14241805eba0fdcE
	ud2
.LBB4_160:
	leaq	panic_loc.1m(%rip), %rcx
	callq	_ZN4core9panicking5panic17hb14241805eba0fdcE
	ud2
.LBB4_161:
	.cv_loc	4 1 156 0
	leaq	panic_loc.1n(%rip), %rcx
	callq	_ZN4core9panicking5panic17hb14241805eba0fdcE
	ud2
.LBB4_162:
	.cv_loc	4 1 159 0
	leaq	panic_loc.1o(%rip), %rcx
	callq	_ZN4core9panicking5panic17hb14241805eba0fdcE
	ud2
.LBB4_163:
	leaq	panic_loc.1p(%rip), %rcx
	callq	_ZN4core9panicking5panic17hb14241805eba0fdcE
	ud2
.LBB4_164:
	leaq	panic_loc.1q(%rip), %rcx
	callq	_ZN4core9panicking5panic17hb14241805eba0fdcE
	ud2
.LBB4_165:
	leaq	panic_loc.1r(%rip), %rcx
	callq	_ZN4core9panicking5panic17hb14241805eba0fdcE
	ud2
.LBB4_166:
	.cv_loc	4 1 160 0
	leaq	panic_loc.1s(%rip), %rcx
	callq	_ZN4core9panicking5panic17hb14241805eba0fdcE
	ud2
.LBB4_167:
.Ltmp88:
	.cv_loc	4 1 165 0
	leaq	panic_loc.1t(%rip), %rcx
	callq	_ZN4core9panicking5panic17hb14241805eba0fdcE
	ud2
.LBB4_168:
	leaq	panic_loc.1u(%rip), %rcx
	callq	_ZN4core9panicking5panic17hb14241805eba0fdcE
	ud2
.LBB4_169:
	leaq	panic_loc.1v(%rip), %rcx
	callq	_ZN4core9panicking5panic17hb14241805eba0fdcE
	ud2
.LBB4_170:
	leaq	panic_loc.1w(%rip), %rcx
	callq	_ZN4core9panicking5panic17hb14241805eba0fdcE
	ud2
.LBB4_171:
	leaq	panic_loc.1x(%rip), %rcx
	callq	_ZN4core9panicking5panic17hb14241805eba0fdcE
	ud2
.LBB4_172:
.Ltmp89:
	.cv_loc	4 1 167 0
	leaq	panic_loc.1y(%rip), %rcx
	callq	_ZN4core9panicking5panic17hb14241805eba0fdcE
	ud2
.LBB4_173:
	leaq	panic_loc.1z(%rip), %rcx
	callq	_ZN4core9panicking5panic17hb14241805eba0fdcE
	ud2
.LBB4_174:
	.cv_loc	4 1 169 0
	leaq	panic_loc.1A(%rip), %rcx
	callq	_ZN4core9panicking5panic17hb14241805eba0fdcE
	ud2
.LBB4_175:
	leaq	panic_loc.1B(%rip), %rcx
	callq	_ZN4core9panicking5panic17hb14241805eba0fdcE
	ud2
.LBB4_176:
	leaq	panic_loc.1C(%rip), %rcx
	callq	_ZN4core9panicking5panic17hb14241805eba0fdcE
	ud2
.LBB4_177:
	leaq	panic_loc.1D(%rip), %rcx
	callq	_ZN4core9panicking5panic17hb14241805eba0fdcE
	ud2
.LBB4_178:
	.cv_loc	4 1 170 0
	leaq	panic_loc.1E(%rip), %rcx
	callq	_ZN4core9panicking5panic17hb14241805eba0fdcE
	ud2
.LBB4_179:
	leaq	panic_loc.1F(%rip), %rcx
	callq	_ZN4core9panicking5panic17hb14241805eba0fdcE
	ud2
.LBB4_180:
	leaq	panic_loc.1G(%rip), %rcx
	callq	_ZN4core9panicking5panic17hb14241805eba0fdcE
	ud2
.LBB4_181:
	leaq	panic_loc.1H(%rip), %rcx
	callq	_ZN4core9panicking5panic17hb14241805eba0fdcE
	ud2
.LBB4_182:
	.cv_loc	4 1 172 0
	leaq	panic_loc.1I(%rip), %rcx
	callq	_ZN4core9panicking5panic17hb14241805eba0fdcE
	ud2
.LBB4_183:
	leaq	panic_loc.1J(%rip), %rcx
	callq	_ZN4core9panicking5panic17hb14241805eba0fdcE
	ud2
.LBB4_184:
	.cv_loc	4 1 173 0
	leaq	panic_loc.1K(%rip), %rcx
	callq	_ZN4core9panicking5panic17hb14241805eba0fdcE
	ud2
.LBB4_185:
	leaq	panic_loc.1L(%rip), %rcx
	callq	_ZN4core9panicking5panic17hb14241805eba0fdcE
	ud2
.LBB4_186:
	.cv_loc	4 1 174 0
	leaq	panic_loc.1M(%rip), %rcx
	callq	_ZN4core9panicking5panic17hb14241805eba0fdcE
	ud2
.LBB4_187:
	leaq	panic_loc.1N(%rip), %rcx
	callq	_ZN4core9panicking5panic17hb14241805eba0fdcE
	ud2
.LBB4_188:
	.cv_loc	4 1 175 0
	leaq	panic_loc.1O(%rip), %rcx
	callq	_ZN4core9panicking5panic17hb14241805eba0fdcE
	ud2
.LBB4_189:
	leaq	panic_loc.1P(%rip), %rcx
	callq	_ZN4core9panicking5panic17hb14241805eba0fdcE
	ud2
.LBB4_190:
	.cv_loc	4 1 179 0
	leaq	panic_loc.1Q(%rip), %rcx
	callq	_ZN4core9panicking5panic17hb14241805eba0fdcE
	ud2
.LBB4_191:
	leaq	panic_loc.1R(%rip), %rcx
	callq	_ZN4core9panicking5panic17hb14241805eba0fdcE
	ud2
.LBB4_192:
	leaq	panic_loc.1S(%rip), %rcx
	callq	_ZN4core9panicking5panic17hb14241805eba0fdcE
	ud2
.LBB4_193:
	.cv_loc	4 1 180 0
	leaq	panic_loc.1T(%rip), %rcx
	callq	_ZN4core9panicking5panic17hb14241805eba0fdcE
	ud2
.LBB4_194:
	.cv_loc	4 1 183 0
	leaq	panic_loc.1U(%rip), %rcx
	callq	_ZN4core9panicking5panic17hb14241805eba0fdcE
	ud2
.LBB4_195:
	leaq	panic_loc.1V(%rip), %rcx
	callq	_ZN4core9panicking5panic17hb14241805eba0fdcE
	ud2
.LBB4_196:
	leaq	panic_loc.1W(%rip), %rcx
	callq	_ZN4core9panicking5panic17hb14241805eba0fdcE
	ud2
.LBB4_197:
	leaq	panic_loc.1X(%rip), %rcx
	callq	_ZN4core9panicking5panic17hb14241805eba0fdcE
	ud2
.LBB4_198:
	.cv_loc	4 1 184 0
	leaq	panic_loc.1Y(%rip), %rcx
	callq	_ZN4core9panicking5panic17hb14241805eba0fdcE
	ud2
.Ltmp90:
.Lfunc_end4:
	.seh_handlerdata
	.section	.text,"xr",one_only,_ZN8asteroid8graphics12draw_ellipse17hcf277a836583fad4E
.Lcfi30:
	.seh_endproc

	.def	 _ZN61_$LT$asteroid..graphics..Draw$u20$as$u20$core..fmt..Debug$GT$3fmt17h35a4f553526b465bE;
	.scl	2;
	.type	32;
	.endef
	.section	.text,"xr",one_only,_ZN61_$LT$asteroid..graphics..Draw$u20$as$u20$core..fmt..Debug$GT$3fmt17h35a4f553526b465bE
	.globl	_ZN61_$LT$asteroid..graphics..Draw$u20$as$u20$core..fmt..Debug$GT$3fmt17h35a4f553526b465bE
	.p2align	4, 0x90
_ZN61_$LT$asteroid..graphics..Draw$u20$as$u20$core..fmt..Debug$GT$3fmt17h35a4f553526b465bE:
.Lfunc_begin5:
	.cv_func_id 5
	.cv_loc	5 1 49 0
.Lcfi31:
.seh_proc _ZN61_$LT$asteroid..graphics..Draw$u20$as$u20$core..fmt..Debug$GT$3fmt17h35a4f553526b465bE
	pushq	%rbp
.Lcfi32:
	.seh_pushreg 5
	subq	$1040, %rsp
.Lcfi33:
	.seh_stackalloc 1040
	leaq	128(%rsp), %rbp
.Lcfi34:
	.seh_setframe 5, 128
.Lcfi35:
	.seh_endprologue
	movq	%rcx, 352(%rbp)
	movq	%rdx, 360(%rbp)
.Ltmp91:
	movq	352(%rbp), %rcx
	movq	%rcx, 376(%rbp)
	movq	376(%rbp), %rcx
	movl	(%rcx), %eax
	movl	%eax, %ecx
	movq	%rcx, %rdx
	subq	$6, %rdx
	movq	%rcx, 344(%rbp)
	movq	%rdx, 336(%rbp)
	ja	.LBB5_1
.Ltmp92:
	leaq	.LJTI5_0(%rip), %rax
	movq	344(%rbp), %rcx
	movslq	(%rax,%rcx,4), %rdx
	addq	%rax, %rdx
	jmpq	*%rdx
.Ltmp93:
.LBB5_1:
	ud2
.Ltmp94:
.LBB5_2:
	leaq	592(%rbp), %rcx
	leaq	str.2d(%rip), %rax
	movl	$10, %edx
	movl	%edx, %r9d
	.cv_loc	5 1 52 0
	movq	376(%rbp), %r8
	addq	$4, %r8
	movq	%r8, 384(%rbp)
	.cv_loc	5 1 53 0
	movq	376(%rbp), %r8
	addq	$8, %r8
	movq	%r8, 392(%rbp)
	.cv_loc	5 1 54 0
	movq	376(%rbp), %r8
	addq	$12, %r8
	movq	%r8, 400(%rbp)
.Ltmp95:
	.cv_loc	5 1 49 0
	movq	360(%rbp), %rdx
	movq	%rax, %r8
	callq	_ZN4core3fmt9Formatter12debug_struct17h0dcf51f11694d493E
	jmp	.LBB5_10
.Ltmp96:
.LBB5_3:
	leaq	632(%rbp), %rcx
	leaq	str.2b(%rip), %rax
	movl	$10, %edx
	movl	%edx, %r9d
	.cv_loc	5 1 57 0
	movq	376(%rbp), %r8
	addq	$4, %r8
	movq	%r8, 408(%rbp)
	.cv_loc	5 1 58 0
	movq	376(%rbp), %r8
	addq	$8, %r8
	movq	%r8, 416(%rbp)
	.cv_loc	5 1 59 0
	movq	376(%rbp), %r8
	addq	$12, %r8
	movq	%r8, 424(%rbp)
.Ltmp97:
	.cv_loc	5 1 49 0
	movq	360(%rbp), %rdx
	movq	%rax, %r8
	callq	_ZN4core3fmt9Formatter12debug_struct17h0dcf51f11694d493E
	jmp	.LBB5_15
.Ltmp98:
.LBB5_4:
	leaq	672(%rbp), %rcx
	leaq	str.2a(%rip), %rax
	movl	$13, %edx
	movl	%edx, %r9d
	.cv_loc	5 1 62 0
	movq	376(%rbp), %r8
	addq	$4, %r8
	movq	%r8, 432(%rbp)
	.cv_loc	5 1 63 0
	movq	376(%rbp), %r8
	addq	$8, %r8
	movq	%r8, 440(%rbp)
	.cv_loc	5 1 64 0
	movq	376(%rbp), %r8
	addq	$12, %r8
	movq	%r8, 448(%rbp)
	.cv_loc	5 1 65 0
	movq	376(%rbp), %r8
	addq	$16, %r8
	movq	%r8, 456(%rbp)
.Ltmp99:
	.cv_loc	5 1 49 0
	movq	360(%rbp), %rdx
	movq	%rax, %r8
	callq	_ZN4core3fmt9Formatter12debug_struct17h0dcf51f11694d493E
	jmp	.LBB5_20
.Ltmp100:
.LBB5_5:
	leaq	720(%rbp), %rcx
	leaq	str.28(%rip), %rax
	movl	$13, %edx
	movl	%edx, %r9d
	.cv_loc	5 1 68 0
	movq	376(%rbp), %r8
	addq	$4, %r8
	movq	%r8, 464(%rbp)
	.cv_loc	5 1 69 0
	movq	376(%rbp), %r8
	addq	$8, %r8
	movq	%r8, 472(%rbp)
	.cv_loc	5 1 70 0
	movq	376(%rbp), %r8
	addq	$12, %r8
	movq	%r8, 480(%rbp)
	.cv_loc	5 1 71 0
	movq	376(%rbp), %r8
	addq	$16, %r8
	movq	%r8, 488(%rbp)
.Ltmp101:
	.cv_loc	5 1 49 0
	movq	360(%rbp), %rdx
	movq	%rax, %r8
	callq	_ZN4core3fmt9Formatter12debug_struct17h0dcf51f11694d493E
	jmp	.LBB5_26
.Ltmp102:
.LBB5_6:
	leaq	768(%rbp), %rcx
	leaq	str.27(%rip), %rax
	movl	$11, %edx
	movl	%edx, %r9d
	.cv_loc	5 1 74 0
	movq	376(%rbp), %r8
	addq	$4, %r8
	movq	%r8, 496(%rbp)
	.cv_loc	5 1 75 0
	movq	376(%rbp), %r8
	addq	$8, %r8
	movq	%r8, 504(%rbp)
	.cv_loc	5 1 76 0
	movq	376(%rbp), %r8
	addq	$12, %r8
	movq	%r8, 512(%rbp)
	.cv_loc	5 1 77 0
	movq	376(%rbp), %r8
	addq	$16, %r8
	movq	%r8, 520(%rbp)
.Ltmp103:
	.cv_loc	5 1 49 0
	movq	360(%rbp), %rdx
	movq	%rax, %r8
	callq	_ZN4core3fmt9Formatter12debug_struct17h0dcf51f11694d493E
	jmp	.LBB5_32
.Ltmp104:
.LBB5_7:
	leaq	816(%rbp), %rcx
	leaq	str.25(%rip), %rax
	movl	$11, %edx
	movl	%edx, %r9d
	.cv_loc	5 1 80 0
	movq	376(%rbp), %r8
	addq	$4, %r8
	movq	%r8, 528(%rbp)
	.cv_loc	5 1 81 0
	movq	376(%rbp), %r8
	addq	$8, %r8
	movq	%r8, 536(%rbp)
	.cv_loc	5 1 82 0
	movq	376(%rbp), %r8
	addq	$12, %r8
	movq	%r8, 544(%rbp)
	.cv_loc	5 1 83 0
	movq	376(%rbp), %r8
	addq	$16, %r8
	movq	%r8, 552(%rbp)
.Ltmp105:
	.cv_loc	5 1 49 0
	movq	360(%rbp), %rdx
	movq	%rax, %r8
	callq	_ZN4core3fmt9Formatter12debug_struct17h0dcf51f11694d493E
	jmp	.LBB5_38
.Ltmp106:
.LBB5_8:
	leaq	864(%rbp), %rcx
	leaq	str.1Z(%rip), %rax
	movl	$8, %edx
	movl	%edx, %r9d
	.cv_loc	5 1 86 0
	movq	376(%rbp), %r8
	addq	$4, %r8
	movq	%r8, 560(%rbp)
	.cv_loc	5 1 87 0
	movq	376(%rbp), %r8
	addq	$8, %r8
	movq	%r8, 568(%rbp)
	.cv_loc	5 1 88 0
	movq	376(%rbp), %r8
	addq	$12, %r8
	movq	%r8, 576(%rbp)
	.cv_loc	5 1 89 0
	movq	376(%rbp), %r8
	addq	$16, %r8
	movq	%r8, 584(%rbp)
.Ltmp107:
	.cv_loc	5 1 49 0
	movq	360(%rbp), %rdx
	movq	%rax, %r8
	callq	_ZN4core3fmt9Formatter12debug_struct17h0dcf51f11694d493E
	jmp	.LBB5_44
.Ltmp108:
.LBB5_9:
	.cv_loc	5 1 49 0
	movb	375(%rbp), %al
	andb	$1, %al
	movzbl	%al, %eax
	addq	$1040, %rsp
	popq	%rbp
.Ltmp109:
	retq
.LBB5_10:
.Ltmp110:
	leaq	592(%rbp), %rcx
	leaq	str.20(%rip), %rax
	movl	$1, %edx
	movl	%edx, %r8d
	leaq	vtable.21(%rip), %r9
	leaq	608(%rbp), %r10
.Ltmp111:
	.cv_loc	5 1 52 0
	movq	384(%rbp), %r11
	movq	%r11, 608(%rbp)
	.cv_loc	5 1 49 0
	movq	%rax, %rdx
	movq	%r9, 328(%rbp)
	movq	%r10, %r9
	movq	328(%rbp), %rax
	movq	%rax, 32(%rsp)
	callq	_ZN4core3fmt8builders11DebugStruct5field17h9b2b66c26f4fd119E
	movq	%rax, 320(%rbp)
.Ltmp112:
	leaq	592(%rbp), %rcx
	leaq	str.22(%rip), %rax
	movl	$1, %edx
	movl	%edx, %r8d
	leaq	vtable.21(%rip), %r9
	leaq	616(%rbp), %r10
	.cv_loc	5 1 53 0
	movq	392(%rbp), %r11
	movq	%r11, 616(%rbp)
	.cv_loc	5 1 49 0
	movq	%rax, %rdx
	movq	%r9, 312(%rbp)
	movq	%r10, %r9
	movq	312(%rbp), %rax
	movq	%rax, 32(%rsp)
	callq	_ZN4core3fmt8builders11DebugStruct5field17h9b2b66c26f4fd119E
	movq	%rax, 304(%rbp)
.Ltmp113:
	leaq	592(%rbp), %rcx
	leaq	str.2c(%rip), %rax
	movl	$1, %edx
	movl	%edx, %r8d
	leaq	vtable.21(%rip), %r9
	leaq	624(%rbp), %r10
	.cv_loc	5 1 54 0
	movq	400(%rbp), %r11
	movq	%r11, 624(%rbp)
	.cv_loc	5 1 49 0
	movq	%rax, %rdx
	movq	%r9, 296(%rbp)
	movq	%r10, %r9
	movq	296(%rbp), %rax
	movq	%rax, 32(%rsp)
	callq	_ZN4core3fmt8builders11DebugStruct5field17h9b2b66c26f4fd119E
	movq	%rax, 288(%rbp)
.Ltmp114:
	leaq	592(%rbp), %rcx
	callq	_ZN4core3fmt8builders11DebugStruct6finish17h030bb71217b1c237E
	andb	$1, %al
	movb	%al, 375(%rbp)
.Ltmp115:
	.cv_loc	5 1 49 0
	jmp	.LBB5_9
.Ltmp116:
.LBB5_15:
	leaq	632(%rbp), %rcx
	leaq	str.20(%rip), %rax
	movl	$1, %edx
	movl	%edx, %r8d
	leaq	vtable.21(%rip), %r9
	leaq	648(%rbp), %r10
.Ltmp117:
	.cv_loc	5 1 57 0
	movq	408(%rbp), %r11
	movq	%r11, 648(%rbp)
	.cv_loc	5 1 49 0
	movq	%rax, %rdx
	movq	%r9, 280(%rbp)
	movq	%r10, %r9
	movq	280(%rbp), %rax
	movq	%rax, 32(%rsp)
	callq	_ZN4core3fmt8builders11DebugStruct5field17h9b2b66c26f4fd119E
	movq	%rax, 272(%rbp)
.Ltmp118:
	leaq	632(%rbp), %rcx
	leaq	str.22(%rip), %rax
	movl	$1, %edx
	movl	%edx, %r8d
	leaq	vtable.21(%rip), %r9
	leaq	656(%rbp), %r10
	.cv_loc	5 1 58 0
	movq	416(%rbp), %r11
	movq	%r11, 656(%rbp)
	.cv_loc	5 1 49 0
	movq	%rax, %rdx
	movq	%r9, 264(%rbp)
	movq	%r10, %r9
	movq	264(%rbp), %rax
	movq	%rax, 32(%rsp)
	callq	_ZN4core3fmt8builders11DebugStruct5field17h9b2b66c26f4fd119E
	movq	%rax, 256(%rbp)
.Ltmp119:
	leaq	632(%rbp), %rcx
	leaq	str.2c(%rip), %rax
	movl	$1, %edx
	movl	%edx, %r8d
	leaq	vtable.21(%rip), %r9
	leaq	664(%rbp), %r10
	.cv_loc	5 1 59 0
	movq	424(%rbp), %r11
	movq	%r11, 664(%rbp)
	.cv_loc	5 1 49 0
	movq	%rax, %rdx
	movq	%r9, 248(%rbp)
	movq	%r10, %r9
	movq	248(%rbp), %rax
	movq	%rax, 32(%rsp)
	callq	_ZN4core3fmt8builders11DebugStruct5field17h9b2b66c26f4fd119E
	movq	%rax, 240(%rbp)
.Ltmp120:
	leaq	632(%rbp), %rcx
	callq	_ZN4core3fmt8builders11DebugStruct6finish17h030bb71217b1c237E
	andb	$1, %al
	movb	%al, 375(%rbp)
.Ltmp121:
	.cv_loc	5 1 49 0
	jmp	.LBB5_9
.Ltmp122:
.LBB5_20:
	leaq	672(%rbp), %rcx
	leaq	str.20(%rip), %rax
	movl	$1, %edx
	movl	%edx, %r8d
	leaq	vtable.21(%rip), %r9
	leaq	688(%rbp), %r10
.Ltmp123:
	.cv_loc	5 1 62 0
	movq	432(%rbp), %r11
	movq	%r11, 688(%rbp)
	.cv_loc	5 1 49 0
	movq	%rax, %rdx
	movq	%r9, 232(%rbp)
	movq	%r10, %r9
	movq	232(%rbp), %rax
	movq	%rax, 32(%rsp)
	callq	_ZN4core3fmt8builders11DebugStruct5field17h9b2b66c26f4fd119E
	movq	%rax, 224(%rbp)
.Ltmp124:
	leaq	672(%rbp), %rcx
	leaq	str.22(%rip), %rax
	movl	$1, %edx
	movl	%edx, %r8d
	leaq	vtable.21(%rip), %r9
	leaq	696(%rbp), %r10
	.cv_loc	5 1 63 0
	movq	440(%rbp), %r11
	movq	%r11, 696(%rbp)
	.cv_loc	5 1 49 0
	movq	%rax, %rdx
	movq	%r9, 216(%rbp)
	movq	%r10, %r9
	movq	216(%rbp), %rax
	movq	%rax, 32(%rsp)
	callq	_ZN4core3fmt8builders11DebugStruct5field17h9b2b66c26f4fd119E
	movq	%rax, 208(%rbp)
.Ltmp125:
	leaq	672(%rbp), %rcx
	leaq	str.26(%rip), %rax
	movl	$1, %edx
	movl	%edx, %r8d
	leaq	vtable.29(%rip), %r9
	leaq	704(%rbp), %r10
	.cv_loc	5 1 64 0
	movq	448(%rbp), %r11
	movq	%r11, 704(%rbp)
	.cv_loc	5 1 49 0
	movq	%rax, %rdx
	movq	%r9, 200(%rbp)
	movq	%r10, %r9
	movq	200(%rbp), %rax
	movq	%rax, 32(%rsp)
	callq	_ZN4core3fmt8builders11DebugStruct5field17h9b2b66c26f4fd119E
	movq	%rax, 192(%rbp)
.Ltmp126:
	leaq	672(%rbp), %rcx
	leaq	str.24(%rip), %rax
	movl	$1, %edx
	movl	%edx, %r8d
	leaq	vtable.29(%rip), %r9
	leaq	712(%rbp), %r10
	.cv_loc	5 1 65 0
	movq	456(%rbp), %r11
	movq	%r11, 712(%rbp)
	.cv_loc	5 1 49 0
	movq	%rax, %rdx
	movq	%r9, 184(%rbp)
	movq	%r10, %r9
	movq	184(%rbp), %rax
	movq	%rax, 32(%rsp)
	callq	_ZN4core3fmt8builders11DebugStruct5field17h9b2b66c26f4fd119E
	movq	%rax, 176(%rbp)
.Ltmp127:
	leaq	672(%rbp), %rcx
	callq	_ZN4core3fmt8builders11DebugStruct6finish17h030bb71217b1c237E
	andb	$1, %al
	movb	%al, 375(%rbp)
.Ltmp128:
	.cv_loc	5 1 49 0
	jmp	.LBB5_9
.Ltmp129:
.LBB5_26:
	leaq	720(%rbp), %rcx
	leaq	str.20(%rip), %rax
	movl	$1, %edx
	movl	%edx, %r8d
	leaq	vtable.21(%rip), %r9
	leaq	736(%rbp), %r10
.Ltmp130:
	.cv_loc	5 1 68 0
	movq	464(%rbp), %r11
	movq	%r11, 736(%rbp)
	.cv_loc	5 1 49 0
	movq	%rax, %rdx
	movq	%r9, 168(%rbp)
	movq	%r10, %r9
	movq	168(%rbp), %rax
	movq	%rax, 32(%rsp)
	callq	_ZN4core3fmt8builders11DebugStruct5field17h9b2b66c26f4fd119E
	movq	%rax, 160(%rbp)
.Ltmp131:
	leaq	720(%rbp), %rcx
	leaq	str.22(%rip), %rax
	movl	$1, %edx
	movl	%edx, %r8d
	leaq	vtable.21(%rip), %r9
	leaq	744(%rbp), %r10
	.cv_loc	5 1 69 0
	movq	472(%rbp), %r11
	movq	%r11, 744(%rbp)
	.cv_loc	5 1 49 0
	movq	%rax, %rdx
	movq	%r9, 152(%rbp)
	movq	%r10, %r9
	movq	152(%rbp), %rax
	movq	%rax, 32(%rsp)
	callq	_ZN4core3fmt8builders11DebugStruct5field17h9b2b66c26f4fd119E
	movq	%rax, 144(%rbp)
.Ltmp132:
	leaq	720(%rbp), %rcx
	leaq	str.26(%rip), %rax
	movl	$1, %edx
	movl	%edx, %r8d
	leaq	vtable.29(%rip), %r9
	leaq	752(%rbp), %r10
	.cv_loc	5 1 70 0
	movq	480(%rbp), %r11
	movq	%r11, 752(%rbp)
	.cv_loc	5 1 49 0
	movq	%rax, %rdx
	movq	%r9, 136(%rbp)
	movq	%r10, %r9
	movq	136(%rbp), %rax
	movq	%rax, 32(%rsp)
	callq	_ZN4core3fmt8builders11DebugStruct5field17h9b2b66c26f4fd119E
	movq	%rax, 128(%rbp)
.Ltmp133:
	leaq	720(%rbp), %rcx
	leaq	str.24(%rip), %rax
	movl	$1, %edx
	movl	%edx, %r8d
	leaq	vtable.29(%rip), %r9
	leaq	760(%rbp), %r10
	.cv_loc	5 1 71 0
	movq	488(%rbp), %r11
	movq	%r11, 760(%rbp)
	.cv_loc	5 1 49 0
	movq	%rax, %rdx
	movq	%r9, 120(%rbp)
	movq	%r10, %r9
	movq	120(%rbp), %rax
	movq	%rax, 32(%rsp)
	callq	_ZN4core3fmt8builders11DebugStruct5field17h9b2b66c26f4fd119E
	movq	%rax, 112(%rbp)
.Ltmp134:
	leaq	720(%rbp), %rcx
	callq	_ZN4core3fmt8builders11DebugStruct6finish17h030bb71217b1c237E
	andb	$1, %al
	movb	%al, 375(%rbp)
.Ltmp135:
	.cv_loc	5 1 49 0
	jmp	.LBB5_9
.Ltmp136:
.LBB5_32:
	leaq	768(%rbp), %rcx
	leaq	str.20(%rip), %rax
	movl	$1, %edx
	movl	%edx, %r8d
	leaq	vtable.21(%rip), %r9
	leaq	784(%rbp), %r10
.Ltmp137:
	.cv_loc	5 1 74 0
	movq	496(%rbp), %r11
	movq	%r11, 784(%rbp)
	.cv_loc	5 1 49 0
	movq	%rax, %rdx
	movq	%r9, 104(%rbp)
	movq	%r10, %r9
	movq	104(%rbp), %rax
	movq	%rax, 32(%rsp)
	callq	_ZN4core3fmt8builders11DebugStruct5field17h9b2b66c26f4fd119E
	movq	%rax, 96(%rbp)
.Ltmp138:
	leaq	768(%rbp), %rcx
	leaq	str.22(%rip), %rax
	movl	$1, %edx
	movl	%edx, %r8d
	leaq	vtable.21(%rip), %r9
	leaq	792(%rbp), %r10
	.cv_loc	5 1 75 0
	movq	504(%rbp), %r11
	movq	%r11, 792(%rbp)
	.cv_loc	5 1 49 0
	movq	%rax, %rdx
	movq	%r9, 88(%rbp)
	movq	%r10, %r9
	movq	88(%rbp), %rax
	movq	%rax, 32(%rsp)
	callq	_ZN4core3fmt8builders11DebugStruct5field17h9b2b66c26f4fd119E
	movq	%rax, 80(%rbp)
.Ltmp139:
	leaq	768(%rbp), %rcx
	leaq	str.26(%rip), %rax
	movl	$1, %edx
	movl	%edx, %r8d
	leaq	vtable.21(%rip), %r9
	leaq	800(%rbp), %r10
	.cv_loc	5 1 76 0
	movq	512(%rbp), %r11
	movq	%r11, 800(%rbp)
	.cv_loc	5 1 49 0
	movq	%rax, %rdx
	movq	%r9, 72(%rbp)
	movq	%r10, %r9
	movq	72(%rbp), %rax
	movq	%rax, 32(%rsp)
	callq	_ZN4core3fmt8builders11DebugStruct5field17h9b2b66c26f4fd119E
	movq	%rax, 64(%rbp)
.Ltmp140:
	leaq	768(%rbp), %rcx
	leaq	str.24(%rip), %rax
	movl	$1, %edx
	movl	%edx, %r8d
	leaq	vtable.21(%rip), %r9
	leaq	808(%rbp), %r10
	.cv_loc	5 1 77 0
	movq	520(%rbp), %r11
	movq	%r11, 808(%rbp)
	.cv_loc	5 1 49 0
	movq	%rax, %rdx
	movq	%r9, 56(%rbp)
	movq	%r10, %r9
	movq	56(%rbp), %rax
	movq	%rax, 32(%rsp)
	callq	_ZN4core3fmt8builders11DebugStruct5field17h9b2b66c26f4fd119E
	movq	%rax, 48(%rbp)
.Ltmp141:
	leaq	768(%rbp), %rcx
	callq	_ZN4core3fmt8builders11DebugStruct6finish17h030bb71217b1c237E
	andb	$1, %al
	movb	%al, 375(%rbp)
.Ltmp142:
	.cv_loc	5 1 49 0
	jmp	.LBB5_9
.Ltmp143:
.LBB5_38:
	leaq	816(%rbp), %rcx
	leaq	str.20(%rip), %rax
	movl	$1, %edx
	movl	%edx, %r8d
	leaq	vtable.21(%rip), %r9
	leaq	832(%rbp), %r10
.Ltmp144:
	.cv_loc	5 1 80 0
	movq	528(%rbp), %r11
	movq	%r11, 832(%rbp)
	.cv_loc	5 1 49 0
	movq	%rax, %rdx
	movq	%r9, 40(%rbp)
	movq	%r10, %r9
	movq	40(%rbp), %rax
	movq	%rax, 32(%rsp)
	callq	_ZN4core3fmt8builders11DebugStruct5field17h9b2b66c26f4fd119E
	movq	%rax, 32(%rbp)
.Ltmp145:
	leaq	816(%rbp), %rcx
	leaq	str.22(%rip), %rax
	movl	$1, %edx
	movl	%edx, %r8d
	leaq	vtable.21(%rip), %r9
	leaq	840(%rbp), %r10
	.cv_loc	5 1 81 0
	movq	536(%rbp), %r11
	movq	%r11, 840(%rbp)
	.cv_loc	5 1 49 0
	movq	%rax, %rdx
	movq	%r9, 24(%rbp)
	movq	%r10, %r9
	movq	24(%rbp), %rax
	movq	%rax, 32(%rsp)
	callq	_ZN4core3fmt8builders11DebugStruct5field17h9b2b66c26f4fd119E
	movq	%rax, 16(%rbp)
.Ltmp146:
	leaq	816(%rbp), %rcx
	leaq	str.26(%rip), %rax
	movl	$1, %edx
	movl	%edx, %r8d
	leaq	vtable.21(%rip), %r9
	leaq	848(%rbp), %r10
	.cv_loc	5 1 82 0
	movq	544(%rbp), %r11
	movq	%r11, 848(%rbp)
	.cv_loc	5 1 49 0
	movq	%rax, %rdx
	movq	%r9, 8(%rbp)
	movq	%r10, %r9
	movq	8(%rbp), %rax
	movq	%rax, 32(%rsp)
	callq	_ZN4core3fmt8builders11DebugStruct5field17h9b2b66c26f4fd119E
	movq	%rax, (%rbp)
.Ltmp147:
	leaq	816(%rbp), %rcx
	leaq	str.24(%rip), %rax
	movl	$1, %edx
	movl	%edx, %r8d
	leaq	vtable.21(%rip), %r9
	leaq	856(%rbp), %r10
	.cv_loc	5 1 83 0
	movq	552(%rbp), %r11
	movq	%r11, 856(%rbp)
	.cv_loc	5 1 49 0
	movq	%rax, %rdx
	movq	%r9, -8(%rbp)
	movq	%r10, %r9
	movq	-8(%rbp), %rax
	movq	%rax, 32(%rsp)
	callq	_ZN4core3fmt8builders11DebugStruct5field17h9b2b66c26f4fd119E
	movq	%rax, -16(%rbp)
.Ltmp148:
	leaq	816(%rbp), %rcx
	callq	_ZN4core3fmt8builders11DebugStruct6finish17h030bb71217b1c237E
	andb	$1, %al
	movb	%al, 375(%rbp)
.Ltmp149:
	.cv_loc	5 1 49 0
	jmp	.LBB5_9
.Ltmp150:
.LBB5_44:
	leaq	864(%rbp), %rcx
	leaq	str.20(%rip), %rax
	movl	$1, %edx
	movl	%edx, %r8d
	leaq	vtable.21(%rip), %r9
	leaq	880(%rbp), %r10
.Ltmp151:
	.cv_loc	5 1 86 0
	movq	560(%rbp), %r11
	movq	%r11, 880(%rbp)
	.cv_loc	5 1 49 0
	movq	%rax, %rdx
	movq	%r9, -24(%rbp)
	movq	%r10, %r9
	movq	-24(%rbp), %rax
	movq	%rax, 32(%rsp)
	callq	_ZN4core3fmt8builders11DebugStruct5field17h9b2b66c26f4fd119E
	movq	%rax, -32(%rbp)
.Ltmp152:
	leaq	864(%rbp), %rcx
	leaq	str.22(%rip), %rax
	movl	$1, %edx
	movl	%edx, %r8d
	leaq	vtable.21(%rip), %r9
	leaq	888(%rbp), %r10
	.cv_loc	5 1 87 0
	movq	568(%rbp), %r11
	movq	%r11, 888(%rbp)
	.cv_loc	5 1 49 0
	movq	%rax, %rdx
	movq	%r9, -40(%rbp)
	movq	%r10, %r9
	movq	-40(%rbp), %rax
	movq	%rax, 32(%rsp)
	callq	_ZN4core3fmt8builders11DebugStruct5field17h9b2b66c26f4fd119E
	movq	%rax, -48(%rbp)
.Ltmp153:
	leaq	864(%rbp), %rcx
	leaq	str.23(%rip), %rax
	movl	$1, %edx
	movl	%edx, %r8d
	leaq	vtable.21(%rip), %r9
	leaq	896(%rbp), %r10
	.cv_loc	5 1 88 0
	movq	576(%rbp), %r11
	movq	%r11, 896(%rbp)
	.cv_loc	5 1 49 0
	movq	%rax, %rdx
	movq	%r9, -56(%rbp)
	movq	%r10, %r9
	movq	-56(%rbp), %rax
	movq	%rax, 32(%rsp)
	callq	_ZN4core3fmt8builders11DebugStruct5field17h9b2b66c26f4fd119E
	movq	%rax, -64(%rbp)
.Ltmp154:
	leaq	864(%rbp), %rcx
	leaq	str.24(%rip), %rax
	movl	$1, %edx
	movl	%edx, %r8d
	leaq	vtable.21(%rip), %r9
	leaq	904(%rbp), %r10
	.cv_loc	5 1 89 0
	movq	584(%rbp), %r11
	movq	%r11, 904(%rbp)
	.cv_loc	5 1 49 0
	movq	%rax, %rdx
	movq	%r9, -72(%rbp)
	movq	%r10, %r9
	movq	-72(%rbp), %rax
	movq	%rax, 32(%rsp)
	callq	_ZN4core3fmt8builders11DebugStruct5field17h9b2b66c26f4fd119E
	movq	%rax, -80(%rbp)
.Ltmp155:
	leaq	864(%rbp), %rcx
	callq	_ZN4core3fmt8builders11DebugStruct6finish17h030bb71217b1c237E
	andb	$1, %al
	movb	%al, 375(%rbp)
.Ltmp156:
	.cv_loc	5 1 49 0
	jmp	.LBB5_9
.Ltmp157:
.Lfunc_end5:
	.p2align	2, 0x90
.LJTI5_0:
	.long	.LBB5_2-.LJTI5_0
	.long	.LBB5_3-.LJTI5_0
	.long	.LBB5_4-.LJTI5_0
	.long	.LBB5_5-.LJTI5_0
	.long	.LBB5_6-.LJTI5_0
	.long	.LBB5_7-.LJTI5_0
	.long	.LBB5_8-.LJTI5_0
	.seh_handlerdata
	.section	.text,"xr",one_only,_ZN61_$LT$asteroid..graphics..Draw$u20$as$u20$core..fmt..Debug$GT$3fmt17h35a4f553526b465bE
.Lcfi36:
	.seh_endproc

	.section	.rdata,"dr",one_only,str.0
	.p2align	4
str.0:
	.ascii	"not yet implemented: "

	.section	.rdata,"dr",one_only,ref.1
	.p2align	3
ref.1:
	.quad	str.0
	.quad	21

	.section	.rdata,"dr",one_only,str.2
	.p2align	4
str.2:
	.ascii	"not implemented: "

	.section	.rdata,"dr",one_only,ref.3
	.p2align	3
ref.3:
	.quad	str.2
	.quad	17

	.section	.rdata,"dr",one_only,ref.4
	.p2align	3
ref.4:
	.quad	1
	.quad	0
	.quad	3
	.zero	8
	.quad	3
	.zero	8
	.long	32
	.long	0
	.byte	3
	.zero	7

	.section	.rdata,"dr",one_only,const.5
	.p2align	3
const.5:
	.quad	ref.4

	.section	.rdata,"dr",one_only,str.6
str.6:
	.ascii	"src\\graphics.rs"

	.section	.rdata,"dr",one_only,ref.7
	.p2align	3
ref.7:
	.quad	str.6
	.quad	15
	.long	39
	.long	17

	.section	.rdata,"dr",one_only,const.8
	.p2align	3
const.8:
	.quad	ref.7

	.section	.rdata,"dr",one_only,str.9
	.p2align	4
str.9:
	.ascii	"attempt to add with overflow"

	.section	.rdata,"dr",one_only,panic_loc.a
	.p2align	3
panic_loc.a:
	.quad	str.9
	.quad	28
	.quad	str.6
	.quad	15
	.long	23
	.long	54

	.section	.rdata,"dr",one_only,panic_loc.b
	.p2align	3
panic_loc.b:
	.quad	str.9
	.quad	28
	.quad	str.6
	.quad	15
	.long	23
	.long	61

	.section	.rdata,"dr",one_only,panic_loc.c
	.p2align	3
panic_loc.c:
	.quad	str.9
	.quad	28
	.quad	str.6
	.quad	15
	.long	20
	.long	53

	.section	.rdata,"dr",one_only,panic_loc.d
	.p2align	3
panic_loc.d:
	.quad	str.9
	.quad	28
	.quad	str.6
	.quad	15
	.long	20
	.long	60

	.section	.rdata,"dr",one_only,str.e
	.p2align	4
str.e:
	.ascii	"attempt to multiply with overflow"

	.section	.rdata,"dr",one_only,panic_loc.f
	.p2align	3
panic_loc.f:
	.quad	str.e
	.quad	33
	.quad	str.6
	.quad	15
	.long	96
	.long	21

	.section	.rdata,"dr",one_only,str.g
	.p2align	4
str.g:
	.ascii	"attempt to subtract with overflow"

	.section	.rdata,"dr",one_only,panic_loc.h
	.p2align	3
panic_loc.h:
	.quad	str.g
	.quad	33
	.quad	str.6
	.quad	15
	.long	96
	.long	17

	.section	.rdata,"dr",one_only,panic_loc.i
	.p2align	3
panic_loc.i:
	.quad	str.9
	.quad	28
	.quad	str.6
	.quad	15
	.long	101
	.long	41

	.section	.rdata,"dr",one_only,panic_loc.j
	.p2align	3
panic_loc.j:
	.quad	str.9
	.quad	28
	.quad	str.6
	.quad	15
	.long	101
	.long	49

	.section	.rdata,"dr",one_only,panic_loc.k
	.p2align	3
panic_loc.k:
	.quad	str.g
	.quad	33
	.quad	str.6
	.quad	15
	.long	101
	.long	69

	.section	.rdata,"dr",one_only,panic_loc.l
	.p2align	3
panic_loc.l:
	.quad	str.9
	.quad	28
	.quad	str.6
	.quad	15
	.long	101
	.long	77

	.section	.rdata,"dr",one_only,panic_loc.m
	.p2align	3
panic_loc.m:
	.quad	str.9
	.quad	28
	.quad	str.6
	.quad	15
	.long	102
	.long	41

	.section	.rdata,"dr",one_only,panic_loc.n
	.p2align	3
panic_loc.n:
	.quad	str.g
	.quad	33
	.quad	str.6
	.quad	15
	.long	102
	.long	49

	.section	.rdata,"dr",one_only,panic_loc.o
	.p2align	3
panic_loc.o:
	.quad	str.g
	.quad	33
	.quad	str.6
	.quad	15
	.long	102
	.long	69

	.section	.rdata,"dr",one_only,panic_loc.p
	.p2align	3
panic_loc.p:
	.quad	str.g
	.quad	33
	.quad	str.6
	.quad	15
	.long	102
	.long	77

	.section	.rdata,"dr",one_only,panic_loc.q
	.p2align	3
panic_loc.q:
	.quad	str.9
	.quad	28
	.quad	str.6
	.quad	15
	.long	104
	.long	42

	.section	.rdata,"dr",one_only,panic_loc.r
	.p2align	3
panic_loc.r:
	.quad	str.9
	.quad	28
	.quad	str.6
	.quad	15
	.long	104
	.long	50

	.section	.rdata,"dr",one_only,panic_loc.s
	.p2align	3
panic_loc.s:
	.quad	str.g
	.quad	33
	.quad	str.6
	.quad	15
	.long	105
	.long	42

	.section	.rdata,"dr",one_only,panic_loc.t
	.p2align	3
panic_loc.t:
	.quad	str.9
	.quad	28
	.quad	str.6
	.quad	15
	.long	105
	.long	50

	.section	.rdata,"dr",one_only,panic_loc.u
	.p2align	3
panic_loc.u:
	.quad	str.9
	.quad	28
	.quad	str.6
	.quad	15
	.long	106
	.long	42

	.section	.rdata,"dr",one_only,panic_loc.v
	.p2align	3
panic_loc.v:
	.quad	str.g
	.quad	33
	.quad	str.6
	.quad	15
	.long	106
	.long	50

	.section	.rdata,"dr",one_only,panic_loc.w
	.p2align	3
panic_loc.w:
	.quad	str.g
	.quad	33
	.quad	str.6
	.quad	15
	.long	107
	.long	42

	.section	.rdata,"dr",one_only,panic_loc.x
	.p2align	3
panic_loc.x:
	.quad	str.g
	.quad	33
	.quad	str.6
	.quad	15
	.long	107
	.long	50

	.section	.rdata,"dr",one_only,panic_loc.y
	.p2align	3
panic_loc.y:
	.quad	str.9
	.quad	28
	.quad	str.6
	.quad	15
	.long	110
	.long	19

	.section	.rdata,"dr",one_only,panic_loc.z
	.p2align	3
panic_loc.z:
	.quad	str.e
	.quad	33
	.quad	str.6
	.quad	15
	.long	110
	.long	15

	.section	.rdata,"dr",one_only,panic_loc.A
	.p2align	3
panic_loc.A:
	.quad	str.g
	.quad	33
	.quad	str.6
	.quad	15
	.long	110
	.long	15

	.section	.rdata,"dr",one_only,panic_loc.B
	.p2align	3
panic_loc.B:
	.quad	str.9
	.quad	28
	.quad	str.6
	.quad	15
	.long	112
	.long	13

	.section	.rdata,"dr",one_only,panic_loc.C
	.p2align	3
panic_loc.C:
	.quad	str.e
	.quad	33
	.quad	str.6
	.quad	15
	.long	113
	.long	18

	.section	.rdata,"dr",one_only,panic_loc.D
	.p2align	3
panic_loc.D:
	.quad	str.9
	.quad	28
	.quad	str.6
	.quad	15
	.long	113
	.long	18

	.section	.rdata,"dr",one_only,panic_loc.E
	.p2align	3
panic_loc.E:
	.quad	str.9
	.quad	28
	.quad	str.6
	.quad	15
	.long	113
	.long	13

	.section	.rdata,"dr",one_only,panic_loc.F
	.p2align	3
panic_loc.F:
	.quad	str.g
	.quad	33
	.quad	str.6
	.quad	15
	.long	117
	.long	19

	.section	.rdata,"dr",one_only,panic_loc.G
	.p2align	3
panic_loc.G:
	.quad	str.e
	.quad	33
	.quad	str.6
	.quad	15
	.long	117
	.long	15

	.section	.rdata,"dr",one_only,panic_loc.H
	.p2align	3
panic_loc.H:
	.quad	str.g
	.quad	33
	.quad	str.6
	.quad	15
	.long	117
	.long	15

	.section	.rdata,"dr",one_only,panic_loc.I
	.p2align	3
panic_loc.I:
	.quad	str.g
	.quad	33
	.quad	str.6
	.quad	15
	.long	119
	.long	13

	.section	.rdata,"dr",one_only,panic_loc.J
	.p2align	3
panic_loc.J:
	.quad	str.e
	.quad	33
	.quad	str.6
	.quad	15
	.long	120
	.long	22

	.section	.rdata,"dr",one_only,panic_loc.K
	.p2align	3
panic_loc.K:
	.quad	str.g
	.quad	33
	.quad	str.6
	.quad	15
	.long	120
	.long	18

	.section	.rdata,"dr",one_only,panic_loc.L
	.p2align	3
panic_loc.L:
	.quad	str.9
	.quad	28
	.quad	str.6
	.quad	15
	.long	120
	.long	13

	.section	.rdata,"dr",one_only,panic_loc.M
	.p2align	3
panic_loc.M:
	.quad	str.9
	.quad	28
	.quad	str.6
	.quad	15
	.long	124
	.long	9

	.section	.rdata,"dr",one_only,panic_loc.N
	.p2align	3
panic_loc.N:
	.quad	str.g
	.quad	33
	.quad	str.6
	.quad	15
	.long	125
	.long	18

	.section	.rdata,"dr",one_only,panic_loc.O
	.p2align	3
panic_loc.O:
	.quad	str.e
	.quad	33
	.quad	str.6
	.quad	15
	.long	125
	.long	14

	.section	.rdata,"dr",one_only,panic_loc.P
	.p2align	3
panic_loc.P:
	.quad	str.9
	.quad	28
	.quad	str.6
	.quad	15
	.long	125
	.long	9

	.section	.rdata,"dr",one_only,panic_loc.Q
	.p2align	3
panic_loc.Q:
	.quad	str.g
	.quad	33
	.quad	str.6
	.quad	15
	.long	126
	.long	9

	.section	.rdata,"dr",one_only,panic_loc.R
	.p2align	3
panic_loc.R:
	.quad	str.9
	.quad	28
	.quad	str.6
	.quad	15
	.long	131
	.long	14

	.section	.rdata,"dr",one_only,panic_loc.S
	.p2align	3
panic_loc.S:
	.quad	str.9
	.quad	28
	.quad	str.6
	.quad	15
	.long	132
	.long	14

	.section	.rdata,"dr",one_only,panic_loc.T
	.p2align	3
panic_loc.T:
	.quad	str.e
	.quad	33
	.quad	str.6
	.quad	15
	.long	134
	.long	14

	.section	.rdata,"dr",one_only,panic_loc.U
	.p2align	3
panic_loc.U:
	.quad	str.e
	.quad	33
	.quad	str.6
	.quad	15
	.long	135
	.long	14

	.section	.rdata,"dr",one_only,panic_loc.V
	.p2align	3
panic_loc.V:
	.quad	str.e
	.quad	33
	.quad	str.6
	.quad	15
	.long	136
	.long	15

	.section	.rdata,"dr",one_only,panic_loc.W
	.p2align	3
panic_loc.W:
	.quad	str.e
	.quad	33
	.quad	str.6
	.quad	15
	.long	137
	.long	15

	.section	.rdata,"dr",one_only,panic_loc.X
	.p2align	3
panic_loc.X:
	.quad	str.e
	.quad	33
	.quad	str.6
	.quad	15
	.long	141
	.long	21

	.section	.rdata,"dr",one_only,panic_loc.Y
	.p2align	3
panic_loc.Y:
	.quad	str.e
	.quad	33
	.quad	str.6
	.quad	15
	.long	141
	.long	40

	.section	.rdata,"dr",one_only,panic_loc.Z
	.p2align	3
panic_loc.Z:
	.quad	str.g
	.quad	33
	.quad	str.6
	.quad	15
	.long	141
	.long	35

	.section	.rdata,"dr",one_only,panic_loc.10
	.p2align	3
panic_loc.10:
	.quad	str.e
	.quad	33
	.quad	str.6
	.quad	15
	.long	141
	.long	30

	.section	.rdata,"dr",one_only,panic_loc.11
	.p2align	3
panic_loc.11:
	.quad	str.9
	.quad	28
	.quad	str.6
	.quad	15
	.long	141
	.long	21

	.section	.rdata,"dr",one_only,panic_loc.12
	.p2align	3
panic_loc.12:
	.quad	str.e
	.quad	33
	.quad	str.6
	.quad	15
	.long	143
	.long	11

	.section	.rdata,"dr",one_only,panic_loc.13
	.p2align	3
panic_loc.13:
	.quad	str.e
	.quad	33
	.quad	str.6
	.quad	15
	.long	143
	.long	21

	.section	.rdata,"dr",one_only,panic_loc.14
	.p2align	3
panic_loc.14:
	.quad	str.9
	.quad	28
	.quad	str.6
	.quad	15
	.long	145
	.long	41

	.section	.rdata,"dr",one_only,panic_loc.15
	.p2align	3
panic_loc.15:
	.quad	str.9
	.quad	28
	.quad	str.6
	.quad	15
	.long	145
	.long	49

	.section	.rdata,"dr",one_only,panic_loc.16
	.p2align	3
panic_loc.16:
	.quad	str.g
	.quad	33
	.quad	str.6
	.quad	15
	.long	145
	.long	69

	.section	.rdata,"dr",one_only,panic_loc.17
	.p2align	3
panic_loc.17:
	.quad	str.9
	.quad	28
	.quad	str.6
	.quad	15
	.long	145
	.long	77

	.section	.rdata,"dr",one_only,panic_loc.18
	.p2align	3
panic_loc.18:
	.quad	str.9
	.quad	28
	.quad	str.6
	.quad	15
	.long	146
	.long	41

	.section	.rdata,"dr",one_only,panic_loc.19
	.p2align	3
panic_loc.19:
	.quad	str.g
	.quad	33
	.quad	str.6
	.quad	15
	.long	146
	.long	49

	.section	.rdata,"dr",one_only,panic_loc.1a
	.p2align	3
panic_loc.1a:
	.quad	str.g
	.quad	33
	.quad	str.6
	.quad	15
	.long	146
	.long	69

	.section	.rdata,"dr",one_only,panic_loc.1b
	.p2align	3
panic_loc.1b:
	.quad	str.g
	.quad	33
	.quad	str.6
	.quad	15
	.long	146
	.long	77

	.section	.rdata,"dr",one_only,panic_loc.1c
	.p2align	3
panic_loc.1c:
	.quad	str.9
	.quad	28
	.quad	str.6
	.quad	15
	.long	148
	.long	42

	.section	.rdata,"dr",one_only,panic_loc.1d
	.p2align	3
panic_loc.1d:
	.quad	str.9
	.quad	28
	.quad	str.6
	.quad	15
	.long	148
	.long	50

	.section	.rdata,"dr",one_only,panic_loc.1e
	.p2align	3
panic_loc.1e:
	.quad	str.g
	.quad	33
	.quad	str.6
	.quad	15
	.long	149
	.long	42

	.section	.rdata,"dr",one_only,panic_loc.1f
	.p2align	3
panic_loc.1f:
	.quad	str.9
	.quad	28
	.quad	str.6
	.quad	15
	.long	149
	.long	50

	.section	.rdata,"dr",one_only,panic_loc.1g
	.p2align	3
panic_loc.1g:
	.quad	str.9
	.quad	28
	.quad	str.6
	.quad	15
	.long	150
	.long	42

	.section	.rdata,"dr",one_only,panic_loc.1h
	.p2align	3
panic_loc.1h:
	.quad	str.g
	.quad	33
	.quad	str.6
	.quad	15
	.long	150
	.long	50

	.section	.rdata,"dr",one_only,panic_loc.1i
	.p2align	3
panic_loc.1i:
	.quad	str.g
	.quad	33
	.quad	str.6
	.quad	15
	.long	151
	.long	42

	.section	.rdata,"dr",one_only,panic_loc.1j
	.p2align	3
panic_loc.1j:
	.quad	str.g
	.quad	33
	.quad	str.6
	.quad	15
	.long	151
	.long	50

	.section	.rdata,"dr",one_only,panic_loc.1k
	.p2align	3
panic_loc.1k:
	.quad	str.g
	.quad	33
	.quad	str.6
	.quad	15
	.long	155
	.long	28

	.section	.rdata,"dr",one_only,panic_loc.1l
	.p2align	3
panic_loc.1l:
	.quad	str.e
	.quad	33
	.quad	str.6
	.quad	15
	.long	155
	.long	22

	.section	.rdata,"dr",one_only,panic_loc.1m
	.p2align	3
panic_loc.1m:
	.quad	str.9
	.quad	28
	.quad	str.6
	.quad	15
	.long	155
	.long	13

	.section	.rdata,"dr",one_only,panic_loc.1n
	.p2align	3
panic_loc.1n:
	.quad	str.g
	.quad	33
	.quad	str.6
	.quad	15
	.long	156
	.long	13

	.section	.rdata,"dr",one_only,panic_loc.1o
	.p2align	3
panic_loc.1o:
	.quad	str.e
	.quad	33
	.quad	str.6
	.quad	15
	.long	159
	.long	24

	.section	.rdata,"dr",one_only,panic_loc.1p
	.p2align	3
panic_loc.1p:
	.quad	str.9
	.quad	28
	.quad	str.6
	.quad	15
	.long	159
	.long	23

	.section	.rdata,"dr",one_only,panic_loc.1q
	.p2align	3
panic_loc.1q:
	.quad	str.e
	.quad	33
	.quad	str.6
	.quad	15
	.long	159
	.long	18

	.section	.rdata,"dr",one_only,panic_loc.1r
	.p2align	3
panic_loc.1r:
	.quad	str.9
	.quad	28
	.quad	str.6
	.quad	15
	.long	159
	.long	9

	.section	.rdata,"dr",one_only,panic_loc.1s
	.p2align	3
panic_loc.1s:
	.quad	str.9
	.quad	28
	.quad	str.6
	.quad	15
	.long	160
	.long	9

	.section	.rdata,"dr",one_only,panic_loc.1t
	.p2align	3
panic_loc.1t:
	.quad	str.e
	.quad	33
	.quad	str.6
	.quad	15
	.long	165
	.long	21

	.section	.rdata,"dr",one_only,panic_loc.1u
	.p2align	3
panic_loc.1u:
	.quad	str.e
	.quad	33
	.quad	str.6
	.quad	15
	.long	165
	.long	40

	.section	.rdata,"dr",one_only,panic_loc.1v
	.p2align	3
panic_loc.1v:
	.quad	str.g
	.quad	33
	.quad	str.6
	.quad	15
	.long	165
	.long	35

	.section	.rdata,"dr",one_only,panic_loc.1w
	.p2align	3
panic_loc.1w:
	.quad	str.e
	.quad	33
	.quad	str.6
	.quad	15
	.long	165
	.long	30

	.section	.rdata,"dr",one_only,panic_loc.1x
	.p2align	3
panic_loc.1x:
	.quad	str.9
	.quad	28
	.quad	str.6
	.quad	15
	.long	165
	.long	21

	.section	.rdata,"dr",one_only,panic_loc.1y
	.p2align	3
panic_loc.1y:
	.quad	str.e
	.quad	33
	.quad	str.6
	.quad	15
	.long	167
	.long	11

	.section	.rdata,"dr",one_only,panic_loc.1z
	.p2align	3
panic_loc.1z:
	.quad	str.e
	.quad	33
	.quad	str.6
	.quad	15
	.long	167
	.long	21

	.section	.rdata,"dr",one_only,panic_loc.1A
	.p2align	3
panic_loc.1A:
	.quad	str.9
	.quad	28
	.quad	str.6
	.quad	15
	.long	169
	.long	41

	.section	.rdata,"dr",one_only,panic_loc.1B
	.p2align	3
panic_loc.1B:
	.quad	str.9
	.quad	28
	.quad	str.6
	.quad	15
	.long	169
	.long	49

	.section	.rdata,"dr",one_only,panic_loc.1C
	.p2align	3
panic_loc.1C:
	.quad	str.g
	.quad	33
	.quad	str.6
	.quad	15
	.long	169
	.long	69

	.section	.rdata,"dr",one_only,panic_loc.1D
	.p2align	3
panic_loc.1D:
	.quad	str.9
	.quad	28
	.quad	str.6
	.quad	15
	.long	169
	.long	77

	.section	.rdata,"dr",one_only,panic_loc.1E
	.p2align	3
panic_loc.1E:
	.quad	str.9
	.quad	28
	.quad	str.6
	.quad	15
	.long	170
	.long	41

	.section	.rdata,"dr",one_only,panic_loc.1F
	.p2align	3
panic_loc.1F:
	.quad	str.g
	.quad	33
	.quad	str.6
	.quad	15
	.long	170
	.long	49

	.section	.rdata,"dr",one_only,panic_loc.1G
	.p2align	3
panic_loc.1G:
	.quad	str.g
	.quad	33
	.quad	str.6
	.quad	15
	.long	170
	.long	69

	.section	.rdata,"dr",one_only,panic_loc.1H
	.p2align	3
panic_loc.1H:
	.quad	str.g
	.quad	33
	.quad	str.6
	.quad	15
	.long	170
	.long	77

	.section	.rdata,"dr",one_only,panic_loc.1I
	.p2align	3
panic_loc.1I:
	.quad	str.9
	.quad	28
	.quad	str.6
	.quad	15
	.long	172
	.long	42

	.section	.rdata,"dr",one_only,panic_loc.1J
	.p2align	3
panic_loc.1J:
	.quad	str.9
	.quad	28
	.quad	str.6
	.quad	15
	.long	172
	.long	50

	.section	.rdata,"dr",one_only,panic_loc.1K
	.p2align	3
panic_loc.1K:
	.quad	str.g
	.quad	33
	.quad	str.6
	.quad	15
	.long	173
	.long	42

	.section	.rdata,"dr",one_only,panic_loc.1L
	.p2align	3
panic_loc.1L:
	.quad	str.9
	.quad	28
	.quad	str.6
	.quad	15
	.long	173
	.long	50

	.section	.rdata,"dr",one_only,panic_loc.1M
	.p2align	3
panic_loc.1M:
	.quad	str.9
	.quad	28
	.quad	str.6
	.quad	15
	.long	174
	.long	42

	.section	.rdata,"dr",one_only,panic_loc.1N
	.p2align	3
panic_loc.1N:
	.quad	str.g
	.quad	33
	.quad	str.6
	.quad	15
	.long	174
	.long	50

	.section	.rdata,"dr",one_only,panic_loc.1O
	.p2align	3
panic_loc.1O:
	.quad	str.g
	.quad	33
	.quad	str.6
	.quad	15
	.long	175
	.long	42

	.section	.rdata,"dr",one_only,panic_loc.1P
	.p2align	3
panic_loc.1P:
	.quad	str.g
	.quad	33
	.quad	str.6
	.quad	15
	.long	175
	.long	50

	.section	.rdata,"dr",one_only,panic_loc.1Q
	.p2align	3
panic_loc.1Q:
	.quad	str.g
	.quad	33
	.quad	str.6
	.quad	15
	.long	179
	.long	28

	.section	.rdata,"dr",one_only,panic_loc.1R
	.p2align	3
panic_loc.1R:
	.quad	str.e
	.quad	33
	.quad	str.6
	.quad	15
	.long	179
	.long	22

	.section	.rdata,"dr",one_only,panic_loc.1S
	.p2align	3
panic_loc.1S:
	.quad	str.9
	.quad	28
	.quad	str.6
	.quad	15
	.long	179
	.long	13

	.section	.rdata,"dr",one_only,panic_loc.1T
	.p2align	3
panic_loc.1T:
	.quad	str.g
	.quad	33
	.quad	str.6
	.quad	15
	.long	180
	.long	13

	.section	.rdata,"dr",one_only,panic_loc.1U
	.p2align	3
panic_loc.1U:
	.quad	str.e
	.quad	33
	.quad	str.6
	.quad	15
	.long	183
	.long	24

	.section	.rdata,"dr",one_only,panic_loc.1V
	.p2align	3
panic_loc.1V:
	.quad	str.9
	.quad	28
	.quad	str.6
	.quad	15
	.long	183
	.long	23

	.section	.rdata,"dr",one_only,panic_loc.1W
	.p2align	3
panic_loc.1W:
	.quad	str.e
	.quad	33
	.quad	str.6
	.quad	15
	.long	183
	.long	18

	.section	.rdata,"dr",one_only,panic_loc.1X
	.p2align	3
panic_loc.1X:
	.quad	str.9
	.quad	28
	.quad	str.6
	.quad	15
	.long	183
	.long	9

	.section	.rdata,"dr",one_only,panic_loc.1Y
	.p2align	3
panic_loc.1Y:
	.quad	str.9
	.quad	28
	.quad	str.6
	.quad	15
	.long	184
	.long	9

	.section	.rdata,"dr",one_only,str.1Z
str.1Z:
	.ascii	"Triangle"

	.section	.rdata,"dr",one_only,str.20
str.20:
	.byte	120

	.section	.rdata,"dr",one_only,vtable.21
	.p2align	3
vtable.21:
	.quad	_ZN4core3ptr13drop_in_place17hf1f6b49c01774bbdE
	.quad	8
	.quad	8
	.quad	_ZN53_$LT$$RF$$u27$a$u20$T$u20$as$u20$core..fmt..Debug$GT$3fmt17h786ae1949f0f02f8E

	.section	.rdata,"dr",one_only,str.22
str.22:
	.byte	121

	.section	.rdata,"dr",one_only,str.23
str.23:
	.byte	98

	.section	.rdata,"dr",one_only,str.24
str.24:
	.byte	104

	.section	.rdata,"dr",one_only,str.25
str.25:
	.ascii	"EllipseLine"

	.section	.rdata,"dr",one_only,str.26
str.26:
	.byte	119

	.section	.rdata,"dr",one_only,str.27
str.27:
	.ascii	"EllipseFill"

	.section	.rdata,"dr",one_only,str.28
str.28:
	.ascii	"RectangleLine"

	.section	.rdata,"dr",one_only,vtable.29
	.p2align	3
vtable.29:
	.quad	_ZN4core3ptr13drop_in_place17h5189ae731fb6b5e9E
	.quad	8
	.quad	8
	.quad	_ZN53_$LT$$RF$$u27$a$u20$T$u20$as$u20$core..fmt..Debug$GT$3fmt17h94bc8f43385eb9c1E

	.section	.rdata,"dr",one_only,str.2a
str.2a:
	.ascii	"RectangleFill"

	.section	.rdata,"dr",one_only,str.2b
str.2b:
	.ascii	"CircleLine"

	.section	.rdata,"dr",one_only,str.2c
str.2c:
	.byte	114

	.section	.rdata,"dr",one_only,str.2d
str.2d:
	.ascii	"CircleFill"
