	.text
	.def	 _ZN8asteroid5error13AsteroidError3new17h50d73109b8a7ae1dE;
	.scl	2;
	.type	32;
	.endef
	.section	.text,"xr",one_only,_ZN8asteroid5error13AsteroidError3new17h50d73109b8a7ae1dE
	.globl	_ZN8asteroid5error13AsteroidError3new17h50d73109b8a7ae1dE
	.p2align	4, 0x90
_ZN8asteroid5error13AsteroidError3new17h50d73109b8a7ae1dE:
.Lfunc_begin0:
	.cv_func_id 0
	.cv_file	1 "C:\\Users\\Zack\\source\\asteroid\\src\\error.rs"
	.cv_loc	0 1 23 0 is_stmt 0
.Lcfi0:
.seh_proc _ZN8asteroid5error13AsteroidError3new17h50d73109b8a7ae1dE
	pushq	%rbp
.Lcfi1:
	.seh_pushreg 5
	subq	$112, %rsp
.Lcfi2:
	.seh_stackalloc 112
	leaq	112(%rsp), %rbp
.Lcfi3:
	.seh_setframe 5, 112
.Lcfi4:
	.seh_endprologue
	movb	%dl, %al
	movq	%rcx, %r10
	leaq	-24(%rbp), %r11
	movb	%al, -41(%rbp)
	movq	%r8, -40(%rbp)
	movq	%r9, -32(%rbp)
.Ltmp0:
	.cv_loc	0 1 25 0
	movb	-41(%rbp), %al
	.cv_loc	0 1 26 0
	movq	-40(%rbp), %rdx
	movq	-32(%rbp), %r8
	movq	%rcx, -56(%rbp)
	movq	%r11, %rcx
	movq	%r10, -64(%rbp)
	movb	%al, -65(%rbp)
	callq	_ZN5alloc3str56_$LT$impl$u20$alloc..borrow..ToOwned$u20$for$u20$str$GT$8to_owned17h22b98e3fb520a0c4E
	.cv_loc	0 1 24 0
	movq	-56(%rbp), %rax
	movb	-65(%rbp), %cl
	movb	%cl, 24(%rax)
	movq	-24(%rbp), %rdx
	movq	%rdx, (%rax)
	movq	-16(%rbp), %rdx
	movq	%rdx, 8(%rax)
	movq	-8(%rbp), %rdx
	movq	%rdx, 16(%rax)
	.cv_loc	0 1 28 0
	movq	-64(%rbp), %rax
	addq	$112, %rsp
	popq	%rbp
	retq
.Ltmp1:
.Lfunc_end0:
	.seh_handlerdata
	.section	.text,"xr",one_only,_ZN8asteroid5error13AsteroidError3new17h50d73109b8a7ae1dE
.Lcfi5:
	.seh_endproc

	.def	 _ZN69_$LT$asteroid..error..AsteroidError$u20$as$u20$core..fmt..Display$GT$3fmt17hc80afb3c2d72aaaeE;
	.scl	2;
	.type	32;
	.endef
	.section	.text,"xr",one_only,_ZN69_$LT$asteroid..error..AsteroidError$u20$as$u20$core..fmt..Display$GT$3fmt17hc80afb3c2d72aaaeE
	.globl	_ZN69_$LT$asteroid..error..AsteroidError$u20$as$u20$core..fmt..Display$GT$3fmt17hc80afb3c2d72aaaeE
	.p2align	4, 0x90
_ZN69_$LT$asteroid..error..AsteroidError$u20$as$u20$core..fmt..Display$GT$3fmt17hc80afb3c2d72aaaeE:
.Lfunc_begin1:
	.cv_func_id 1
	.cv_loc	1 1 32 0
.Lcfi6:
.seh_proc _ZN69_$LT$asteroid..error..AsteroidError$u20$as$u20$core..fmt..Display$GT$3fmt17hc80afb3c2d72aaaeE
	pushq	%rbp
.Lcfi7:
	.seh_pushreg 5
	pushq	%rsi
.Lcfi8:
	.seh_pushreg 6
	pushq	%rdi
.Lcfi9:
	.seh_pushreg 7
	pushq	%rbx
.Lcfi10:
	.seh_pushreg 3
	subq	$232, %rsp
.Lcfi11:
	.seh_stackalloc 232
	leaq	128(%rsp), %rbp
.Lcfi12:
	.seh_setframe 5, 128
.Lcfi13:
	.seh_endprologue
	leaq	_ZN71_$LT$asteroid..error..AsteroidErrorKind$u20$as$u20$core..fmt..Debug$GT$3fmt17hdc7e785fed298c9dE(%rip), %rax
	movq	%rcx, -24(%rbp)
	movq	%rdx, -16(%rbp)
.Ltmp2:
	.cv_loc	1 1 33 0
	movq	-16(%rbp), %rcx
	movq	-24(%rbp), %rdx
	addq	$24, %rdx
	movq	-24(%rbp), %r8
	movq	%rdx, 72(%rbp)
	movq	%r8, 80(%rbp)
	movq	72(%rbp), %rdx
	movq	%rdx, 88(%rbp)
	movq	80(%rbp), %rdx
	movq	%rdx, 96(%rbp)
.Ltmp3:
	.cv_loc	1 1 33 0
	movq	88(%rbp), %rdx
	movq	%rcx, -32(%rbp)
	movq	%rdx, %rcx
	movq	%rax, %rdx
	callq	_ZN4core3fmt10ArgumentV13new17h809ba772b0a6bacaE
	movq	%rax, -40(%rbp)
	movq	%rdx, -48(%rbp)
	leaq	_ZN60_$LT$alloc..string..String$u20$as$u20$core..fmt..Display$GT$3fmt17h7325f38dc6b69431E(%rip), %rdx
	movq	96(%rbp), %rcx
	callq	_ZN4core3fmt10ArgumentV13new17h73728f1bc0b534d0E
	movq	%rax, -56(%rbp)
	movq	%rdx, -64(%rbp)
	leaq	-8(%rbp), %rcx
	leaq	ref.2(%rip), %rax
	movl	$2, %edx
	movl	%edx, %r8d
	leaq	40(%rbp), %r9
	movq	-40(%rbp), %r10
	movq	%r10, 40(%rbp)
	movq	-48(%rbp), %r11
	movq	%r11, 48(%rbp)
	movq	-56(%rbp), %rsi
	movq	%rsi, 56(%rbp)
	movq	-64(%rbp), %rdi
	movq	%rdi, 64(%rbp)
.Ltmp4:
	.cv_loc	1 1 33 0
	movq	const.4(%rip), %rbx
	movq	%rax, %rdx
	movq	$2, 32(%rsp)
	movq	%rbx, 40(%rsp)
	movq	$2, 48(%rsp)
	callq	_ZN4core3fmt9Arguments16new_v1_formatted17h647572f4005f46b4E
	leaq	-8(%rbp), %rdx
	movq	-32(%rbp), %rcx
	callq	_ZN4core3fmt9Formatter9write_fmt17haa029e989e812404E
	movb	%al, -65(%rbp)
	.cv_loc	1 1 34 0
	movb	-65(%rbp), %al
	andb	$1, %al
	movzbl	%al, %eax
	addq	$232, %rsp
	popq	%rbx
	popq	%rdi
	popq	%rsi
	popq	%rbp
	retq
.Ltmp5:
.Lfunc_end1:
	.seh_handlerdata
	.section	.text,"xr",one_only,_ZN69_$LT$asteroid..error..AsteroidError$u20$as$u20$core..fmt..Display$GT$3fmt17hc80afb3c2d72aaaeE
.Lcfi14:
	.seh_endproc

	.def	 _ZN68_$LT$asteroid..error..AsteroidError$u20$as$u20$std..error..Error$GT$11description17h490dfab4fa52db04E;
	.scl	2;
	.type	32;
	.endef
	.section	.text,"xr",one_only,_ZN68_$LT$asteroid..error..AsteroidError$u20$as$u20$std..error..Error$GT$11description17h490dfab4fa52db04E
	.globl	_ZN68_$LT$asteroid..error..AsteroidError$u20$as$u20$std..error..Error$GT$11description17h490dfab4fa52db04E
	.p2align	4, 0x90
_ZN68_$LT$asteroid..error..AsteroidError$u20$as$u20$std..error..Error$GT$11description17h490dfab4fa52db04E:
.Lfunc_begin2:
	.cv_func_id 2
	.cv_loc	2 1 38 0
.Lcfi15:
.seh_proc _ZN68_$LT$asteroid..error..AsteroidError$u20$as$u20$std..error..Error$GT$11description17h490dfab4fa52db04E
	pushq	%rbp
.Lcfi16:
	.seh_pushreg 5
	subq	$64, %rsp
.Lcfi17:
	.seh_stackalloc 64
	leaq	64(%rsp), %rbp
.Lcfi18:
	.seh_setframe 5, 64
.Lcfi19:
	.seh_endprologue
	movq	%rcx, -8(%rbp)
.Ltmp6:
	.cv_loc	2 1 39 0
	movq	-8(%rbp), %rcx
	callq	_ZN65_$LT$alloc..string..String$u20$as$u20$core..ops..deref..Deref$GT$5deref17h87e2e24adb925e4cE
	movq	%rax, -16(%rbp)
	movq	%rdx, -24(%rbp)
	.cv_loc	2 1 40 0
	movq	-16(%rbp), %rax
	movq	-24(%rbp), %rdx
	addq	$64, %rsp
	popq	%rbp
	retq
.Ltmp7:
.Lfunc_end2:
	.seh_handlerdata
	.section	.text,"xr",one_only,_ZN68_$LT$asteroid..error..AsteroidError$u20$as$u20$std..error..Error$GT$11description17h490dfab4fa52db04E
.Lcfi20:
	.seh_endproc

	.def	 _ZN68_$LT$asteroid..error..AsteroidResult$u20$as$u20$core..fmt..Debug$GT$3fmt17hce5d7db62720444bE;
	.scl	2;
	.type	32;
	.endef
	.section	.text,"xr",one_only,_ZN68_$LT$asteroid..error..AsteroidResult$u20$as$u20$core..fmt..Debug$GT$3fmt17hce5d7db62720444bE
	.globl	_ZN68_$LT$asteroid..error..AsteroidResult$u20$as$u20$core..fmt..Debug$GT$3fmt17hce5d7db62720444bE
	.p2align	4, 0x90
_ZN68_$LT$asteroid..error..AsteroidResult$u20$as$u20$core..fmt..Debug$GT$3fmt17hce5d7db62720444bE:
.Lfunc_begin3:
	.cv_func_id 3
	.cv_loc	3 1 5 0
.Lcfi21:
.seh_proc _ZN68_$LT$asteroid..error..AsteroidResult$u20$as$u20$core..fmt..Debug$GT$3fmt17hce5d7db62720444bE
	pushq	%rbp
.Lcfi22:
	.seh_pushreg 5
	subq	$160, %rsp
.Lcfi23:
	.seh_stackalloc 160
	leaq	128(%rsp), %rbp
.Lcfi24:
	.seh_setframe 5, 128
.Lcfi25:
	.seh_endprologue
	movq	%rcx, -64(%rbp)
	movq	%rdx, -56(%rbp)
.Ltmp8:
	movq	-64(%rbp), %rcx
	movq	%rcx, -40(%rbp)
	movq	-40(%rbp), %rcx
	movzbl	24(%rcx), %eax
	movl	%eax, %ecx
	movb	%cl, %r8b
	xorq	$1, %rcx
	subb	$1, %r8b
	movq	%rcx, -72(%rbp)
	movb	%r8b, -73(%rbp)
	je	.LBB3_1
	jmp	.LBB3_10
.Ltmp9:
.LBB3_10:
	movq	-72(%rbp), %rax
	subq	$1, %rax
	movq	%rax, -88(%rbp)
	je	.LBB3_3
	jmp	.LBB3_2
.Ltmp10:
.LBB3_1:
	leaq	-24(%rbp), %rcx
	leaq	str.7(%rip), %rax
	movl	$2, %edx
	movl	%edx, %r9d
	movq	-56(%rbp), %rdx
	movq	%rax, %r8
	callq	_ZN4core3fmt9Formatter11debug_tuple17hded439e83db3fc97E
	jmp	.LBB3_5
.Ltmp11:
.LBB3_2:
	ud2
.Ltmp12:
.LBB3_3:
	movq	%rbp, %rcx
	leaq	str.5(%rip), %rax
	movl	$3, %edx
	movl	%edx, %r9d
	.cv_loc	3 1 8 0
	movq	-40(%rbp), %r8
	movq	%r8, -32(%rbp)
.Ltmp13:
	.cv_loc	3 1 5 0
	movq	-56(%rbp), %rdx
	movq	%rax, %r8
	callq	_ZN4core3fmt9Formatter11debug_tuple17hded439e83db3fc97E
	jmp	.LBB3_7
.Ltmp14:
.LBB3_4:
	.cv_loc	3 1 5 0
	movb	-41(%rbp), %al
	andb	$1, %al
	movzbl	%al, %eax
	addq	$160, %rsp
	popq	%rbp
.Ltmp15:
	retq
.LBB3_5:
.Ltmp16:
	leaq	-24(%rbp), %rcx
.Ltmp17:
	.cv_loc	3 1 5 0
	callq	_ZN4core3fmt8builders10DebugTuple6finish17h620c508a8f79a4f9E
	andb	$1, %al
	movb	%al, -41(%rbp)
.Ltmp18:
	.cv_loc	3 1 5 0
	jmp	.LBB3_4
.Ltmp19:
.LBB3_7:
	movq	%rbp, %rcx
	leaq	vtable.6(%rip), %rax
	leaq	24(%rbp), %rdx
.Ltmp20:
	.cv_loc	3 1 8 0
	movq	-32(%rbp), %r8
	movq	%r8, 24(%rbp)
	.cv_loc	3 1 5 0
	movq	%rax, %r8
	callq	_ZN4core3fmt8builders10DebugTuple5field17h6719b76c7063aa0aE
	movq	%rax, -96(%rbp)
.Ltmp21:
	movq	%rbp, %rcx
	callq	_ZN4core3fmt8builders10DebugTuple6finish17h620c508a8f79a4f9E
	andb	$1, %al
	movb	%al, -41(%rbp)
.Ltmp22:
	.cv_loc	3 1 5 0
	jmp	.LBB3_4
.Ltmp23:
.Lfunc_end3:
	.seh_handlerdata
	.section	.text,"xr",one_only,_ZN68_$LT$asteroid..error..AsteroidResult$u20$as$u20$core..fmt..Debug$GT$3fmt17hce5d7db62720444bE
.Lcfi26:
	.seh_endproc

	.def	 _ZN67_$LT$asteroid..error..AsteroidError$u20$as$u20$core..fmt..Debug$GT$3fmt17he7d019c023485653E;
	.scl	2;
	.type	32;
	.endef
	.section	.text,"xr",one_only,_ZN67_$LT$asteroid..error..AsteroidError$u20$as$u20$core..fmt..Debug$GT$3fmt17he7d019c023485653E
	.globl	_ZN67_$LT$asteroid..error..AsteroidError$u20$as$u20$core..fmt..Debug$GT$3fmt17he7d019c023485653E
	.p2align	4, 0x90
_ZN67_$LT$asteroid..error..AsteroidError$u20$as$u20$core..fmt..Debug$GT$3fmt17he7d019c023485653E:
.Lfunc_begin4:
	.cv_func_id 4
	.cv_loc	4 1 11 0
.Lcfi27:
.seh_proc _ZN67_$LT$asteroid..error..AsteroidError$u20$as$u20$core..fmt..Debug$GT$3fmt17he7d019c023485653E
	pushq	%rbp
.Lcfi28:
	.seh_pushreg 5
	subq	$144, %rsp
.Lcfi29:
	.seh_stackalloc 144
	leaq	128(%rsp), %rbp
.Lcfi30:
	.seh_setframe 5, 128
.Lcfi31:
	.seh_endprologue
	leaq	-16(%rbp), %rax
	leaq	str.8(%rip), %r8
	movl	$13, %r9d
	movq	%rcx, -48(%rbp)
	movq	%rdx, -40(%rbp)
.Ltmp24:
	.cv_loc	4 1 13 0
	movq	-48(%rbp), %rcx
	addq	$24, %rcx
	movq	%rcx, -32(%rbp)
	.cv_loc	4 1 14 0
	movq	-48(%rbp), %rcx
	movq	%rcx, -24(%rbp)
.Ltmp25:
	.cv_loc	4 1 11 0
	movq	-40(%rbp), %rdx
	movq	%rax, %rcx
	callq	_ZN4core3fmt9Formatter12debug_struct17h0dcf51f11694d493E
.Ltmp26:
	leaq	-16(%rbp), %rcx
	leaq	str.9(%rip), %rax
	movl	$4, %edx
	movl	%edx, %r8d
	leaq	vtable.a(%rip), %r9
	movq	%rbp, %r10
.Ltmp27:
	.cv_loc	4 1 13 0
	movq	-32(%rbp), %r11
	movq	%r11, (%rbp)
	.cv_loc	4 1 11 0
	movq	%rax, %rdx
	movq	%r9, -56(%rbp)
	movq	%r10, %r9
	movq	-56(%rbp), %rax
	movq	%rax, 32(%rsp)
	callq	_ZN4core3fmt8builders11DebugStruct5field17h9b2b66c26f4fd119E
	movq	%rax, -64(%rbp)
	leaq	-16(%rbp), %rcx
	leaq	str.b(%rip), %rax
	movl	$3, %edx
	movl	%edx, %r8d
	leaq	vtable.c(%rip), %r9
	leaq	8(%rbp), %r10
	.cv_loc	4 1 14 0
	movq	-24(%rbp), %r11
	movq	%r11, 8(%rbp)
	.cv_loc	4 1 11 0
	movq	%rax, %rdx
	movq	%r9, -72(%rbp)
	movq	%r10, %r9
	movq	-72(%rbp), %rax
	movq	%rax, 32(%rsp)
	callq	_ZN4core3fmt8builders11DebugStruct5field17h9b2b66c26f4fd119E
	movq	%rax, -80(%rbp)
	leaq	-16(%rbp), %rcx
	callq	_ZN4core3fmt8builders11DebugStruct6finish17h030bb71217b1c237E
	movb	%al, -81(%rbp)
.Ltmp28:
	.cv_loc	4 1 11 0
	movb	-81(%rbp), %al
	andb	$1, %al
	movzbl	%al, %eax
	addq	$144, %rsp
	popq	%rbp
	retq
.Ltmp29:
.Lfunc_end4:
	.seh_handlerdata
	.section	.text,"xr",one_only,_ZN67_$LT$asteroid..error..AsteroidError$u20$as$u20$core..fmt..Debug$GT$3fmt17he7d019c023485653E
.Lcfi32:
	.seh_endproc

	.def	 _ZN71_$LT$asteroid..error..AsteroidErrorKind$u20$as$u20$core..fmt..Debug$GT$3fmt17hdc7e785fed298c9dE;
	.scl	2;
	.type	32;
	.endef
	.section	.text,"xr",one_only,_ZN71_$LT$asteroid..error..AsteroidErrorKind$u20$as$u20$core..fmt..Debug$GT$3fmt17hdc7e785fed298c9dE
	.globl	_ZN71_$LT$asteroid..error..AsteroidErrorKind$u20$as$u20$core..fmt..Debug$GT$3fmt17hdc7e785fed298c9dE
	.p2align	4, 0x90
_ZN71_$LT$asteroid..error..AsteroidErrorKind$u20$as$u20$core..fmt..Debug$GT$3fmt17hdc7e785fed298c9dE:
.Lfunc_begin5:
	.cv_func_id 5
	.cv_loc	5 1 17 0
.Lcfi33:
.seh_proc _ZN71_$LT$asteroid..error..AsteroidErrorKind$u20$as$u20$core..fmt..Debug$GT$3fmt17hdc7e785fed298c9dE
	pushq	%rbp
.Lcfi34:
	.seh_pushreg 5
	subq	$96, %rsp
.Lcfi35:
	.seh_stackalloc 96
	leaq	96(%rsp), %rbp
.Lcfi36:
	.seh_setframe 5, 96
.Lcfi37:
	.seh_endprologue
	leaq	-24(%rbp), %rax
	leaq	str.d(%rip), %r8
	movl	$21, %r9d
	movq	%rcx, -48(%rbp)
	movq	%rdx, -40(%rbp)
.Ltmp30:
	movq	-48(%rbp), %rcx
	movq	%rcx, -32(%rbp)
	movq	-40(%rbp), %rdx
	movq	%rax, %rcx
	callq	_ZN4core3fmt9Formatter11debug_tuple17hded439e83db3fc97E
.Ltmp31:
	leaq	-24(%rbp), %rcx
.Ltmp32:
	.cv_loc	5 1 17 0
	callq	_ZN4core3fmt8builders10DebugTuple6finish17h620c508a8f79a4f9E
	movb	%al, -49(%rbp)
.Ltmp33:
	.cv_loc	5 1 17 0
	movb	-49(%rbp), %al
	andb	$1, %al
	movzbl	%al, %eax
	addq	$96, %rsp
	popq	%rbp
	retq
.Ltmp34:
.Lfunc_end5:
	.seh_handlerdata
	.section	.text,"xr",one_only,_ZN71_$LT$asteroid..error..AsteroidErrorKind$u20$as$u20$core..fmt..Debug$GT$3fmt17hdc7e785fed298c9dE
.Lcfi38:
	.seh_endproc

	.section	.rdata,"dr",one_only,str.0
	.p2align	4
str.0:
	.ascii	"An error has ocurred: "

	.section	.rdata,"dr",one_only,str.1
str.1:
	.byte	32

	.section	.rdata,"dr",one_only,ref.2
	.p2align	3
ref.2:
	.quad	str.0
	.quad	22
	.quad	str.1
	.quad	1

	.section	.rdata,"dr",one_only,ref.3
	.p2align	3
ref.3:
	.quad	1
	.quad	0
	.quad	3
	.zero	8
	.quad	3
	.zero	8
	.long	32
	.long	0
	.byte	3
	.zero	7
	.quad	1
	.quad	1
	.quad	3
	.zero	8
	.quad	3
	.zero	8
	.long	32
	.long	0
	.byte	3
	.zero	7

	.section	.rdata,"dr",one_only,const.4
	.p2align	3
const.4:
	.quad	ref.3

	.section	.rdata,"dr",one_only,str.5
str.5:
	.ascii	"Err"

	.section	.rdata,"dr",one_only,vtable.6
	.p2align	3
vtable.6:
	.quad	_ZN4core3ptr13drop_in_place17h8fd3e96158fa051eE
	.quad	8
	.quad	8
	.quad	_ZN53_$LT$$RF$$u27$a$u20$T$u20$as$u20$core..fmt..Debug$GT$3fmt17h8ed8deda94fde0dfE

	.section	.rdata,"dr",one_only,str.7
str.7:
	.ascii	"Ok"

	.section	.rdata,"dr",one_only,str.8
str.8:
	.ascii	"AsteroidError"

	.section	.rdata,"dr",one_only,str.9
str.9:
	.ascii	"kind"

	.section	.rdata,"dr",one_only,vtable.a
	.p2align	3
vtable.a:
	.quad	_ZN4core3ptr13drop_in_place17ha2a7f18b9650ff53E
	.quad	8
	.quad	8
	.quad	_ZN53_$LT$$RF$$u27$a$u20$T$u20$as$u20$core..fmt..Debug$GT$3fmt17h87a2ff1b06c59f5dE

	.section	.rdata,"dr",one_only,str.b
str.b:
	.ascii	"msg"

	.section	.rdata,"dr",one_only,vtable.c
	.p2align	3
vtable.c:
	.quad	_ZN4core3ptr13drop_in_place17ha4e20fbe16adf8c7E
	.quad	8
	.quad	8
	.quad	_ZN53_$LT$$RF$$u27$a$u20$T$u20$as$u20$core..fmt..Debug$GT$3fmt17hc05311424de20f88E

	.section	.rdata,"dr",one_only,str.d
	.p2align	4
str.d:
	.ascii	"InvalidSettingsFormat"
