	.text
	.def	 _ZN100_$LT$alloc..string..String$u20$as$u20$core..ops..index..Index$LT$core..ops..range..RangeFull$GT$$GT$5index17hf03547e0d0b06257E;
	.scl	3;
	.type	32;
	.endef
	.section	.text,"xr",one_only,_ZN100_$LT$alloc..string..String$u20$as$u20$core..ops..index..Index$LT$core..ops..range..RangeFull$GT$$GT$5index17hf03547e0d0b06257E
	.p2align	4, 0x90
_ZN100_$LT$alloc..string..String$u20$as$u20$core..ops..index..Index$LT$core..ops..range..RangeFull$GT$$GT$5index17hf03547e0d0b06257E:
.Lfunc_begin0:
	.cv_func_id 0
	.cv_file	1 "C:\\projects\\rust\\src\\liballoc\\string.rs"
	.cv_loc	0 1 1875 0 is_stmt 0
.Lcfi0:
.seh_proc _ZN100_$LT$alloc..string..String$u20$as$u20$core..ops..index..Index$LT$core..ops..range..RangeFull$GT$$GT$5index17hf03547e0d0b06257E
	pushq	%rbp
.Lcfi1:
	.seh_pushreg 5
	subq	$80, %rsp
.Lcfi2:
	.seh_stackalloc 80
	leaq	80(%rsp), %rbp
.Lcfi3:
	.seh_setframe 5, 80
.Lcfi4:
	.seh_endprologue
	movq	%rcx, -16(%rbp)
.Ltmp0:
	.cv_loc	0 1 1876 0
	movq	-16(%rbp), %rcx
	callq	_ZN68_$LT$alloc..vec..Vec$LT$T$GT$$u20$as$u20$core..ops..deref..Deref$GT$5deref17h903667f8c8f086b9E
	movq	%rax, -24(%rbp)
	movq	%rdx, -32(%rbp)
	movq	-24(%rbp), %rcx
	movq	-32(%rbp), %rdx
	callq	_ZN4core3str19from_utf8_unchecked17h28bfaf83c7fd2f4eE
	movq	%rax, -40(%rbp)
	movq	%rdx, -48(%rbp)
.Ltmp1:
	.cv_loc	0 1 1877 0
	movq	-40(%rbp), %rax
	movq	-48(%rbp), %rdx
	addq	$80, %rsp
	popq	%rbp
	retq
.Ltmp2:
.Lfunc_end0:
	.seh_handlerdata
	.section	.text,"xr",one_only,_ZN100_$LT$alloc..string..String$u20$as$u20$core..ops..index..Index$LT$core..ops..range..RangeFull$GT$$GT$5index17hf03547e0d0b06257E
.Lcfi5:
	.seh_endproc

	.def	 _ZN58_$LT$alloc..string..String$u20$as$u20$core..fmt..Debug$GT$3fmt17ha12ad07e4e1dfdf9E;
	.scl	2;
	.type	32;
	.endef
	.section	.text,"xr",one_only,_ZN58_$LT$alloc..string..String$u20$as$u20$core..fmt..Debug$GT$3fmt17ha12ad07e4e1dfdf9E
	.globl	_ZN58_$LT$alloc..string..String$u20$as$u20$core..fmt..Debug$GT$3fmt17ha12ad07e4e1dfdf9E
	.p2align	4, 0x90
_ZN58_$LT$alloc..string..String$u20$as$u20$core..fmt..Debug$GT$3fmt17ha12ad07e4e1dfdf9E:
.Lfunc_begin1:
	.cv_func_id 1
	.cv_loc	1 1 1769 0
.Lcfi6:
.seh_proc _ZN58_$LT$alloc..string..String$u20$as$u20$core..fmt..Debug$GT$3fmt17ha12ad07e4e1dfdf9E
	pushq	%rbp
.Lcfi7:
	.seh_pushreg 5
	subq	$80, %rsp
.Lcfi8:
	.seh_stackalloc 80
	leaq	80(%rsp), %rbp
.Lcfi9:
	.seh_setframe 5, 80
.Lcfi10:
	.seh_endprologue
	movq	%rcx, -16(%rbp)
	movq	%rdx, -8(%rbp)
.Ltmp3:
	.cv_loc	1 1 1770 0
	movq	-16(%rbp), %rcx
	callq	_ZN65_$LT$alloc..string..String$u20$as$u20$core..ops..deref..Deref$GT$5deref17h87e2e24adb925e4cE
	movq	%rax, -24(%rbp)
	movq	%rdx, -32(%rbp)
	movq	-8(%rbp), %r8
	movq	-24(%rbp), %rcx
	movq	-32(%rbp), %rdx
	callq	_ZN40_$LT$str$u20$as$u20$core..fmt..Debug$GT$3fmt17h9231470d7338d682E
	movb	%al, -33(%rbp)
	.cv_loc	1 1 1771 0
	movb	-33(%rbp), %al
	andb	$1, %al
	movzbl	%al, %eax
	addq	$80, %rsp
	popq	%rbp
	retq
.Ltmp4:
.Lfunc_end1:
	.seh_handlerdata
	.section	.text,"xr",one_only,_ZN58_$LT$alloc..string..String$u20$as$u20$core..fmt..Debug$GT$3fmt17ha12ad07e4e1dfdf9E
.Lcfi11:
	.seh_endproc

	.def	 _ZN60_$LT$alloc..string..String$u20$as$u20$core..fmt..Display$GT$3fmt17h7325f38dc6b69431E;
	.scl	2;
	.type	32;
	.endef
	.section	.text,"xr",one_only,_ZN60_$LT$alloc..string..String$u20$as$u20$core..fmt..Display$GT$3fmt17h7325f38dc6b69431E
	.globl	_ZN60_$LT$alloc..string..String$u20$as$u20$core..fmt..Display$GT$3fmt17h7325f38dc6b69431E
	.p2align	4, 0x90
_ZN60_$LT$alloc..string..String$u20$as$u20$core..fmt..Display$GT$3fmt17h7325f38dc6b69431E:
.Lfunc_begin2:
	.cv_func_id 2
	.cv_loc	2 1 1761 0
.Lcfi12:
.seh_proc _ZN60_$LT$alloc..string..String$u20$as$u20$core..fmt..Display$GT$3fmt17h7325f38dc6b69431E
	pushq	%rbp
.Lcfi13:
	.seh_pushreg 5
	subq	$80, %rsp
.Lcfi14:
	.seh_stackalloc 80
	leaq	80(%rsp), %rbp
.Lcfi15:
	.seh_setframe 5, 80
.Lcfi16:
	.seh_endprologue
	movq	%rcx, -16(%rbp)
	movq	%rdx, -8(%rbp)
.Ltmp5:
	.cv_loc	2 1 1762 0
	movq	-16(%rbp), %rcx
	callq	_ZN65_$LT$alloc..string..String$u20$as$u20$core..ops..deref..Deref$GT$5deref17h87e2e24adb925e4cE
	movq	%rax, -24(%rbp)
	movq	%rdx, -32(%rbp)
	movq	-8(%rbp), %r8
	movq	-24(%rbp), %rcx
	movq	-32(%rbp), %rdx
	callq	_ZN42_$LT$str$u20$as$u20$core..fmt..Display$GT$3fmt17hb1f20b48a8c9e724E
	movb	%al, -33(%rbp)
	.cv_loc	2 1 1763 0
	movb	-33(%rbp), %al
	andb	$1, %al
	movzbl	%al, %eax
	addq	$80, %rsp
	popq	%rbp
	retq
.Ltmp6:
.Lfunc_end2:
	.seh_handlerdata
	.section	.text,"xr",one_only,_ZN60_$LT$alloc..string..String$u20$as$u20$core..fmt..Display$GT$3fmt17h7325f38dc6b69431E
.Lcfi17:
	.seh_endproc

	.def	 _ZN62_$LT$alloc..string..String$u20$as$u20$core..cmp..PartialEq$GT$2eq17h89e00569a34d01e7E;
	.scl	2;
	.type	32;
	.endef
	.section	.text,"xr",one_only,_ZN62_$LT$alloc..string..String$u20$as$u20$core..cmp..PartialEq$GT$2eq17h89e00569a34d01e7E
	.globl	_ZN62_$LT$alloc..string..String$u20$as$u20$core..cmp..PartialEq$GT$2eq17h89e00569a34d01e7E
	.p2align	4, 0x90
_ZN62_$LT$alloc..string..String$u20$as$u20$core..cmp..PartialEq$GT$2eq17h89e00569a34d01e7E:
.Lfunc_begin3:
	.cv_func_id 3
	.cv_loc	3 1 1713 0
.Lcfi18:
.seh_proc _ZN62_$LT$alloc..string..String$u20$as$u20$core..cmp..PartialEq$GT$2eq17h89e00569a34d01e7E
	pushq	%rbp
.Lcfi19:
	.seh_pushreg 5
	subq	$96, %rsp
.Lcfi20:
	.seh_stackalloc 96
	leaq	96(%rsp), %rbp
.Lcfi21:
	.seh_setframe 5, 96
.Lcfi22:
	.seh_endprologue
	movq	%rcx, -16(%rbp)
	movq	%rdx, -8(%rbp)
.Ltmp7:
	.cv_loc	3 1 1714 0
	movq	-16(%rbp), %rcx
	callq	_ZN100_$LT$alloc..string..String$u20$as$u20$core..ops..index..Index$LT$core..ops..range..RangeFull$GT$$GT$5index17hf03547e0d0b06257E
	movq	%rax, -24(%rbp)
	movq	%rdx, -32(%rbp)
	movq	-8(%rbp), %rcx
	callq	_ZN100_$LT$alloc..string..String$u20$as$u20$core..ops..index..Index$LT$core..ops..range..RangeFull$GT$$GT$5index17hf03547e0d0b06257E
	movq	%rax, -40(%rbp)
	movq	%rdx, -48(%rbp)
	movq	-24(%rbp), %rcx
	movq	-32(%rbp), %rdx
	movq	-40(%rbp), %r8
	movq	-48(%rbp), %r9
	callq	_ZN4core3str6traits54_$LT$impl$u20$core..cmp..PartialEq$u20$for$u20$str$GT$2eq17h62fc6ab06f2a64c1E
	movb	%al, -49(%rbp)
	.cv_loc	3 1 1715 0
	movb	-49(%rbp), %al
	andb	$1, %al
	movzbl	%al, %eax
	addq	$96, %rsp
	popq	%rbp
	retq
.Ltmp8:
.Lfunc_end3:
	.seh_handlerdata
	.section	.text,"xr",one_only,_ZN62_$LT$alloc..string..String$u20$as$u20$core..cmp..PartialEq$GT$2eq17h89e00569a34d01e7E
.Lcfi23:
	.seh_endproc

	.def	 _ZN65_$LT$alloc..string..String$u20$as$u20$core..ops..deref..Deref$GT$5deref17h87e2e24adb925e4cE;
	.scl	2;
	.type	32;
	.endef
	.section	.text,"xr",one_only,_ZN65_$LT$alloc..string..String$u20$as$u20$core..ops..deref..Deref$GT$5deref17h87e2e24adb925e4cE
	.globl	_ZN65_$LT$alloc..string..String$u20$as$u20$core..ops..deref..Deref$GT$5deref17h87e2e24adb925e4cE
	.p2align	4, 0x90
_ZN65_$LT$alloc..string..String$u20$as$u20$core..ops..deref..Deref$GT$5deref17h87e2e24adb925e4cE:
.Lfunc_begin4:
	.cv_func_id 4
	.cv_loc	4 1 1946 0
.Lcfi24:
.seh_proc _ZN65_$LT$alloc..string..String$u20$as$u20$core..ops..deref..Deref$GT$5deref17h87e2e24adb925e4cE
	pushq	%rbp
.Lcfi25:
	.seh_pushreg 5
	subq	$80, %rsp
.Lcfi26:
	.seh_stackalloc 80
	leaq	80(%rsp), %rbp
.Lcfi27:
	.seh_setframe 5, 80
.Lcfi28:
	.seh_endprologue
	movq	%rcx, -8(%rbp)
.Ltmp9:
	.cv_loc	4 1 1947 0
	movq	-8(%rbp), %rcx
	callq	_ZN68_$LT$alloc..vec..Vec$LT$T$GT$$u20$as$u20$core..ops..deref..Deref$GT$5deref17h903667f8c8f086b9E
	movq	%rax, -16(%rbp)
	movq	%rdx, -24(%rbp)
	movq	-16(%rbp), %rcx
	movq	-24(%rbp), %rdx
	callq	_ZN4core3str19from_utf8_unchecked17h28bfaf83c7fd2f4eE
	movq	%rax, -32(%rbp)
	movq	%rdx, -40(%rbp)
.Ltmp10:
	.cv_loc	4 1 1948 0
	movq	-32(%rbp), %rax
	movq	-40(%rbp), %rdx
	addq	$80, %rsp
	popq	%rbp
	retq
.Ltmp11:
.Lfunc_end4:
	.seh_handlerdata
	.section	.text,"xr",one_only,_ZN65_$LT$alloc..string..String$u20$as$u20$core..ops..deref..Deref$GT$5deref17h87e2e24adb925e4cE
.Lcfi29:
	.seh_endproc
