	.text
	.def	 _ZN5alloc9allocator6Layout15from_size_align17hab64bbdbc929b8bbE;
	.scl	2;
	.type	32;
	.endef
	.section	.text,"xr",one_only,_ZN5alloc9allocator6Layout15from_size_align17hab64bbdbc929b8bbE
	.globl	_ZN5alloc9allocator6Layout15from_size_align17hab64bbdbc929b8bbE
	.p2align	4, 0x90
_ZN5alloc9allocator6Layout15from_size_align17hab64bbdbc929b8bbE:
.Lfunc_begin0:
	.cv_func_id 0
	.cv_file	1 "C:\\projects\\rust\\src\\liballoc\\allocator.rs"
	.cv_loc	0 1 79 0 is_stmt 0
.Lcfi0:
.seh_proc _ZN5alloc9allocator6Layout15from_size_align17hab64bbdbc929b8bbE
	pushq	%rbp
.Lcfi1:
	.seh_pushreg 5
	subq	$96, %rsp
.Lcfi2:
	.seh_stackalloc 96
	leaq	96(%rsp), %rbp
.Lcfi3:
	.seh_setframe 5, 96
.Lcfi4:
	.seh_endprologue
	movq	%rcx, %rax
	movq	%rdx, -16(%rbp)
	movq	%r8, -8(%rbp)
.Ltmp0:
	.cv_loc	0 1 80 0
	movq	-8(%rbp), %rdx
	movq	%rcx, -24(%rbp)
	movq	%rdx, %rcx
	movq	%rax, -32(%rbp)
	callq	_ZN4core3num23_$LT$impl$u20$usize$GT$15is_power_of_two17h47775aceccb15faeE
	movb	%al, -33(%rbp)
	movb	-33(%rbp), %al
	xorb	$-1, %al
	testb	$1, %al
	jne	.LBB0_2
	jmp	.LBB0_3
.LBB0_2:
	.cv_loc	0 1 81 0
	movq	-24(%rbp), %rax
	movq	$0, (%rax)
	jmp	.LBB0_4
.LBB0_3:
	movl	$2147483648, %eax
	movl	%eax, %ecx
	.cv_loc	0 1 84 0
	cmpq	%rcx, -8(%rbp)
	ja	.LBB0_5
	jmp	.LBB0_6
.LBB0_4:
	.cv_loc	0 1 109 0
	movq	-32(%rbp), %rax
	addq	$96, %rsp
	popq	%rbp
	retq
.LBB0_5:
	.cv_loc	0 1 85 0
	movq	-24(%rbp), %rax
	movq	$0, (%rax)
	jmp	.LBB0_4
.LBB0_6:
	movq	$-1, %rax
	.cv_loc	0 1 102 0
	movq	-16(%rbp), %rcx
	movq	-8(%rbp), %rdx
	subq	$1, %rdx
	subq	%rdx, %rax
	cmpq	%rax, %rcx
	jbe	.LBB0_8
	.cv_loc	0 1 103 0
	movq	-24(%rbp), %rax
	movq	$0, (%rax)
	jmp	.LBB0_4
.LBB0_8:
.Ltmp1:
	.cv_loc	0 1 107 0
	movq	-16(%rbp), %rcx
	movq	-8(%rbp), %rdx
	callq	_ZN5alloc9allocator6Layout25from_size_align_unchecked17h34ef790e2b9f779dE
	movq	%rax, -48(%rbp)
	movq	%rdx, -56(%rbp)
	movq	-24(%rbp), %rax
	movq	$1, (%rax)
	movq	-48(%rbp), %rcx
	movq	%rcx, 8(%rax)
	movq	-56(%rbp), %rdx
	movq	%rdx, 16(%rax)
.Ltmp2:
	.cv_loc	0 1 109 0
	jmp	.LBB0_4
.Ltmp3:
.Lfunc_end0:
	.seh_handlerdata
	.section	.text,"xr",one_only,_ZN5alloc9allocator6Layout15from_size_align17hab64bbdbc929b8bbE
.Lcfi5:
	.seh_endproc

	.def	 _ZN5alloc9allocator6Layout18padding_needed_for17ha5a4317f133237c6E;
	.scl	3;
	.type	32;
	.endef
	.section	.text,"xr",one_only,_ZN5alloc9allocator6Layout18padding_needed_for17ha5a4317f133237c6E
	.p2align	4, 0x90
_ZN5alloc9allocator6Layout18padding_needed_for17ha5a4317f133237c6E:
.Lfunc_begin1:
	.cv_func_id 1
	.cv_loc	1 1 184 0
.Lcfi6:
.seh_proc _ZN5alloc9allocator6Layout18padding_needed_for17ha5a4317f133237c6E
	pushq	%rbp
.Lcfi7:
	.seh_pushreg 5
	subq	$96, %rsp
.Lcfi8:
	.seh_stackalloc 96
	leaq	96(%rsp), %rbp
.Lcfi9:
	.seh_setframe 5, 96
.Lcfi10:
	.seh_endprologue
	movq	%rcx, -32(%rbp)
	movq	%rdx, -24(%rbp)
.Ltmp4:
	.cv_loc	1 1 185 0
	movq	-32(%rbp), %rcx
	callq	_ZN5alloc9allocator6Layout4size17h4f53ea62db9da096E
	movq	%rax, -16(%rbp)
.Ltmp5:
	.cv_loc	1 1 206 0
	movq	-16(%rbp), %rcx
	movq	-24(%rbp), %rdx
	callq	_ZN4core3num23_$LT$impl$u20$usize$GT$12wrapping_add17hb5013636858df802E
	movq	%rax, -40(%rbp)
	movl	$1, %eax
	movl	%eax, %edx
	movq	-40(%rbp), %rcx
	callq	_ZN4core3num23_$LT$impl$u20$usize$GT$12wrapping_sub17hcdbad80dcddfbfa4E
	movq	%rax, -48(%rbp)
	movl	$1, %eax
	movl	%eax, %edx
	movq	-24(%rbp), %rcx
	callq	_ZN4core3num23_$LT$impl$u20$usize$GT$12wrapping_sub17hcdbad80dcddfbfa4E
	movq	%rax, -56(%rbp)
	movq	-56(%rbp), %rax
	xorq	$-1, %rax
	movq	-48(%rbp), %rcx
	andq	%rax, %rcx
	movq	%rcx, -8(%rbp)
.Ltmp6:
	.cv_loc	1 1 207 0
	movq	-8(%rbp), %rcx
	movq	-16(%rbp), %rdx
	callq	_ZN4core3num23_$LT$impl$u20$usize$GT$12wrapping_sub17hcdbad80dcddfbfa4E
	movq	%rax, -64(%rbp)
.Ltmp7:
	.cv_loc	1 1 208 0
	movq	-64(%rbp), %rax
	addq	$96, %rsp
	popq	%rbp
	retq
.Ltmp8:
.Lfunc_end1:
	.seh_handlerdata
	.section	.text,"xr",one_only,_ZN5alloc9allocator6Layout18padding_needed_for17ha5a4317f133237c6E
.Lcfi11:
	.seh_endproc

	.def	 _ZN5alloc9allocator6Layout25from_size_align_unchecked17h34ef790e2b9f779dE;
	.scl	2;
	.type	32;
	.endef
	.section	.text,"xr",one_only,_ZN5alloc9allocator6Layout25from_size_align_unchecked17h34ef790e2b9f779dE
	.globl	_ZN5alloc9allocator6Layout25from_size_align_unchecked17h34ef790e2b9f779dE
	.p2align	4, 0x90
_ZN5alloc9allocator6Layout25from_size_align_unchecked17h34ef790e2b9f779dE:
.Lfunc_begin2:
	.cv_func_id 2
	.cv_loc	2 1 120 0
.Lcfi12:
.seh_proc _ZN5alloc9allocator6Layout25from_size_align_unchecked17h34ef790e2b9f779dE
	pushq	%rbp
.Lcfi13:
	.seh_pushreg 5
	subq	$32, %rsp
.Lcfi14:
	.seh_stackalloc 32
	leaq	32(%rsp), %rbp
.Lcfi15:
	.seh_setframe 5, 32
.Lcfi16:
	.seh_endprologue
	movq	%rcx, -32(%rbp)
	movq	%rdx, -24(%rbp)
.Ltmp9:
	.cv_loc	2 1 121 0
	movq	-32(%rbp), %rcx
	movq	-24(%rbp), %rdx
	movq	%rcx, -16(%rbp)
	movq	%rdx, -8(%rbp)
	.cv_loc	2 1 122 0
	movq	-16(%rbp), %rax
	movq	-8(%rbp), %rdx
	addq	$32, %rsp
	popq	%rbp
.Ltmp10:
	retq
.Ltmp11:
.Lfunc_end2:
	.seh_handlerdata
	.section	.text,"xr",one_only,_ZN5alloc9allocator6Layout25from_size_align_unchecked17h34ef790e2b9f779dE
.Lcfi17:
	.seh_endproc

	.def	 _ZN5alloc9allocator6Layout4size17h4f53ea62db9da096E;
	.scl	2;
	.type	32;
	.endef
	.section	.text,"xr",one_only,_ZN5alloc9allocator6Layout4size17h4f53ea62db9da096E
	.globl	_ZN5alloc9allocator6Layout4size17h4f53ea62db9da096E
	.p2align	4, 0x90
_ZN5alloc9allocator6Layout4size17h4f53ea62db9da096E:
.Lfunc_begin3:
	.cv_func_id 3
	.cv_loc	3 1 126 0
.Lcfi18:
.seh_proc _ZN5alloc9allocator6Layout4size17h4f53ea62db9da096E
	pushq	%rbp
.Lcfi19:
	.seh_pushreg 5
	pushq	%rax
.Lcfi20:
	.seh_stackalloc 8
	movq	%rsp, %rbp
.Lcfi21:
	.seh_setframe 5, 0
.Lcfi22:
	.seh_endprologue
	movq	%rcx, (%rbp)
.Ltmp12:
	movq	(%rbp), %rcx
	movq	(%rcx), %rax
	addq	$8, %rsp
	popq	%rbp
	retq
.Ltmp13:
.Lfunc_end3:
	.seh_handlerdata
	.section	.text,"xr",one_only,_ZN5alloc9allocator6Layout4size17h4f53ea62db9da096E
.Lcfi23:
	.seh_endproc

	.def	 _ZN5alloc9allocator6Layout5align17h162c551242688cdfE;
	.scl	2;
	.type	32;
	.endef
	.section	.text,"xr",one_only,_ZN5alloc9allocator6Layout5align17h162c551242688cdfE
	.globl	_ZN5alloc9allocator6Layout5align17h162c551242688cdfE
	.p2align	4, 0x90
_ZN5alloc9allocator6Layout5align17h162c551242688cdfE:
.Lfunc_begin4:
	.cv_func_id 4
	.cv_loc	4 1 130 0
.Lcfi24:
.seh_proc _ZN5alloc9allocator6Layout5align17h162c551242688cdfE
	pushq	%rbp
.Lcfi25:
	.seh_pushreg 5
	pushq	%rax
.Lcfi26:
	.seh_stackalloc 8
	movq	%rsp, %rbp
.Lcfi27:
	.seh_setframe 5, 0
.Lcfi28:
	.seh_endprologue
	movq	%rcx, (%rbp)
.Ltmp14:
	movq	(%rbp), %rcx
	movq	8(%rcx), %rax
	addq	$8, %rsp
	popq	%rbp
	retq
.Ltmp15:
.Lfunc_end4:
	.seh_handlerdata
	.section	.text,"xr",one_only,_ZN5alloc9allocator6Layout5align17h162c551242688cdfE
.Lcfi29:
	.seh_endproc

	.def	 _ZN5alloc9allocator6Layout6repeat17h98887a56a1186815E;
	.scl	2;
	.type	32;
	.endef
	.section	.text,"xr",one_only,_ZN5alloc9allocator6Layout6repeat17h98887a56a1186815E
	.globl	_ZN5alloc9allocator6Layout6repeat17h98887a56a1186815E
	.p2align	4, 0x90
_ZN5alloc9allocator6Layout6repeat17h98887a56a1186815E:
.Lfunc_begin5:
	.cv_func_id 5
	.cv_loc	5 1 219 0
.Lcfi30:
.seh_proc _ZN5alloc9allocator6Layout6repeat17h98887a56a1186815E
	pushq	%rbp
.Lcfi31:
	.seh_pushreg 5
	subq	$288, %rsp
.Lcfi32:
	.seh_stackalloc 288
	leaq	128(%rsp), %rbp
.Lcfi33:
	.seh_setframe 5, 128
.Lcfi34:
	.seh_endprologue
	movq	%rcx, %rax
	movq	%rdx, -16(%rbp)
	movq	%r8, -8(%rbp)
.Ltmp16:
	.cv_loc	5 1 220 0
	movq	-16(%rbp), %rdx
	movq	(%rdx), %rdx
	movq	-16(%rbp), %r8
	movq	-16(%rbp), %r9
	movq	8(%r9), %r9
	movq	%rcx, -24(%rbp)
	movq	%r8, %rcx
	movq	%rdx, -32(%rbp)
	movq	%r9, %rdx
	movq	%rax, -40(%rbp)
	callq	_ZN5alloc9allocator6Layout18padding_needed_for17ha5a4317f133237c6E
	movq	%rax, -48(%rbp)
	leaq	24(%rbp), %rcx
	movq	-32(%rbp), %rdx
	movq	-48(%rbp), %r8
	callq	_ZN4core3num23_$LT$impl$u20$usize$GT$11checked_add17h2595e4725e9ad1d8E
	leaq	8(%rbp), %rcx
	leaq	24(%rbp), %rdx
	callq	_ZN69_$LT$core..option..Option$LT$T$GT$$u20$as$u20$core..ops..try..Try$GT$11into_result17hc1b29322cd4275aaE
	movq	8(%rbp), %rax
	testq	%rax, %rax
	movq	%rax, -56(%rbp)
	je	.LBB5_5
	jmp	.LBB5_18
.LBB5_18:
	movq	-56(%rbp), %rax
	subq	$1, %rax
	movq	%rax, -64(%rbp)
	je	.LBB5_6
	jmp	.LBB5_4
.LBB5_4:
	.cv_loc	5 1 228 0
	ud2
.LBB5_5:
	leaq	80(%rbp), %rcx
	.cv_loc	5 1 220 0
	movq	16(%rbp), %rax
	movq	%rax, 48(%rbp)
.Ltmp17:
	.cv_loc	5 1 220 0
	movq	48(%rbp), %rax
	movq	%rax, (%rbp)
.Ltmp18:
	.cv_loc	5 1 221 0
	movq	(%rbp), %rdx
	movq	-8(%rbp), %r8
	callq	_ZN4core3num23_$LT$impl$u20$usize$GT$11checked_mul17he54b40f9f4f9b5c4E
	jmp	.LBB5_10
.Ltmp19:
.LBB5_6:
	.cv_loc	5 1 220 0
	callq	_ZN50_$LT$T$u20$as$u20$core..convert..From$LT$T$GT$$GT$4from17h90c9c9b673a89381E
	movq	-24(%rbp), %rcx
	callq	_ZN69_$LT$core..option..Option$LT$T$GT$$u20$as$u20$core..ops..try..Try$GT$10from_error17h55d47ca88a0e4cb7E
.Ltmp20:
	.cv_loc	5 1 220 0
	jmp	.LBB5_9
.LBB5_9:
	.cv_loc	5 1 228 0
	movq	-40(%rbp), %rax
	addq	$288, %rsp
	popq	%rbp
	retq
.LBB5_10:
	leaq	64(%rbp), %rcx
	leaq	80(%rbp), %rdx
.Ltmp21:
	.cv_loc	5 1 221 0
	callq	_ZN69_$LT$core..option..Option$LT$T$GT$$u20$as$u20$core..ops..try..Try$GT$11into_result17hc1b29322cd4275aaE
	movq	64(%rbp), %rax
	testq	%rax, %rax
	movq	%rax, -72(%rbp)
	je	.LBB5_12
	jmp	.LBB5_19
.LBB5_19:
	movq	-72(%rbp), %rax
	subq	$1, %rax
	movq	%rax, -80(%rbp)
	je	.LBB5_13
	jmp	.LBB5_4
.LBB5_12:
	leaq	136(%rbp), %rcx
	movq	72(%rbp), %rax
	movq	%rax, 104(%rbp)
.Ltmp22:
	.cv_loc	5 1 221 0
	movq	104(%rbp), %rax
	movq	%rax, 56(%rbp)
.Ltmp23:
	.cv_loc	5 1 227 0
	movq	56(%rbp), %rdx
	movq	-16(%rbp), %rax
	movq	8(%rax), %r8
	callq	_ZN5alloc9allocator6Layout15from_size_align17hab64bbdbc929b8bbE
	jmp	.LBB5_16
.Ltmp24:
.LBB5_13:
	.cv_loc	5 1 221 0
	callq	_ZN50_$LT$T$u20$as$u20$core..convert..From$LT$T$GT$$GT$4from17h90c9c9b673a89381E
	movq	-24(%rbp), %rcx
	callq	_ZN69_$LT$core..option..Option$LT$T$GT$$u20$as$u20$core..ops..try..Try$GT$10from_error17h55d47ca88a0e4cb7E
.Ltmp25:
	.cv_loc	5 1 221 0
	jmp	.LBB5_9
.LBB5_16:
	leaq	136(%rbp), %rcx
.Ltmp26:
	.cv_loc	5 1 227 0
	callq	_ZN38_$LT$core..option..Option$LT$T$GT$$GT$6unwrap17hbc899c9fc81cc1ccE
	movq	%rax, -88(%rbp)
	movq	%rdx, -96(%rbp)
	movq	(%rbp), %rax
	movq	-88(%rbp), %rcx
	movq	%rcx, 112(%rbp)
	movq	-96(%rbp), %rdx
	movq	%rdx, 120(%rbp)
	movq	%rax, 128(%rbp)
	movq	-24(%rbp), %rax
	movq	$1, (%rax)
	movq	112(%rbp), %r8
	movq	%r8, 8(%rax)
	movq	120(%rbp), %r8
	movq	%r8, 16(%rax)
	movq	128(%rbp), %r8
	movq	%r8, 24(%rax)
.Ltmp27:
	.cv_loc	5 1 228 0
	jmp	.LBB5_9
.Ltmp28:
.Lfunc_end5:
	.seh_handlerdata
	.section	.text,"xr",one_only,_ZN5alloc9allocator6Layout6repeat17h98887a56a1186815E
.Lcfi35:
	.seh_endproc

	.def	 _ZN5alloc9allocator8AllocErr13invalid_input17h722bbf412d896f6dE;
	.scl	2;
	.type	32;
	.endef
	.section	.text,"xr",one_only,_ZN5alloc9allocator8AllocErr13invalid_input17h722bbf412d896f6dE
	.globl	_ZN5alloc9allocator8AllocErr13invalid_input17h722bbf412d896f6dE
	.p2align	4, 0x90
_ZN5alloc9allocator8AllocErr13invalid_input17h722bbf412d896f6dE:
.Lfunc_begin6:
	.cv_func_id 6
	.cv_loc	6 1 330 0
.Lcfi36:
.seh_proc _ZN5alloc9allocator8AllocErr13invalid_input17h722bbf412d896f6dE
	pushq	%rbp
.Lcfi37:
	.seh_pushreg 5
	subq	$16, %rsp
.Lcfi38:
	.seh_stackalloc 16
	leaq	16(%rsp), %rbp
.Lcfi39:
	.seh_setframe 5, 16
.Lcfi40:
	.seh_endprologue
	movq	%rcx, %rax
	movq	%rdx, -16(%rbp)
	movq	%r8, -8(%rbp)
.Ltmp29:
	.cv_loc	6 1 331 0
	movq	-16(%rbp), %rdx
	movq	-8(%rbp), %r8
	movq	$1, (%rcx)
	movq	%rdx, 8(%rcx)
	movq	%r8, 16(%rcx)
	.cv_loc	6 1 332 0
	addq	$16, %rsp
	popq	%rbp
	retq
.Ltmp30:
.Lfunc_end6:
	.seh_handlerdata
	.section	.text,"xr",one_only,_ZN5alloc9allocator8AllocErr13invalid_input17h722bbf412d896f6dE
.Lcfi41:
	.seh_endproc

	.def	 _ZN63_$LT$alloc..allocator..Layout$u20$as$u20$core..clone..Clone$GT$5clone17h90151e54b5d2f56cE;
	.scl	2;
	.type	32;
	.endef
	.section	.text,"xr",one_only,_ZN63_$LT$alloc..allocator..Layout$u20$as$u20$core..clone..Clone$GT$5clone17h90151e54b5d2f56cE
	.globl	_ZN63_$LT$alloc..allocator..Layout$u20$as$u20$core..clone..Clone$GT$5clone17h90151e54b5d2f56cE
	.p2align	4, 0x90
_ZN63_$LT$alloc..allocator..Layout$u20$as$u20$core..clone..Clone$GT$5clone17h90151e54b5d2f56cE:
.Lfunc_begin7:
	.cv_func_id 7
	.cv_loc	7 1 46 0
.Lcfi42:
.seh_proc _ZN63_$LT$alloc..allocator..Layout$u20$as$u20$core..clone..Clone$GT$5clone17h90151e54b5d2f56cE
	pushq	%rbp
.Lcfi43:
	.seh_pushreg 5
	subq	$96, %rsp
.Lcfi44:
	.seh_stackalloc 96
	leaq	96(%rsp), %rbp
.Lcfi45:
	.seh_setframe 5, 96
.Lcfi46:
	.seh_endprologue
	movq	%rcx, -40(%rbp)
.Ltmp31:
	.cv_loc	7 1 49 0
	movq	-40(%rbp), %rcx
	movq	%rcx, -16(%rbp)
	.cv_loc	7 1 58 0
	movq	-40(%rbp), %rcx
	addq	$8, %rcx
	movq	%rcx, -8(%rbp)
.Ltmp32:
	.cv_loc	7 1 49 0
	movq	-16(%rbp), %rcx
	callq	_ZN4core5clone5Clone5clone17h1604281bd2a637ebE
	movq	%rax, -48(%rbp)
	.cv_loc	7 1 58 0
	movq	-8(%rbp), %rcx
	callq	_ZN4core5clone5Clone5clone17h1604281bd2a637ebE
	movq	%rax, -56(%rbp)
	.cv_loc	7 1 46 0
	movq	-48(%rbp), %rax
	movq	%rax, -32(%rbp)
	movq	-56(%rbp), %rcx
	movq	%rcx, -24(%rbp)
.Ltmp33:
	.cv_loc	7 1 46 0
	movq	-32(%rbp), %rax
	movq	-24(%rbp), %rdx
	addq	$96, %rsp
	popq	%rbp
	retq
.Ltmp34:
.Lfunc_end7:
	.seh_handlerdata
	.section	.text,"xr",one_only,_ZN63_$LT$alloc..allocator..Layout$u20$as$u20$core..clone..Clone$GT$5clone17h90151e54b5d2f56cE
.Lcfi47:
	.seh_endproc
