	.text
	.def	 _ZN47_$LT$core..result..Result$LT$T$C$$u20$E$GT$$GT$14unwrap_or_else17h4a7435d4cb9fc104E;
	.scl	2;
	.type	32;
	.endef
	.section	.text,"xr",one_only,_ZN47_$LT$core..result..Result$LT$T$C$$u20$E$GT$$GT$14unwrap_or_else17h4a7435d4cb9fc104E
	.globl	_ZN47_$LT$core..result..Result$LT$T$C$$u20$E$GT$$GT$14unwrap_or_else17h4a7435d4cb9fc104E
	.p2align	4, 0x90
_ZN47_$LT$core..result..Result$LT$T$C$$u20$E$GT$$GT$14unwrap_or_else17h4a7435d4cb9fc104E:
.Lfunc_begin0:
	.cv_func_id 0
	.cv_file	1 "C:\\projects\\rust\\src\\libcore\\result.rs"
	.cv_loc	0 1 745 0 is_stmt 0
.Lcfi0:
.seh_proc _ZN47_$LT$core..result..Result$LT$T$C$$u20$E$GT$$GT$14unwrap_or_else17h4a7435d4cb9fc104E
	.seh_handler __CxxFrameHandler3, @unwind, @except
	pushq	%rbp
.Lcfi1:
	.seh_pushreg 5
.Ltmp2:
	subq	$192, %rsp
.Lcfi2:
	.seh_stackalloc 192
	leaq	128(%rsp), %rbp
.Lcfi3:
	.seh_setframe 5, 128
.Lcfi4:
	.seh_endprologue
	.cv_loc	0 1 747 0
	movq	$-2, 56(%rbp)
	movb	$0, 53(%rbp)
	movb	$0, 54(%rbp)
	movb	$0, 55(%rbp)
	movb	$1, 53(%rbp)
	movb	$1, 54(%rbp)
	movb	$1, 55(%rbp)
	movq	(%rcx), %rax
	testq	%rax, %rax
	movq	%rcx, -72(%rbp)
.Ltmp3:
	movq	%rax, -80(%rbp)
	je	.LBB0_3
	jmp	.LBB0_19
.Ltmp4:
.LBB0_19:
	movq	-80(%rbp), %rax
	subq	$1, %rax
	movq	%rax, -88(%rbp)
	je	.LBB0_4
	jmp	.LBB0_2
.Ltmp5:
.LBB0_2:
	.cv_loc	0 1 750 0
	ud2
.Ltmp6:
.LBB0_3:
	.cv_loc	0 1 747 0
	movb	$0, 54(%rbp)
	movq	-72(%rbp), %rax
	movq	8(%rax), %rcx
	movq	%rcx, -56(%rbp)
.Ltmp7:
	.cv_loc	0 1 747 0
	movq	-56(%rbp), %rcx
	movq	%rcx, -64(%rbp)
.Ltmp8:
	.cv_loc	0 1 746 0
	jmp	.LBB0_5
.Ltmp9:
.LBB0_4:
	.cv_loc	0 1 748 0
	movb	$0, 53(%rbp)
	movq	-72(%rbp), %rax
	movq	24(%rax), %rcx
	movq	%rcx, -32(%rbp)
	movups	8(%rax), %xmm0
	movaps	%xmm0, -48(%rbp)
.Ltmp10:
	.cv_loc	0 1 748 0
	movb	$0, 55(%rbp)
	movq	-32(%rbp), %rcx
	movq	%rcx, 32(%rbp)
	movaps	-48(%rbp), %xmm0
	movaps	%xmm0, 16(%rbp)
	movq	32(%rbp), %rcx
	movq	%rcx, (%rbp)
	movaps	16(%rbp), %xmm0
	movaps	%xmm0, -16(%rbp)
.Ltmp0:
	leaq	-16(%rbp), %rcx
	callq	_ZN66_$LT$std..collections..hash..table..RawTable$LT$K$C$$u20$V$GT$$GT$17new_uninitialized28_$u7b$$u7b$closure$u7d$$u7d$17ha77e4e575d2835dfE
.Ltmp1:
	movq	%rax, -96(%rbp)
	jmp	.LBB0_6
.Ltmp11:
.LBB0_5:
	.cv_loc	0 1 750 0
	testb	$1, 55(%rbp)
	jne	.LBB0_12
	jmp	.LBB0_7
.Ltmp12:
.LBB0_6:
	.cv_loc	0 1 748 0
	movq	-96(%rbp), %rax
	movq	%rax, -64(%rbp)
.Ltmp13:
	.cv_loc	0 1 746 0
	jmp	.LBB0_5
.Ltmp14:
.LBB0_7:
	.cv_loc	0 1 750 0
	movq	-72(%rbp), %rax
	cmpq	$0, (%rax)
	je	.LBB0_14
	jmp	.LBB0_16
.Ltmp15:
.LBB0_12:
	movb	$0, 55(%rbp)
	jmp	.LBB0_7
.Ltmp16:
.LBB0_13:
	movq	-64(%rbp), %rax
	addq	$192, %rsp
	popq	%rbp
	retq
.LBB0_14:
.Ltmp17:
	testb	$1, 54(%rbp)
	je	.LBB0_13
.Ltmp18:
	movb	$0, 54(%rbp)
	jmp	.LBB0_13
.Ltmp19:
.LBB0_16:
	testb	$1, 53(%rbp)
	je	.LBB0_13
.Ltmp20:
	movb	$0, 53(%rbp)
	jmp	.LBB0_13
.Ltmp21:
.LBB0_1:
	.cv_loc	0 1 745 0
	addq	$32, %rsp
	popq	%rbp
.Ltmp22:
	retq
.LBB0_8:
.Ltmp23:
	.cv_loc	0 1 750 0
	testb	$1, 54(%rbp)
	je	.LBB0_1
.Ltmp24:
	movb	$0, 54(%rbp)
	jmp	.LBB0_1
.Ltmp25:
.LBB0_10:
	testb	$1, 53(%rbp)
	je	.LBB0_1
.Ltmp26:
	movb	$0, 53(%rbp)
	jmp	.LBB0_1
.Ltmp27:
	.seh_handlerdata
	.long	($cppxdata$_ZN47_$LT$core..result..Result$LT$T$C$$u20$E$GT$$GT$14unwrap_or_else17h4a7435d4cb9fc104E)@IMGREL
	.section	.text,"xr",one_only,_ZN47_$LT$core..result..Result$LT$T$C$$u20$E$GT$$GT$14unwrap_or_else17h4a7435d4cb9fc104E
.Lcfi5:
	.seh_endproc
	.def	 "?dtor$18@?0?_ZN47_$LT$core..result..Result$LT$T$C$$u20$E$GT$$GT$14unwrap_or_else17h4a7435d4cb9fc104E@4HA";
	.scl	3;
	.type	32;
	.endef
	.p2align	4, 0x90
"?dtor$18@?0?_ZN47_$LT$core..result..Result$LT$T$C$$u20$E$GT$$GT$14unwrap_or_else17h4a7435d4cb9fc104E@4HA":
.Lcfi6:
.seh_proc "?dtor$18@?0?_ZN47_$LT$core..result..Result$LT$T$C$$u20$E$GT$$GT$14unwrap_or_else17h4a7435d4cb9fc104E@4HA"
.LBB0_18:
	movq	%rdx, 16(%rsp)
	pushq	%rbp
.Lcfi7:
	.seh_pushreg 5
	subq	$32, %rsp
.Lcfi8:
	.seh_stackalloc 32
	leaq	128(%rdx), %rbp
.Ltmp28:
.Lcfi9:
	.seh_endprologue
	movq	-72(%rbp), %rax
	cmpq	$0, (%rax)
	je	.LBB0_8
	jmp	.LBB0_10
.Ltmp29:
.Lfunc_end0:
	.seh_handlerdata
	.section	.text,"xr",one_only,_ZN47_$LT$core..result..Result$LT$T$C$$u20$E$GT$$GT$14unwrap_or_else17h4a7435d4cb9fc104E
.Lcfi10:
	.seh_endproc
	.section	.xdata,"dr",associative,_ZN47_$LT$core..result..Result$LT$T$C$$u20$E$GT$$GT$14unwrap_or_else17h4a7435d4cb9fc104E
	.p2align	2
$cppxdata$_ZN47_$LT$core..result..Result$LT$T$C$$u20$E$GT$$GT$14unwrap_or_else17h4a7435d4cb9fc104E:
	.long	429065506
	.long	1
	.long	($stateUnwindMap$_ZN47_$LT$core..result..Result$LT$T$C$$u20$E$GT$$GT$14unwrap_or_else17h4a7435d4cb9fc104E)@IMGREL
	.long	0
	.long	0
	.long	3
	.long	($ip2state$_ZN47_$LT$core..result..Result$LT$T$C$$u20$E$GT$$GT$14unwrap_or_else17h4a7435d4cb9fc104E)@IMGREL
	.long	184
	.long	0
	.long	1
$stateUnwindMap$_ZN47_$LT$core..result..Result$LT$T$C$$u20$E$GT$$GT$14unwrap_or_else17h4a7435d4cb9fc104E:
	.long	-1
	.long	"?dtor$18@?0?_ZN47_$LT$core..result..Result$LT$T$C$$u20$E$GT$$GT$14unwrap_or_else17h4a7435d4cb9fc104E@4HA"@IMGREL
$ip2state$_ZN47_$LT$core..result..Result$LT$T$C$$u20$E$GT$$GT$14unwrap_or_else17h4a7435d4cb9fc104E:
	.long	.Lfunc_begin0@IMGREL
	.long	-1
	.long	.Ltmp0@IMGREL+1
	.long	0
	.long	.Ltmp1@IMGREL+1
	.long	-1
	.section	.text,"xr",one_only,_ZN47_$LT$core..result..Result$LT$T$C$$u20$E$GT$$GT$14unwrap_or_else17h4a7435d4cb9fc104E

	.def	 _ZN47_$LT$core..result..Result$LT$T$C$$u20$E$GT$$GT$14unwrap_or_else17hb74ce1d116aaae0aE;
	.scl	2;
	.type	32;
	.endef
	.section	.text,"xr",one_only,_ZN47_$LT$core..result..Result$LT$T$C$$u20$E$GT$$GT$14unwrap_or_else17hb74ce1d116aaae0aE
	.globl	_ZN47_$LT$core..result..Result$LT$T$C$$u20$E$GT$$GT$14unwrap_or_else17hb74ce1d116aaae0aE
	.p2align	4, 0x90
_ZN47_$LT$core..result..Result$LT$T$C$$u20$E$GT$$GT$14unwrap_or_else17hb74ce1d116aaae0aE:
.Lfunc_begin1:
	.cv_func_id 1
	.cv_loc	1 1 745 0
.Lcfi11:
.seh_proc _ZN47_$LT$core..result..Result$LT$T$C$$u20$E$GT$$GT$14unwrap_or_else17hb74ce1d116aaae0aE
	.seh_handler __CxxFrameHandler3, @unwind, @except
	pushq	%rbp
.Lcfi12:
	.seh_pushreg 5
.Ltmp32:
	subq	$192, %rsp
.Lcfi13:
	.seh_stackalloc 192
	leaq	128(%rsp), %rbp
.Lcfi14:
	.seh_setframe 5, 128
.Lcfi15:
	.seh_endprologue
	.cv_loc	1 1 747 0
	movq	$-2, 56(%rbp)
	movb	$0, 53(%rbp)
	movb	$0, 54(%rbp)
	movb	$0, 55(%rbp)
	movb	$1, 53(%rbp)
	movb	$1, 54(%rbp)
	movb	$1, 55(%rbp)
	movq	(%rcx), %rax
	testq	%rax, %rax
	movq	%rcx, -72(%rbp)
.Ltmp33:
	movq	%rax, -80(%rbp)
	je	.LBB1_3
	jmp	.LBB1_19
.Ltmp34:
.LBB1_19:
	movq	-80(%rbp), %rax
	subq	$1, %rax
	movq	%rax, -88(%rbp)
	je	.LBB1_4
	jmp	.LBB1_2
.Ltmp35:
.LBB1_2:
	.cv_loc	1 1 750 0
	ud2
.Ltmp36:
.LBB1_3:
	.cv_loc	1 1 747 0
	movb	$0, 54(%rbp)
	movq	-72(%rbp), %rax
	movq	8(%rax), %rcx
	movq	%rcx, -56(%rbp)
.Ltmp37:
	.cv_loc	1 1 747 0
	movq	-56(%rbp), %rcx
	movq	%rcx, -64(%rbp)
.Ltmp38:
	.cv_loc	1 1 746 0
	jmp	.LBB1_5
.Ltmp39:
.LBB1_4:
	.cv_loc	1 1 748 0
	movb	$0, 53(%rbp)
	movq	-72(%rbp), %rax
	movq	24(%rax), %rcx
	movq	%rcx, -32(%rbp)
	movups	8(%rax), %xmm0
	movaps	%xmm0, -48(%rbp)
.Ltmp40:
	.cv_loc	1 1 748 0
	movb	$0, 55(%rbp)
	movq	-32(%rbp), %rcx
	movq	%rcx, 32(%rbp)
	movaps	-48(%rbp), %xmm0
	movaps	%xmm0, 16(%rbp)
	movq	32(%rbp), %rcx
	movq	%rcx, (%rbp)
	movaps	16(%rbp), %xmm0
	movaps	%xmm0, -16(%rbp)
.Ltmp30:
	leaq	-16(%rbp), %rcx
	callq	_ZN5alloc4heap15exchange_malloc28_$u7b$$u7b$closure$u7d$$u7d$17h276dce1f914df28aE
.Ltmp31:
	movq	%rax, -96(%rbp)
	jmp	.LBB1_6
.Ltmp41:
.LBB1_5:
	.cv_loc	1 1 750 0
	testb	$1, 55(%rbp)
	jne	.LBB1_12
	jmp	.LBB1_7
.Ltmp42:
.LBB1_6:
	.cv_loc	1 1 748 0
	movq	-96(%rbp), %rax
	movq	%rax, -64(%rbp)
.Ltmp43:
	.cv_loc	1 1 746 0
	jmp	.LBB1_5
.Ltmp44:
.LBB1_7:
	.cv_loc	1 1 750 0
	movq	-72(%rbp), %rax
	cmpq	$0, (%rax)
	je	.LBB1_14
	jmp	.LBB1_16
.Ltmp45:
.LBB1_12:
	movb	$0, 55(%rbp)
	jmp	.LBB1_7
.Ltmp46:
.LBB1_13:
	movq	-64(%rbp), %rax
	addq	$192, %rsp
	popq	%rbp
	retq
.LBB1_14:
.Ltmp47:
	testb	$1, 54(%rbp)
	je	.LBB1_13
.Ltmp48:
	movb	$0, 54(%rbp)
	jmp	.LBB1_13
.Ltmp49:
.LBB1_16:
	testb	$1, 53(%rbp)
	je	.LBB1_13
.Ltmp50:
	movb	$0, 53(%rbp)
	jmp	.LBB1_13
.Ltmp51:
.LBB1_1:
	.cv_loc	1 1 745 0
	addq	$32, %rsp
	popq	%rbp
.Ltmp52:
	retq
.LBB1_8:
.Ltmp53:
	.cv_loc	1 1 750 0
	testb	$1, 54(%rbp)
	je	.LBB1_1
.Ltmp54:
	movb	$0, 54(%rbp)
	jmp	.LBB1_1
.Ltmp55:
.LBB1_10:
	testb	$1, 53(%rbp)
	je	.LBB1_1
.Ltmp56:
	movb	$0, 53(%rbp)
	jmp	.LBB1_1
.Ltmp57:
	.seh_handlerdata
	.long	($cppxdata$_ZN47_$LT$core..result..Result$LT$T$C$$u20$E$GT$$GT$14unwrap_or_else17hb74ce1d116aaae0aE)@IMGREL
	.section	.text,"xr",one_only,_ZN47_$LT$core..result..Result$LT$T$C$$u20$E$GT$$GT$14unwrap_or_else17hb74ce1d116aaae0aE
.Lcfi16:
	.seh_endproc
	.def	 "?dtor$18@?0?_ZN47_$LT$core..result..Result$LT$T$C$$u20$E$GT$$GT$14unwrap_or_else17hb74ce1d116aaae0aE@4HA";
	.scl	3;
	.type	32;
	.endef
	.p2align	4, 0x90
"?dtor$18@?0?_ZN47_$LT$core..result..Result$LT$T$C$$u20$E$GT$$GT$14unwrap_or_else17hb74ce1d116aaae0aE@4HA":
.Lcfi17:
.seh_proc "?dtor$18@?0?_ZN47_$LT$core..result..Result$LT$T$C$$u20$E$GT$$GT$14unwrap_or_else17hb74ce1d116aaae0aE@4HA"
.LBB1_18:
	movq	%rdx, 16(%rsp)
	pushq	%rbp
.Lcfi18:
	.seh_pushreg 5
	subq	$32, %rsp
.Lcfi19:
	.seh_stackalloc 32
	leaq	128(%rdx), %rbp
.Ltmp58:
.Lcfi20:
	.seh_endprologue
	movq	-72(%rbp), %rax
	cmpq	$0, (%rax)
	je	.LBB1_8
	jmp	.LBB1_10
.Ltmp59:
.Lfunc_end1:
	.seh_handlerdata
	.section	.text,"xr",one_only,_ZN47_$LT$core..result..Result$LT$T$C$$u20$E$GT$$GT$14unwrap_or_else17hb74ce1d116aaae0aE
.Lcfi21:
	.seh_endproc
	.section	.xdata,"dr",associative,_ZN47_$LT$core..result..Result$LT$T$C$$u20$E$GT$$GT$14unwrap_or_else17hb74ce1d116aaae0aE
	.p2align	2
$cppxdata$_ZN47_$LT$core..result..Result$LT$T$C$$u20$E$GT$$GT$14unwrap_or_else17hb74ce1d116aaae0aE:
	.long	429065506
	.long	1
	.long	($stateUnwindMap$_ZN47_$LT$core..result..Result$LT$T$C$$u20$E$GT$$GT$14unwrap_or_else17hb74ce1d116aaae0aE)@IMGREL
	.long	0
	.long	0
	.long	3
	.long	($ip2state$_ZN47_$LT$core..result..Result$LT$T$C$$u20$E$GT$$GT$14unwrap_or_else17hb74ce1d116aaae0aE)@IMGREL
	.long	184
	.long	0
	.long	1
$stateUnwindMap$_ZN47_$LT$core..result..Result$LT$T$C$$u20$E$GT$$GT$14unwrap_or_else17hb74ce1d116aaae0aE:
	.long	-1
	.long	"?dtor$18@?0?_ZN47_$LT$core..result..Result$LT$T$C$$u20$E$GT$$GT$14unwrap_or_else17hb74ce1d116aaae0aE@4HA"@IMGREL
$ip2state$_ZN47_$LT$core..result..Result$LT$T$C$$u20$E$GT$$GT$14unwrap_or_else17hb74ce1d116aaae0aE:
	.long	.Lfunc_begin1@IMGREL
	.long	-1
	.long	.Ltmp30@IMGREL+1
	.long	0
	.long	.Ltmp31@IMGREL+1
	.long	-1
	.section	.text,"xr",one_only,_ZN47_$LT$core..result..Result$LT$T$C$$u20$E$GT$$GT$14unwrap_or_else17hb74ce1d116aaae0aE

	.def	 _ZN47_$LT$core..result..Result$LT$T$C$$u20$E$GT$$GT$3map17h9c94277563e83245E;
	.scl	2;
	.type	32;
	.endef
	.section	.text,"xr",one_only,_ZN47_$LT$core..result..Result$LT$T$C$$u20$E$GT$$GT$3map17h9c94277563e83245E
	.globl	_ZN47_$LT$core..result..Result$LT$T$C$$u20$E$GT$$GT$3map17h9c94277563e83245E
	.p2align	4, 0x90
_ZN47_$LT$core..result..Result$LT$T$C$$u20$E$GT$$GT$3map17h9c94277563e83245E:
.Lfunc_begin2:
	.cv_func_id 2
	.cv_loc	2 1 466 0
.Lcfi22:
.seh_proc _ZN47_$LT$core..result..Result$LT$T$C$$u20$E$GT$$GT$3map17h9c94277563e83245E
	.seh_handler __CxxFrameHandler3, @unwind, @except
	pushq	%rbp
.Lcfi23:
	.seh_pushreg 5
	subq	$160, %rsp
.Lcfi24:
	.seh_stackalloc 160
	leaq	128(%rsp), %rbp
.Lcfi25:
	.seh_setframe 5, 128
.Lcfi26:
	.seh_endprologue
	movq	$-2, 24(%rbp)
	movq	%rcx, %rax
.Ltmp62:
	.cv_loc	2 1 468 0
	movb	$0, 22(%rbp)
	movb	$0, 21(%rbp)
	movb	$0, 23(%rbp)
	movb	$1, 21(%rbp)
	movb	$1, 22(%rbp)
	movb	$1, 23(%rbp)
	movq	(%rdx), %r8
	testq	%r8, %r8
	movq	%rax, -56(%rbp)
	movq	%rdx, -64(%rbp)
.Ltmp63:
	movq	%rcx, -72(%rbp)
	movq	%r8, -80(%rbp)
	je	.LBB2_3
	jmp	.LBB2_19
.Ltmp64:
.LBB2_19:
	movq	-80(%rbp), %rax
	subq	$1, %rax
	movq	%rax, -88(%rbp)
	je	.LBB2_4
	jmp	.LBB2_2
.Ltmp65:
.LBB2_2:
	.cv_loc	2 1 471 0
	ud2
.Ltmp66:
.LBB2_3:
	.cv_loc	2 1 468 0
	movb	$0, 22(%rbp)
	movq	-64(%rbp), %rax
	movq	8(%rax), %rcx
	movq	%rcx, -48(%rbp)
.Ltmp67:
	.cv_loc	2 1 468 0
	movb	$0, 23(%rbp)
	movq	-48(%rbp), %rcx
	movq	%rcx, -16(%rbp)
	movq	-16(%rbp), %rcx
.Ltmp60:
	callq	_ZN5alloc9allocator5Alloc11alloc_array28_$u7b$$u7b$closure$u7d$$u7d$17h4b86e9194ee67686E
.Ltmp61:
	movq	%rax, -96(%rbp)
	jmp	.LBB2_6
.Ltmp68:
.LBB2_4:
	.cv_loc	2 1 469 0
	movb	$0, 21(%rbp)
	movq	-64(%rbp), %rax
	movq	8(%rax), %rcx
	movq	%rcx, -40(%rbp)
	movq	16(%rax), %rcx
	movq	%rcx, -32(%rbp)
	movq	24(%rax), %rcx
	movq	%rcx, -24(%rbp)
.Ltmp69:
	.cv_loc	2 1 469 0
	movq	-40(%rbp), %rcx
	movq	%rcx, -8(%rbp)
	movq	-32(%rbp), %rcx
	movq	%rcx, (%rbp)
	movq	-24(%rbp), %rcx
	movq	%rcx, 8(%rbp)
	movq	-72(%rbp), %rcx
	movq	$1, (%rcx)
	movq	-8(%rbp), %rdx
	movq	%rdx, 8(%rcx)
	movq	(%rbp), %rdx
	movq	%rdx, 16(%rcx)
	movq	8(%rbp), %rdx
	movq	%rdx, 24(%rcx)
.Ltmp70:
.LBB2_5:
	.cv_loc	2 1 471 0
	testb	$1, 23(%rbp)
	jne	.LBB2_12
	jmp	.LBB2_7
.Ltmp71:
.LBB2_6:
	.cv_loc	2 1 468 0
	movq	-72(%rbp), %rax
	movq	$0, (%rax)
	movq	-96(%rbp), %rcx
	movq	%rcx, 8(%rax)
.Ltmp72:
	.cv_loc	2 1 467 0
	jmp	.LBB2_5
.Ltmp73:
.LBB2_7:
	.cv_loc	2 1 471 0
	movq	-64(%rbp), %rax
	cmpq	$0, (%rax)
	je	.LBB2_14
	jmp	.LBB2_16
.Ltmp74:
.LBB2_12:
	movb	$0, 23(%rbp)
	jmp	.LBB2_7
.Ltmp75:
.LBB2_13:
	movq	-56(%rbp), %rax
	addq	$160, %rsp
	popq	%rbp
	retq
.LBB2_14:
.Ltmp76:
	testb	$1, 22(%rbp)
	je	.LBB2_13
.Ltmp77:
	movb	$0, 22(%rbp)
	jmp	.LBB2_13
.Ltmp78:
.LBB2_16:
	testb	$1, 21(%rbp)
	je	.LBB2_13
.Ltmp79:
	movb	$0, 21(%rbp)
	jmp	.LBB2_13
.Ltmp80:
.LBB2_1:
	.cv_loc	2 1 466 0
	addq	$32, %rsp
	popq	%rbp
.Ltmp81:
	retq
.LBB2_8:
.Ltmp82:
	.cv_loc	2 1 471 0
	testb	$1, 22(%rbp)
	je	.LBB2_1
.Ltmp83:
	movb	$0, 22(%rbp)
	jmp	.LBB2_1
.Ltmp84:
.LBB2_10:
	testb	$1, 21(%rbp)
	je	.LBB2_1
.Ltmp85:
	movb	$0, 21(%rbp)
	jmp	.LBB2_1
.Ltmp86:
	.seh_handlerdata
	.long	($cppxdata$_ZN47_$LT$core..result..Result$LT$T$C$$u20$E$GT$$GT$3map17h9c94277563e83245E)@IMGREL
	.section	.text,"xr",one_only,_ZN47_$LT$core..result..Result$LT$T$C$$u20$E$GT$$GT$3map17h9c94277563e83245E
.Lcfi27:
	.seh_endproc
	.def	 "?dtor$18@?0?_ZN47_$LT$core..result..Result$LT$T$C$$u20$E$GT$$GT$3map17h9c94277563e83245E@4HA";
	.scl	3;
	.type	32;
	.endef
	.p2align	4, 0x90
"?dtor$18@?0?_ZN47_$LT$core..result..Result$LT$T$C$$u20$E$GT$$GT$3map17h9c94277563e83245E@4HA":
.Lcfi28:
.seh_proc "?dtor$18@?0?_ZN47_$LT$core..result..Result$LT$T$C$$u20$E$GT$$GT$3map17h9c94277563e83245E@4HA"
.LBB2_18:
	movq	%rdx, 16(%rsp)
	pushq	%rbp
.Lcfi29:
	.seh_pushreg 5
	subq	$32, %rsp
.Lcfi30:
	.seh_stackalloc 32
	leaq	128(%rdx), %rbp
.Ltmp87:
.Lcfi31:
	.seh_endprologue
	movq	-64(%rbp), %rax
	cmpq	$0, (%rax)
	je	.LBB2_8
	jmp	.LBB2_10
.Ltmp88:
.Lfunc_end2:
	.seh_handlerdata
	.section	.text,"xr",one_only,_ZN47_$LT$core..result..Result$LT$T$C$$u20$E$GT$$GT$3map17h9c94277563e83245E
.Lcfi32:
	.seh_endproc
	.section	.xdata,"dr",associative,_ZN47_$LT$core..result..Result$LT$T$C$$u20$E$GT$$GT$3map17h9c94277563e83245E
	.p2align	2
$cppxdata$_ZN47_$LT$core..result..Result$LT$T$C$$u20$E$GT$$GT$3map17h9c94277563e83245E:
	.long	429065506
	.long	1
	.long	($stateUnwindMap$_ZN47_$LT$core..result..Result$LT$T$C$$u20$E$GT$$GT$3map17h9c94277563e83245E)@IMGREL
	.long	0
	.long	0
	.long	3
	.long	($ip2state$_ZN47_$LT$core..result..Result$LT$T$C$$u20$E$GT$$GT$3map17h9c94277563e83245E)@IMGREL
	.long	152
	.long	0
	.long	1
$stateUnwindMap$_ZN47_$LT$core..result..Result$LT$T$C$$u20$E$GT$$GT$3map17h9c94277563e83245E:
	.long	-1
	.long	"?dtor$18@?0?_ZN47_$LT$core..result..Result$LT$T$C$$u20$E$GT$$GT$3map17h9c94277563e83245E@4HA"@IMGREL
$ip2state$_ZN47_$LT$core..result..Result$LT$T$C$$u20$E$GT$$GT$3map17h9c94277563e83245E:
	.long	.Lfunc_begin2@IMGREL
	.long	-1
	.long	.Ltmp60@IMGREL+1
	.long	0
	.long	.Ltmp61@IMGREL+1
	.long	-1
	.section	.text,"xr",one_only,_ZN47_$LT$core..result..Result$LT$T$C$$u20$E$GT$$GT$3map17h9c94277563e83245E

	.def	 _ZN47_$LT$core..result..Result$LT$T$C$$u20$E$GT$$GT$6expect17hd95f18353ff49bb5E;
	.scl	2;
	.type	32;
	.endef
	.section	.text,"xr",one_only,_ZN47_$LT$core..result..Result$LT$T$C$$u20$E$GT$$GT$6expect17hd95f18353ff49bb5E
	.globl	_ZN47_$LT$core..result..Result$LT$T$C$$u20$E$GT$$GT$6expect17hd95f18353ff49bb5E
	.p2align	4, 0x90
_ZN47_$LT$core..result..Result$LT$T$C$$u20$E$GT$$GT$6expect17hd95f18353ff49bb5E:
.Lfunc_begin3:
	.cv_func_id 3
	.cv_loc	3 1 806 0
.Lcfi33:
.seh_proc _ZN47_$LT$core..result..Result$LT$T$C$$u20$E$GT$$GT$6expect17hd95f18353ff49bb5E
	.seh_handler __CxxFrameHandler3, @unwind, @except
	pushq	%rbp
.Lcfi34:
	.seh_pushreg 5
	subq	$112, %rsp
.Lcfi35:
	.seh_stackalloc 112
	leaq	112(%rsp), %rbp
.Lcfi36:
	.seh_setframe 5, 112
.Lcfi37:
	.seh_endprologue
	movq	$-2, -8(%rbp)
	movq	%rdx, -40(%rbp)
	movq	%r8, -32(%rbp)
.Ltmp91:
	.cv_loc	3 1 808 0
	movq	(%rcx), %rdx
	testq	%rdx, %rdx
	movq	%rcx, -48(%rbp)
.Ltmp92:
	movq	%rdx, -56(%rbp)
	je	.LBB3_3
	jmp	.LBB3_10
.Ltmp93:
.LBB3_10:
	movq	-56(%rbp), %rax
	subq	$1, %rax
	movq	%rax, -64(%rbp)
	je	.LBB3_4
	jmp	.LBB3_2
.Ltmp94:
.LBB3_2:
	.cv_loc	3 1 811 0
	ud2
.Ltmp95:
.LBB3_3:
	.cv_loc	3 1 808 0
	movq	-48(%rbp), %rax
	movq	8(%rax), %rcx
	movq	16(%rax), %rdx
	movq	%rcx, -24(%rbp)
	movq	%rdx, -16(%rbp)
.Ltmp96:
	.cv_loc	3 1 808 0
	movq	-24(%rbp), %rax
	movq	-16(%rbp), %rdx
.Ltmp97:
	.cv_loc	3 1 811 0
	movq	-48(%rbp), %rcx
	cmpq	$0, (%rcx)
	movq	%rax, -72(%rbp)
	movq	%rdx, -80(%rbp)
	je	.LBB3_6
	jmp	.LBB3_7
.Ltmp98:
.LBB3_4:
	.cv_loc	3 1 809 0
	movq	-40(%rbp), %rcx
	movq	-32(%rbp), %rdx
.Ltmp89:
	callq	_ZN4core6result13unwrap_failed17h905685435080ecfeE
.Ltmp90:
	jmp	.LBB3_9
.Ltmp99:
.LBB3_6:
	.cv_loc	3 1 811 0
	movq	-72(%rbp), %rax
	movq	-80(%rbp), %rdx
	addq	$112, %rsp
	popq	%rbp
.Ltmp100:
	retq
.LBB3_7:
.Ltmp101:
	jmp	.LBB3_6
.Ltmp102:
.LBB3_9:
	ud2
.Ltmp103:
.LBB3_1:
	.cv_loc	3 1 806 0
	addq	$32, %rsp
	popq	%rbp
.Ltmp104:
	retq
.LBB3_5:
.Ltmp105:
	.cv_loc	3 1 811 0
	jmp	.LBB3_1
.Ltmp106:
	.seh_handlerdata
	.long	($cppxdata$_ZN47_$LT$core..result..Result$LT$T$C$$u20$E$GT$$GT$6expect17hd95f18353ff49bb5E)@IMGREL
	.section	.text,"xr",one_only,_ZN47_$LT$core..result..Result$LT$T$C$$u20$E$GT$$GT$6expect17hd95f18353ff49bb5E
.Lcfi38:
	.seh_endproc
	.def	 "?dtor$8@?0?_ZN47_$LT$core..result..Result$LT$T$C$$u20$E$GT$$GT$6expect17hd95f18353ff49bb5E@4HA";
	.scl	3;
	.type	32;
	.endef
	.p2align	4, 0x90
"?dtor$8@?0?_ZN47_$LT$core..result..Result$LT$T$C$$u20$E$GT$$GT$6expect17hd95f18353ff49bb5E@4HA":
.Lcfi39:
.seh_proc "?dtor$8@?0?_ZN47_$LT$core..result..Result$LT$T$C$$u20$E$GT$$GT$6expect17hd95f18353ff49bb5E@4HA"
.LBB3_8:
	movq	%rdx, 16(%rsp)
	pushq	%rbp
.Lcfi40:
	.seh_pushreg 5
	subq	$32, %rsp
.Lcfi41:
	.seh_stackalloc 32
	leaq	112(%rdx), %rbp
.Ltmp107:
.Lcfi42:
	.seh_endprologue
	movq	-48(%rbp), %rax
	cmpq	$0, (%rax)
	je	.LBB3_5
	jmp	.LBB3_1
.Ltmp108:
.Lfunc_end3:
	.seh_handlerdata
	.section	.text,"xr",one_only,_ZN47_$LT$core..result..Result$LT$T$C$$u20$E$GT$$GT$6expect17hd95f18353ff49bb5E
.Lcfi43:
	.seh_endproc
	.section	.xdata,"dr",associative,_ZN47_$LT$core..result..Result$LT$T$C$$u20$E$GT$$GT$6expect17hd95f18353ff49bb5E
	.p2align	2
$cppxdata$_ZN47_$LT$core..result..Result$LT$T$C$$u20$E$GT$$GT$6expect17hd95f18353ff49bb5E:
	.long	429065506
	.long	1
	.long	($stateUnwindMap$_ZN47_$LT$core..result..Result$LT$T$C$$u20$E$GT$$GT$6expect17hd95f18353ff49bb5E)@IMGREL
	.long	0
	.long	0
	.long	3
	.long	($ip2state$_ZN47_$LT$core..result..Result$LT$T$C$$u20$E$GT$$GT$6expect17hd95f18353ff49bb5E)@IMGREL
	.long	104
	.long	0
	.long	1
$stateUnwindMap$_ZN47_$LT$core..result..Result$LT$T$C$$u20$E$GT$$GT$6expect17hd95f18353ff49bb5E:
	.long	-1
	.long	"?dtor$8@?0?_ZN47_$LT$core..result..Result$LT$T$C$$u20$E$GT$$GT$6expect17hd95f18353ff49bb5E@4HA"@IMGREL
$ip2state$_ZN47_$LT$core..result..Result$LT$T$C$$u20$E$GT$$GT$6expect17hd95f18353ff49bb5E:
	.long	.Lfunc_begin3@IMGREL
	.long	-1
	.long	.Ltmp89@IMGREL+1
	.long	0
	.long	.Ltmp90@IMGREL+1
	.long	-1
	.section	.text,"xr",one_only,_ZN47_$LT$core..result..Result$LT$T$C$$u20$E$GT$$GT$6expect17hd95f18353ff49bb5E

	.def	 _ZN47_$LT$core..result..Result$LT$T$C$$u20$E$GT$$GT$6unwrap17h2d18375f63a0afccE;
	.scl	2;
	.type	32;
	.endef
	.section	.text,"xr",one_only,_ZN47_$LT$core..result..Result$LT$T$C$$u20$E$GT$$GT$6unwrap17h2d18375f63a0afccE
	.globl	_ZN47_$LT$core..result..Result$LT$T$C$$u20$E$GT$$GT$6unwrap17h2d18375f63a0afccE
	.p2align	4, 0x90
_ZN47_$LT$core..result..Result$LT$T$C$$u20$E$GT$$GT$6unwrap17h2d18375f63a0afccE:
.Lfunc_begin4:
	.cv_func_id 4
	.cv_loc	4 1 779 0
.Lcfi44:
.seh_proc _ZN47_$LT$core..result..Result$LT$T$C$$u20$E$GT$$GT$6unwrap17h2d18375f63a0afccE
	.seh_handler __CxxFrameHandler3, @unwind, @except
	pushq	%rbp
.Lcfi45:
	.seh_pushreg 5
.Ltmp111:
	subq	$96, %rsp
.Lcfi46:
	.seh_stackalloc 96
	leaq	96(%rsp), %rbp
.Lcfi47:
	.seh_setframe 5, 96
.Lcfi48:
	.seh_endprologue
	.cv_loc	4 1 781 0
	movq	$-2, -8(%rbp)
	movq	(%rcx), %rax
	testq	%rax, %rax
	movq	%rcx, -40(%rbp)
.Ltmp112:
	movq	%rax, -48(%rbp)
	je	.LBB4_3
	jmp	.LBB4_10
.Ltmp113:
.LBB4_10:
	movq	-48(%rbp), %rax
	subq	$1, %rax
	movq	%rax, -56(%rbp)
	je	.LBB4_4
	jmp	.LBB4_2
.Ltmp114:
.LBB4_2:
	.cv_loc	4 1 784 0
	ud2
.Ltmp115:
.LBB4_3:
	.cv_loc	4 1 781 0
	movq	-40(%rbp), %rax
	movq	8(%rax), %rcx
	movq	%rcx, -32(%rbp)
.Ltmp116:
	.cv_loc	4 1 781 0
	movq	-32(%rbp), %rax
.Ltmp117:
	.cv_loc	4 1 784 0
	movq	-40(%rbp), %rcx
	cmpq	$0, (%rcx)
	movq	%rax, -64(%rbp)
	je	.LBB4_6
	jmp	.LBB4_7
.Ltmp118:
.LBB4_4:
	.cv_loc	4 1 782 0
	movq	-40(%rbp), %rax
	movq	8(%rax), %rcx
	movq	16(%rax), %rdx
	movq	%rcx, -24(%rbp)
	movq	%rdx, -16(%rbp)
.Ltmp119:
	.cv_loc	4 1 782 0
	movq	-24(%rbp), %r8
	movq	-16(%rbp), %r9
.Ltmp109:
	leaq	str.0(%rip), %rcx
	movl	$43, %r10d
	movl	%r10d, %edx
	callq	_ZN4core6result13unwrap_failed17h7629acee190beb23E
.Ltmp110:
	jmp	.LBB4_9
.Ltmp120:
.LBB4_6:
	.cv_loc	4 1 784 0
	movq	-64(%rbp), %rax
	addq	$96, %rsp
	popq	%rbp
.Ltmp121:
	retq
.LBB4_7:
.Ltmp122:
	movq	-40(%rbp), %rax
	addq	$8, %rax
	movq	%rax, %rcx
	callq	_ZN4core3ptr13drop_in_place17h74d6dd60109708dbE
	jmp	.LBB4_6
.Ltmp123:
.LBB4_9:
	ud2
.Ltmp124:
.LBB4_1:
	.cv_loc	4 1 779 0
	addq	$32, %rsp
	popq	%rbp
.Ltmp125:
	retq
.LBB4_5:
.Ltmp126:
	.cv_loc	4 1 784 0
	jmp	.LBB4_1
.Ltmp127:
	.seh_handlerdata
	.long	($cppxdata$_ZN47_$LT$core..result..Result$LT$T$C$$u20$E$GT$$GT$6unwrap17h2d18375f63a0afccE)@IMGREL
	.section	.text,"xr",one_only,_ZN47_$LT$core..result..Result$LT$T$C$$u20$E$GT$$GT$6unwrap17h2d18375f63a0afccE
.Lcfi49:
	.seh_endproc
	.def	 "?dtor$8@?0?_ZN47_$LT$core..result..Result$LT$T$C$$u20$E$GT$$GT$6unwrap17h2d18375f63a0afccE@4HA";
	.scl	3;
	.type	32;
	.endef
	.p2align	4, 0x90
"?dtor$8@?0?_ZN47_$LT$core..result..Result$LT$T$C$$u20$E$GT$$GT$6unwrap17h2d18375f63a0afccE@4HA":
.Lcfi50:
.seh_proc "?dtor$8@?0?_ZN47_$LT$core..result..Result$LT$T$C$$u20$E$GT$$GT$6unwrap17h2d18375f63a0afccE@4HA"
.LBB4_8:
	movq	%rdx, 16(%rsp)
	pushq	%rbp
.Lcfi51:
	.seh_pushreg 5
	subq	$32, %rsp
.Lcfi52:
	.seh_stackalloc 32
	leaq	96(%rdx), %rbp
.Ltmp128:
.Lcfi53:
	.seh_endprologue
	movq	-40(%rbp), %rax
	cmpq	$0, (%rax)
	je	.LBB4_5
	jmp	.LBB4_1
.Ltmp129:
.Lfunc_end4:
	.seh_handlerdata
	.section	.text,"xr",one_only,_ZN47_$LT$core..result..Result$LT$T$C$$u20$E$GT$$GT$6unwrap17h2d18375f63a0afccE
.Lcfi54:
	.seh_endproc
	.section	.xdata,"dr",associative,_ZN47_$LT$core..result..Result$LT$T$C$$u20$E$GT$$GT$6unwrap17h2d18375f63a0afccE
	.p2align	2
$cppxdata$_ZN47_$LT$core..result..Result$LT$T$C$$u20$E$GT$$GT$6unwrap17h2d18375f63a0afccE:
	.long	429065506
	.long	1
	.long	($stateUnwindMap$_ZN47_$LT$core..result..Result$LT$T$C$$u20$E$GT$$GT$6unwrap17h2d18375f63a0afccE)@IMGREL
	.long	0
	.long	0
	.long	3
	.long	($ip2state$_ZN47_$LT$core..result..Result$LT$T$C$$u20$E$GT$$GT$6unwrap17h2d18375f63a0afccE)@IMGREL
	.long	88
	.long	0
	.long	1
$stateUnwindMap$_ZN47_$LT$core..result..Result$LT$T$C$$u20$E$GT$$GT$6unwrap17h2d18375f63a0afccE:
	.long	-1
	.long	"?dtor$8@?0?_ZN47_$LT$core..result..Result$LT$T$C$$u20$E$GT$$GT$6unwrap17h2d18375f63a0afccE@4HA"@IMGREL
$ip2state$_ZN47_$LT$core..result..Result$LT$T$C$$u20$E$GT$$GT$6unwrap17h2d18375f63a0afccE:
	.long	.Lfunc_begin4@IMGREL
	.long	-1
	.long	.Ltmp109@IMGREL+1
	.long	0
	.long	.Ltmp110@IMGREL+1
	.long	-1
	.section	.text,"xr",one_only,_ZN47_$LT$core..result..Result$LT$T$C$$u20$E$GT$$GT$6unwrap17h2d18375f63a0afccE

	.def	 _ZN47_$LT$core..result..Result$LT$T$C$$u20$E$GT$$GT$6unwrap17h31883219f9c249abE;
	.scl	2;
	.type	32;
	.endef
	.section	.text,"xr",one_only,_ZN47_$LT$core..result..Result$LT$T$C$$u20$E$GT$$GT$6unwrap17h31883219f9c249abE
	.globl	_ZN47_$LT$core..result..Result$LT$T$C$$u20$E$GT$$GT$6unwrap17h31883219f9c249abE
	.p2align	4, 0x90
_ZN47_$LT$core..result..Result$LT$T$C$$u20$E$GT$$GT$6unwrap17h31883219f9c249abE:
.Lfunc_begin5:
	.cv_func_id 5
	.cv_loc	5 1 779 0
.Lcfi55:
.seh_proc _ZN47_$LT$core..result..Result$LT$T$C$$u20$E$GT$$GT$6unwrap17h31883219f9c249abE
	.seh_handler __CxxFrameHandler3, @unwind, @except
	pushq	%rbp
.Lcfi56:
	.seh_pushreg 5
.Ltmp132:
	subq	$176, %rsp
.Lcfi57:
	.seh_stackalloc 176
	leaq	128(%rsp), %rbp
.Lcfi58:
	.seh_setframe 5, 128
.Lcfi59:
	.seh_endprologue
	.cv_loc	5 1 781 0
	movq	$-2, 40(%rbp)
	movq	(%rcx), %rax
	testq	%rax, %rax
	movq	%rcx, -56(%rbp)
.Ltmp133:
	movq	%rax, -64(%rbp)
	je	.LBB5_3
	jmp	.LBB5_10
.Ltmp134:
.LBB5_10:
	movq	-64(%rbp), %rax
	subq	$1, %rax
	movq	%rax, -72(%rbp)
	je	.LBB5_4
	jmp	.LBB5_2
.Ltmp135:
.LBB5_2:
	.cv_loc	5 1 784 0
	ud2
.Ltmp136:
.LBB5_3:
	.cv_loc	5 1 781 0
	movq	-56(%rbp), %rax
	movq	8(%rax), %rcx
	movq	16(%rax), %rdx
	movq	%rcx, -48(%rbp)
	movq	%rdx, -40(%rbp)
.Ltmp137:
	.cv_loc	5 1 781 0
	movq	-48(%rbp), %rax
	movq	-40(%rbp), %rdx
.Ltmp138:
	.cv_loc	5 1 784 0
	movq	-56(%rbp), %rcx
	cmpq	$0, (%rcx)
	movq	%rax, -80(%rbp)
	movq	%rdx, -88(%rbp)
	je	.LBB5_6
	jmp	.LBB5_7
.Ltmp139:
.LBB5_4:
	.cv_loc	5 1 782 0
	movq	-56(%rbp), %rax
	movups	8(%rax), %xmm0
	movups	24(%rax), %xmm1
	movaps	%xmm1, -16(%rbp)
	movaps	%xmm0, -32(%rbp)
.Ltmp140:
	.cv_loc	5 1 782 0
	movaps	-32(%rbp), %xmm0
	movaps	-16(%rbp), %xmm1
	movaps	%xmm1, 16(%rbp)
	movaps	%xmm0, (%rbp)
.Ltmp130:
	leaq	str.0(%rip), %rcx
	movl	$43, %edx
	movq	%rbp, %r8
	callq	_ZN4core6result13unwrap_failed17hbb317366acf99284E
.Ltmp131:
	jmp	.LBB5_9
.Ltmp141:
.LBB5_6:
	.cv_loc	5 1 784 0
	movq	-80(%rbp), %rax
	movq	-88(%rbp), %rdx
	addq	$176, %rsp
	popq	%rbp
.Ltmp142:
	retq
.LBB5_7:
.Ltmp143:
	movq	-56(%rbp), %rax
	addq	$8, %rax
	movq	%rax, %rcx
	callq	_ZN4core3ptr13drop_in_place17h977a09d21c2d5e50E
	jmp	.LBB5_6
.Ltmp144:
.LBB5_9:
	ud2
.Ltmp145:
.LBB5_1:
	.cv_loc	5 1 779 0
	addq	$32, %rsp
	popq	%rbp
.Ltmp146:
	retq
.LBB5_5:
.Ltmp147:
	.cv_loc	5 1 784 0
	movq	-56(%rbp), %rax
	addq	$8, %rax
	movq	%rax, %rcx
	callq	_ZN4core3ptr13drop_in_place17h3cba2928835bac32E
	jmp	.LBB5_1
.Ltmp148:
	.seh_handlerdata
	.long	($cppxdata$_ZN47_$LT$core..result..Result$LT$T$C$$u20$E$GT$$GT$6unwrap17h31883219f9c249abE)@IMGREL
	.section	.text,"xr",one_only,_ZN47_$LT$core..result..Result$LT$T$C$$u20$E$GT$$GT$6unwrap17h31883219f9c249abE
.Lcfi60:
	.seh_endproc
	.def	 "?dtor$8@?0?_ZN47_$LT$core..result..Result$LT$T$C$$u20$E$GT$$GT$6unwrap17h31883219f9c249abE@4HA";
	.scl	3;
	.type	32;
	.endef
	.p2align	4, 0x90
"?dtor$8@?0?_ZN47_$LT$core..result..Result$LT$T$C$$u20$E$GT$$GT$6unwrap17h31883219f9c249abE@4HA":
.Lcfi61:
.seh_proc "?dtor$8@?0?_ZN47_$LT$core..result..Result$LT$T$C$$u20$E$GT$$GT$6unwrap17h31883219f9c249abE@4HA"
.LBB5_8:
	movq	%rdx, 16(%rsp)
	pushq	%rbp
.Lcfi62:
	.seh_pushreg 5
	subq	$32, %rsp
.Lcfi63:
	.seh_stackalloc 32
	leaq	128(%rdx), %rbp
.Ltmp149:
.Lcfi64:
	.seh_endprologue
	movq	-56(%rbp), %rax
	cmpq	$0, (%rax)
	je	.LBB5_5
	jmp	.LBB5_1
.Ltmp150:
.Lfunc_end5:
	.seh_handlerdata
	.section	.text,"xr",one_only,_ZN47_$LT$core..result..Result$LT$T$C$$u20$E$GT$$GT$6unwrap17h31883219f9c249abE
.Lcfi65:
	.seh_endproc
	.section	.xdata,"dr",associative,_ZN47_$LT$core..result..Result$LT$T$C$$u20$E$GT$$GT$6unwrap17h31883219f9c249abE
	.p2align	2
$cppxdata$_ZN47_$LT$core..result..Result$LT$T$C$$u20$E$GT$$GT$6unwrap17h31883219f9c249abE:
	.long	429065506
	.long	1
	.long	($stateUnwindMap$_ZN47_$LT$core..result..Result$LT$T$C$$u20$E$GT$$GT$6unwrap17h31883219f9c249abE)@IMGREL
	.long	0
	.long	0
	.long	3
	.long	($ip2state$_ZN47_$LT$core..result..Result$LT$T$C$$u20$E$GT$$GT$6unwrap17h31883219f9c249abE)@IMGREL
	.long	168
	.long	0
	.long	1
$stateUnwindMap$_ZN47_$LT$core..result..Result$LT$T$C$$u20$E$GT$$GT$6unwrap17h31883219f9c249abE:
	.long	-1
	.long	"?dtor$8@?0?_ZN47_$LT$core..result..Result$LT$T$C$$u20$E$GT$$GT$6unwrap17h31883219f9c249abE@4HA"@IMGREL
$ip2state$_ZN47_$LT$core..result..Result$LT$T$C$$u20$E$GT$$GT$6unwrap17h31883219f9c249abE:
	.long	.Lfunc_begin5@IMGREL
	.long	-1
	.long	.Ltmp130@IMGREL+1
	.long	0
	.long	.Ltmp131@IMGREL+1
	.long	-1
	.section	.text,"xr",one_only,_ZN47_$LT$core..result..Result$LT$T$C$$u20$E$GT$$GT$6unwrap17h31883219f9c249abE

	.def	 _ZN47_$LT$core..result..Result$LT$T$C$$u20$E$GT$$GT$6unwrap17h6712c9823b8c7e2cE;
	.scl	2;
	.type	32;
	.endef
	.section	.text,"xr",one_only,_ZN47_$LT$core..result..Result$LT$T$C$$u20$E$GT$$GT$6unwrap17h6712c9823b8c7e2cE
	.globl	_ZN47_$LT$core..result..Result$LT$T$C$$u20$E$GT$$GT$6unwrap17h6712c9823b8c7e2cE
	.p2align	4, 0x90
_ZN47_$LT$core..result..Result$LT$T$C$$u20$E$GT$$GT$6unwrap17h6712c9823b8c7e2cE:
.Lfunc_begin6:
	.cv_func_id 6
	.cv_loc	6 1 779 0
.Lcfi66:
.seh_proc _ZN47_$LT$core..result..Result$LT$T$C$$u20$E$GT$$GT$6unwrap17h6712c9823b8c7e2cE
	.seh_handler __CxxFrameHandler3, @unwind, @except
	pushq	%rbp
.Lcfi67:
	.seh_pushreg 5
.Ltmp153:
	subq	$176, %rsp
.Lcfi68:
	.seh_stackalloc 176
	leaq	128(%rsp), %rbp
.Lcfi69:
	.seh_setframe 5, 128
.Lcfi70:
	.seh_endprologue
	.cv_loc	6 1 781 0
	movq	$-2, 40(%rbp)
	movq	(%rcx), %rax
	testq	%rax, %rax
	movq	%rcx, -64(%rbp)
.Ltmp154:
	movq	%rax, -72(%rbp)
	je	.LBB6_3
	jmp	.LBB6_10
.Ltmp155:
.LBB6_10:
	movq	-72(%rbp), %rax
	subq	$1, %rax
	movq	%rax, -80(%rbp)
	je	.LBB6_4
	jmp	.LBB6_2
.Ltmp156:
.LBB6_2:
	.cv_loc	6 1 784 0
	ud2
.Ltmp157:
.LBB6_3:
	.cv_loc	6 1 781 0
	movq	-64(%rbp), %rax
	movq	8(%rax), %rcx
	movq	%rcx, -56(%rbp)
.Ltmp158:
	.cv_loc	6 1 781 0
	movq	-56(%rbp), %rax
.Ltmp159:
	.cv_loc	6 1 784 0
	movq	-64(%rbp), %rcx
	cmpq	$0, (%rcx)
	movq	%rax, -88(%rbp)
	je	.LBB6_6
	jmp	.LBB6_7
.Ltmp160:
.LBB6_4:
	.cv_loc	6 1 782 0
	movq	-64(%rbp), %rax
	movq	40(%rax), %rcx
	movq	%rcx, -16(%rbp)
	movups	8(%rax), %xmm0
	movups	24(%rax), %xmm1
	movaps	%xmm1, -32(%rbp)
	movaps	%xmm0, -48(%rbp)
.Ltmp161:
	.cv_loc	6 1 782 0
	movq	-16(%rbp), %rcx
	movq	%rcx, 32(%rbp)
	movaps	-48(%rbp), %xmm0
	movaps	-32(%rbp), %xmm1
	movaps	%xmm1, 16(%rbp)
	movaps	%xmm0, (%rbp)
.Ltmp151:
	leaq	str.0(%rip), %rcx
	movl	$43, %edx
	movq	%rbp, %r8
	callq	_ZN4core6result13unwrap_failed17h1c4a2d6a1244a67cE
.Ltmp152:
	jmp	.LBB6_9
.Ltmp162:
.LBB6_6:
	.cv_loc	6 1 784 0
	movq	-88(%rbp), %rax
	addq	$176, %rsp
	popq	%rbp
.Ltmp163:
	retq
.LBB6_7:
.Ltmp164:
	movq	-64(%rbp), %rax
	addq	$8, %rax
	movq	%rax, %rcx
	callq	_ZN4core3ptr13drop_in_place17h98aa2602c5e7739fE
	jmp	.LBB6_6
.Ltmp165:
.LBB6_9:
	ud2
.Ltmp166:
.LBB6_1:
	.cv_loc	6 1 779 0
	addq	$32, %rsp
	popq	%rbp
.Ltmp167:
	retq
.LBB6_5:
.Ltmp168:
	.cv_loc	6 1 784 0
	movq	-64(%rbp), %rax
	addq	$8, %rax
	movq	%rax, %rcx
	callq	_ZN4core3ptr13drop_in_place17h99e4c59f7f744659E
	jmp	.LBB6_1
.Ltmp169:
	.seh_handlerdata
	.long	($cppxdata$_ZN47_$LT$core..result..Result$LT$T$C$$u20$E$GT$$GT$6unwrap17h6712c9823b8c7e2cE)@IMGREL
	.section	.text,"xr",one_only,_ZN47_$LT$core..result..Result$LT$T$C$$u20$E$GT$$GT$6unwrap17h6712c9823b8c7e2cE
.Lcfi71:
	.seh_endproc
	.def	 "?dtor$8@?0?_ZN47_$LT$core..result..Result$LT$T$C$$u20$E$GT$$GT$6unwrap17h6712c9823b8c7e2cE@4HA";
	.scl	3;
	.type	32;
	.endef
	.p2align	4, 0x90
"?dtor$8@?0?_ZN47_$LT$core..result..Result$LT$T$C$$u20$E$GT$$GT$6unwrap17h6712c9823b8c7e2cE@4HA":
.Lcfi72:
.seh_proc "?dtor$8@?0?_ZN47_$LT$core..result..Result$LT$T$C$$u20$E$GT$$GT$6unwrap17h6712c9823b8c7e2cE@4HA"
.LBB6_8:
	movq	%rdx, 16(%rsp)
	pushq	%rbp
.Lcfi73:
	.seh_pushreg 5
	subq	$32, %rsp
.Lcfi74:
	.seh_stackalloc 32
	leaq	128(%rdx), %rbp
.Ltmp170:
.Lcfi75:
	.seh_endprologue
	movq	-64(%rbp), %rax
	cmpq	$0, (%rax)
	je	.LBB6_5
	jmp	.LBB6_1
.Ltmp171:
.Lfunc_end6:
	.seh_handlerdata
	.section	.text,"xr",one_only,_ZN47_$LT$core..result..Result$LT$T$C$$u20$E$GT$$GT$6unwrap17h6712c9823b8c7e2cE
.Lcfi76:
	.seh_endproc
	.section	.xdata,"dr",associative,_ZN47_$LT$core..result..Result$LT$T$C$$u20$E$GT$$GT$6unwrap17h6712c9823b8c7e2cE
	.p2align	2
$cppxdata$_ZN47_$LT$core..result..Result$LT$T$C$$u20$E$GT$$GT$6unwrap17h6712c9823b8c7e2cE:
	.long	429065506
	.long	1
	.long	($stateUnwindMap$_ZN47_$LT$core..result..Result$LT$T$C$$u20$E$GT$$GT$6unwrap17h6712c9823b8c7e2cE)@IMGREL
	.long	0
	.long	0
	.long	3
	.long	($ip2state$_ZN47_$LT$core..result..Result$LT$T$C$$u20$E$GT$$GT$6unwrap17h6712c9823b8c7e2cE)@IMGREL
	.long	168
	.long	0
	.long	1
$stateUnwindMap$_ZN47_$LT$core..result..Result$LT$T$C$$u20$E$GT$$GT$6unwrap17h6712c9823b8c7e2cE:
	.long	-1
	.long	"?dtor$8@?0?_ZN47_$LT$core..result..Result$LT$T$C$$u20$E$GT$$GT$6unwrap17h6712c9823b8c7e2cE@4HA"@IMGREL
$ip2state$_ZN47_$LT$core..result..Result$LT$T$C$$u20$E$GT$$GT$6unwrap17h6712c9823b8c7e2cE:
	.long	.Lfunc_begin6@IMGREL
	.long	-1
	.long	.Ltmp151@IMGREL+1
	.long	0
	.long	.Ltmp152@IMGREL+1
	.long	-1
	.section	.text,"xr",one_only,_ZN47_$LT$core..result..Result$LT$T$C$$u20$E$GT$$GT$6unwrap17h6712c9823b8c7e2cE

	.def	 _ZN47_$LT$core..result..Result$LT$T$C$$u20$E$GT$$GT$6unwrap17ha8d9a12e9794e9ddE;
	.scl	2;
	.type	32;
	.endef
	.section	.text,"xr",one_only,_ZN47_$LT$core..result..Result$LT$T$C$$u20$E$GT$$GT$6unwrap17ha8d9a12e9794e9ddE
	.globl	_ZN47_$LT$core..result..Result$LT$T$C$$u20$E$GT$$GT$6unwrap17ha8d9a12e9794e9ddE
	.p2align	4, 0x90
_ZN47_$LT$core..result..Result$LT$T$C$$u20$E$GT$$GT$6unwrap17ha8d9a12e9794e9ddE:
.Lfunc_begin7:
	.cv_func_id 7
	.cv_loc	7 1 779 0
.Lcfi77:
.seh_proc _ZN47_$LT$core..result..Result$LT$T$C$$u20$E$GT$$GT$6unwrap17ha8d9a12e9794e9ddE
	.seh_handler __CxxFrameHandler3, @unwind, @except
	pushq	%rbp
.Lcfi78:
	.seh_pushreg 5
.Ltmp174:
	subq	$144, %rsp
.Lcfi79:
	.seh_stackalloc 144
	leaq	128(%rsp), %rbp
.Lcfi80:
	.seh_setframe 5, 128
.Lcfi81:
	.seh_endprologue
	.cv_loc	7 1 781 0
	movq	$-2, 8(%rbp)
	movq	(%rcx), %rax
	testq	%rax, %rax
	movq	%rcx, -64(%rbp)
.Ltmp175:
	movq	%rax, -72(%rbp)
	je	.LBB7_3
	jmp	.LBB7_10
.Ltmp176:
.LBB7_10:
	movq	-72(%rbp), %rax
	subq	$1, %rax
	movq	%rax, -80(%rbp)
	je	.LBB7_4
	jmp	.LBB7_2
.Ltmp177:
.LBB7_2:
	.cv_loc	7 1 784 0
	ud2
.Ltmp178:
.LBB7_3:
	.cv_loc	7 1 781 0
	movq	-64(%rbp), %rax
	movq	8(%rax), %rcx
	movq	%rcx, -56(%rbp)
.Ltmp179:
	.cv_loc	7 1 781 0
	movq	-56(%rbp), %rax
.Ltmp180:
	.cv_loc	7 1 784 0
	movq	-64(%rbp), %rcx
	cmpq	$0, (%rcx)
	movq	%rax, -88(%rbp)
	je	.LBB7_6
	jmp	.LBB7_7
.Ltmp181:
.LBB7_4:
	.cv_loc	7 1 782 0
	movq	-64(%rbp), %rax
	movq	24(%rax), %rcx
	movq	%rcx, -32(%rbp)
	movups	8(%rax), %xmm0
	movaps	%xmm0, -48(%rbp)
.Ltmp182:
	.cv_loc	7 1 782 0
	movq	-32(%rbp), %rcx
	movq	%rcx, (%rbp)
	movaps	-48(%rbp), %xmm0
	movaps	%xmm0, -16(%rbp)
.Ltmp172:
	leaq	str.0(%rip), %rcx
	movl	$43, %edx
	leaq	-16(%rbp), %r8
	callq	_ZN4core6result13unwrap_failed17h4a7d9bd15b607a06E
.Ltmp173:
	jmp	.LBB7_9
.Ltmp183:
.LBB7_6:
	.cv_loc	7 1 784 0
	movq	-88(%rbp), %rax
	addq	$144, %rsp
	popq	%rbp
.Ltmp184:
	retq
.LBB7_7:
.Ltmp185:
	movq	-64(%rbp), %rax
	addq	$8, %rax
	movq	%rax, %rcx
	callq	_ZN4core3ptr13drop_in_place17h7c1ed1e97a94da88E
	jmp	.LBB7_6
.Ltmp186:
.LBB7_9:
	ud2
.Ltmp187:
.LBB7_1:
	.cv_loc	7 1 779 0
	addq	$32, %rsp
	popq	%rbp
.Ltmp188:
	retq
.LBB7_5:
.Ltmp189:
	.cv_loc	7 1 784 0
	movq	-64(%rbp), %rax
	addq	$8, %rax
	movq	%rax, %rcx
	callq	_ZN4core3ptr13drop_in_place17hfd5168d07fb6601dE
	jmp	.LBB7_1
.Ltmp190:
	.seh_handlerdata
	.long	($cppxdata$_ZN47_$LT$core..result..Result$LT$T$C$$u20$E$GT$$GT$6unwrap17ha8d9a12e9794e9ddE)@IMGREL
	.section	.text,"xr",one_only,_ZN47_$LT$core..result..Result$LT$T$C$$u20$E$GT$$GT$6unwrap17ha8d9a12e9794e9ddE
.Lcfi82:
	.seh_endproc
	.def	 "?dtor$8@?0?_ZN47_$LT$core..result..Result$LT$T$C$$u20$E$GT$$GT$6unwrap17ha8d9a12e9794e9ddE@4HA";
	.scl	3;
	.type	32;
	.endef
	.p2align	4, 0x90
"?dtor$8@?0?_ZN47_$LT$core..result..Result$LT$T$C$$u20$E$GT$$GT$6unwrap17ha8d9a12e9794e9ddE@4HA":
.Lcfi83:
.seh_proc "?dtor$8@?0?_ZN47_$LT$core..result..Result$LT$T$C$$u20$E$GT$$GT$6unwrap17ha8d9a12e9794e9ddE@4HA"
.LBB7_8:
	movq	%rdx, 16(%rsp)
	pushq	%rbp
.Lcfi84:
	.seh_pushreg 5
	subq	$32, %rsp
.Lcfi85:
	.seh_stackalloc 32
	leaq	128(%rdx), %rbp
.Ltmp191:
.Lcfi86:
	.seh_endprologue
	movq	-64(%rbp), %rax
	cmpq	$0, (%rax)
	je	.LBB7_5
	jmp	.LBB7_1
.Ltmp192:
.Lfunc_end7:
	.seh_handlerdata
	.section	.text,"xr",one_only,_ZN47_$LT$core..result..Result$LT$T$C$$u20$E$GT$$GT$6unwrap17ha8d9a12e9794e9ddE
.Lcfi87:
	.seh_endproc
	.section	.xdata,"dr",associative,_ZN47_$LT$core..result..Result$LT$T$C$$u20$E$GT$$GT$6unwrap17ha8d9a12e9794e9ddE
	.p2align	2
$cppxdata$_ZN47_$LT$core..result..Result$LT$T$C$$u20$E$GT$$GT$6unwrap17ha8d9a12e9794e9ddE:
	.long	429065506
	.long	1
	.long	($stateUnwindMap$_ZN47_$LT$core..result..Result$LT$T$C$$u20$E$GT$$GT$6unwrap17ha8d9a12e9794e9ddE)@IMGREL
	.long	0
	.long	0
	.long	3
	.long	($ip2state$_ZN47_$LT$core..result..Result$LT$T$C$$u20$E$GT$$GT$6unwrap17ha8d9a12e9794e9ddE)@IMGREL
	.long	136
	.long	0
	.long	1
$stateUnwindMap$_ZN47_$LT$core..result..Result$LT$T$C$$u20$E$GT$$GT$6unwrap17ha8d9a12e9794e9ddE:
	.long	-1
	.long	"?dtor$8@?0?_ZN47_$LT$core..result..Result$LT$T$C$$u20$E$GT$$GT$6unwrap17ha8d9a12e9794e9ddE@4HA"@IMGREL
$ip2state$_ZN47_$LT$core..result..Result$LT$T$C$$u20$E$GT$$GT$6unwrap17ha8d9a12e9794e9ddE:
	.long	.Lfunc_begin7@IMGREL
	.long	-1
	.long	.Ltmp172@IMGREL+1
	.long	0
	.long	.Ltmp173@IMGREL+1
	.long	-1
	.section	.text,"xr",one_only,_ZN47_$LT$core..result..Result$LT$T$C$$u20$E$GT$$GT$6unwrap17ha8d9a12e9794e9ddE

	.def	 _ZN47_$LT$core..result..Result$LT$T$C$$u20$E$GT$$GT$6unwrap17hd603a306757cbd6bE;
	.scl	2;
	.type	32;
	.endef
	.section	.text,"xr",one_only,_ZN47_$LT$core..result..Result$LT$T$C$$u20$E$GT$$GT$6unwrap17hd603a306757cbd6bE
	.globl	_ZN47_$LT$core..result..Result$LT$T$C$$u20$E$GT$$GT$6unwrap17hd603a306757cbd6bE
	.p2align	4, 0x90
_ZN47_$LT$core..result..Result$LT$T$C$$u20$E$GT$$GT$6unwrap17hd603a306757cbd6bE:
.Lfunc_begin8:
	.cv_func_id 8
	.cv_loc	8 1 779 0
.Lcfi88:
.seh_proc _ZN47_$LT$core..result..Result$LT$T$C$$u20$E$GT$$GT$6unwrap17hd603a306757cbd6bE
	.seh_handler __CxxFrameHandler3, @unwind, @except
	pushq	%rbp
.Lcfi89:
	.seh_pushreg 5
.Ltmp195:
	subq	$144, %rsp
.Lcfi90:
	.seh_stackalloc 144
	leaq	128(%rsp), %rbp
.Lcfi91:
	.seh_setframe 5, 128
.Lcfi92:
	.seh_endprologue
	.cv_loc	8 1 781 0
	movq	$-2, 8(%rbp)
	movq	(%rcx), %rax
	testq	%rax, %rax
	movq	%rcx, -64(%rbp)
.Ltmp196:
	movq	%rax, -72(%rbp)
	je	.LBB8_3
	jmp	.LBB8_10
.Ltmp197:
.LBB8_10:
	movq	-72(%rbp), %rax
	subq	$1, %rax
	movq	%rax, -80(%rbp)
	je	.LBB8_4
	jmp	.LBB8_2
.Ltmp198:
.LBB8_2:
	.cv_loc	8 1 784 0
	ud2
.Ltmp199:
.LBB8_3:
	.cv_loc	8 1 781 0
	movq	-64(%rbp), %rax
	movq	8(%rax), %rcx
	movq	%rcx, -56(%rbp)
.Ltmp200:
	.cv_loc	8 1 781 0
	movq	-56(%rbp), %rax
.Ltmp201:
	.cv_loc	8 1 784 0
	movq	-64(%rbp), %rcx
	cmpq	$0, (%rcx)
	movq	%rax, -88(%rbp)
	je	.LBB8_6
	jmp	.LBB8_7
.Ltmp202:
.LBB8_4:
	.cv_loc	8 1 782 0
	movq	-64(%rbp), %rax
	movq	24(%rax), %rcx
	movq	%rcx, -32(%rbp)
	movups	8(%rax), %xmm0
	movaps	%xmm0, -48(%rbp)
.Ltmp203:
	.cv_loc	8 1 782 0
	movq	-32(%rbp), %rcx
	movq	%rcx, (%rbp)
	movaps	-48(%rbp), %xmm0
	movaps	%xmm0, -16(%rbp)
.Ltmp193:
	leaq	str.0(%rip), %rcx
	movl	$43, %edx
	leaq	-16(%rbp), %r8
	callq	_ZN4core6result13unwrap_failed17h4a7d9bd15b607a06E
.Ltmp194:
	jmp	.LBB8_9
.Ltmp204:
.LBB8_6:
	.cv_loc	8 1 784 0
	movq	-88(%rbp), %rax
	addq	$144, %rsp
	popq	%rbp
.Ltmp205:
	retq
.LBB8_7:
.Ltmp206:
	movq	-64(%rbp), %rax
	addq	$8, %rax
	movq	%rax, %rcx
	callq	_ZN4core3ptr13drop_in_place17h7c1ed1e97a94da88E
	jmp	.LBB8_6
.Ltmp207:
.LBB8_9:
	ud2
.Ltmp208:
.LBB8_1:
	.cv_loc	8 1 779 0
	addq	$32, %rsp
	popq	%rbp
.Ltmp209:
	retq
.LBB8_5:
.Ltmp210:
	.cv_loc	8 1 784 0
	movq	-64(%rbp), %rax
	addq	$8, %rax
	movq	%rax, %rcx
	callq	_ZN4core3ptr13drop_in_place17ha4f230ce768e932fE
	jmp	.LBB8_1
.Ltmp211:
	.seh_handlerdata
	.long	($cppxdata$_ZN47_$LT$core..result..Result$LT$T$C$$u20$E$GT$$GT$6unwrap17hd603a306757cbd6bE)@IMGREL
	.section	.text,"xr",one_only,_ZN47_$LT$core..result..Result$LT$T$C$$u20$E$GT$$GT$6unwrap17hd603a306757cbd6bE
.Lcfi93:
	.seh_endproc
	.def	 "?dtor$8@?0?_ZN47_$LT$core..result..Result$LT$T$C$$u20$E$GT$$GT$6unwrap17hd603a306757cbd6bE@4HA";
	.scl	3;
	.type	32;
	.endef
	.p2align	4, 0x90
"?dtor$8@?0?_ZN47_$LT$core..result..Result$LT$T$C$$u20$E$GT$$GT$6unwrap17hd603a306757cbd6bE@4HA":
.Lcfi94:
.seh_proc "?dtor$8@?0?_ZN47_$LT$core..result..Result$LT$T$C$$u20$E$GT$$GT$6unwrap17hd603a306757cbd6bE@4HA"
.LBB8_8:
	movq	%rdx, 16(%rsp)
	pushq	%rbp
.Lcfi95:
	.seh_pushreg 5
	subq	$32, %rsp
.Lcfi96:
	.seh_stackalloc 32
	leaq	128(%rdx), %rbp
.Ltmp212:
.Lcfi97:
	.seh_endprologue
	movq	-64(%rbp), %rax
	cmpq	$0, (%rax)
	je	.LBB8_5
	jmp	.LBB8_1
.Ltmp213:
.Lfunc_end8:
	.seh_handlerdata
	.section	.text,"xr",one_only,_ZN47_$LT$core..result..Result$LT$T$C$$u20$E$GT$$GT$6unwrap17hd603a306757cbd6bE
.Lcfi98:
	.seh_endproc
	.section	.xdata,"dr",associative,_ZN47_$LT$core..result..Result$LT$T$C$$u20$E$GT$$GT$6unwrap17hd603a306757cbd6bE
	.p2align	2
$cppxdata$_ZN47_$LT$core..result..Result$LT$T$C$$u20$E$GT$$GT$6unwrap17hd603a306757cbd6bE:
	.long	429065506
	.long	1
	.long	($stateUnwindMap$_ZN47_$LT$core..result..Result$LT$T$C$$u20$E$GT$$GT$6unwrap17hd603a306757cbd6bE)@IMGREL
	.long	0
	.long	0
	.long	3
	.long	($ip2state$_ZN47_$LT$core..result..Result$LT$T$C$$u20$E$GT$$GT$6unwrap17hd603a306757cbd6bE)@IMGREL
	.long	136
	.long	0
	.long	1
$stateUnwindMap$_ZN47_$LT$core..result..Result$LT$T$C$$u20$E$GT$$GT$6unwrap17hd603a306757cbd6bE:
	.long	-1
	.long	"?dtor$8@?0?_ZN47_$LT$core..result..Result$LT$T$C$$u20$E$GT$$GT$6unwrap17hd603a306757cbd6bE@4HA"@IMGREL
$ip2state$_ZN47_$LT$core..result..Result$LT$T$C$$u20$E$GT$$GT$6unwrap17hd603a306757cbd6bE:
	.long	.Lfunc_begin8@IMGREL
	.long	-1
	.long	.Ltmp193@IMGREL+1
	.long	0
	.long	.Ltmp194@IMGREL+1
	.long	-1
	.section	.text,"xr",one_only,_ZN47_$LT$core..result..Result$LT$T$C$$u20$E$GT$$GT$6unwrap17hd603a306757cbd6bE

	.def	 _ZN47_$LT$core..result..Result$LT$T$C$$u20$E$GT$$GT$6unwrap17hd7c7c77f09773cf5E;
	.scl	2;
	.type	32;
	.endef
	.section	.text,"xr",one_only,_ZN47_$LT$core..result..Result$LT$T$C$$u20$E$GT$$GT$6unwrap17hd7c7c77f09773cf5E
	.globl	_ZN47_$LT$core..result..Result$LT$T$C$$u20$E$GT$$GT$6unwrap17hd7c7c77f09773cf5E
	.p2align	4, 0x90
_ZN47_$LT$core..result..Result$LT$T$C$$u20$E$GT$$GT$6unwrap17hd7c7c77f09773cf5E:
.Lfunc_begin9:
	.cv_func_id 9
	.cv_loc	9 1 779 0
.Lcfi99:
.seh_proc _ZN47_$LT$core..result..Result$LT$T$C$$u20$E$GT$$GT$6unwrap17hd7c7c77f09773cf5E
	.seh_handler __CxxFrameHandler3, @unwind, @except
	pushq	%rbp
.Lcfi100:
	.seh_pushreg 5
.Ltmp216:
	subq	$128, %rsp
.Lcfi101:
	.seh_stackalloc 128
	leaq	128(%rsp), %rbp
.Lcfi102:
	.seh_setframe 5, 128
.Lcfi103:
	.seh_endprologue
	.cv_loc	9 1 781 0
	movq	$-2, -8(%rbp)
	movq	(%rcx), %rax
	testq	%rax, %rax
	setne	%dl
	movzbl	%dl, %r8d
	movl	%r8d, %eax
	movq	%rcx, -72(%rbp)
.Ltmp217:
	movq	%rax, -80(%rbp)
	je	.LBB9_3
	jmp	.LBB9_10
.Ltmp218:
.LBB9_10:
	movq	-80(%rbp), %rax
	subq	$1, %rax
	movq	%rax, -88(%rbp)
	je	.LBB9_4
	jmp	.LBB9_2
.Ltmp219:
.LBB9_2:
	.cv_loc	9 1 784 0
	ud2
.Ltmp220:
.LBB9_3:
	movq	-72(%rbp), %rax
	cmpq	$0, (%rax)
	sete	%cl
	testb	$1, %cl
	jne	.LBB9_6
	jmp	.LBB9_7
.Ltmp221:
.LBB9_4:
	.cv_loc	9 1 782 0
	movq	-72(%rbp), %rax
	movq	16(%rax), %rcx
	movq	%rcx, -48(%rbp)
	movups	(%rax), %xmm0
	movaps	%xmm0, -64(%rbp)
.Ltmp222:
	.cv_loc	9 1 782 0
	movq	-48(%rbp), %rcx
	movq	%rcx, -16(%rbp)
	movaps	-64(%rbp), %xmm0
	movaps	%xmm0, -32(%rbp)
.Ltmp214:
	leaq	str.0(%rip), %rcx
	movl	$43, %edx
	leaq	-32(%rbp), %r8
	callq	_ZN4core6result13unwrap_failed17h4a7d9bd15b607a06E
.Ltmp215:
	jmp	.LBB9_9
.Ltmp223:
.LBB9_6:
	.cv_loc	9 1 784 0
	addq	$128, %rsp
	popq	%rbp
.Ltmp224:
	retq
.LBB9_7:
.Ltmp225:
	movq	-72(%rbp), %rax
	movq	%rax, %rcx
	callq	_ZN4core3ptr13drop_in_place17h7c1ed1e97a94da88E
	jmp	.LBB9_6
.Ltmp226:
.LBB9_9:
	ud2
.Ltmp227:
.LBB9_1:
	.cv_loc	9 1 779 0
	addq	$32, %rsp
	popq	%rbp
.Ltmp228:
	retq
.LBB9_5:
.Ltmp229:
	.cv_loc	9 1 784 0
	jmp	.LBB9_1
.Ltmp230:
	.seh_handlerdata
	.long	($cppxdata$_ZN47_$LT$core..result..Result$LT$T$C$$u20$E$GT$$GT$6unwrap17hd7c7c77f09773cf5E)@IMGREL
	.section	.text,"xr",one_only,_ZN47_$LT$core..result..Result$LT$T$C$$u20$E$GT$$GT$6unwrap17hd7c7c77f09773cf5E
.Lcfi104:
	.seh_endproc
	.def	 "?dtor$8@?0?_ZN47_$LT$core..result..Result$LT$T$C$$u20$E$GT$$GT$6unwrap17hd7c7c77f09773cf5E@4HA";
	.scl	3;
	.type	32;
	.endef
	.p2align	4, 0x90
"?dtor$8@?0?_ZN47_$LT$core..result..Result$LT$T$C$$u20$E$GT$$GT$6unwrap17hd7c7c77f09773cf5E@4HA":
.Lcfi105:
.seh_proc "?dtor$8@?0?_ZN47_$LT$core..result..Result$LT$T$C$$u20$E$GT$$GT$6unwrap17hd7c7c77f09773cf5E@4HA"
.LBB9_8:
	movq	%rdx, 16(%rsp)
	pushq	%rbp
.Lcfi106:
	.seh_pushreg 5
	subq	$32, %rsp
.Lcfi107:
	.seh_stackalloc 32
	leaq	128(%rdx), %rbp
.Ltmp231:
.Lcfi108:
	.seh_endprologue
	movq	-72(%rbp), %rax
	cmpq	$0, (%rax)
	je	.LBB9_5
	jmp	.LBB9_1
.Ltmp232:
.Lfunc_end9:
	.seh_handlerdata
	.section	.text,"xr",one_only,_ZN47_$LT$core..result..Result$LT$T$C$$u20$E$GT$$GT$6unwrap17hd7c7c77f09773cf5E
.Lcfi109:
	.seh_endproc
	.section	.xdata,"dr",associative,_ZN47_$LT$core..result..Result$LT$T$C$$u20$E$GT$$GT$6unwrap17hd7c7c77f09773cf5E
	.p2align	2
$cppxdata$_ZN47_$LT$core..result..Result$LT$T$C$$u20$E$GT$$GT$6unwrap17hd7c7c77f09773cf5E:
	.long	429065506
	.long	1
	.long	($stateUnwindMap$_ZN47_$LT$core..result..Result$LT$T$C$$u20$E$GT$$GT$6unwrap17hd7c7c77f09773cf5E)@IMGREL
	.long	0
	.long	0
	.long	3
	.long	($ip2state$_ZN47_$LT$core..result..Result$LT$T$C$$u20$E$GT$$GT$6unwrap17hd7c7c77f09773cf5E)@IMGREL
	.long	120
	.long	0
	.long	1
$stateUnwindMap$_ZN47_$LT$core..result..Result$LT$T$C$$u20$E$GT$$GT$6unwrap17hd7c7c77f09773cf5E:
	.long	-1
	.long	"?dtor$8@?0?_ZN47_$LT$core..result..Result$LT$T$C$$u20$E$GT$$GT$6unwrap17hd7c7c77f09773cf5E@4HA"@IMGREL
$ip2state$_ZN47_$LT$core..result..Result$LT$T$C$$u20$E$GT$$GT$6unwrap17hd7c7c77f09773cf5E:
	.long	.Lfunc_begin9@IMGREL
	.long	-1
	.long	.Ltmp214@IMGREL+1
	.long	0
	.long	.Ltmp215@IMGREL+1
	.long	-1
	.section	.text,"xr",one_only,_ZN47_$LT$core..result..Result$LT$T$C$$u20$E$GT$$GT$6unwrap17hd7c7c77f09773cf5E

	.def	 _ZN47_$LT$core..result..Result$LT$T$C$$u20$E$GT$$GT$6unwrap17hd7ca13c803e074f3E;
	.scl	2;
	.type	32;
	.endef
	.section	.text,"xr",one_only,_ZN47_$LT$core..result..Result$LT$T$C$$u20$E$GT$$GT$6unwrap17hd7ca13c803e074f3E
	.globl	_ZN47_$LT$core..result..Result$LT$T$C$$u20$E$GT$$GT$6unwrap17hd7ca13c803e074f3E
	.p2align	4, 0x90
_ZN47_$LT$core..result..Result$LT$T$C$$u20$E$GT$$GT$6unwrap17hd7ca13c803e074f3E:
.Lfunc_begin10:
	.cv_func_id 10
	.cv_loc	10 1 779 0
.Lcfi110:
.seh_proc _ZN47_$LT$core..result..Result$LT$T$C$$u20$E$GT$$GT$6unwrap17hd7ca13c803e074f3E
	.seh_handler __CxxFrameHandler3, @unwind, @except
	pushq	%rbp
.Lcfi111:
	.seh_pushreg 5
.Ltmp235:
	subq	$144, %rsp
.Lcfi112:
	.seh_stackalloc 144
	leaq	128(%rsp), %rbp
.Lcfi113:
	.seh_setframe 5, 128
.Lcfi114:
	.seh_endprologue
	.cv_loc	10 1 781 0
	movq	$-2, 8(%rbp)
	movq	(%rcx), %rax
	testq	%rax, %rax
	movq	%rcx, -64(%rbp)
.Ltmp236:
	movq	%rax, -72(%rbp)
	je	.LBB10_3
	jmp	.LBB10_10
.Ltmp237:
.LBB10_10:
	movq	-72(%rbp), %rax
	subq	$1, %rax
	movq	%rax, -80(%rbp)
	je	.LBB10_4
	jmp	.LBB10_2
.Ltmp238:
.LBB10_2:
	.cv_loc	10 1 784 0
	ud2
.Ltmp239:
.LBB10_3:
	.cv_loc	10 1 781 0
	movq	-64(%rbp), %rax
	movq	8(%rax), %rcx
	movq	%rcx, -56(%rbp)
.Ltmp240:
	.cv_loc	10 1 781 0
	movq	-56(%rbp), %rax
.Ltmp241:
	.cv_loc	10 1 784 0
	movq	-64(%rbp), %rcx
	cmpq	$0, (%rcx)
	movq	%rax, -88(%rbp)
	je	.LBB10_6
	jmp	.LBB10_7
.Ltmp242:
.LBB10_4:
	.cv_loc	10 1 782 0
	movq	-64(%rbp), %rax
	movq	24(%rax), %rcx
	movq	%rcx, -32(%rbp)
	movups	8(%rax), %xmm0
	movaps	%xmm0, -48(%rbp)
.Ltmp243:
	.cv_loc	10 1 782 0
	movq	-32(%rbp), %rcx
	movq	%rcx, (%rbp)
	movaps	-48(%rbp), %xmm0
	movaps	%xmm0, -16(%rbp)
.Ltmp233:
	leaq	str.0(%rip), %rcx
	movl	$43, %edx
	leaq	-16(%rbp), %r8
	callq	_ZN4core6result13unwrap_failed17h4a7d9bd15b607a06E
.Ltmp234:
	jmp	.LBB10_9
.Ltmp244:
.LBB10_6:
	.cv_loc	10 1 784 0
	movq	-88(%rbp), %rax
	addq	$144, %rsp
	popq	%rbp
.Ltmp245:
	retq
.LBB10_7:
.Ltmp246:
	movq	-64(%rbp), %rax
	addq	$8, %rax
	movq	%rax, %rcx
	callq	_ZN4core3ptr13drop_in_place17h7c1ed1e97a94da88E
	jmp	.LBB10_6
.Ltmp247:
.LBB10_9:
	ud2
.Ltmp248:
.LBB10_1:
	.cv_loc	10 1 779 0
	addq	$32, %rsp
	popq	%rbp
.Ltmp249:
	retq
.LBB10_5:
.Ltmp250:
	.cv_loc	10 1 784 0
	movq	-64(%rbp), %rax
	addq	$8, %rax
	movq	%rax, %rcx
	callq	_ZN4core3ptr13drop_in_place17ha7a34af5324fdbd5E
	jmp	.LBB10_1
.Ltmp251:
	.seh_handlerdata
	.long	($cppxdata$_ZN47_$LT$core..result..Result$LT$T$C$$u20$E$GT$$GT$6unwrap17hd7ca13c803e074f3E)@IMGREL
	.section	.text,"xr",one_only,_ZN47_$LT$core..result..Result$LT$T$C$$u20$E$GT$$GT$6unwrap17hd7ca13c803e074f3E
.Lcfi115:
	.seh_endproc
	.def	 "?dtor$8@?0?_ZN47_$LT$core..result..Result$LT$T$C$$u20$E$GT$$GT$6unwrap17hd7ca13c803e074f3E@4HA";
	.scl	3;
	.type	32;
	.endef
	.p2align	4, 0x90
"?dtor$8@?0?_ZN47_$LT$core..result..Result$LT$T$C$$u20$E$GT$$GT$6unwrap17hd7ca13c803e074f3E@4HA":
.Lcfi116:
.seh_proc "?dtor$8@?0?_ZN47_$LT$core..result..Result$LT$T$C$$u20$E$GT$$GT$6unwrap17hd7ca13c803e074f3E@4HA"
.LBB10_8:
	movq	%rdx, 16(%rsp)
	pushq	%rbp
.Lcfi117:
	.seh_pushreg 5
	subq	$32, %rsp
.Lcfi118:
	.seh_stackalloc 32
	leaq	128(%rdx), %rbp
.Ltmp252:
.Lcfi119:
	.seh_endprologue
	movq	-64(%rbp), %rax
	cmpq	$0, (%rax)
	je	.LBB10_5
	jmp	.LBB10_1
.Ltmp253:
.Lfunc_end10:
	.seh_handlerdata
	.section	.text,"xr",one_only,_ZN47_$LT$core..result..Result$LT$T$C$$u20$E$GT$$GT$6unwrap17hd7ca13c803e074f3E
.Lcfi120:
	.seh_endproc
	.section	.xdata,"dr",associative,_ZN47_$LT$core..result..Result$LT$T$C$$u20$E$GT$$GT$6unwrap17hd7ca13c803e074f3E
	.p2align	2
$cppxdata$_ZN47_$LT$core..result..Result$LT$T$C$$u20$E$GT$$GT$6unwrap17hd7ca13c803e074f3E:
	.long	429065506
	.long	1
	.long	($stateUnwindMap$_ZN47_$LT$core..result..Result$LT$T$C$$u20$E$GT$$GT$6unwrap17hd7ca13c803e074f3E)@IMGREL
	.long	0
	.long	0
	.long	3
	.long	($ip2state$_ZN47_$LT$core..result..Result$LT$T$C$$u20$E$GT$$GT$6unwrap17hd7ca13c803e074f3E)@IMGREL
	.long	136
	.long	0
	.long	1
$stateUnwindMap$_ZN47_$LT$core..result..Result$LT$T$C$$u20$E$GT$$GT$6unwrap17hd7ca13c803e074f3E:
	.long	-1
	.long	"?dtor$8@?0?_ZN47_$LT$core..result..Result$LT$T$C$$u20$E$GT$$GT$6unwrap17hd7ca13c803e074f3E@4HA"@IMGREL
$ip2state$_ZN47_$LT$core..result..Result$LT$T$C$$u20$E$GT$$GT$6unwrap17hd7ca13c803e074f3E:
	.long	.Lfunc_begin10@IMGREL
	.long	-1
	.long	.Ltmp233@IMGREL+1
	.long	0
	.long	.Ltmp234@IMGREL+1
	.long	-1
	.section	.text,"xr",one_only,_ZN47_$LT$core..result..Result$LT$T$C$$u20$E$GT$$GT$6unwrap17hd7ca13c803e074f3E

	.def	 _ZN47_$LT$core..result..Result$LT$T$C$$u20$E$GT$$GT$9unwrap_or17h9648151ad8199aa6E;
	.scl	2;
	.type	32;
	.endef
	.section	.text,"xr",one_only,_ZN47_$LT$core..result..Result$LT$T$C$$u20$E$GT$$GT$9unwrap_or17h9648151ad8199aa6E
	.globl	_ZN47_$LT$core..result..Result$LT$T$C$$u20$E$GT$$GT$9unwrap_or17h9648151ad8199aa6E
	.p2align	4, 0x90
_ZN47_$LT$core..result..Result$LT$T$C$$u20$E$GT$$GT$9unwrap_or17h9648151ad8199aa6E:
.Lfunc_begin11:
	.cv_func_id 11
	.cv_loc	11 1 720 0
.Lcfi121:
.seh_proc _ZN47_$LT$core..result..Result$LT$T$C$$u20$E$GT$$GT$9unwrap_or17h9648151ad8199aa6E
	pushq	%rbp
.Lcfi122:
	.seh_pushreg 5
	subq	$64, %rsp
.Lcfi123:
	.seh_stackalloc 64
	leaq	64(%rsp), %rbp
.Lcfi124:
	.seh_setframe 5, 64
.Lcfi125:
	.seh_endprologue
	movb	%dl, %al
	andb	$1, %al
	movb	%al, -5(%rbp)
.Ltmp254:
	.cv_loc	11 1 722 0
	movb	$0, -2(%rbp)
	movb	$0, -1(%rbp)
	movb	$1, -2(%rbp)
	movb	$1, -1(%rbp)
	movzbl	(%rcx), %edx
	movl	%edx, %r8d
	movb	%r8b, %al
	testb	$1, %al
	movq	%rcx, -16(%rbp)
.Ltmp255:
	movq	%r8, -24(%rbp)
	je	.LBB11_3
	jmp	.LBB11_11
.Ltmp256:
.LBB11_11:
	movq	-24(%rbp), %rax
	subq	$1, %rax
	movq	%rax, -32(%rbp)
	jne	.LBB11_2
	jmp	.LBB11_1
.Ltmp257:
.LBB11_1:
	.cv_loc	11 1 723 0
	movb	$0, -1(%rbp)
	movb	-5(%rbp), %al
	andb	$1, %al
	movb	%al, -4(%rbp)
	.cv_loc	11 1 721 0
	jmp	.LBB11_4
.Ltmp258:
.LBB11_2:
	.cv_loc	11 1 725 0
	ud2
.Ltmp259:
.LBB11_3:
	.cv_loc	11 1 722 0
	movb	$0, -2(%rbp)
	movq	-16(%rbp), %rax
	movb	1(%rax), %cl
	andb	$1, %cl
	movb	%cl, -3(%rbp)
.Ltmp260:
	.cv_loc	11 1 722 0
	movb	-3(%rbp), %cl
	andb	$1, %cl
	movb	%cl, -4(%rbp)
.Ltmp261:
.LBB11_4:
	.cv_loc	11 1 725 0
	testb	$1, -1(%rbp)
	jne	.LBB11_6
.Ltmp262:
.LBB11_5:
	movq	-16(%rbp), %rax
	movb	(%rax), %cl
	andb	$1, %cl
	movzbl	%cl, %edx
	movl	%edx, %r8d
	cmpq	$0, %r8
	je	.LBB11_8
	jmp	.LBB11_10
.Ltmp263:
.LBB11_6:
	movb	$0, -1(%rbp)
	jmp	.LBB11_5
.Ltmp264:
.LBB11_7:
	movb	-4(%rbp), %al
	andb	$1, %al
	movzbl	%al, %eax
	addq	$64, %rsp
	popq	%rbp
.Ltmp265:
	retq
.LBB11_8:
.Ltmp266:
	testb	$1, -2(%rbp)
	je	.LBB11_7
.Ltmp267:
	movb	$0, -2(%rbp)
	jmp	.LBB11_7
.Ltmp268:
.LBB11_10:
	movq	-16(%rbp), %rcx
	callq	_ZN4core3ptr13drop_in_place17h290d79caec86515aE
	jmp	.LBB11_7
.Ltmp269:
.Lfunc_end11:
	.seh_handlerdata
	.section	.text,"xr",one_only,_ZN47_$LT$core..result..Result$LT$T$C$$u20$E$GT$$GT$9unwrap_or17h9648151ad8199aa6E
.Lcfi126:
	.seh_endproc

	.def	 _ZN47_$LT$core..result..Result$LT$T$C$$u20$E$GT$$GT$9unwrap_or17hf62e19366a672d0bE;
	.scl	2;
	.type	32;
	.endef
	.section	.text,"xr",one_only,_ZN47_$LT$core..result..Result$LT$T$C$$u20$E$GT$$GT$9unwrap_or17hf62e19366a672d0bE
	.globl	_ZN47_$LT$core..result..Result$LT$T$C$$u20$E$GT$$GT$9unwrap_or17hf62e19366a672d0bE
	.p2align	4, 0x90
_ZN47_$LT$core..result..Result$LT$T$C$$u20$E$GT$$GT$9unwrap_or17hf62e19366a672d0bE:
.Lfunc_begin12:
	.cv_func_id 12
	.cv_loc	12 1 720 0
.Lcfi127:
.seh_proc _ZN47_$LT$core..result..Result$LT$T$C$$u20$E$GT$$GT$9unwrap_or17hf62e19366a672d0bE
	.seh_handler __CxxFrameHandler3, @unwind, @except
	pushq	%rbp
.Lcfi128:
	.seh_pushreg 5
	subq	$176, %rsp
.Lcfi129:
	.seh_stackalloc 176
	leaq	128(%rsp), %rbp
.Lcfi130:
	.seh_setframe 5, 128
.Lcfi131:
	.seh_endprologue
	movq	$-2, 40(%rbp)
	movq	%rcx, %rax
.Ltmp272:
	.cv_loc	12 1 722 0
	movb	$0, 38(%rbp)
	movb	$0, 39(%rbp)
	movb	$1, 38(%rbp)
	movb	$1, 39(%rbp)
	movq	(%rdx), %r9
	testq	%r9, %r9
	movq	%rax, -48(%rbp)
	movq	%r8, -56(%rbp)
.Ltmp273:
	movq	%rdx, -64(%rbp)
.Ltmp274:
	movq	%rcx, -72(%rbp)
	movq	%r9, -80(%rbp)
	je	.LBB12_4
	jmp	.LBB12_16
.Ltmp275:
.LBB12_16:
	movq	-80(%rbp), %rax
	subq	$1, %rax
	movq	%rax, -88(%rbp)
	je	.LBB12_2
	jmp	.LBB12_3
.Ltmp276:
.LBB12_2:
	.cv_loc	12 1 723 0
	movb	$0, 39(%rbp)
	movq	-56(%rbp), %rax
	movq	(%rax), %rcx
	movq	%rcx, 8(%rbp)
	movq	8(%rax), %rcx
	movq	%rcx, 16(%rbp)
	movq	16(%rax), %rcx
	movq	%rcx, 24(%rbp)
	movq	8(%rbp), %rcx
	movq	-72(%rbp), %rdx
	movq	%rcx, (%rdx)
	movq	16(%rbp), %rcx
	movq	%rcx, 8(%rdx)
	movq	24(%rbp), %rcx
	movq	%rcx, 16(%rdx)
	.cv_loc	12 1 721 0
	jmp	.LBB12_5
.Ltmp277:
.LBB12_3:
	.cv_loc	12 1 725 0
	ud2
.Ltmp278:
.LBB12_4:
	.cv_loc	12 1 722 0
	movb	$0, 38(%rbp)
	movq	-64(%rbp), %rax
	movq	8(%rax), %rcx
	movq	%rcx, -40(%rbp)
	movq	16(%rax), %rcx
	movq	%rcx, -32(%rbp)
	movq	24(%rax), %rcx
	movq	%rcx, -24(%rbp)
.Ltmp279:
	.cv_loc	12 1 722 0
	movq	-40(%rbp), %rcx
	movq	%rcx, -16(%rbp)
	movq	-32(%rbp), %rcx
	movq	%rcx, -8(%rbp)
	movq	-24(%rbp), %rcx
	movq	%rcx, (%rbp)
	movq	-16(%rbp), %rcx
	movq	-72(%rbp), %rdx
	movq	%rcx, (%rdx)
	movq	-8(%rbp), %rcx
	movq	%rcx, 8(%rdx)
	movq	(%rbp), %rcx
	movq	%rcx, 16(%rdx)
.Ltmp280:
.LBB12_5:
	.cv_loc	12 1 725 0
	testb	$1, 39(%rbp)
	jne	.LBB12_10
.Ltmp281:
.LBB12_6:
	movq	-64(%rbp), %rax
	cmpq	$0, (%rax)
	je	.LBB12_12
	jmp	.LBB12_14
.Ltmp282:
.LBB12_10:
	movb	$0, 39(%rbp)
.Ltmp270:
	movq	-56(%rbp), %rcx
	callq	_ZN4core3ptr13drop_in_place17he87ea5237a1bab48E
.Ltmp271:
	jmp	.LBB12_6
.Ltmp283:
.LBB12_11:
	movq	-48(%rbp), %rax
	addq	$176, %rsp
	popq	%rbp
.Ltmp284:
	retq
.LBB12_12:
.Ltmp285:
	testb	$1, 38(%rbp)
	je	.LBB12_11
.Ltmp286:
	movb	$0, 38(%rbp)
	movq	-64(%rbp), %rax
	addq	$8, %rax
	movq	%rax, %rcx
	callq	_ZN4core3ptr13drop_in_place17he87ea5237a1bab48E
	jmp	.LBB12_11
.Ltmp287:
.LBB12_14:
	movq	-64(%rbp), %rcx
	callq	_ZN4core3ptr13drop_in_place17h2797f04aa9344bb7E
	jmp	.LBB12_11
.Ltmp288:
.LBB12_1:
	.cv_loc	12 1 720 0
	addq	$32, %rsp
	popq	%rbp
.Ltmp289:
	retq
.LBB12_7:
.Ltmp290:
	.cv_loc	12 1 725 0
	testb	$1, 38(%rbp)
	je	.LBB12_1
.Ltmp291:
	movb	$0, 38(%rbp)
	movq	-64(%rbp), %rax
	addq	$8, %rax
	movq	%rax, %rcx
	callq	_ZN4core3ptr13drop_in_place17he87ea5237a1bab48E
	jmp	.LBB12_1
.Ltmp292:
.LBB12_9:
	movq	-64(%rbp), %rcx
	callq	_ZN4core3ptr13drop_in_place17h2797f04aa9344bb7E
	jmp	.LBB12_1
.Ltmp293:
	.seh_handlerdata
	.long	($cppxdata$_ZN47_$LT$core..result..Result$LT$T$C$$u20$E$GT$$GT$9unwrap_or17hf62e19366a672d0bE)@IMGREL
	.section	.text,"xr",one_only,_ZN47_$LT$core..result..Result$LT$T$C$$u20$E$GT$$GT$9unwrap_or17hf62e19366a672d0bE
.Lcfi132:
	.seh_endproc
	.def	 "?dtor$15@?0?_ZN47_$LT$core..result..Result$LT$T$C$$u20$E$GT$$GT$9unwrap_or17hf62e19366a672d0bE@4HA";
	.scl	3;
	.type	32;
	.endef
	.p2align	4, 0x90
"?dtor$15@?0?_ZN47_$LT$core..result..Result$LT$T$C$$u20$E$GT$$GT$9unwrap_or17hf62e19366a672d0bE@4HA":
.Lcfi133:
.seh_proc "?dtor$15@?0?_ZN47_$LT$core..result..Result$LT$T$C$$u20$E$GT$$GT$9unwrap_or17hf62e19366a672d0bE@4HA"
.LBB12_15:
	movq	%rdx, 16(%rsp)
	pushq	%rbp
.Lcfi134:
	.seh_pushreg 5
	subq	$32, %rsp
.Lcfi135:
	.seh_stackalloc 32
	leaq	128(%rdx), %rbp
.Ltmp294:
.Lcfi136:
	.seh_endprologue
	movq	-64(%rbp), %rax
	cmpq	$0, (%rax)
	je	.LBB12_7
	jmp	.LBB12_9
.Ltmp295:
.Lfunc_end12:
	.seh_handlerdata
	.section	.text,"xr",one_only,_ZN47_$LT$core..result..Result$LT$T$C$$u20$E$GT$$GT$9unwrap_or17hf62e19366a672d0bE
.Lcfi137:
	.seh_endproc
	.section	.xdata,"dr",associative,_ZN47_$LT$core..result..Result$LT$T$C$$u20$E$GT$$GT$9unwrap_or17hf62e19366a672d0bE
	.p2align	2
$cppxdata$_ZN47_$LT$core..result..Result$LT$T$C$$u20$E$GT$$GT$9unwrap_or17hf62e19366a672d0bE:
	.long	429065506
	.long	1
	.long	($stateUnwindMap$_ZN47_$LT$core..result..Result$LT$T$C$$u20$E$GT$$GT$9unwrap_or17hf62e19366a672d0bE)@IMGREL
	.long	0
	.long	0
	.long	3
	.long	($ip2state$_ZN47_$LT$core..result..Result$LT$T$C$$u20$E$GT$$GT$9unwrap_or17hf62e19366a672d0bE)@IMGREL
	.long	168
	.long	0
	.long	1
$stateUnwindMap$_ZN47_$LT$core..result..Result$LT$T$C$$u20$E$GT$$GT$9unwrap_or17hf62e19366a672d0bE:
	.long	-1
	.long	"?dtor$15@?0?_ZN47_$LT$core..result..Result$LT$T$C$$u20$E$GT$$GT$9unwrap_or17hf62e19366a672d0bE@4HA"@IMGREL
$ip2state$_ZN47_$LT$core..result..Result$LT$T$C$$u20$E$GT$$GT$9unwrap_or17hf62e19366a672d0bE:
	.long	.Lfunc_begin12@IMGREL
	.long	-1
	.long	.Ltmp270@IMGREL+1
	.long	0
	.long	.Ltmp271@IMGREL+1
	.long	-1
	.section	.text,"xr",one_only,_ZN47_$LT$core..result..Result$LT$T$C$$u20$E$GT$$GT$9unwrap_or17hf62e19366a672d0bE

	.def	 _ZN4core6result13unwrap_failed17h1c4a2d6a1244a67cE;
	.scl	3;
	.type	32;
	.endef
	.section	.text,"xr",one_only,_ZN4core6result13unwrap_failed17h1c4a2d6a1244a67cE
	.p2align	4, 0x90
_ZN4core6result13unwrap_failed17h1c4a2d6a1244a67cE:
.Lfunc_begin13:
	.cv_func_id 13
	.cv_loc	13 1 915 0
.Lcfi138:
.seh_proc _ZN4core6result13unwrap_failed17h1c4a2d6a1244a67cE
	.seh_handler __CxxFrameHandler3, @unwind, @except
	pushq	%rbp
.Lcfi139:
	.seh_pushreg 5
	subq	$256, %rsp
.Lcfi140:
	.seh_stackalloc 256
	leaq	128(%rsp), %rbp
.Lcfi141:
	.seh_setframe 5, 128
.Lcfi142:
	.seh_endprologue
	movq	$-2, 120(%rbp)
	movq	%rcx, -8(%rbp)
	movq	%rdx, (%rbp)
	leaq	-8(%rbp), %rcx
.Ltmp304:
	.cv_loc	13 1 916 0
	movq	%rcx, 88(%rbp)
	movq	%r8, 96(%rbp)
	.cv_file	2 "C:\\projects\\rust\\src\\libcore\\lib.rs"
	.cv_loc	13 2 1 0
	movq	88(%rbp), %rcx
	movq	%rcx, 104(%rbp)
	movq	96(%rbp), %rcx
	movq	%rcx, 112(%rbp)
.Ltmp305:
	.cv_loc	13 1 916 0
	movq	104(%rbp), %rcx
	.cv_file	3 "C:\\projects\\rust\\src\\libcore\\macros.rs"
	.cv_loc	13 3 23 0
.Ltmp296:
	leaq	_ZN55_$LT$$RF$$u27$a$u20$T$u20$as$u20$core..fmt..Display$GT$3fmt17hc0258ac194701719E(%rip), %rdx
	movq	%r8, -16(%rbp)
.Ltmp306:
	callq	_ZN4core3fmt10ArgumentV13new17h3ee2d8e9c867d9a0E
.Ltmp297:
	movq	%rdx, -24(%rbp)
	movq	%rax, -32(%rbp)
	jmp	.LBB13_1
.Ltmp307:
.LBB13_1:
	movq	-32(%rbp), %rax
	movq	-24(%rbp), %rcx
	.cv_loc	13 1 916 0
	movq	112(%rbp), %rdx
	.cv_loc	13 3 23 0
.Ltmp298:
	leaq	_ZN66_$LT$sdl2..video..WindowBuildError$u20$as$u20$core..fmt..Debug$GT$3fmt17hdd63bab882bef799E(%rip), %r8
	movq	%rcx, -40(%rbp)
	movq	%rdx, %rcx
	movq	%r8, %rdx
	movq	%rax, -48(%rbp)
	callq	_ZN4core3fmt10ArgumentV13new17ha549efe40044bf12E
.Ltmp299:
	movq	%rdx, -56(%rbp)
	movq	%rax, -64(%rbp)
	jmp	.LBB13_2
.Ltmp308:
.LBB13_2:
	.cv_loc	13 1 916 0
	movq	-48(%rbp), %rax
	movq	%rax, 56(%rbp)
	movq	-40(%rbp), %rcx
	movq	%rcx, 64(%rbp)
	movq	-64(%rbp), %rdx
	movq	%rdx, 72(%rbp)
	movq	-56(%rbp), %r8
	movq	%r8, 80(%rbp)
.Ltmp309:
	.cv_loc	13 3 23 0
.Ltmp300:
	leaq	ref.4(%rip), %r9
	movq	%rsp, %r10
	movq	%r9, 40(%r10)
	movq	$2, 48(%r10)
	movq	$2, 32(%r10)
	leaq	ref.3(%rip), %rdx
	movl	$2, %r11d
	movl	%r11d, %r8d
	leaq	8(%rbp), %rcx
	leaq	56(%rbp), %r9
	callq	_ZN4core3fmt9Arguments16new_v1_formatted17h647572f4005f46b4E
.Ltmp301:
	jmp	.LBB13_3
.Ltmp310:
.LBB13_3:
.Ltmp302:
	leaq	ref.7(%rip), %rdx
	leaq	8(%rbp), %rcx
	callq	_ZN4core9panicking9panic_fmt17h7459410ab2917fbeE
.Ltmp303:
	jmp	.LBB13_5
.Ltmp311:
.LBB13_5:
	ud2
.Ltmp312:
	.seh_handlerdata
	.long	($cppxdata$_ZN4core6result13unwrap_failed17h1c4a2d6a1244a67cE)@IMGREL
	.section	.text,"xr",one_only,_ZN4core6result13unwrap_failed17h1c4a2d6a1244a67cE
.Lcfi143:
	.seh_endproc
	.def	 "?dtor$4@?0?_ZN4core6result13unwrap_failed17h1c4a2d6a1244a67cE@4HA";
	.scl	3;
	.type	32;
	.endef
	.p2align	4, 0x90
"?dtor$4@?0?_ZN4core6result13unwrap_failed17h1c4a2d6a1244a67cE@4HA":
.Lcfi144:
.seh_proc "?dtor$4@?0?_ZN4core6result13unwrap_failed17h1c4a2d6a1244a67cE@4HA"
.LBB13_4:
	movq	%rdx, 16(%rsp)
	pushq	%rbp
.Lcfi145:
	.seh_pushreg 5
	subq	$64, %rsp
.Lcfi146:
	.seh_stackalloc 64
	leaq	128(%rdx), %rbp
.Lcfi147:
	.seh_endprologue
	.cv_loc	13 1 917 0
	movq	-16(%rbp), %rcx
	callq	_ZN4core3ptr13drop_in_place17h98aa2602c5e7739fE
	.cv_loc	13 1 915 0
	nop
	addq	$64, %rsp
	popq	%rbp
	retq
.Ltmp313:
.Lfunc_end13:
	.seh_handlerdata
	.section	.text,"xr",one_only,_ZN4core6result13unwrap_failed17h1c4a2d6a1244a67cE
.Lcfi148:
	.seh_endproc
	.section	.xdata,"dr",associative,_ZN4core6result13unwrap_failed17h1c4a2d6a1244a67cE
	.p2align	2
$cppxdata$_ZN4core6result13unwrap_failed17h1c4a2d6a1244a67cE:
	.long	429065506
	.long	1
	.long	($stateUnwindMap$_ZN4core6result13unwrap_failed17h1c4a2d6a1244a67cE)@IMGREL
	.long	0
	.long	0
	.long	3
	.long	($ip2state$_ZN4core6result13unwrap_failed17h1c4a2d6a1244a67cE)@IMGREL
	.long	248
	.long	0
	.long	1
$stateUnwindMap$_ZN4core6result13unwrap_failed17h1c4a2d6a1244a67cE:
	.long	-1
	.long	"?dtor$4@?0?_ZN4core6result13unwrap_failed17h1c4a2d6a1244a67cE@4HA"@IMGREL
$ip2state$_ZN4core6result13unwrap_failed17h1c4a2d6a1244a67cE:
	.long	.Lfunc_begin13@IMGREL
	.long	-1
	.long	.Ltmp296@IMGREL+1
	.long	0
	.long	.Ltmp303@IMGREL+1
	.long	-1
	.section	.text,"xr",one_only,_ZN4core6result13unwrap_failed17h1c4a2d6a1244a67cE

	.def	 _ZN4core6result13unwrap_failed17h4a7d9bd15b607a06E;
	.scl	3;
	.type	32;
	.endef
	.section	.text,"xr",one_only,_ZN4core6result13unwrap_failed17h4a7d9bd15b607a06E
	.p2align	4, 0x90
_ZN4core6result13unwrap_failed17h4a7d9bd15b607a06E:
.Lfunc_begin14:
	.cv_func_id 14
	.cv_loc	14 1 915 0
.Lcfi149:
.seh_proc _ZN4core6result13unwrap_failed17h4a7d9bd15b607a06E
	.seh_handler __CxxFrameHandler3, @unwind, @except
	pushq	%rbp
.Lcfi150:
	.seh_pushreg 5
	subq	$256, %rsp
.Lcfi151:
	.seh_stackalloc 256
	leaq	128(%rsp), %rbp
.Lcfi152:
	.seh_setframe 5, 128
.Lcfi153:
	.seh_endprologue
	movq	$-2, 120(%rbp)
	movq	%rcx, -8(%rbp)
	movq	%rdx, (%rbp)
	leaq	-8(%rbp), %rcx
.Ltmp322:
	.cv_loc	14 1 916 0
	movq	%rcx, 88(%rbp)
	movq	%r8, 96(%rbp)
	.cv_loc	14 2 1 0
	movq	88(%rbp), %rcx
	movq	%rcx, 104(%rbp)
	movq	96(%rbp), %rcx
	movq	%rcx, 112(%rbp)
.Ltmp323:
	.cv_loc	14 1 916 0
	movq	104(%rbp), %rcx
	.cv_loc	14 3 23 0
.Ltmp314:
	leaq	_ZN55_$LT$$RF$$u27$a$u20$T$u20$as$u20$core..fmt..Display$GT$3fmt17hc0258ac194701719E(%rip), %rdx
	movq	%r8, -16(%rbp)
.Ltmp324:
	callq	_ZN4core3fmt10ArgumentV13new17h3ee2d8e9c867d9a0E
.Ltmp315:
	movq	%rdx, -24(%rbp)
	movq	%rax, -32(%rbp)
	jmp	.LBB14_1
.Ltmp325:
.LBB14_1:
	movq	-32(%rbp), %rax
	movq	-24(%rbp), %rcx
	.cv_loc	14 1 916 0
	movq	112(%rbp), %rdx
	.cv_loc	14 3 23 0
.Ltmp316:
	leaq	_ZN58_$LT$alloc..string..String$u20$as$u20$core..fmt..Debug$GT$3fmt17ha12ad07e4e1dfdf9E(%rip), %r8
	movq	%rcx, -40(%rbp)
	movq	%rdx, %rcx
	movq	%r8, %rdx
	movq	%rax, -48(%rbp)
	callq	_ZN4core3fmt10ArgumentV13new17h73728f1bc0b534d0E
.Ltmp317:
	movq	%rdx, -56(%rbp)
	movq	%rax, -64(%rbp)
	jmp	.LBB14_2
.Ltmp326:
.LBB14_2:
	.cv_loc	14 1 916 0
	movq	-48(%rbp), %rax
	movq	%rax, 56(%rbp)
	movq	-40(%rbp), %rcx
	movq	%rcx, 64(%rbp)
	movq	-64(%rbp), %rdx
	movq	%rdx, 72(%rbp)
	movq	-56(%rbp), %r8
	movq	%r8, 80(%rbp)
.Ltmp327:
	.cv_loc	14 3 23 0
.Ltmp318:
	leaq	ref.4(%rip), %r9
	movq	%rsp, %r10
	movq	%r9, 40(%r10)
	movq	$2, 48(%r10)
	movq	$2, 32(%r10)
	leaq	ref.3(%rip), %rdx
	movl	$2, %r11d
	movl	%r11d, %r8d
	leaq	8(%rbp), %rcx
	leaq	56(%rbp), %r9
	callq	_ZN4core3fmt9Arguments16new_v1_formatted17h647572f4005f46b4E
.Ltmp319:
	jmp	.LBB14_3
.Ltmp328:
.LBB14_3:
.Ltmp320:
	leaq	ref.7(%rip), %rdx
	leaq	8(%rbp), %rcx
	callq	_ZN4core9panicking9panic_fmt17h7459410ab2917fbeE
.Ltmp321:
	jmp	.LBB14_5
.Ltmp329:
.LBB14_5:
	ud2
.Ltmp330:
	.seh_handlerdata
	.long	($cppxdata$_ZN4core6result13unwrap_failed17h4a7d9bd15b607a06E)@IMGREL
	.section	.text,"xr",one_only,_ZN4core6result13unwrap_failed17h4a7d9bd15b607a06E
.Lcfi154:
	.seh_endproc
	.def	 "?dtor$4@?0?_ZN4core6result13unwrap_failed17h4a7d9bd15b607a06E@4HA";
	.scl	3;
	.type	32;
	.endef
	.p2align	4, 0x90
"?dtor$4@?0?_ZN4core6result13unwrap_failed17h4a7d9bd15b607a06E@4HA":
.Lcfi155:
.seh_proc "?dtor$4@?0?_ZN4core6result13unwrap_failed17h4a7d9bd15b607a06E@4HA"
.LBB14_4:
	movq	%rdx, 16(%rsp)
	pushq	%rbp
.Lcfi156:
	.seh_pushreg 5
	subq	$64, %rsp
.Lcfi157:
	.seh_stackalloc 64
	leaq	128(%rdx), %rbp
.Lcfi158:
	.seh_endprologue
	.cv_loc	14 1 917 0
	movq	-16(%rbp), %rcx
	callq	_ZN4core3ptr13drop_in_place17h7c1ed1e97a94da88E
	.cv_loc	14 1 915 0
	nop
	addq	$64, %rsp
	popq	%rbp
	retq
.Ltmp331:
.Lfunc_end14:
	.seh_handlerdata
	.section	.text,"xr",one_only,_ZN4core6result13unwrap_failed17h4a7d9bd15b607a06E
.Lcfi159:
	.seh_endproc
	.section	.xdata,"dr",associative,_ZN4core6result13unwrap_failed17h4a7d9bd15b607a06E
	.p2align	2
$cppxdata$_ZN4core6result13unwrap_failed17h4a7d9bd15b607a06E:
	.long	429065506
	.long	1
	.long	($stateUnwindMap$_ZN4core6result13unwrap_failed17h4a7d9bd15b607a06E)@IMGREL
	.long	0
	.long	0
	.long	3
	.long	($ip2state$_ZN4core6result13unwrap_failed17h4a7d9bd15b607a06E)@IMGREL
	.long	248
	.long	0
	.long	1
$stateUnwindMap$_ZN4core6result13unwrap_failed17h4a7d9bd15b607a06E:
	.long	-1
	.long	"?dtor$4@?0?_ZN4core6result13unwrap_failed17h4a7d9bd15b607a06E@4HA"@IMGREL
$ip2state$_ZN4core6result13unwrap_failed17h4a7d9bd15b607a06E:
	.long	.Lfunc_begin14@IMGREL
	.long	-1
	.long	.Ltmp314@IMGREL+1
	.long	0
	.long	.Ltmp321@IMGREL+1
	.long	-1
	.section	.text,"xr",one_only,_ZN4core6result13unwrap_failed17h4a7d9bd15b607a06E

	.def	 _ZN4core6result13unwrap_failed17h7629acee190beb23E;
	.scl	3;
	.type	32;
	.endef
	.section	.text,"xr",one_only,_ZN4core6result13unwrap_failed17h7629acee190beb23E
	.p2align	4, 0x90
_ZN4core6result13unwrap_failed17h7629acee190beb23E:
.Lfunc_begin15:
	.cv_func_id 15
	.cv_loc	15 1 915 0
.Lcfi160:
.seh_proc _ZN4core6result13unwrap_failed17h7629acee190beb23E
	.seh_handler __CxxFrameHandler3, @unwind, @except
	pushq	%rbp
.Lcfi161:
	.seh_pushreg 5
	subq	$256, %rsp
.Lcfi162:
	.seh_stackalloc 256
	leaq	128(%rsp), %rbp
.Lcfi163:
	.seh_setframe 5, 128
.Lcfi164:
	.seh_endprologue
	movq	$-2, 120(%rbp)
	movq	%rcx, -24(%rbp)
	movq	%rdx, -16(%rbp)
	movq	%r8, -8(%rbp)
	movq	%r9, (%rbp)
	leaq	-24(%rbp), %rcx
.Ltmp340:
	.cv_loc	15 1 916 0
	movq	%rcx, 88(%rbp)
	leaq	-8(%rbp), %rcx
	movq	%rcx, 96(%rbp)
	.cv_loc	15 2 1 0
	movq	88(%rbp), %rcx
	movq	%rcx, 104(%rbp)
	movq	96(%rbp), %rcx
	movq	%rcx, 112(%rbp)
.Ltmp341:
	.cv_loc	15 1 916 0
	movq	104(%rbp), %rcx
	.cv_loc	15 3 23 0
.Ltmp332:
	leaq	_ZN55_$LT$$RF$$u27$a$u20$T$u20$as$u20$core..fmt..Display$GT$3fmt17hc0258ac194701719E(%rip), %rdx
	callq	_ZN4core3fmt10ArgumentV13new17h3ee2d8e9c867d9a0E
.Ltmp333:
	movq	%rdx, -32(%rbp)
	movq	%rax, -40(%rbp)
	jmp	.LBB15_1
.Ltmp342:
.LBB15_1:
	movq	-40(%rbp), %rax
	movq	-32(%rbp), %rcx
	.cv_loc	15 1 916 0
	movq	112(%rbp), %rdx
	.cv_loc	15 3 23 0
.Ltmp334:
	leaq	_ZN63_$LT$alloc..boxed..Box$LT$T$GT$$u20$as$u20$core..fmt..Debug$GT$3fmt17h7c7066931c3bba9cE(%rip), %r8
	movq	%rcx, -48(%rbp)
	movq	%rdx, %rcx
	movq	%r8, %rdx
	movq	%rax, -56(%rbp)
	callq	_ZN4core3fmt10ArgumentV13new17ha30c89cb7ba7b8d9E
.Ltmp335:
	movq	%rdx, -64(%rbp)
	movq	%rax, -72(%rbp)
	jmp	.LBB15_2
.Ltmp343:
.LBB15_2:
	.cv_loc	15 1 916 0
	movq	-56(%rbp), %rax
	movq	%rax, 56(%rbp)
	movq	-48(%rbp), %rcx
	movq	%rcx, 64(%rbp)
	movq	-72(%rbp), %rdx
	movq	%rdx, 72(%rbp)
	movq	-64(%rbp), %r8
	movq	%r8, 80(%rbp)
.Ltmp344:
	.cv_loc	15 3 23 0
.Ltmp336:
	leaq	ref.4(%rip), %r9
	movq	%rsp, %r10
	movq	%r9, 40(%r10)
	movq	$2, 48(%r10)
	movq	$2, 32(%r10)
	leaq	ref.3(%rip), %rdx
	movl	$2, %r11d
	movl	%r11d, %r8d
	leaq	8(%rbp), %rcx
	leaq	56(%rbp), %r9
	callq	_ZN4core3fmt9Arguments16new_v1_formatted17h647572f4005f46b4E
.Ltmp337:
	jmp	.LBB15_3
.Ltmp345:
.LBB15_3:
.Ltmp338:
	leaq	ref.7(%rip), %rdx
	leaq	8(%rbp), %rcx
	callq	_ZN4core9panicking9panic_fmt17h7459410ab2917fbeE
.Ltmp339:
	jmp	.LBB15_5
.Ltmp346:
.LBB15_5:
	ud2
.Ltmp347:
	.seh_handlerdata
	.long	($cppxdata$_ZN4core6result13unwrap_failed17h7629acee190beb23E)@IMGREL
	.section	.text,"xr",one_only,_ZN4core6result13unwrap_failed17h7629acee190beb23E
.Lcfi165:
	.seh_endproc
	.def	 "?dtor$4@?0?_ZN4core6result13unwrap_failed17h7629acee190beb23E@4HA";
	.scl	3;
	.type	32;
	.endef
	.p2align	4, 0x90
"?dtor$4@?0?_ZN4core6result13unwrap_failed17h7629acee190beb23E@4HA":
.Lcfi166:
.seh_proc "?dtor$4@?0?_ZN4core6result13unwrap_failed17h7629acee190beb23E@4HA"
.LBB15_4:
	movq	%rdx, 16(%rsp)
	pushq	%rbp
.Lcfi167:
	.seh_pushreg 5
	subq	$64, %rsp
.Lcfi168:
	.seh_stackalloc 64
	leaq	128(%rdx), %rbp
.Lcfi169:
	.seh_endprologue
	leaq	-8(%rbp), %rcx
	.cv_loc	15 1 917 0
	callq	_ZN4core3ptr13drop_in_place17h74d6dd60109708dbE
	.cv_loc	15 1 915 0
	nop
	addq	$64, %rsp
	popq	%rbp
	retq
.Ltmp348:
.Lfunc_end15:
	.seh_handlerdata
	.section	.text,"xr",one_only,_ZN4core6result13unwrap_failed17h7629acee190beb23E
.Lcfi170:
	.seh_endproc
	.section	.xdata,"dr",associative,_ZN4core6result13unwrap_failed17h7629acee190beb23E
	.p2align	2
$cppxdata$_ZN4core6result13unwrap_failed17h7629acee190beb23E:
	.long	429065506
	.long	1
	.long	($stateUnwindMap$_ZN4core6result13unwrap_failed17h7629acee190beb23E)@IMGREL
	.long	0
	.long	0
	.long	3
	.long	($ip2state$_ZN4core6result13unwrap_failed17h7629acee190beb23E)@IMGREL
	.long	248
	.long	0
	.long	1
$stateUnwindMap$_ZN4core6result13unwrap_failed17h7629acee190beb23E:
	.long	-1
	.long	"?dtor$4@?0?_ZN4core6result13unwrap_failed17h7629acee190beb23E@4HA"@IMGREL
$ip2state$_ZN4core6result13unwrap_failed17h7629acee190beb23E:
	.long	.Lfunc_begin15@IMGREL
	.long	-1
	.long	.Ltmp332@IMGREL+1
	.long	0
	.long	.Ltmp339@IMGREL+1
	.long	-1
	.section	.text,"xr",one_only,_ZN4core6result13unwrap_failed17h7629acee190beb23E

	.def	 _ZN4core6result13unwrap_failed17h905685435080ecfeE;
	.scl	3;
	.type	32;
	.endef
	.section	.text,"xr",one_only,_ZN4core6result13unwrap_failed17h905685435080ecfeE
	.p2align	4, 0x90
_ZN4core6result13unwrap_failed17h905685435080ecfeE:
.Lfunc_begin16:
	.cv_func_id 16
	.cv_loc	16 1 915 0
.Lcfi171:
.seh_proc _ZN4core6result13unwrap_failed17h905685435080ecfeE
	.seh_handler __CxxFrameHandler3, @unwind, @except
	pushq	%rbp
.Lcfi172:
	.seh_pushreg 5
	subq	$256, %rsp
.Lcfi173:
	.seh_stackalloc 256
	leaq	128(%rsp), %rbp
.Lcfi174:
	.seh_setframe 5, 128
.Lcfi175:
	.seh_endprologue
	movq	$-2, 120(%rbp)
	movq	%rcx, -16(%rbp)
	movq	%rdx, -8(%rbp)
	leaq	-16(%rbp), %rcx
.Ltmp357:
	.cv_loc	16 1 916 0
	movq	%rcx, 88(%rbp)
	movq	%rbp, %rcx
	movq	%rcx, 96(%rbp)
	.cv_loc	16 2 1 0
	movq	88(%rbp), %rcx
	movq	%rcx, 104(%rbp)
	movq	96(%rbp), %rcx
	movq	%rcx, 112(%rbp)
.Ltmp358:
	.cv_loc	16 1 916 0
	movq	104(%rbp), %rcx
	.cv_loc	16 3 23 0
.Ltmp349:
	leaq	_ZN55_$LT$$RF$$u27$a$u20$T$u20$as$u20$core..fmt..Display$GT$3fmt17hc0258ac194701719E(%rip), %rdx
	callq	_ZN4core3fmt10ArgumentV13new17h3ee2d8e9c867d9a0E
.Ltmp350:
	movq	%rdx, -24(%rbp)
	movq	%rax, -32(%rbp)
	jmp	.LBB16_1
.Ltmp359:
.LBB16_1:
	movq	-32(%rbp), %rax
	movq	-24(%rbp), %rcx
	.cv_loc	16 1 916 0
	movq	112(%rbp), %rdx
	.cv_loc	16 3 23 0
.Ltmp351:
	leaq	_ZN68_$LT$std..thread..local..AccessError$u20$as$u20$core..fmt..Debug$GT$3fmt17h0f6382ee9ee3d017E(%rip), %r8
	movq	%rcx, -40(%rbp)
	movq	%rdx, %rcx
	movq	%r8, %rdx
	movq	%rax, -48(%rbp)
	callq	_ZN4core3fmt10ArgumentV13new17h2de44666c618e669E
.Ltmp352:
	movq	%rdx, -56(%rbp)
	movq	%rax, -64(%rbp)
	jmp	.LBB16_2
.Ltmp360:
.LBB16_2:
	.cv_loc	16 1 916 0
	movq	-48(%rbp), %rax
	movq	%rax, 56(%rbp)
	movq	-40(%rbp), %rcx
	movq	%rcx, 64(%rbp)
	movq	-64(%rbp), %rdx
	movq	%rdx, 72(%rbp)
	movq	-56(%rbp), %r8
	movq	%r8, 80(%rbp)
.Ltmp361:
	.cv_loc	16 3 23 0
.Ltmp353:
	leaq	ref.4(%rip), %r9
	movq	%rsp, %r10
	movq	%r9, 40(%r10)
	movq	$2, 48(%r10)
	movq	$2, 32(%r10)
	leaq	ref.3(%rip), %rdx
	movl	$2, %r11d
	movl	%r11d, %r8d
	leaq	8(%rbp), %rcx
	leaq	56(%rbp), %r9
	callq	_ZN4core3fmt9Arguments16new_v1_formatted17h647572f4005f46b4E
.Ltmp354:
	jmp	.LBB16_3
.Ltmp362:
.LBB16_3:
.Ltmp355:
	leaq	ref.7(%rip), %rdx
	leaq	8(%rbp), %rcx
	callq	_ZN4core9panicking9panic_fmt17h7459410ab2917fbeE
.Ltmp356:
	jmp	.LBB16_5
.Ltmp363:
.LBB16_5:
	ud2
.Ltmp364:
	.seh_handlerdata
	.long	($cppxdata$_ZN4core6result13unwrap_failed17h905685435080ecfeE)@IMGREL
	.section	.text,"xr",one_only,_ZN4core6result13unwrap_failed17h905685435080ecfeE
.Lcfi176:
	.seh_endproc
	.def	 "?dtor$4@?0?_ZN4core6result13unwrap_failed17h905685435080ecfeE@4HA";
	.scl	3;
	.type	32;
	.endef
	.p2align	4, 0x90
"?dtor$4@?0?_ZN4core6result13unwrap_failed17h905685435080ecfeE@4HA":
.Lcfi177:
.seh_proc "?dtor$4@?0?_ZN4core6result13unwrap_failed17h905685435080ecfeE@4HA"
.LBB16_4:
	movq	%rdx, 16(%rsp)
	pushq	%rbp
.Lcfi178:
	.seh_pushreg 5
	subq	$64, %rsp
.Lcfi179:
	.seh_stackalloc 64
	leaq	128(%rdx), %rbp
.Lcfi180:
	.seh_endprologue
	.cv_loc	16 1 915 0
	addq	$64, %rsp
	popq	%rbp
	retq
.Ltmp365:
.Lfunc_end16:
	.seh_handlerdata
	.section	.text,"xr",one_only,_ZN4core6result13unwrap_failed17h905685435080ecfeE
.Lcfi181:
	.seh_endproc
	.section	.xdata,"dr",associative,_ZN4core6result13unwrap_failed17h905685435080ecfeE
	.p2align	2
$cppxdata$_ZN4core6result13unwrap_failed17h905685435080ecfeE:
	.long	429065506
	.long	1
	.long	($stateUnwindMap$_ZN4core6result13unwrap_failed17h905685435080ecfeE)@IMGREL
	.long	0
	.long	0
	.long	3
	.long	($ip2state$_ZN4core6result13unwrap_failed17h905685435080ecfeE)@IMGREL
	.long	248
	.long	0
	.long	1
$stateUnwindMap$_ZN4core6result13unwrap_failed17h905685435080ecfeE:
	.long	-1
	.long	"?dtor$4@?0?_ZN4core6result13unwrap_failed17h905685435080ecfeE@4HA"@IMGREL
$ip2state$_ZN4core6result13unwrap_failed17h905685435080ecfeE:
	.long	.Lfunc_begin16@IMGREL
	.long	-1
	.long	.Ltmp349@IMGREL+1
	.long	0
	.long	.Ltmp356@IMGREL+1
	.long	-1
	.section	.text,"xr",one_only,_ZN4core6result13unwrap_failed17h905685435080ecfeE

	.def	 _ZN4core6result13unwrap_failed17hbb317366acf99284E;
	.scl	3;
	.type	32;
	.endef
	.section	.text,"xr",one_only,_ZN4core6result13unwrap_failed17hbb317366acf99284E
	.p2align	4, 0x90
_ZN4core6result13unwrap_failed17hbb317366acf99284E:
.Lfunc_begin17:
	.cv_func_id 17
	.cv_loc	17 1 915 0
.Lcfi182:
.seh_proc _ZN4core6result13unwrap_failed17hbb317366acf99284E
	.seh_handler __CxxFrameHandler3, @unwind, @except
	pushq	%rbp
.Lcfi183:
	.seh_pushreg 5
	subq	$256, %rsp
.Lcfi184:
	.seh_stackalloc 256
	leaq	128(%rsp), %rbp
.Lcfi185:
	.seh_setframe 5, 128
.Lcfi186:
	.seh_endprologue
	movq	$-2, 120(%rbp)
	movq	%rcx, -8(%rbp)
	movq	%rdx, (%rbp)
	leaq	-8(%rbp), %rcx
.Ltmp374:
	.cv_loc	17 1 916 0
	movq	%rcx, 88(%rbp)
	movq	%r8, 96(%rbp)
	.cv_loc	17 2 1 0
	movq	88(%rbp), %rcx
	movq	%rcx, 104(%rbp)
	movq	96(%rbp), %rcx
	movq	%rcx, 112(%rbp)
.Ltmp375:
	.cv_loc	17 1 916 0
	movq	104(%rbp), %rcx
	.cv_loc	17 3 23 0
.Ltmp366:
	leaq	_ZN55_$LT$$RF$$u27$a$u20$T$u20$as$u20$core..fmt..Display$GT$3fmt17hc0258ac194701719E(%rip), %rdx
	movq	%r8, -16(%rbp)
.Ltmp376:
	callq	_ZN4core3fmt10ArgumentV13new17h3ee2d8e9c867d9a0E
.Ltmp367:
	movq	%rdx, -24(%rbp)
	movq	%rax, -32(%rbp)
	jmp	.LBB17_1
.Ltmp377:
.LBB17_1:
	movq	-32(%rbp), %rax
	movq	-24(%rbp), %rcx
	.cv_loc	17 1 916 0
	movq	112(%rbp), %rdx
	.cv_loc	17 3 23 0
.Ltmp368:
	leaq	_ZN68_$LT$sdl2..common..IntegerOrSdlError$u20$as$u20$core..fmt..Debug$GT$3fmt17h7dbd27abdf42f7d4E(%rip), %r8
	movq	%rcx, -40(%rbp)
	movq	%rdx, %rcx
	movq	%r8, %rdx
	movq	%rax, -48(%rbp)
	callq	_ZN4core3fmt10ArgumentV13new17h462a6e04f4a9fcd3E
.Ltmp369:
	movq	%rdx, -56(%rbp)
	movq	%rax, -64(%rbp)
	jmp	.LBB17_2
.Ltmp378:
.LBB17_2:
	.cv_loc	17 1 916 0
	movq	-48(%rbp), %rax
	movq	%rax, 56(%rbp)
	movq	-40(%rbp), %rcx
	movq	%rcx, 64(%rbp)
	movq	-64(%rbp), %rdx
	movq	%rdx, 72(%rbp)
	movq	-56(%rbp), %r8
	movq	%r8, 80(%rbp)
.Ltmp379:
	.cv_loc	17 3 23 0
.Ltmp370:
	leaq	ref.4(%rip), %r9
	movq	%rsp, %r10
	movq	%r9, 40(%r10)
	movq	$2, 48(%r10)
	movq	$2, 32(%r10)
	leaq	ref.3(%rip), %rdx
	movl	$2, %r11d
	movl	%r11d, %r8d
	leaq	8(%rbp), %rcx
	leaq	56(%rbp), %r9
	callq	_ZN4core3fmt9Arguments16new_v1_formatted17h647572f4005f46b4E
.Ltmp371:
	jmp	.LBB17_3
.Ltmp380:
.LBB17_3:
.Ltmp372:
	leaq	ref.7(%rip), %rdx
	leaq	8(%rbp), %rcx
	callq	_ZN4core9panicking9panic_fmt17h7459410ab2917fbeE
.Ltmp373:
	jmp	.LBB17_5
.Ltmp381:
.LBB17_5:
	ud2
.Ltmp382:
	.seh_handlerdata
	.long	($cppxdata$_ZN4core6result13unwrap_failed17hbb317366acf99284E)@IMGREL
	.section	.text,"xr",one_only,_ZN4core6result13unwrap_failed17hbb317366acf99284E
.Lcfi187:
	.seh_endproc
	.def	 "?dtor$4@?0?_ZN4core6result13unwrap_failed17hbb317366acf99284E@4HA";
	.scl	3;
	.type	32;
	.endef
	.p2align	4, 0x90
"?dtor$4@?0?_ZN4core6result13unwrap_failed17hbb317366acf99284E@4HA":
.Lcfi188:
.seh_proc "?dtor$4@?0?_ZN4core6result13unwrap_failed17hbb317366acf99284E@4HA"
.LBB17_4:
	movq	%rdx, 16(%rsp)
	pushq	%rbp
.Lcfi189:
	.seh_pushreg 5
	subq	$64, %rsp
.Lcfi190:
	.seh_stackalloc 64
	leaq	128(%rdx), %rbp
.Lcfi191:
	.seh_endprologue
	.cv_loc	17 1 917 0
	movq	-16(%rbp), %rcx
	callq	_ZN4core3ptr13drop_in_place17h977a09d21c2d5e50E
	.cv_loc	17 1 915 0
	nop
	addq	$64, %rsp
	popq	%rbp
	retq
.Ltmp383:
.Lfunc_end17:
	.seh_handlerdata
	.section	.text,"xr",one_only,_ZN4core6result13unwrap_failed17hbb317366acf99284E
.Lcfi192:
	.seh_endproc
	.section	.xdata,"dr",associative,_ZN4core6result13unwrap_failed17hbb317366acf99284E
	.p2align	2
$cppxdata$_ZN4core6result13unwrap_failed17hbb317366acf99284E:
	.long	429065506
	.long	1
	.long	($stateUnwindMap$_ZN4core6result13unwrap_failed17hbb317366acf99284E)@IMGREL
	.long	0
	.long	0
	.long	3
	.long	($ip2state$_ZN4core6result13unwrap_failed17hbb317366acf99284E)@IMGREL
	.long	248
	.long	0
	.long	1
$stateUnwindMap$_ZN4core6result13unwrap_failed17hbb317366acf99284E:
	.long	-1
	.long	"?dtor$4@?0?_ZN4core6result13unwrap_failed17hbb317366acf99284E@4HA"@IMGREL
$ip2state$_ZN4core6result13unwrap_failed17hbb317366acf99284E:
	.long	.Lfunc_begin17@IMGREL
	.long	-1
	.long	.Ltmp366@IMGREL+1
	.long	0
	.long	.Ltmp373@IMGREL+1
	.long	-1
	.section	.text,"xr",one_only,_ZN4core6result13unwrap_failed17hbb317366acf99284E

	.def	 _ZN78_$LT$core..result..Result$LT$T$C$$u20$E$GT$$u20$as$u20$core..ops..try..Try$GT$10from_error17h87acfb7d55ac37a2E;
	.scl	2;
	.type	32;
	.endef
	.section	.text,"xr",one_only,_ZN78_$LT$core..result..Result$LT$T$C$$u20$E$GT$$u20$as$u20$core..ops..try..Try$GT$10from_error17h87acfb7d55ac37a2E
	.globl	_ZN78_$LT$core..result..Result$LT$T$C$$u20$E$GT$$u20$as$u20$core..ops..try..Try$GT$10from_error17h87acfb7d55ac37a2E
	.p2align	4, 0x90
_ZN78_$LT$core..result..Result$LT$T$C$$u20$E$GT$$u20$as$u20$core..ops..try..Try$GT$10from_error17h87acfb7d55ac37a2E:
.Lfunc_begin18:
	.cv_func_id 18
	.cv_loc	18 1 1179 0
.Lcfi193:
.seh_proc _ZN78_$LT$core..result..Result$LT$T$C$$u20$E$GT$$u20$as$u20$core..ops..try..Try$GT$10from_error17h87acfb7d55ac37a2E
	pushq	%rbp
.Lcfi194:
	.seh_pushreg 5
	pushq	%rax
.Lcfi195:
	.seh_stackalloc 8
	movq	%rsp, %rbp
.Lcfi196:
	.seh_setframe 5, 0
.Lcfi197:
	.seh_endprologue
	movq	%rcx, %rax
.Ltmp384:
	.cv_loc	18 1 1180 0
	movq	$1, (%rcx)
	.cv_loc	18 1 1181 0
	addq	$8, %rsp
	popq	%rbp
	retq
.Ltmp385:
.Lfunc_end18:
	.seh_handlerdata
	.section	.text,"xr",one_only,_ZN78_$LT$core..result..Result$LT$T$C$$u20$E$GT$$u20$as$u20$core..ops..try..Try$GT$10from_error17h87acfb7d55ac37a2E
.Lcfi198:
	.seh_endproc

	.def	 _ZN78_$LT$core..result..Result$LT$T$C$$u20$E$GT$$u20$as$u20$core..ops..try..Try$GT$11into_result17h0e042b448c192fcfE;
	.scl	2;
	.type	32;
	.endef
	.section	.text,"xr",one_only,_ZN78_$LT$core..result..Result$LT$T$C$$u20$E$GT$$u20$as$u20$core..ops..try..Try$GT$11into_result17h0e042b448c192fcfE
	.globl	_ZN78_$LT$core..result..Result$LT$T$C$$u20$E$GT$$u20$as$u20$core..ops..try..Try$GT$11into_result17h0e042b448c192fcfE
	.p2align	4, 0x90
_ZN78_$LT$core..result..Result$LT$T$C$$u20$E$GT$$u20$as$u20$core..ops..try..Try$GT$11into_result17h0e042b448c192fcfE:
.Lfunc_begin19:
	.cv_func_id 19
	.cv_loc	19 1 1171 0
.Lcfi199:
.seh_proc _ZN78_$LT$core..result..Result$LT$T$C$$u20$E$GT$$u20$as$u20$core..ops..try..Try$GT$11into_result17h0e042b448c192fcfE
	pushq	%rbp
.Lcfi200:
	.seh_pushreg 5
	pushq	%rax
.Lcfi201:
	.seh_stackalloc 8
	movq	%rsp, %rbp
.Lcfi202:
	.seh_setframe 5, 0
.Lcfi203:
	.seh_endprologue
	movq	%rcx, (%rbp)
.Ltmp386:
	.cv_loc	19 1 1172 0
	movq	(%rbp), %rax
	.cv_loc	19 1 1173 0
	addq	$8, %rsp
	popq	%rbp
	retq
.Ltmp387:
.Lfunc_end19:
	.seh_handlerdata
	.section	.text,"xr",one_only,_ZN78_$LT$core..result..Result$LT$T$C$$u20$E$GT$$u20$as$u20$core..ops..try..Try$GT$11into_result17h0e042b448c192fcfE
.Lcfi204:
	.seh_endproc

	.section	.rdata,"dr",one_only,str.0
	.p2align	4
str.0:
	.ascii	"called `Result::unwrap()` on an `Err` value"

	.section	.rdata,"dr",one_only,str.1
str.1:

	.section	.rdata,"dr",one_only,str.2
str.2:
	.ascii	": "

	.section	.rdata,"dr",one_only,ref.3
	.p2align	3
ref.3:
	.quad	str.1
	.quad	0
	.quad	str.2
	.quad	2

	.section	.rdata,"dr",one_only,ref.4
	.p2align	3
ref.4:
	.quad	1
	.quad	0
	.quad	3
	.zero	8
	.quad	3
	.zero	8
	.long	32
	.long	0
	.byte	3
	.zero	7
	.quad	1
	.quad	1
	.quad	3
	.zero	8
	.quad	3
	.zero	8
	.long	32
	.long	0
	.byte	3
	.zero	7

	.section	.rdata,"dr",one_only,const.5
	.p2align	3
const.5:
	.quad	ref.4

	.section	.rdata,"dr",one_only,str.6
	.p2align	4
str.6:
	.ascii	"libcore\\result.rs"

	.section	.rdata,"dr",one_only,ref.7
	.p2align	3
ref.7:
	.quad	str.6
	.quad	17
	.long	916
	.long	5

	.section	.rdata,"dr",one_only,const.8
	.p2align	3
const.8:
	.quad	ref.7
