	.text
	.def	 _ZN4sdl23sdl14VideoSubsystem3new17hce9b0be8ea6a2fd2E;
	.scl	3;
	.type	32;
	.endef
	.section	.text,"xr",one_only,_ZN4sdl23sdl14VideoSubsystem3new17hce9b0be8ea6a2fd2E
	.p2align	4, 0x90
_ZN4sdl23sdl14VideoSubsystem3new17hce9b0be8ea6a2fd2E:
.Lfunc_begin0:
	.cv_func_id 0
	.cv_file	1 "C:\\Users\\Zack\\.cargo\\registry\\src\\github.com-1ecc6299db9ec823\\sdl2-0.30.0\\src\\sdl2\\sdl.rs"
	.cv_loc	0 1 165 0 is_stmt 0
.Lcfi0:
.seh_proc _ZN4sdl23sdl14VideoSubsystem3new17hce9b0be8ea6a2fd2E
	pushq	%rbp
.Lcfi1:
	.seh_pushreg 5
	subq	$128, %rsp
.Lcfi2:
	.seh_stackalloc 128
	leaq	128(%rsp), %rbp
.Lcfi3:
	.seh_setframe 5, 128
.Lcfi4:
	.seh_endprologue
	movq	%rcx, %rax
	movl	$32, %r8d
	movq	%rdx, -64(%rbp)
.Ltmp0:
	.cv_loc	0 1 166 0
	movq	%rcx, -72(%rbp)
	movl	%r8d, %ecx
	movq	%rax, -80(%rbp)
	callq	SDL_InitSubSystem
	movl	%eax, -52(%rbp)
.Ltmp1:
	.cv_loc	0 1 168 0
	cmpl	$0, -52(%rbp)
	jne	.LBB0_3
	.cv_loc	0 1 171 0
	movq	-64(%rbp), %rcx
	callq	_ZN61_$LT$alloc..rc..Rc$LT$T$GT$$u20$as$u20$core..clone..Clone$GT$5clone17hbee5994ca07682bcE
	movq	%rax, -88(%rbp)
	jmp	.LBB0_4
.LBB0_3:
	leaq	-24(%rbp), %rcx
	.cv_loc	0 1 176 0
	callq	_ZN4sdl23sdl9get_error17h3db0674b72dfcaa2E
	jmp	.LBB0_6
.LBB0_4:
	.cv_loc	0 1 170 0
	movq	-88(%rbp), %rax
	movq	%rax, -40(%rbp)
	movl	$32, -32(%rbp)
	movq	-40(%rbp), %rcx
	movl	-32(%rbp), %edx
	callq	_ZN31_$LT$alloc..rc..Rc$LT$T$GT$$GT$3new17h09143277ab469129E
	movq	%rax, -96(%rbp)
	.cv_loc	0 1 174 0
	movq	-96(%rbp), %rax
	movq	%rax, -48(%rbp)
	.cv_loc	0 1 169 0
	movq	-72(%rbp), %rcx
	movq	$0, (%rcx)
	movq	-48(%rbp), %rdx
	movq	%rdx, 8(%rcx)
	.cv_loc	0 1 168 0
	jmp	.LBB0_7
.LBB0_6:
	.cv_loc	0 1 176 0
	movq	-72(%rbp), %rax
	movq	$1, (%rax)
	movq	-24(%rbp), %rcx
	movq	%rcx, 8(%rax)
	movq	-16(%rbp), %rcx
	movq	%rcx, 16(%rax)
	movq	-8(%rbp), %rcx
	movq	%rcx, 24(%rax)
.Ltmp2:
.LBB0_7:
	.cv_loc	0 1 178 0
	movq	-80(%rbp), %rax
	addq	$128, %rsp
	popq	%rbp
	retq
.Ltmp3:
.Lfunc_end0:
	.seh_handlerdata
	.section	.text,"xr",one_only,_ZN4sdl23sdl14VideoSubsystem3new17hce9b0be8ea6a2fd2E
.Lcfi5:
	.seh_endproc

	.def	 _ZN4sdl23sdl3Sdl10event_pump17h620164fb717550e3E;
	.scl	2;
	.type	32;
	.endef
	.section	.text,"xr",one_only,_ZN4sdl23sdl3Sdl10event_pump17h620164fb717550e3E
	.globl	_ZN4sdl23sdl3Sdl10event_pump17h620164fb717550e3E
	.p2align	4, 0x90
_ZN4sdl23sdl3Sdl10event_pump17h620164fb717550e3E:
.Lfunc_begin1:
	.cv_func_id 1
	.cv_loc	1 1 128 0
.Lcfi6:
.seh_proc _ZN4sdl23sdl3Sdl10event_pump17h620164fb717550e3E
	pushq	%rbp
.Lcfi7:
	.seh_pushreg 5
	subq	$48, %rsp
.Lcfi8:
	.seh_stackalloc 48
	leaq	48(%rsp), %rbp
.Lcfi9:
	.seh_setframe 5, 48
.Lcfi10:
	.seh_endprologue
	movq	%rcx, %rax
	movq	%rdx, -8(%rbp)
.Ltmp4:
	.cv_loc	1 1 129 0
	movq	-8(%rbp), %rdx
	movq	%rax, -16(%rbp)
	callq	_ZN4sdl23sdl9EventPump3new17hcf03ede40f8b6e9cE
	.cv_loc	1 1 130 0
	movq	-16(%rbp), %rax
	addq	$48, %rsp
	popq	%rbp
	retq
.Ltmp5:
.Lfunc_end1:
	.seh_handlerdata
	.section	.text,"xr",one_only,_ZN4sdl23sdl3Sdl10event_pump17h620164fb717550e3E
.Lcfi11:
	.seh_endproc

	.def	 _ZN4sdl23sdl3Sdl3new17hadc6eda341a2b9e9E;
	.scl	3;
	.type	32;
	.endef
	.section	.text,"xr",one_only,_ZN4sdl23sdl3Sdl3new17hadc6eda341a2b9e9E
	.p2align	4, 0x90
_ZN4sdl23sdl3Sdl3new17hadc6eda341a2b9e9E:
.Lfunc_begin2:
	.cv_func_id 2
	.cv_loc	2 1 71 0
.Lcfi12:
.seh_proc _ZN4sdl23sdl3Sdl3new17hadc6eda341a2b9e9E
	pushq	%rbp
.Lcfi13:
	.seh_pushreg 5
	subq	$144, %rsp
.Lcfi14:
	.seh_stackalloc 144
	leaq	128(%rsp), %rbp
.Lcfi15:
	.seh_setframe 5, 128
.Lcfi16:
	.seh_endprologue
	movq	%rcx, %rax
	movq	__imp__ZN4sdl23sdl20IS_SDL_CONTEXT_ALIVE17h35014d3c24269627E(%rip), %rdx
	movl	$1, %r8d
.Ltmp6:
	.cv_loc	2 1 76 0
	movb	$0, -49(%rbp)
	movq	%rcx, -64(%rbp)
	movq	%rdx, %rcx
	movl	%r8d, %edx
	movzbl	-49(%rbp), %r8d
	movq	%rax, -72(%rbp)
	callq	_ZN4core4sync6atomic10AtomicBool4swap17h0fd9522f5dcccf9aE
	andb	$1, %al
	movb	%al, -50(%rbp)
.Ltmp7:
	.cv_loc	2 1 78 0
	testb	$1, -50(%rbp)
	je	.LBB2_3
	leaq	-48(%rbp), %rcx
	leaq	str.0(%rip), %rax
	movl	$49, %edx
	movl	%edx, %r8d
	.cv_loc	2 1 79 0
	movq	%rax, %rdx
	callq	_ZN5alloc3str56_$LT$impl$u20$alloc..borrow..ToOwned$u20$for$u20$str$GT$8to_owned17h22b98e3fb520a0c4E
	jmp	.LBB2_4
.LBB2_3:
	xorl	%ecx, %ecx
	.cv_loc	2 1 82 0
	callq	SDL_Init
	movl	%eax, -76(%rbp)
	jmp	.LBB2_5
.LBB2_4:
	.cv_loc	2 1 79 0
	movq	-64(%rbp), %rax
	movq	$1, (%rax)
	movq	-48(%rbp), %rcx
	movq	%rcx, 8(%rax)
	movq	-40(%rbp), %rcx
	movq	%rcx, 16(%rax)
	movq	-32(%rbp), %rcx
	movq	%rcx, 24(%rax)
	.cv_loc	2 1 78 0
	jmp	.LBB2_12
.LBB2_5:
	.cv_loc	2 1 82 0
	movl	-76(%rbp), %eax
	cmpl	$0, %eax
	jne	.LBB2_7
	.cv_loc	2 1 84 0
	callq	_ZN31_$LT$alloc..rc..Rc$LT$T$GT$$GT$3new17h145caeb414664dbaE
	movq	%rax, -88(%rbp)
	jmp	.LBB2_8
.LBB2_7:
	movq	__imp__ZN4sdl23sdl20IS_SDL_CONTEXT_ALIVE17h35014d3c24269627E(%rip), %rcx
	xorl	%edx, %edx
	.cv_loc	2 1 87 0
	movb	$0, -9(%rbp)
	movzbl	-9(%rbp), %r8d
	callq	_ZN4core4sync6atomic10AtomicBool4swap17h0fd9522f5dcccf9aE
	movb	%al, -89(%rbp)
	jmp	.LBB2_9
.LBB2_8:
	.cv_loc	2 1 83 0
	movq	-88(%rbp), %rax
	movq	%rax, -24(%rbp)
	movq	-64(%rbp), %rcx
	movq	$0, (%rcx)
	movq	-24(%rbp), %rdx
	movq	%rdx, 8(%rcx)
	.cv_loc	2 1 82 0
	jmp	.LBB2_11
.LBB2_9:
	leaq	-8(%rbp), %rcx
	.cv_loc	2 1 88 0
	callq	_ZN4sdl23sdl9get_error17h3db0674b72dfcaa2E
	movq	-64(%rbp), %rax
	movq	$1, (%rax)
	movq	-8(%rbp), %rcx
	movq	%rcx, 8(%rax)
	movq	(%rbp), %rcx
	movq	%rcx, 16(%rax)
	movq	8(%rbp), %rcx
	movq	%rcx, 24(%rax)
.LBB2_11:
	.cv_loc	2 1 78 0
	jmp	.LBB2_12
.Ltmp8:
.LBB2_12:
	.cv_loc	2 1 92 0
	movq	-72(%rbp), %rax
	addq	$144, %rsp
	popq	%rbp
	retq
.Ltmp9:
.Lfunc_end2:
	.seh_handlerdata
	.section	.text,"xr",one_only,_ZN4sdl23sdl3Sdl3new17hadc6eda341a2b9e9E
.Lcfi17:
	.seh_endproc

	.def	 _ZN4sdl23sdl3Sdl5video17hc0ef1d6ef7959b9cE;
	.scl	2;
	.type	32;
	.endef
	.section	.text,"xr",one_only,_ZN4sdl23sdl3Sdl5video17hc0ef1d6ef7959b9cE
	.globl	_ZN4sdl23sdl3Sdl5video17hc0ef1d6ef7959b9cE
	.p2align	4, 0x90
_ZN4sdl23sdl3Sdl5video17hc0ef1d6ef7959b9cE:
.Lfunc_begin3:
	.cv_func_id 3
	.cv_loc	3 1 120 0
.Lcfi18:
.seh_proc _ZN4sdl23sdl3Sdl5video17hc0ef1d6ef7959b9cE
	pushq	%rbp
.Lcfi19:
	.seh_pushreg 5
	subq	$48, %rsp
.Lcfi20:
	.seh_stackalloc 48
	leaq	48(%rsp), %rbp
.Lcfi21:
	.seh_setframe 5, 48
.Lcfi22:
	.seh_endprologue
	movq	%rcx, %rax
	movq	%rdx, -8(%rbp)
.Ltmp10:
	movq	-8(%rbp), %rdx
	movq	%rax, -16(%rbp)
	callq	_ZN4sdl23sdl14VideoSubsystem3new17hce9b0be8ea6a2fd2E
	movq	-16(%rbp), %rax
	addq	$48, %rsp
	popq	%rbp
	retq
.Ltmp11:
.Lfunc_end3:
	.seh_handlerdata
	.section	.text,"xr",one_only,_ZN4sdl23sdl3Sdl5video17hc0ef1d6ef7959b9cE
.Lcfi23:
	.seh_endproc

	.def	 _ZN4sdl23sdl4init17heca99781910135f2E;
	.scl	2;
	.type	32;
	.endef
	.section	.text,"xr",one_only,_ZN4sdl23sdl4init17heca99781910135f2E
	.globl	_ZN4sdl23sdl4init17heca99781910135f2E
	.p2align	4, 0x90
_ZN4sdl23sdl4init17heca99781910135f2E:
.Lfunc_begin4:
	.cv_func_id 4
	.cv_loc	4 1 313 0
.Lcfi24:
.seh_proc _ZN4sdl23sdl4init17heca99781910135f2E
	pushq	%rbp
.Lcfi25:
	.seh_pushreg 5
	subq	$48, %rsp
.Lcfi26:
	.seh_stackalloc 48
	leaq	48(%rsp), %rbp
.Lcfi27:
	.seh_setframe 5, 48
.Lcfi28:
	.seh_endprologue
	movq	%rcx, %rax
.Ltmp12:
	movq	%rax, -8(%rbp)
	callq	_ZN4sdl23sdl3Sdl3new17hadc6eda341a2b9e9E
	movq	-8(%rbp), %rax
	addq	$48, %rsp
	popq	%rbp
	retq
.Ltmp13:
.Lfunc_end4:
	.seh_handlerdata
	.section	.text,"xr",one_only,_ZN4sdl23sdl4init17heca99781910135f2E
.Lcfi29:
	.seh_endproc

	.def	 _ZN4sdl23sdl9EventPump3new17hcf03ede40f8b6e9cE;
	.scl	3;
	.type	32;
	.endef
	.section	.text,"xr",one_only,_ZN4sdl23sdl9EventPump3new17hcf03ede40f8b6e9cE
	.p2align	4, 0x90
_ZN4sdl23sdl9EventPump3new17hcf03ede40f8b6e9cE:
.Lfunc_begin5:
	.cv_func_id 5
	.cv_loc	5 1 261 0
.Lcfi30:
.seh_proc _ZN4sdl23sdl9EventPump3new17hcf03ede40f8b6e9cE
	pushq	%rbp
.Lcfi31:
	.seh_pushreg 5
	subq	$128, %rsp
.Lcfi32:
	.seh_stackalloc 128
	leaq	128(%rsp), %rbp
.Lcfi33:
	.seh_setframe 5, 128
.Lcfi34:
	.seh_endprologue
	movq	%rcx, %rax
	movq	__imp__ZN4sdl23sdl19IS_EVENT_PUMP_ALIVE17h384eedd5eaab1615E(%rip), %r8
	movq	%rdx, -72(%rbp)
.Ltmp14:
	.cv_loc	5 1 265 0
	testb	$1, (%r8)
	movq	%rax, -80(%rbp)
	movq	%rcx, -88(%rbp)
	je	.LBB5_2
	leaq	-64(%rbp), %rcx
	leaq	str.1(%rip), %rax
	movl	$94, %edx
	movl	%edx, %r8d
	.cv_loc	5 1 266 0
	movq	%rax, %rdx
	callq	_ZN5alloc3str56_$LT$impl$u20$alloc..borrow..ToOwned$u20$for$u20$str$GT$8to_owned17h22b98e3fb520a0c4E
	jmp	.LBB5_3
.LBB5_2:
	movl	$16384, %ecx
	.cv_loc	5 1 269 0
	callq	SDL_InitSubSystem
	movl	%eax, -36(%rbp)
	jmp	.LBB5_4
.LBB5_3:
	.cv_loc	5 1 266 0
	movq	-88(%rbp), %rax
	movq	$1, (%rax)
	movq	-64(%rbp), %rcx
	movq	%rcx, 8(%rax)
	movq	-56(%rbp), %rcx
	movq	%rcx, 16(%rax)
	movq	-48(%rbp), %rcx
	movq	%rcx, 24(%rax)
	.cv_loc	5 1 265 0
	jmp	.LBB5_10
.LBB5_4:
.Ltmp15:
	.cv_loc	5 1 271 0
	cmpl	$0, -36(%rbp)
	jne	.LBB5_6
	movq	__imp__ZN4sdl23sdl19IS_EVENT_PUMP_ALIVE17h384eedd5eaab1615E(%rip), %rax
	.cv_loc	5 1 272 0
	movb	$1, (%rax)
	.cv_loc	5 1 275 0
	movq	-72(%rbp), %rcx
	callq	_ZN61_$LT$alloc..rc..Rc$LT$T$GT$$u20$as$u20$core..clone..Clone$GT$5clone17hbee5994ca07682bcE
	movq	%rax, -96(%rbp)
	jmp	.LBB5_7
.LBB5_6:
	leaq	-24(%rbp), %rcx
	.cv_loc	5 1 278 0
	callq	_ZN4sdl23sdl9get_error17h3db0674b72dfcaa2E
	jmp	.LBB5_8
.LBB5_7:
	.cv_loc	5 1 274 0
	movq	-96(%rbp), %rax
	movq	%rax, -32(%rbp)
	movq	-88(%rbp), %rcx
	movq	$0, (%rcx)
	movq	-32(%rbp), %rdx
	movq	%rdx, 8(%rcx)
	.cv_loc	5 1 271 0
	jmp	.LBB5_9
.LBB5_8:
	.cv_loc	5 1 278 0
	movq	-88(%rbp), %rax
	movq	$1, (%rax)
	movq	-24(%rbp), %rcx
	movq	%rcx, 8(%rax)
	movq	-16(%rbp), %rcx
	movq	%rcx, 16(%rax)
	movq	-8(%rbp), %rcx
	movq	%rcx, 24(%rax)
.Ltmp16:
.LBB5_9:
	.cv_loc	5 1 265 0
	jmp	.LBB5_10
.Ltmp17:
.LBB5_10:
	.cv_loc	5 1 282 0
	movq	-80(%rbp), %rax
	addq	$128, %rsp
	popq	%rbp
	retq
.Ltmp18:
.Lfunc_end5:
	.seh_handlerdata
	.section	.text,"xr",one_only,_ZN4sdl23sdl9EventPump3new17hcf03ede40f8b6e9cE
.Lcfi35:
	.seh_endproc

	.def	 _ZN60_$LT$sdl2..sdl..SdlDrop$u20$as$u20$core..ops..drop..Drop$GT$4drop17he24c50f63a91e40aE;
	.scl	2;
	.type	32;
	.endef
	.section	.text,"xr",one_only,_ZN60_$LT$sdl2..sdl..SdlDrop$u20$as$u20$core..ops..drop..Drop$GT$4drop17he24c50f63a91e40aE
	.globl	_ZN60_$LT$sdl2..sdl..SdlDrop$u20$as$u20$core..ops..drop..Drop$GT$4drop17he24c50f63a91e40aE
	.p2align	4, 0x90
_ZN60_$LT$sdl2..sdl..SdlDrop$u20$as$u20$core..ops..drop..Drop$GT$4drop17he24c50f63a91e40aE:
.Lfunc_begin6:
	.cv_func_id 6
	.cv_loc	6 1 146 0
.Lcfi36:
.seh_proc _ZN60_$LT$sdl2..sdl..SdlDrop$u20$as$u20$core..ops..drop..Drop$GT$4drop17he24c50f63a91e40aE
	pushq	%rbp
.Lcfi37:
	.seh_pushreg 5
	subq	$48, %rsp
.Lcfi38:
	.seh_stackalloc 48
	leaq	48(%rsp), %rbp
.Lcfi39:
	.seh_setframe 5, 48
.Lcfi40:
	.seh_endprologue
	movq	__imp__ZN4sdl23sdl20IS_SDL_CONTEXT_ALIVE17h35014d3c24269627E(%rip), %rax
	xorl	%edx, %edx
	movq	%rcx, -16(%rbp)
.Ltmp19:
	.cv_loc	6 1 149 0
	movb	$0, -1(%rbp)
	movq	%rax, %rcx
	movzbl	-1(%rbp), %r8d
	callq	_ZN4core4sync6atomic10AtomicBool4swap17h0fd9522f5dcccf9aE
	andb	$1, %al
	movb	%al, -2(%rbp)
.Ltmp20:
	.cv_loc	6 1 150 0
	movb	-2(%rbp), %al
	.cv_file	2 "\\<assert macros>"
	.cv_loc	6 2 2 0
	xorb	$-1, %al
	testb	$1, %al
	jne	.LBB6_2
	jmp	.LBB6_3
.LBB6_2:
	.cv_file	3 "\\<panic macros>"
	.cv_loc	6 3 4 0
	movq	const.4(%rip), %r8
	.cv_loc	6 3 3 0
	leaq	str.5(%rip), %rcx
	movl	$27, %eax
	movl	%eax, %edx
	callq	_ZN3std9panicking11begin_panic17h83790f2ca815c643E
	ud2
.LBB6_3:
	.cv_loc	6 1 152 0
	callq	SDL_Quit
.Ltmp21:
	.cv_loc	6 1 153 0
	nop
	addq	$48, %rsp
	popq	%rbp
	retq
.Ltmp22:
.Lfunc_end6:
	.seh_handlerdata
	.section	.text,"xr",one_only,_ZN60_$LT$sdl2..sdl..SdlDrop$u20$as$u20$core..ops..drop..Drop$GT$4drop17he24c50f63a91e40aE
.Lcfi41:
	.seh_endproc

	.def	 _ZN62_$LT$sdl2..sdl..EventPump$u20$as$u20$core..ops..drop..Drop$GT$4drop17he2af4ca879723477E;
	.scl	2;
	.type	32;
	.endef
	.section	.text,"xr",one_only,_ZN62_$LT$sdl2..sdl..EventPump$u20$as$u20$core..ops..drop..Drop$GT$4drop17he2af4ca879723477E
	.globl	_ZN62_$LT$sdl2..sdl..EventPump$u20$as$u20$core..ops..drop..Drop$GT$4drop17he2af4ca879723477E
	.p2align	4, 0x90
_ZN62_$LT$sdl2..sdl..EventPump$u20$as$u20$core..ops..drop..Drop$GT$4drop17he2af4ca879723477E:
.Lfunc_begin7:
	.cv_func_id 7
	.cv_loc	7 1 287 0
.Lcfi42:
.seh_proc _ZN62_$LT$sdl2..sdl..EventPump$u20$as$u20$core..ops..drop..Drop$GT$4drop17he2af4ca879723477E
	pushq	%rbp
.Lcfi43:
	.seh_pushreg 5
	subq	$48, %rsp
.Lcfi44:
	.seh_stackalloc 48
	leaq	48(%rsp), %rbp
.Lcfi45:
	.seh_setframe 5, 48
.Lcfi46:
	.seh_endprologue
	movq	__imp__ZN4sdl23sdl19IS_EVENT_PUMP_ALIVE17h384eedd5eaab1615E(%rip), %rax
	movq	%rcx, -8(%rbp)
.Ltmp23:
	.cv_loc	7 1 291 0
	movb	(%rax), %dl
	.cv_loc	7 2 2 0
	xorb	$-1, %dl
	testb	$1, %dl
	jne	.LBB7_1
	jmp	.LBB7_2
.LBB7_1:
	.cv_loc	7 3 4 0
	movq	const.7(%rip), %r8
	.cv_loc	7 3 3 0
	leaq	str.8(%rip), %rcx
	movl	$37, %eax
	movl	%eax, %edx
	callq	_ZN3std9panicking11begin_panic17h83790f2ca815c643E
	ud2
.LBB7_2:
	movl	$16384, %ecx
	.cv_loc	7 1 292 0
	callq	SDL_QuitSubSystem
	movq	__imp__ZN4sdl23sdl19IS_EVENT_PUMP_ALIVE17h384eedd5eaab1615E(%rip), %rax
	.cv_loc	7 1 293 0
	movb	$0, (%rax)
.Ltmp24:
	.cv_loc	7 1 295 0
	addq	$48, %rsp
	popq	%rbp
	retq
.Ltmp25:
.Lfunc_end7:
	.seh_handlerdata
	.section	.text,"xr",one_only,_ZN62_$LT$sdl2..sdl..EventPump$u20$as$u20$core..ops..drop..Drop$GT$4drop17he2af4ca879723477E
.Lcfi47:
	.seh_endproc

	.def	 _ZN66_$LT$sdl2..sdl..SubsystemDrop$u20$as$u20$core..ops..drop..Drop$GT$4drop17ha86ce46b2826d077E;
	.scl	2;
	.type	32;
	.endef
	.section	.text,"xr",one_only,_ZN66_$LT$sdl2..sdl..SubsystemDrop$u20$as$u20$core..ops..drop..Drop$GT$4drop17ha86ce46b2826d077E
	.globl	_ZN66_$LT$sdl2..sdl..SubsystemDrop$u20$as$u20$core..ops..drop..Drop$GT$4drop17ha86ce46b2826d077E
	.p2align	4, 0x90
_ZN66_$LT$sdl2..sdl..SubsystemDrop$u20$as$u20$core..ops..drop..Drop$GT$4drop17ha86ce46b2826d077E:
.Lfunc_begin8:
	.cv_func_id 8
	.cv_loc	8 1 236 0
.Lcfi48:
.seh_proc _ZN66_$LT$sdl2..sdl..SubsystemDrop$u20$as$u20$core..ops..drop..Drop$GT$4drop17ha86ce46b2826d077E
	pushq	%rbp
.Lcfi49:
	.seh_pushreg 5
	subq	$48, %rsp
.Lcfi50:
	.seh_stackalloc 48
	leaq	48(%rsp), %rbp
.Lcfi51:
	.seh_setframe 5, 48
.Lcfi52:
	.seh_endprologue
	movq	%rcx, -8(%rbp)
.Ltmp26:
	.cv_loc	8 1 237 0
	movq	-8(%rbp), %rcx
	movl	8(%rcx), %ecx
	callq	SDL_QuitSubSystem
.Ltmp27:
	.cv_loc	8 1 238 0
	nop
	addq	$48, %rsp
	popq	%rbp
	retq
.Ltmp28:
.Lfunc_end8:
	.seh_handlerdata
	.section	.text,"xr",one_only,_ZN66_$LT$sdl2..sdl..SubsystemDrop$u20$as$u20$core..ops..drop..Drop$GT$4drop17ha86ce46b2826d077E
.Lcfi53:
	.seh_endproc

	.section	.rdata,"dr",one_only,str.0
	.p2align	4
str.0:
	.ascii	"Cannot initialize `Sdl` more than once at a time."

	.section	.rdata,"dr",one_only,str.1
	.p2align	4
str.1:
	.ascii	"an `EventPump` instance is already alive - there can only be one `EventPump` in use at a time."

	.section	.rdata,"dr",one_only,str.2
	.p2align	4
str.2:
	.ascii	"C:\\Users\\Zack\\.cargo\\registry\\src\\github.com-1ecc6299db9ec823\\sdl2-0.30.0\\src/sdl2\\sdl.rs"

	.section	.rdata,"dr",one_only,ref.3
	.p2align	3
ref.3:
	.quad	str.2
	.quad	89
	.long	150
	.long	9

	.section	.rdata,"dr",one_only,const.4
	.p2align	3
const.4:
	.quad	ref.3

	.section	.rdata,"dr",one_only,str.5
	.p2align	4
str.5:
	.ascii	"assertion failed: was_alive"

	.section	.rdata,"dr",one_only,ref.6
	.p2align	3
ref.6:
	.quad	str.2
	.quad	89
	.long	291
	.long	13

	.section	.rdata,"dr",one_only,const.7
	.p2align	3
const.7:
	.quad	ref.6

	.section	.rdata,"dr",one_only,str.8
	.p2align	4
str.8:
	.ascii	"assertion failed: IS_EVENT_PUMP_ALIVE"
