	.text
	.def	 _ZN40_$LT$alloc..raw_vec..RawVec$LT$T$GT$$GT$14from_raw_parts17h17a3ca9d469cb2bbE;
	.scl	2;
	.type	32;
	.endef
	.section	.text,"xr",one_only,_ZN40_$LT$alloc..raw_vec..RawVec$LT$T$GT$$GT$14from_raw_parts17h17a3ca9d469cb2bbE
	.globl	_ZN40_$LT$alloc..raw_vec..RawVec$LT$T$GT$$GT$14from_raw_parts17h17a3ca9d469cb2bbE
	.p2align	4, 0x90
_ZN40_$LT$alloc..raw_vec..RawVec$LT$T$GT$$GT$14from_raw_parts17h17a3ca9d469cb2bbE:
.Lfunc_begin0:
	.cv_func_id 0
	.cv_file	1 "C:\\projects\\rust\\src\\liballoc\\raw_vec.rs"
	.cv_loc	0 1 176 0 is_stmt 0
.Lcfi0:
.seh_proc _ZN40_$LT$alloc..raw_vec..RawVec$LT$T$GT$$GT$14from_raw_parts17h17a3ca9d469cb2bbE
	pushq	%rbp
.Lcfi1:
	.seh_pushreg 5
	subq	$80, %rsp
.Lcfi2:
	.seh_stackalloc 80
	leaq	80(%rsp), %rbp
.Lcfi3:
	.seh_setframe 5, 80
.Lcfi4:
	.seh_endprologue
	movq	%rcx, -32(%rbp)
	movq	%rdx, -24(%rbp)
.Ltmp0:
	.cv_loc	0 1 178 0
	movq	-32(%rbp), %rcx
	callq	_ZN35_$LT$core..ptr..Unique$LT$T$GT$$GT$13new_unchecked17hee585a94cf410bf2E
	movq	%rax, -40(%rbp)
	.cv_loc	0 1 179 0
	movq	-24(%rbp), %rax
	.cv_loc	0 1 177 0
	movq	-40(%rbp), %rcx
	movq	%rcx, -16(%rbp)
	movq	%rax, -8(%rbp)
	.cv_loc	0 1 182 0
	movq	-16(%rbp), %rax
	movq	-8(%rbp), %rdx
	addq	$80, %rsp
	popq	%rbp
	retq
.Ltmp1:
.Lfunc_end0:
	.seh_handlerdata
	.section	.text,"xr",one_only,_ZN40_$LT$alloc..raw_vec..RawVec$LT$T$GT$$GT$14from_raw_parts17h17a3ca9d469cb2bbE
.Lcfi5:
	.seh_endproc

	.def	 _ZN40_$LT$alloc..raw_vec..RawVec$LT$T$GT$$GT$14from_raw_parts17h3c49b2463e8f6f23E;
	.scl	2;
	.type	32;
	.endef
	.section	.text,"xr",one_only,_ZN40_$LT$alloc..raw_vec..RawVec$LT$T$GT$$GT$14from_raw_parts17h3c49b2463e8f6f23E
	.globl	_ZN40_$LT$alloc..raw_vec..RawVec$LT$T$GT$$GT$14from_raw_parts17h3c49b2463e8f6f23E
	.p2align	4, 0x90
_ZN40_$LT$alloc..raw_vec..RawVec$LT$T$GT$$GT$14from_raw_parts17h3c49b2463e8f6f23E:
.Lfunc_begin1:
	.cv_func_id 1
	.cv_loc	1 1 176 0
.Lcfi6:
.seh_proc _ZN40_$LT$alloc..raw_vec..RawVec$LT$T$GT$$GT$14from_raw_parts17h3c49b2463e8f6f23E
	pushq	%rbp
.Lcfi7:
	.seh_pushreg 5
	subq	$80, %rsp
.Lcfi8:
	.seh_stackalloc 80
	leaq	80(%rsp), %rbp
.Lcfi9:
	.seh_setframe 5, 80
.Lcfi10:
	.seh_endprologue
	movq	%rcx, -32(%rbp)
	movq	%rdx, -24(%rbp)
.Ltmp2:
	.cv_loc	1 1 178 0
	movq	-32(%rbp), %rcx
	callq	_ZN35_$LT$core..ptr..Unique$LT$T$GT$$GT$13new_unchecked17h5c77a5dcbcad0691E
	movq	%rax, -40(%rbp)
	.cv_loc	1 1 179 0
	movq	-24(%rbp), %rax
	.cv_loc	1 1 177 0
	movq	-40(%rbp), %rcx
	movq	%rcx, -16(%rbp)
	movq	%rax, -8(%rbp)
	.cv_loc	1 1 182 0
	movq	-16(%rbp), %rax
	movq	-8(%rbp), %rdx
	addq	$80, %rsp
	popq	%rbp
	retq
.Ltmp3:
.Lfunc_end1:
	.seh_handlerdata
	.section	.text,"xr",one_only,_ZN40_$LT$alloc..raw_vec..RawVec$LT$T$GT$$GT$14from_raw_parts17h3c49b2463e8f6f23E
.Lcfi11:
	.seh_endproc

	.def	 _ZN40_$LT$alloc..raw_vec..RawVec$LT$T$GT$$GT$14from_raw_parts17h614c59c7de39fda2E;
	.scl	2;
	.type	32;
	.endef
	.section	.text,"xr",one_only,_ZN40_$LT$alloc..raw_vec..RawVec$LT$T$GT$$GT$14from_raw_parts17h614c59c7de39fda2E
	.globl	_ZN40_$LT$alloc..raw_vec..RawVec$LT$T$GT$$GT$14from_raw_parts17h614c59c7de39fda2E
	.p2align	4, 0x90
_ZN40_$LT$alloc..raw_vec..RawVec$LT$T$GT$$GT$14from_raw_parts17h614c59c7de39fda2E:
.Lfunc_begin2:
	.cv_func_id 2
	.cv_loc	2 1 176 0
.Lcfi12:
.seh_proc _ZN40_$LT$alloc..raw_vec..RawVec$LT$T$GT$$GT$14from_raw_parts17h614c59c7de39fda2E
	pushq	%rbp
.Lcfi13:
	.seh_pushreg 5
	subq	$80, %rsp
.Lcfi14:
	.seh_stackalloc 80
	leaq	80(%rsp), %rbp
.Lcfi15:
	.seh_setframe 5, 80
.Lcfi16:
	.seh_endprologue
	movq	%rcx, -32(%rbp)
	movq	%rdx, -24(%rbp)
.Ltmp4:
	.cv_loc	2 1 178 0
	movq	-32(%rbp), %rcx
	callq	_ZN35_$LT$core..ptr..Unique$LT$T$GT$$GT$13new_unchecked17h9ab81edf380fb13cE
	movq	%rax, -40(%rbp)
	.cv_loc	2 1 179 0
	movq	-24(%rbp), %rax
	.cv_loc	2 1 177 0
	movq	-40(%rbp), %rcx
	movq	%rcx, -16(%rbp)
	movq	%rax, -8(%rbp)
	.cv_loc	2 1 182 0
	movq	-16(%rbp), %rax
	movq	-8(%rbp), %rdx
	addq	$80, %rsp
	popq	%rbp
	retq
.Ltmp5:
.Lfunc_end2:
	.seh_handlerdata
	.section	.text,"xr",one_only,_ZN40_$LT$alloc..raw_vec..RawVec$LT$T$GT$$GT$14from_raw_parts17h614c59c7de39fda2E
.Lcfi17:
	.seh_endproc

	.def	 _ZN49_$LT$alloc..raw_vec..RawVec$LT$T$C$$u20$A$GT$$GT$14current_layout17h092dd06ba5ff7667E;
	.scl	3;
	.type	32;
	.endef
	.section	.text,"xr",one_only,_ZN49_$LT$alloc..raw_vec..RawVec$LT$T$C$$u20$A$GT$$GT$14current_layout17h092dd06ba5ff7667E
	.p2align	4, 0x90
_ZN49_$LT$alloc..raw_vec..RawVec$LT$T$C$$u20$A$GT$$GT$14current_layout17h092dd06ba5ff7667E:
.Lfunc_begin3:
	.cv_func_id 3
	.cv_loc	3 1 224 0
.Lcfi18:
.seh_proc _ZN49_$LT$alloc..raw_vec..RawVec$LT$T$C$$u20$A$GT$$GT$14current_layout17h092dd06ba5ff7667E
	pushq	%rbp
.Lcfi19:
	.seh_pushreg 5
	subq	$96, %rsp
.Lcfi20:
	.seh_stackalloc 96
	leaq	96(%rsp), %rbp
.Lcfi21:
	.seh_setframe 5, 96
.Lcfi22:
	.seh_endprologue
	movq	%rcx, %rax
	movq	%rdx, -24(%rbp)
.Ltmp6:
	.cv_loc	3 1 225 0
	movq	-24(%rbp), %rdx
	cmpq	$0, 8(%rdx)
	movq	%rax, -32(%rbp)
	movq	%rcx, -40(%rbp)
	jne	.LBB3_2
	.cv_loc	3 1 226 0
	movq	-40(%rbp), %rax
	movq	$0, (%rax)
	.cv_loc	3 1 225 0
	jmp	.LBB3_6
.LBB3_2:
.Ltmp7:
	.cv_loc	3 1 231 0
	callq	_ZN4core3mem8align_of17h9de3dea7d905b69aE
	movq	%rax, -16(%rbp)
.Ltmp8:
	.cv_loc	3 1 232 0
	callq	_ZN4core3mem7size_of17h164ff08c8f7ba06dE
	movq	%rax, -48(%rbp)
	movq	-24(%rbp), %rax
	movq	-48(%rbp), %rcx
	imulq	8(%rax), %rcx
	movq	%rcx, -8(%rbp)
.Ltmp9:
	.cv_loc	3 1 233 0
	movq	-8(%rbp), %rcx
	movq	-16(%rbp), %rdx
	callq	_ZN5alloc9allocator6Layout25from_size_align_unchecked17h34ef790e2b9f779dE
	movq	%rax, -56(%rbp)
	movq	%rdx, -64(%rbp)
	movq	-40(%rbp), %rax
	movq	$1, (%rax)
	movq	-56(%rbp), %rcx
	movq	%rcx, 8(%rax)
	movq	-64(%rbp), %rdx
	movq	%rdx, 16(%rax)
.Ltmp10:
.LBB3_6:
	.cv_loc	3 1 236 0
	movq	-32(%rbp), %rax
	addq	$96, %rsp
	popq	%rbp
	retq
.Ltmp11:
.Lfunc_end3:
	.seh_handlerdata
	.section	.text,"xr",one_only,_ZN49_$LT$alloc..raw_vec..RawVec$LT$T$C$$u20$A$GT$$GT$14current_layout17h092dd06ba5ff7667E
.Lcfi23:
	.seh_endproc

	.def	 _ZN49_$LT$alloc..raw_vec..RawVec$LT$T$C$$u20$A$GT$$GT$14current_layout17h25363e8cff69aa5bE;
	.scl	3;
	.type	32;
	.endef
	.section	.text,"xr",one_only,_ZN49_$LT$alloc..raw_vec..RawVec$LT$T$C$$u20$A$GT$$GT$14current_layout17h25363e8cff69aa5bE
	.p2align	4, 0x90
_ZN49_$LT$alloc..raw_vec..RawVec$LT$T$C$$u20$A$GT$$GT$14current_layout17h25363e8cff69aa5bE:
.Lfunc_begin4:
	.cv_func_id 4
	.cv_loc	4 1 224 0
.Lcfi24:
.seh_proc _ZN49_$LT$alloc..raw_vec..RawVec$LT$T$C$$u20$A$GT$$GT$14current_layout17h25363e8cff69aa5bE
	pushq	%rbp
.Lcfi25:
	.seh_pushreg 5
	subq	$96, %rsp
.Lcfi26:
	.seh_stackalloc 96
	leaq	96(%rsp), %rbp
.Lcfi27:
	.seh_setframe 5, 96
.Lcfi28:
	.seh_endprologue
	movq	%rcx, %rax
	movq	%rdx, -24(%rbp)
.Ltmp12:
	.cv_loc	4 1 225 0
	movq	-24(%rbp), %rdx
	cmpq	$0, 8(%rdx)
	movq	%rax, -32(%rbp)
	movq	%rcx, -40(%rbp)
	jne	.LBB4_2
	.cv_loc	4 1 226 0
	movq	-40(%rbp), %rax
	movq	$0, (%rax)
	.cv_loc	4 1 225 0
	jmp	.LBB4_6
.LBB4_2:
.Ltmp13:
	.cv_loc	4 1 231 0
	callq	_ZN4core3mem8align_of17h860b71e7528cdffbE
	movq	%rax, -16(%rbp)
.Ltmp14:
	.cv_loc	4 1 232 0
	callq	_ZN4core3mem7size_of17h524daf7c1fc564fcE
	movq	%rax, -48(%rbp)
	movq	-24(%rbp), %rax
	movq	-48(%rbp), %rcx
	imulq	8(%rax), %rcx
	movq	%rcx, -8(%rbp)
.Ltmp15:
	.cv_loc	4 1 233 0
	movq	-8(%rbp), %rcx
	movq	-16(%rbp), %rdx
	callq	_ZN5alloc9allocator6Layout25from_size_align_unchecked17h34ef790e2b9f779dE
	movq	%rax, -56(%rbp)
	movq	%rdx, -64(%rbp)
	movq	-40(%rbp), %rax
	movq	$1, (%rax)
	movq	-56(%rbp), %rcx
	movq	%rcx, 8(%rax)
	movq	-64(%rbp), %rdx
	movq	%rdx, 16(%rax)
.Ltmp16:
.LBB4_6:
	.cv_loc	4 1 236 0
	movq	-32(%rbp), %rax
	addq	$96, %rsp
	popq	%rbp
	retq
.Ltmp17:
.Lfunc_end4:
	.seh_handlerdata
	.section	.text,"xr",one_only,_ZN49_$LT$alloc..raw_vec..RawVec$LT$T$C$$u20$A$GT$$GT$14current_layout17h25363e8cff69aa5bE
.Lcfi29:
	.seh_endproc

	.def	 _ZN49_$LT$alloc..raw_vec..RawVec$LT$T$C$$u20$A$GT$$GT$14current_layout17h3626975b45b329a4E;
	.scl	3;
	.type	32;
	.endef
	.section	.text,"xr",one_only,_ZN49_$LT$alloc..raw_vec..RawVec$LT$T$C$$u20$A$GT$$GT$14current_layout17h3626975b45b329a4E
	.p2align	4, 0x90
_ZN49_$LT$alloc..raw_vec..RawVec$LT$T$C$$u20$A$GT$$GT$14current_layout17h3626975b45b329a4E:
.Lfunc_begin5:
	.cv_func_id 5
	.cv_loc	5 1 224 0
.Lcfi30:
.seh_proc _ZN49_$LT$alloc..raw_vec..RawVec$LT$T$C$$u20$A$GT$$GT$14current_layout17h3626975b45b329a4E
	pushq	%rbp
.Lcfi31:
	.seh_pushreg 5
	subq	$96, %rsp
.Lcfi32:
	.seh_stackalloc 96
	leaq	96(%rsp), %rbp
.Lcfi33:
	.seh_setframe 5, 96
.Lcfi34:
	.seh_endprologue
	movq	%rcx, %rax
	movq	%rdx, -24(%rbp)
.Ltmp18:
	.cv_loc	5 1 225 0
	movq	-24(%rbp), %rdx
	cmpq	$0, 8(%rdx)
	movq	%rax, -32(%rbp)
	movq	%rcx, -40(%rbp)
	jne	.LBB5_2
	.cv_loc	5 1 226 0
	movq	-40(%rbp), %rax
	movq	$0, (%rax)
	.cv_loc	5 1 225 0
	jmp	.LBB5_6
.LBB5_2:
.Ltmp19:
	.cv_loc	5 1 231 0
	callq	_ZN4core3mem8align_of17hfb6e9a6ade20c9baE
	movq	%rax, -16(%rbp)
.Ltmp20:
	.cv_loc	5 1 232 0
	callq	_ZN4core3mem7size_of17h3229ec5c83280b08E
	movq	%rax, -48(%rbp)
	movq	-24(%rbp), %rax
	movq	-48(%rbp), %rcx
	imulq	8(%rax), %rcx
	movq	%rcx, -8(%rbp)
.Ltmp21:
	.cv_loc	5 1 233 0
	movq	-8(%rbp), %rcx
	movq	-16(%rbp), %rdx
	callq	_ZN5alloc9allocator6Layout25from_size_align_unchecked17h34ef790e2b9f779dE
	movq	%rax, -56(%rbp)
	movq	%rdx, -64(%rbp)
	movq	-40(%rbp), %rax
	movq	$1, (%rax)
	movq	-56(%rbp), %rcx
	movq	%rcx, 8(%rax)
	movq	-64(%rbp), %rdx
	movq	%rdx, 16(%rax)
.Ltmp22:
.LBB5_6:
	.cv_loc	5 1 236 0
	movq	-32(%rbp), %rax
	addq	$96, %rsp
	popq	%rbp
	retq
.Ltmp23:
.Lfunc_end5:
	.seh_handlerdata
	.section	.text,"xr",one_only,_ZN49_$LT$alloc..raw_vec..RawVec$LT$T$C$$u20$A$GT$$GT$14current_layout17h3626975b45b329a4E
.Lcfi35:
	.seh_endproc

	.def	 _ZN49_$LT$alloc..raw_vec..RawVec$LT$T$C$$u20$A$GT$$GT$14current_layout17ha3d805d67cd79e66E;
	.scl	3;
	.type	32;
	.endef
	.section	.text,"xr",one_only,_ZN49_$LT$alloc..raw_vec..RawVec$LT$T$C$$u20$A$GT$$GT$14current_layout17ha3d805d67cd79e66E
	.p2align	4, 0x90
_ZN49_$LT$alloc..raw_vec..RawVec$LT$T$C$$u20$A$GT$$GT$14current_layout17ha3d805d67cd79e66E:
.Lfunc_begin6:
	.cv_func_id 6
	.cv_loc	6 1 224 0
.Lcfi36:
.seh_proc _ZN49_$LT$alloc..raw_vec..RawVec$LT$T$C$$u20$A$GT$$GT$14current_layout17ha3d805d67cd79e66E
	pushq	%rbp
.Lcfi37:
	.seh_pushreg 5
	subq	$96, %rsp
.Lcfi38:
	.seh_stackalloc 96
	leaq	96(%rsp), %rbp
.Lcfi39:
	.seh_setframe 5, 96
.Lcfi40:
	.seh_endprologue
	movq	%rcx, %rax
	movq	%rdx, -24(%rbp)
.Ltmp24:
	.cv_loc	6 1 225 0
	movq	-24(%rbp), %rdx
	cmpq	$0, 8(%rdx)
	movq	%rax, -32(%rbp)
	movq	%rcx, -40(%rbp)
	jne	.LBB6_2
	.cv_loc	6 1 226 0
	movq	-40(%rbp), %rax
	movq	$0, (%rax)
	.cv_loc	6 1 225 0
	jmp	.LBB6_6
.LBB6_2:
.Ltmp25:
	.cv_loc	6 1 231 0
	callq	_ZN4core3mem8align_of17h5905c3cea54f5852E
	movq	%rax, -16(%rbp)
.Ltmp26:
	.cv_loc	6 1 232 0
	callq	_ZN4core3mem7size_of17hd8a26aa1a7c89af2E
	movq	%rax, -48(%rbp)
	movq	-24(%rbp), %rax
	movq	-48(%rbp), %rcx
	imulq	8(%rax), %rcx
	movq	%rcx, -8(%rbp)
.Ltmp27:
	.cv_loc	6 1 233 0
	movq	-8(%rbp), %rcx
	movq	-16(%rbp), %rdx
	callq	_ZN5alloc9allocator6Layout25from_size_align_unchecked17h34ef790e2b9f779dE
	movq	%rax, -56(%rbp)
	movq	%rdx, -64(%rbp)
	movq	-40(%rbp), %rax
	movq	$1, (%rax)
	movq	-56(%rbp), %rcx
	movq	%rcx, 8(%rax)
	movq	-64(%rbp), %rdx
	movq	%rdx, 16(%rax)
.Ltmp28:
.LBB6_6:
	.cv_loc	6 1 236 0
	movq	-32(%rbp), %rax
	addq	$96, %rsp
	popq	%rbp
	retq
.Ltmp29:
.Lfunc_end6:
	.seh_handlerdata
	.section	.text,"xr",one_only,_ZN49_$LT$alloc..raw_vec..RawVec$LT$T$C$$u20$A$GT$$GT$14current_layout17ha3d805d67cd79e66E
.Lcfi41:
	.seh_endproc

	.def	 _ZN49_$LT$alloc..raw_vec..RawVec$LT$T$C$$u20$A$GT$$GT$14current_layout17hd42a795d5c6e7cefE;
	.scl	3;
	.type	32;
	.endef
	.section	.text,"xr",one_only,_ZN49_$LT$alloc..raw_vec..RawVec$LT$T$C$$u20$A$GT$$GT$14current_layout17hd42a795d5c6e7cefE
	.p2align	4, 0x90
_ZN49_$LT$alloc..raw_vec..RawVec$LT$T$C$$u20$A$GT$$GT$14current_layout17hd42a795d5c6e7cefE:
.Lfunc_begin7:
	.cv_func_id 7
	.cv_loc	7 1 224 0
.Lcfi42:
.seh_proc _ZN49_$LT$alloc..raw_vec..RawVec$LT$T$C$$u20$A$GT$$GT$14current_layout17hd42a795d5c6e7cefE
	pushq	%rbp
.Lcfi43:
	.seh_pushreg 5
	subq	$96, %rsp
.Lcfi44:
	.seh_stackalloc 96
	leaq	96(%rsp), %rbp
.Lcfi45:
	.seh_setframe 5, 96
.Lcfi46:
	.seh_endprologue
	movq	%rcx, %rax
	movq	%rdx, -24(%rbp)
.Ltmp30:
	.cv_loc	7 1 225 0
	movq	-24(%rbp), %rdx
	cmpq	$0, 8(%rdx)
	movq	%rax, -32(%rbp)
	movq	%rcx, -40(%rbp)
	jne	.LBB7_2
	.cv_loc	7 1 226 0
	movq	-40(%rbp), %rax
	movq	$0, (%rax)
	.cv_loc	7 1 225 0
	jmp	.LBB7_6
.LBB7_2:
.Ltmp31:
	.cv_loc	7 1 231 0
	callq	_ZN4core3mem8align_of17h8f131fa2a611e97aE
	movq	%rax, -16(%rbp)
.Ltmp32:
	.cv_loc	7 1 232 0
	callq	_ZN4core3mem7size_of17hcc9d39a977f63b01E
	movq	%rax, -48(%rbp)
	movq	-24(%rbp), %rax
	movq	-48(%rbp), %rcx
	imulq	8(%rax), %rcx
	movq	%rcx, -8(%rbp)
.Ltmp33:
	.cv_loc	7 1 233 0
	movq	-8(%rbp), %rcx
	movq	-16(%rbp), %rdx
	callq	_ZN5alloc9allocator6Layout25from_size_align_unchecked17h34ef790e2b9f779dE
	movq	%rax, -56(%rbp)
	movq	%rdx, -64(%rbp)
	movq	-40(%rbp), %rax
	movq	$1, (%rax)
	movq	-56(%rbp), %rcx
	movq	%rcx, 8(%rax)
	movq	-64(%rbp), %rdx
	movq	%rdx, 16(%rax)
.Ltmp34:
.LBB7_6:
	.cv_loc	7 1 236 0
	movq	-32(%rbp), %rax
	addq	$96, %rsp
	popq	%rbp
	retq
.Ltmp35:
.Lfunc_end7:
	.seh_handlerdata
	.section	.text,"xr",one_only,_ZN49_$LT$alloc..raw_vec..RawVec$LT$T$C$$u20$A$GT$$GT$14current_layout17hd42a795d5c6e7cefE
.Lcfi47:
	.seh_endproc

	.def	 _ZN49_$LT$alloc..raw_vec..RawVec$LT$T$C$$u20$A$GT$$GT$14dealloc_buffer17h00bde87347a5d5baE;
	.scl	3;
	.type	32;
	.endef
	.section	.text,"xr",one_only,_ZN49_$LT$alloc..raw_vec..RawVec$LT$T$C$$u20$A$GT$$GT$14dealloc_buffer17h00bde87347a5d5baE
	.p2align	4, 0x90
_ZN49_$LT$alloc..raw_vec..RawVec$LT$T$C$$u20$A$GT$$GT$14dealloc_buffer17h00bde87347a5d5baE:
.Lfunc_begin8:
	.cv_func_id 8
	.cv_loc	8 1 682 0
.Lcfi48:
.seh_proc _ZN49_$LT$alloc..raw_vec..RawVec$LT$T$C$$u20$A$GT$$GT$14dealloc_buffer17h00bde87347a5d5baE
	pushq	%rbp
.Lcfi49:
	.seh_pushreg 5
	subq	$128, %rsp
.Lcfi50:
	.seh_stackalloc 128
	leaq	128(%rsp), %rbp
.Lcfi51:
	.seh_setframe 5, 128
.Lcfi52:
	.seh_endprologue
	movq	%rcx, -72(%rbp)
.Ltmp36:
	.cv_loc	8 1 683 0
	callq	_ZN4core3mem7size_of17h3229ec5c83280b08E
	movq	%rax, -56(%rbp)
.Ltmp37:
	.cv_loc	8 1 684 0
	cmpq	$0, -56(%rbp)
	je	.LBB8_3
	leaq	-48(%rbp), %rcx
	.cv_loc	8 1 685 0
	movq	-72(%rbp), %rdx
	callq	_ZN49_$LT$alloc..raw_vec..RawVec$LT$T$C$$u20$A$GT$$GT$14current_layout17h3626975b45b329a4E
	jmp	.LBB8_4
.LBB8_3:
	.cv_loc	8 1 684 0
	jmp	.LBB8_10
.LBB8_4:
	.cv_loc	8 1 685 0
	movq	-48(%rbp), %rax
	subq	$1, %rax
	movq	%rax, -80(%rbp)
	je	.LBB8_6
	jmp	.LBB8_5
.LBB8_5:
	jmp	.LBB8_7
.LBB8_6:
	movq	-40(%rbp), %rax
	movq	-32(%rbp), %rcx
	movq	%rax, -24(%rbp)
	movq	%rcx, -16(%rbp)
.Ltmp38:
	.cv_loc	8 1 686 0
	movq	-72(%rbp), %rcx
	callq	_ZN49_$LT$alloc..raw_vec..RawVec$LT$T$C$$u20$A$GT$$GT$3ptr17hb4ef6da65c829610E
	movq	%rax, -88(%rbp)
	jmp	.LBB8_8
.Ltmp39:
.LBB8_7:
	.cv_loc	8 1 684 0
	jmp	.LBB8_10
.LBB8_8:
.Ltmp40:
	.cv_loc	8 1 686 0
	movq	-88(%rbp), %rax
	movq	%rax, -8(%rbp)
.Ltmp41:
	.cv_loc	8 1 687 0
	movq	-72(%rbp), %rax
	movq	-8(%rbp), %rdx
	movq	-24(%rbp), %r8
	movq	-16(%rbp), %r9
	movq	%rax, %rcx
	callq	_ZN61_$LT$alloc..heap..Heap$u20$as$u20$alloc..allocator..Alloc$GT$7dealloc17h64d7aec95d22a4e9E
.Ltmp42:
	.cv_loc	8 1 685 0
	jmp	.LBB8_7
.Ltmp43:
.LBB8_10:
	.cv_loc	8 1 690 0
	addq	$128, %rsp
	popq	%rbp
	retq
.Ltmp44:
.Lfunc_end8:
	.seh_handlerdata
	.section	.text,"xr",one_only,_ZN49_$LT$alloc..raw_vec..RawVec$LT$T$C$$u20$A$GT$$GT$14dealloc_buffer17h00bde87347a5d5baE
.Lcfi53:
	.seh_endproc

	.def	 _ZN49_$LT$alloc..raw_vec..RawVec$LT$T$C$$u20$A$GT$$GT$14dealloc_buffer17h116dc68f076543a4E;
	.scl	3;
	.type	32;
	.endef
	.section	.text,"xr",one_only,_ZN49_$LT$alloc..raw_vec..RawVec$LT$T$C$$u20$A$GT$$GT$14dealloc_buffer17h116dc68f076543a4E
	.p2align	4, 0x90
_ZN49_$LT$alloc..raw_vec..RawVec$LT$T$C$$u20$A$GT$$GT$14dealloc_buffer17h116dc68f076543a4E:
.Lfunc_begin9:
	.cv_func_id 9
	.cv_loc	9 1 682 0
.Lcfi54:
.seh_proc _ZN49_$LT$alloc..raw_vec..RawVec$LT$T$C$$u20$A$GT$$GT$14dealloc_buffer17h116dc68f076543a4E
	pushq	%rbp
.Lcfi55:
	.seh_pushreg 5
	subq	$128, %rsp
.Lcfi56:
	.seh_stackalloc 128
	leaq	128(%rsp), %rbp
.Lcfi57:
	.seh_setframe 5, 128
.Lcfi58:
	.seh_endprologue
	movq	%rcx, -72(%rbp)
.Ltmp45:
	.cv_loc	9 1 683 0
	callq	_ZN4core3mem7size_of17h524daf7c1fc564fcE
	movq	%rax, -56(%rbp)
.Ltmp46:
	.cv_loc	9 1 684 0
	cmpq	$0, -56(%rbp)
	je	.LBB9_3
	leaq	-48(%rbp), %rcx
	.cv_loc	9 1 685 0
	movq	-72(%rbp), %rdx
	callq	_ZN49_$LT$alloc..raw_vec..RawVec$LT$T$C$$u20$A$GT$$GT$14current_layout17h25363e8cff69aa5bE
	jmp	.LBB9_4
.LBB9_3:
	.cv_loc	9 1 684 0
	jmp	.LBB9_10
.LBB9_4:
	.cv_loc	9 1 685 0
	movq	-48(%rbp), %rax
	subq	$1, %rax
	movq	%rax, -80(%rbp)
	je	.LBB9_6
	jmp	.LBB9_5
.LBB9_5:
	jmp	.LBB9_7
.LBB9_6:
	movq	-40(%rbp), %rax
	movq	-32(%rbp), %rcx
	movq	%rax, -24(%rbp)
	movq	%rcx, -16(%rbp)
.Ltmp47:
	.cv_loc	9 1 686 0
	movq	-72(%rbp), %rcx
	callq	_ZN49_$LT$alloc..raw_vec..RawVec$LT$T$C$$u20$A$GT$$GT$3ptr17hd1021770549b1448E
	movq	%rax, -88(%rbp)
	jmp	.LBB9_8
.Ltmp48:
.LBB9_7:
	.cv_loc	9 1 684 0
	jmp	.LBB9_10
.LBB9_8:
.Ltmp49:
	.cv_loc	9 1 686 0
	movq	-88(%rbp), %rax
	movq	%rax, -8(%rbp)
.Ltmp50:
	.cv_loc	9 1 687 0
	movq	-72(%rbp), %rax
	movq	-8(%rbp), %rdx
	movq	-24(%rbp), %r8
	movq	-16(%rbp), %r9
	movq	%rax, %rcx
	callq	_ZN61_$LT$alloc..heap..Heap$u20$as$u20$alloc..allocator..Alloc$GT$7dealloc17h64d7aec95d22a4e9E
.Ltmp51:
	.cv_loc	9 1 685 0
	jmp	.LBB9_7
.Ltmp52:
.LBB9_10:
	.cv_loc	9 1 690 0
	addq	$128, %rsp
	popq	%rbp
	retq
.Ltmp53:
.Lfunc_end9:
	.seh_handlerdata
	.section	.text,"xr",one_only,_ZN49_$LT$alloc..raw_vec..RawVec$LT$T$C$$u20$A$GT$$GT$14dealloc_buffer17h116dc68f076543a4E
.Lcfi59:
	.seh_endproc

	.def	 _ZN49_$LT$alloc..raw_vec..RawVec$LT$T$C$$u20$A$GT$$GT$14dealloc_buffer17hae6d4f49a9b55777E;
	.scl	3;
	.type	32;
	.endef
	.section	.text,"xr",one_only,_ZN49_$LT$alloc..raw_vec..RawVec$LT$T$C$$u20$A$GT$$GT$14dealloc_buffer17hae6d4f49a9b55777E
	.p2align	4, 0x90
_ZN49_$LT$alloc..raw_vec..RawVec$LT$T$C$$u20$A$GT$$GT$14dealloc_buffer17hae6d4f49a9b55777E:
.Lfunc_begin10:
	.cv_func_id 10
	.cv_loc	10 1 682 0
.Lcfi60:
.seh_proc _ZN49_$LT$alloc..raw_vec..RawVec$LT$T$C$$u20$A$GT$$GT$14dealloc_buffer17hae6d4f49a9b55777E
	pushq	%rbp
.Lcfi61:
	.seh_pushreg 5
	subq	$128, %rsp
.Lcfi62:
	.seh_stackalloc 128
	leaq	128(%rsp), %rbp
.Lcfi63:
	.seh_setframe 5, 128
.Lcfi64:
	.seh_endprologue
	movq	%rcx, -72(%rbp)
.Ltmp54:
	.cv_loc	10 1 683 0
	callq	_ZN4core3mem7size_of17hd8a26aa1a7c89af2E
	movq	%rax, -56(%rbp)
.Ltmp55:
	.cv_loc	10 1 684 0
	cmpq	$0, -56(%rbp)
	je	.LBB10_3
	leaq	-48(%rbp), %rcx
	.cv_loc	10 1 685 0
	movq	-72(%rbp), %rdx
	callq	_ZN49_$LT$alloc..raw_vec..RawVec$LT$T$C$$u20$A$GT$$GT$14current_layout17ha3d805d67cd79e66E
	jmp	.LBB10_4
.LBB10_3:
	.cv_loc	10 1 684 0
	jmp	.LBB10_10
.LBB10_4:
	.cv_loc	10 1 685 0
	movq	-48(%rbp), %rax
	subq	$1, %rax
	movq	%rax, -80(%rbp)
	je	.LBB10_6
	jmp	.LBB10_5
.LBB10_5:
	jmp	.LBB10_7
.LBB10_6:
	movq	-40(%rbp), %rax
	movq	-32(%rbp), %rcx
	movq	%rax, -24(%rbp)
	movq	%rcx, -16(%rbp)
.Ltmp56:
	.cv_loc	10 1 686 0
	movq	-72(%rbp), %rcx
	callq	_ZN49_$LT$alloc..raw_vec..RawVec$LT$T$C$$u20$A$GT$$GT$3ptr17hfa3a02d0dad02ba8E
	movq	%rax, -88(%rbp)
	jmp	.LBB10_8
.Ltmp57:
.LBB10_7:
	.cv_loc	10 1 684 0
	jmp	.LBB10_10
.LBB10_8:
.Ltmp58:
	.cv_loc	10 1 686 0
	movq	-88(%rbp), %rax
	movq	%rax, -8(%rbp)
.Ltmp59:
	.cv_loc	10 1 687 0
	movq	-72(%rbp), %rcx
	movq	-8(%rbp), %rdx
	movq	-24(%rbp), %r8
	movq	-16(%rbp), %r9
	callq	_ZN61_$LT$alloc..heap..Heap$u20$as$u20$alloc..allocator..Alloc$GT$7dealloc17h64d7aec95d22a4e9E
.Ltmp60:
	.cv_loc	10 1 685 0
	jmp	.LBB10_7
.Ltmp61:
.LBB10_10:
	.cv_loc	10 1 690 0
	addq	$128, %rsp
	popq	%rbp
	retq
.Ltmp62:
.Lfunc_end10:
	.seh_handlerdata
	.section	.text,"xr",one_only,_ZN49_$LT$alloc..raw_vec..RawVec$LT$T$C$$u20$A$GT$$GT$14dealloc_buffer17hae6d4f49a9b55777E
.Lcfi65:
	.seh_endproc

	.def	 _ZN49_$LT$alloc..raw_vec..RawVec$LT$T$C$$u20$A$GT$$GT$14dealloc_buffer17hbea595926ec3f81aE;
	.scl	3;
	.type	32;
	.endef
	.section	.text,"xr",one_only,_ZN49_$LT$alloc..raw_vec..RawVec$LT$T$C$$u20$A$GT$$GT$14dealloc_buffer17hbea595926ec3f81aE
	.p2align	4, 0x90
_ZN49_$LT$alloc..raw_vec..RawVec$LT$T$C$$u20$A$GT$$GT$14dealloc_buffer17hbea595926ec3f81aE:
.Lfunc_begin11:
	.cv_func_id 11
	.cv_loc	11 1 682 0
.Lcfi66:
.seh_proc _ZN49_$LT$alloc..raw_vec..RawVec$LT$T$C$$u20$A$GT$$GT$14dealloc_buffer17hbea595926ec3f81aE
	pushq	%rbp
.Lcfi67:
	.seh_pushreg 5
	subq	$128, %rsp
.Lcfi68:
	.seh_stackalloc 128
	leaq	128(%rsp), %rbp
.Lcfi69:
	.seh_setframe 5, 128
.Lcfi70:
	.seh_endprologue
	movq	%rcx, -72(%rbp)
.Ltmp63:
	.cv_loc	11 1 683 0
	callq	_ZN4core3mem7size_of17h164ff08c8f7ba06dE
	movq	%rax, -56(%rbp)
.Ltmp64:
	.cv_loc	11 1 684 0
	cmpq	$0, -56(%rbp)
	je	.LBB11_3
	leaq	-48(%rbp), %rcx
	.cv_loc	11 1 685 0
	movq	-72(%rbp), %rdx
	callq	_ZN49_$LT$alloc..raw_vec..RawVec$LT$T$C$$u20$A$GT$$GT$14current_layout17h092dd06ba5ff7667E
	jmp	.LBB11_4
.LBB11_3:
	.cv_loc	11 1 684 0
	jmp	.LBB11_10
.LBB11_4:
	.cv_loc	11 1 685 0
	movq	-48(%rbp), %rax
	subq	$1, %rax
	movq	%rax, -80(%rbp)
	je	.LBB11_6
	jmp	.LBB11_5
.LBB11_5:
	jmp	.LBB11_7
.LBB11_6:
	movq	-40(%rbp), %rax
	movq	-32(%rbp), %rcx
	movq	%rax, -24(%rbp)
	movq	%rcx, -16(%rbp)
.Ltmp65:
	.cv_loc	11 1 686 0
	movq	-72(%rbp), %rcx
	callq	_ZN49_$LT$alloc..raw_vec..RawVec$LT$T$C$$u20$A$GT$$GT$3ptr17h8fb801312f07b368E
	movq	%rax, -88(%rbp)
	jmp	.LBB11_8
.Ltmp66:
.LBB11_7:
	.cv_loc	11 1 684 0
	jmp	.LBB11_10
.LBB11_8:
.Ltmp67:
	.cv_loc	11 1 686 0
	movq	-88(%rbp), %rax
	movq	%rax, -8(%rbp)
.Ltmp68:
	.cv_loc	11 1 687 0
	movq	-72(%rbp), %rax
	movq	-8(%rbp), %rdx
	movq	-24(%rbp), %r8
	movq	-16(%rbp), %r9
	movq	%rax, %rcx
	callq	_ZN61_$LT$alloc..heap..Heap$u20$as$u20$alloc..allocator..Alloc$GT$7dealloc17h64d7aec95d22a4e9E
.Ltmp69:
	.cv_loc	11 1 685 0
	jmp	.LBB11_7
.Ltmp70:
.LBB11_10:
	.cv_loc	11 1 690 0
	addq	$128, %rsp
	popq	%rbp
	retq
.Ltmp71:
.Lfunc_end11:
	.seh_handlerdata
	.section	.text,"xr",one_only,_ZN49_$LT$alloc..raw_vec..RawVec$LT$T$C$$u20$A$GT$$GT$14dealloc_buffer17hbea595926ec3f81aE
.Lcfi71:
	.seh_endproc

	.def	 _ZN49_$LT$alloc..raw_vec..RawVec$LT$T$C$$u20$A$GT$$GT$14dealloc_buffer17hdb73280b539b6e2dE;
	.scl	3;
	.type	32;
	.endef
	.section	.text,"xr",one_only,_ZN49_$LT$alloc..raw_vec..RawVec$LT$T$C$$u20$A$GT$$GT$14dealloc_buffer17hdb73280b539b6e2dE
	.p2align	4, 0x90
_ZN49_$LT$alloc..raw_vec..RawVec$LT$T$C$$u20$A$GT$$GT$14dealloc_buffer17hdb73280b539b6e2dE:
.Lfunc_begin12:
	.cv_func_id 12
	.cv_loc	12 1 682 0
.Lcfi72:
.seh_proc _ZN49_$LT$alloc..raw_vec..RawVec$LT$T$C$$u20$A$GT$$GT$14dealloc_buffer17hdb73280b539b6e2dE
	pushq	%rbp
.Lcfi73:
	.seh_pushreg 5
	subq	$128, %rsp
.Lcfi74:
	.seh_stackalloc 128
	leaq	128(%rsp), %rbp
.Lcfi75:
	.seh_setframe 5, 128
.Lcfi76:
	.seh_endprologue
	movq	%rcx, -72(%rbp)
.Ltmp72:
	.cv_loc	12 1 683 0
	callq	_ZN4core3mem7size_of17hcc9d39a977f63b01E
	movq	%rax, -56(%rbp)
.Ltmp73:
	.cv_loc	12 1 684 0
	cmpq	$0, -56(%rbp)
	je	.LBB12_3
	leaq	-48(%rbp), %rcx
	.cv_loc	12 1 685 0
	movq	-72(%rbp), %rdx
	callq	_ZN49_$LT$alloc..raw_vec..RawVec$LT$T$C$$u20$A$GT$$GT$14current_layout17hd42a795d5c6e7cefE
	jmp	.LBB12_4
.LBB12_3:
	.cv_loc	12 1 684 0
	jmp	.LBB12_10
.LBB12_4:
	.cv_loc	12 1 685 0
	movq	-48(%rbp), %rax
	subq	$1, %rax
	movq	%rax, -80(%rbp)
	je	.LBB12_6
	jmp	.LBB12_5
.LBB12_5:
	jmp	.LBB12_7
.LBB12_6:
	movq	-40(%rbp), %rax
	movq	-32(%rbp), %rcx
	movq	%rax, -24(%rbp)
	movq	%rcx, -16(%rbp)
.Ltmp74:
	.cv_loc	12 1 686 0
	movq	-72(%rbp), %rcx
	callq	_ZN49_$LT$alloc..raw_vec..RawVec$LT$T$C$$u20$A$GT$$GT$3ptr17h66cbd05a51e5ccc2E
	movq	%rax, -88(%rbp)
	jmp	.LBB12_8
.Ltmp75:
.LBB12_7:
	.cv_loc	12 1 684 0
	jmp	.LBB12_10
.LBB12_8:
.Ltmp76:
	.cv_loc	12 1 686 0
	movq	-88(%rbp), %rax
	movq	%rax, -8(%rbp)
.Ltmp77:
	.cv_loc	12 1 687 0
	movq	-72(%rbp), %rax
	movq	-8(%rbp), %rdx
	movq	-24(%rbp), %r8
	movq	-16(%rbp), %r9
	movq	%rax, %rcx
	callq	_ZN61_$LT$alloc..heap..Heap$u20$as$u20$alloc..allocator..Alloc$GT$7dealloc17h64d7aec95d22a4e9E
.Ltmp78:
	.cv_loc	12 1 685 0
	jmp	.LBB12_7
.Ltmp79:
.LBB12_10:
	.cv_loc	12 1 690 0
	addq	$128, %rsp
	popq	%rbp
	retq
.Ltmp80:
.Lfunc_end12:
	.seh_handlerdata
	.section	.text,"xr",one_only,_ZN49_$LT$alloc..raw_vec..RawVec$LT$T$C$$u20$A$GT$$GT$14dealloc_buffer17hdb73280b539b6e2dE
.Lcfi77:
	.seh_endproc

	.def	 _ZN49_$LT$alloc..raw_vec..RawVec$LT$T$C$$u20$A$GT$$GT$3ptr17h66cbd05a51e5ccc2E;
	.scl	2;
	.type	32;
	.endef
	.section	.text,"xr",one_only,_ZN49_$LT$alloc..raw_vec..RawVec$LT$T$C$$u20$A$GT$$GT$3ptr17h66cbd05a51e5ccc2E
	.globl	_ZN49_$LT$alloc..raw_vec..RawVec$LT$T$C$$u20$A$GT$$GT$3ptr17h66cbd05a51e5ccc2E
	.p2align	4, 0x90
_ZN49_$LT$alloc..raw_vec..RawVec$LT$T$C$$u20$A$GT$$GT$3ptr17h66cbd05a51e5ccc2E:
.Lfunc_begin13:
	.cv_func_id 13
	.cv_loc	13 1 198 0
.Lcfi78:
.seh_proc _ZN49_$LT$alloc..raw_vec..RawVec$LT$T$C$$u20$A$GT$$GT$3ptr17h66cbd05a51e5ccc2E
	pushq	%rbp
.Lcfi79:
	.seh_pushreg 5
	subq	$48, %rsp
.Lcfi80:
	.seh_stackalloc 48
	leaq	48(%rsp), %rbp
.Lcfi81:
	.seh_setframe 5, 48
.Lcfi82:
	.seh_endprologue
	movq	%rcx, -8(%rbp)
.Ltmp81:
	.cv_loc	13 1 199 0
	movq	-8(%rbp), %rcx
	movq	(%rcx), %rcx
	callq	_ZN35_$LT$core..ptr..Unique$LT$T$GT$$GT$6as_ptr17hae71a6a4cbb9bcc8E
	movq	%rax, -16(%rbp)
	.cv_loc	13 1 200 0
	movq	-16(%rbp), %rax
	addq	$48, %rsp
	popq	%rbp
	retq
.Ltmp82:
.Lfunc_end13:
	.seh_handlerdata
	.section	.text,"xr",one_only,_ZN49_$LT$alloc..raw_vec..RawVec$LT$T$C$$u20$A$GT$$GT$3ptr17h66cbd05a51e5ccc2E
.Lcfi83:
	.seh_endproc

	.def	 _ZN49_$LT$alloc..raw_vec..RawVec$LT$T$C$$u20$A$GT$$GT$3ptr17h8fb801312f07b368E;
	.scl	2;
	.type	32;
	.endef
	.section	.text,"xr",one_only,_ZN49_$LT$alloc..raw_vec..RawVec$LT$T$C$$u20$A$GT$$GT$3ptr17h8fb801312f07b368E
	.globl	_ZN49_$LT$alloc..raw_vec..RawVec$LT$T$C$$u20$A$GT$$GT$3ptr17h8fb801312f07b368E
	.p2align	4, 0x90
_ZN49_$LT$alloc..raw_vec..RawVec$LT$T$C$$u20$A$GT$$GT$3ptr17h8fb801312f07b368E:
.Lfunc_begin14:
	.cv_func_id 14
	.cv_loc	14 1 198 0
.Lcfi84:
.seh_proc _ZN49_$LT$alloc..raw_vec..RawVec$LT$T$C$$u20$A$GT$$GT$3ptr17h8fb801312f07b368E
	pushq	%rbp
.Lcfi85:
	.seh_pushreg 5
	subq	$48, %rsp
.Lcfi86:
	.seh_stackalloc 48
	leaq	48(%rsp), %rbp
.Lcfi87:
	.seh_setframe 5, 48
.Lcfi88:
	.seh_endprologue
	movq	%rcx, -8(%rbp)
.Ltmp83:
	.cv_loc	14 1 199 0
	movq	-8(%rbp), %rcx
	movq	(%rcx), %rcx
	callq	_ZN35_$LT$core..ptr..Unique$LT$T$GT$$GT$6as_ptr17h0515891646619fcbE
	movq	%rax, -16(%rbp)
	.cv_loc	14 1 200 0
	movq	-16(%rbp), %rax
	addq	$48, %rsp
	popq	%rbp
	retq
.Ltmp84:
.Lfunc_end14:
	.seh_handlerdata
	.section	.text,"xr",one_only,_ZN49_$LT$alloc..raw_vec..RawVec$LT$T$C$$u20$A$GT$$GT$3ptr17h8fb801312f07b368E
.Lcfi89:
	.seh_endproc

	.def	 _ZN49_$LT$alloc..raw_vec..RawVec$LT$T$C$$u20$A$GT$$GT$3ptr17hb4ef6da65c829610E;
	.scl	2;
	.type	32;
	.endef
	.section	.text,"xr",one_only,_ZN49_$LT$alloc..raw_vec..RawVec$LT$T$C$$u20$A$GT$$GT$3ptr17hb4ef6da65c829610E
	.globl	_ZN49_$LT$alloc..raw_vec..RawVec$LT$T$C$$u20$A$GT$$GT$3ptr17hb4ef6da65c829610E
	.p2align	4, 0x90
_ZN49_$LT$alloc..raw_vec..RawVec$LT$T$C$$u20$A$GT$$GT$3ptr17hb4ef6da65c829610E:
.Lfunc_begin15:
	.cv_func_id 15
	.cv_loc	15 1 198 0
.Lcfi90:
.seh_proc _ZN49_$LT$alloc..raw_vec..RawVec$LT$T$C$$u20$A$GT$$GT$3ptr17hb4ef6da65c829610E
	pushq	%rbp
.Lcfi91:
	.seh_pushreg 5
	subq	$48, %rsp
.Lcfi92:
	.seh_stackalloc 48
	leaq	48(%rsp), %rbp
.Lcfi93:
	.seh_setframe 5, 48
.Lcfi94:
	.seh_endprologue
	movq	%rcx, -8(%rbp)
.Ltmp85:
	.cv_loc	15 1 199 0
	movq	-8(%rbp), %rcx
	movq	(%rcx), %rcx
	callq	_ZN35_$LT$core..ptr..Unique$LT$T$GT$$GT$6as_ptr17h9967f744baa2df3bE
	movq	%rax, -16(%rbp)
	.cv_loc	15 1 200 0
	movq	-16(%rbp), %rax
	addq	$48, %rsp
	popq	%rbp
	retq
.Ltmp86:
.Lfunc_end15:
	.seh_handlerdata
	.section	.text,"xr",one_only,_ZN49_$LT$alloc..raw_vec..RawVec$LT$T$C$$u20$A$GT$$GT$3ptr17hb4ef6da65c829610E
.Lcfi95:
	.seh_endproc

	.def	 _ZN49_$LT$alloc..raw_vec..RawVec$LT$T$C$$u20$A$GT$$GT$3ptr17hd1021770549b1448E;
	.scl	2;
	.type	32;
	.endef
	.section	.text,"xr",one_only,_ZN49_$LT$alloc..raw_vec..RawVec$LT$T$C$$u20$A$GT$$GT$3ptr17hd1021770549b1448E
	.globl	_ZN49_$LT$alloc..raw_vec..RawVec$LT$T$C$$u20$A$GT$$GT$3ptr17hd1021770549b1448E
	.p2align	4, 0x90
_ZN49_$LT$alloc..raw_vec..RawVec$LT$T$C$$u20$A$GT$$GT$3ptr17hd1021770549b1448E:
.Lfunc_begin16:
	.cv_func_id 16
	.cv_loc	16 1 198 0
.Lcfi96:
.seh_proc _ZN49_$LT$alloc..raw_vec..RawVec$LT$T$C$$u20$A$GT$$GT$3ptr17hd1021770549b1448E
	pushq	%rbp
.Lcfi97:
	.seh_pushreg 5
	subq	$48, %rsp
.Lcfi98:
	.seh_stackalloc 48
	leaq	48(%rsp), %rbp
.Lcfi99:
	.seh_setframe 5, 48
.Lcfi100:
	.seh_endprologue
	movq	%rcx, -8(%rbp)
.Ltmp87:
	.cv_loc	16 1 199 0
	movq	-8(%rbp), %rcx
	movq	(%rcx), %rcx
	callq	_ZN35_$LT$core..ptr..Unique$LT$T$GT$$GT$6as_ptr17h398d99290faa56afE
	movq	%rax, -16(%rbp)
	.cv_loc	16 1 200 0
	movq	-16(%rbp), %rax
	addq	$48, %rsp
	popq	%rbp
	retq
.Ltmp88:
.Lfunc_end16:
	.seh_handlerdata
	.section	.text,"xr",one_only,_ZN49_$LT$alloc..raw_vec..RawVec$LT$T$C$$u20$A$GT$$GT$3ptr17hd1021770549b1448E
.Lcfi101:
	.seh_endproc

	.def	 _ZN49_$LT$alloc..raw_vec..RawVec$LT$T$C$$u20$A$GT$$GT$3ptr17hfa3a02d0dad02ba8E;
	.scl	2;
	.type	32;
	.endef
	.section	.text,"xr",one_only,_ZN49_$LT$alloc..raw_vec..RawVec$LT$T$C$$u20$A$GT$$GT$3ptr17hfa3a02d0dad02ba8E
	.globl	_ZN49_$LT$alloc..raw_vec..RawVec$LT$T$C$$u20$A$GT$$GT$3ptr17hfa3a02d0dad02ba8E
	.p2align	4, 0x90
_ZN49_$LT$alloc..raw_vec..RawVec$LT$T$C$$u20$A$GT$$GT$3ptr17hfa3a02d0dad02ba8E:
.Lfunc_begin17:
	.cv_func_id 17
	.cv_loc	17 1 198 0
.Lcfi102:
.seh_proc _ZN49_$LT$alloc..raw_vec..RawVec$LT$T$C$$u20$A$GT$$GT$3ptr17hfa3a02d0dad02ba8E
	pushq	%rbp
.Lcfi103:
	.seh_pushreg 5
	subq	$48, %rsp
.Lcfi104:
	.seh_stackalloc 48
	leaq	48(%rsp), %rbp
.Lcfi105:
	.seh_setframe 5, 48
.Lcfi106:
	.seh_endprologue
	movq	%rcx, -8(%rbp)
.Ltmp89:
	.cv_loc	17 1 199 0
	movq	-8(%rbp), %rcx
	movq	(%rcx), %rcx
	callq	_ZN35_$LT$core..ptr..Unique$LT$T$GT$$GT$6as_ptr17hdebbfd1bd36af33bE
	movq	%rax, -16(%rbp)
	.cv_loc	17 1 200 0
	movq	-16(%rbp), %rax
	addq	$48, %rsp
	popq	%rbp
	retq
.Ltmp90:
.Lfunc_end17:
	.seh_handlerdata
	.section	.text,"xr",one_only,_ZN49_$LT$alloc..raw_vec..RawVec$LT$T$C$$u20$A$GT$$GT$3ptr17hfa3a02d0dad02ba8E
.Lcfi107:
	.seh_endproc

	.def	 _ZN49_$LT$alloc..raw_vec..RawVec$LT$T$C$$u20$A$GT$$GT$6double17hdf2f9c00a89ff0c6E;
	.scl	2;
	.type	32;
	.endef
	.section	.text,"xr",one_only,_ZN49_$LT$alloc..raw_vec..RawVec$LT$T$C$$u20$A$GT$$GT$6double17hdf2f9c00a89ff0c6E
	.globl	_ZN49_$LT$alloc..raw_vec..RawVec$LT$T$C$$u20$A$GT$$GT$6double17hdf2f9c00a89ff0c6E
	.p2align	4, 0x90
_ZN49_$LT$alloc..raw_vec..RawVec$LT$T$C$$u20$A$GT$$GT$6double17hdf2f9c00a89ff0c6E:
.Lfunc_begin18:
	.cv_func_id 18
	.cv_loc	18 1 288 0
.Lcfi108:
.seh_proc _ZN49_$LT$alloc..raw_vec..RawVec$LT$T$C$$u20$A$GT$$GT$6double17hdf2f9c00a89ff0c6E
	pushq	%rbp
.Lcfi109:
	.seh_pushreg 5
	subq	$528, %rsp
.Lcfi110:
	.seh_stackalloc 528
	leaq	128(%rsp), %rbp
.Lcfi111:
	.seh_setframe 5, 128
.Lcfi112:
	.seh_endprologue
	movq	%rcx, 64(%rbp)
.Ltmp91:
	.cv_loc	18 1 290 0
	callq	_ZN4core3mem7size_of17h3229ec5c83280b08E
	movq	%rax, 72(%rbp)
.Ltmp92:
	.cv_loc	18 1 294 0
	cmpq	$0, 72(%rbp)
	setne	%al
	.cv_file	2 "\\<assert macros>"
	.cv_loc	18 2 5 0
	xorb	$-1, %al
	testb	$1, %al
	jne	.LBB18_2
	jmp	.LBB18_3
.LBB18_2:
	.cv_file	3 "\\<panic macros>"
	.cv_loc	18 3 4 0
	movq	const.3(%rip), %rcx
	.cv_loc	18 3 3 0
	callq	_ZN4core9panicking5panic17hb14241805eba0fdcE
	ud2
.LBB18_3:
	leaq	112(%rbp), %rcx
	.cv_loc	18 1 296 0
	movq	64(%rbp), %rdx
	callq	_ZN49_$LT$alloc..raw_vec..RawVec$LT$T$C$$u20$A$GT$$GT$14current_layout17h3626975b45b329a4E
	.cv_loc	18 1 297 0
	movq	112(%rbp), %rax
	testq	%rax, %rax
	movq	%rax, 56(%rbp)
	je	.LBB18_5
	jmp	.LBB18_25
.LBB18_25:
	movq	56(%rbp), %rax
	subq	$1, %rax
	movq	%rax, 48(%rbp)
	je	.LBB18_7
	jmp	.LBB18_6
.LBB18_5:
	.cv_loc	18 1 323 0
	movq	72(%rbp), %rax
	movq	%rax, 40(%rbp)
	jmp	.LBB18_17
.Ltmp93:
.LBB18_6:
	.cv_loc	18 1 333 0
	ud2
.LBB18_7:
	leaq	136(%rbp), %rcx
.Ltmp94:
	.cv_loc	18 1 297 0
	movq	120(%rbp), %rax
	movq	128(%rbp), %rdx
	movq	%rax, 136(%rbp)
	movq	%rdx, 144(%rbp)
.Ltmp95:
	.cv_loc	18 1 308 0
	movq	64(%rbp), %rax
	movq	8(%rax), %rax
	shlq	$1, %rax
	movq	%rax, 152(%rbp)
.Ltmp96:
	.cv_loc	18 1 309 0
	movq	152(%rbp), %rax
	imulq	72(%rbp), %rax
	movq	%rax, 160(%rbp)
.Ltmp97:
	.cv_loc	18 1 310 0
	movq	160(%rbp), %rax
	movq	%rax, 32(%rbp)
	callq	_ZN5alloc9allocator6Layout5align17h162c551242688cdfE
	movq	%rax, 24(%rbp)
	jmp	.LBB18_9
.Ltmp98:
.LBB18_8:
	.cv_loc	18 1 296 0
	movq	96(%rbp), %rax
	movq	%rax, 80(%rbp)
	movq	104(%rbp), %rax
	movq	%rax, 88(%rbp)
.Ltmp99:
	.cv_loc	18 1 330 0
	movq	88(%rbp), %rax
	movq	64(%rbp), %rcx
	movq	%rax, (%rcx)
	.cv_loc	18 1 331 0
	movq	80(%rbp), %rax
	movq	64(%rbp), %rcx
	movq	%rax, 8(%rcx)
.Ltmp100:
	.cv_loc	18 1 333 0
	addq	$528, %rsp
	popq	%rbp
	retq
.LBB18_9:
.Ltmp101:
	.cv_loc	18 1 310 0
	movq	32(%rbp), %rcx
	movq	24(%rbp), %rdx
	callq	_ZN5alloc9allocator6Layout25from_size_align_unchecked17h34ef790e2b9f779dE
	movq	%rdx, 176(%rbp)
	movq	%rax, 168(%rbp)
.Ltmp102:
	.cv_loc	18 1 311 0
	movq	160(%rbp), %rcx
	callq	_ZN5alloc7raw_vec11alloc_guard17hce4293b1f127dc64E
	.cv_loc	18 1 312 0
	movq	64(%rbp), %rax
	movq	64(%rbp), %rcx
	movq	(%rcx), %rcx
	movq	%rax, 16(%rbp)
	callq	_ZN35_$LT$core..ptr..Unique$LT$T$GT$$GT$6as_ptr17h9967f744baa2df3bE
	movq	%rax, 8(%rbp)
	leaq	184(%rbp), %rcx
	movq	8(%rbp), %rax
	.cv_loc	18 1 313 0
	movq	136(%rbp), %r9
	movq	144(%rbp), %rdx
	.cv_loc	18 1 314 0
	movq	168(%rbp), %r8
	movq	176(%rbp), %r10
	.cv_loc	18 1 312 0
	movq	16(%rbp), %r11
	movq	%rdx, (%rbp)
	movq	%r11, %rdx
	movq	%r8, -8(%rbp)
	movq	%rax, %r8
	movq	(%rbp), %rax
	movq	%rax, 32(%rsp)
	movq	-8(%rbp), %rax
	movq	%rax, 40(%rsp)
	movq	%r10, 48(%rsp)
	callq	_ZN61_$LT$alloc..heap..Heap$u20$as$u20$alloc..allocator..Alloc$GT$7realloc17hfb06fe7abe695f32E
.Ltmp103:
	.cv_loc	18 1 316 0
	movq	184(%rbp), %rax
	testq	%rax, %rax
	movq	%rax, -16(%rbp)
	je	.LBB18_14
	jmp	.LBB18_26
.LBB18_26:
	movq	-16(%rbp), %rax
	subq	$1, %rax
	movq	%rax, -24(%rbp)
	je	.LBB18_15
	jmp	.LBB18_6
.LBB18_14:
	movq	192(%rbp), %rax
	movq	%rax, 216(%rbp)
.Ltmp104:
	.cv_loc	18 1 316 0
	movq	152(%rbp), %rax
	movq	216(%rbp), %rcx
	movq	%rax, -32(%rbp)
	callq	_ZN35_$LT$core..ptr..Unique$LT$T$GT$$GT$13new_unchecked17hee585a94cf410bf2E
	movq	%rax, -40(%rbp)
	jmp	.LBB18_16
.Ltmp105:
.LBB18_15:
	.cv_loc	18 1 317 0
	movq	208(%rbp), %rax
	movq	%rax, 240(%rbp)
	movups	192(%rbp), %xmm0
	movaps	%xmm0, 224(%rbp)
.Ltmp106:
	.cv_loc	18 1 317 0
	movq	64(%rbp), %rcx
	movq	240(%rbp), %rax
	movq	%rax, 272(%rbp)
	movaps	224(%rbp), %xmm0
	movaps	%xmm0, 256(%rbp)
	leaq	256(%rbp), %rdx
	callq	_ZN61_$LT$alloc..heap..Heap$u20$as$u20$alloc..allocator..Alloc$GT$3oom17h179880119db49d40E
	ud2
.Ltmp107:
.LBB18_16:
	.cv_loc	18 1 316 0
	movq	-32(%rbp), %rax
	movq	%rax, 96(%rbp)
	movq	-40(%rbp), %rcx
	movq	%rcx, 104(%rbp)
.Ltmp108:
	.cv_loc	18 1 296 0
	jmp	.LBB18_8
.LBB18_17:
	movabsq	$2305843009213693951, %rax
	.cv_loc	18 1 323 0
	movq	40(%rbp), %rcx
	cmpq	%rax, %rcx
	jbe	.LBB18_19
	movq	$1, 288(%rbp)
	jmp	.LBB18_20
.LBB18_19:
	movq	$4, 288(%rbp)
.LBB18_20:
	leaq	296(%rbp), %rcx
.Ltmp109:
	.cv_loc	18 1 324 0
	movq	64(%rbp), %rax
	movq	288(%rbp), %r8
	movq	%rax, %rdx
	callq	_ZN5alloc9allocator5Alloc11alloc_array17h4b033ae52794572cE
	.cv_loc	18 1 325 0
	movq	296(%rbp), %rax
	testq	%rax, %rax
	movq	%rax, -48(%rbp)
	je	.LBB18_22
	jmp	.LBB18_27
.LBB18_27:
	movq	-48(%rbp), %rax
	subq	$1, %rax
	movq	%rax, -56(%rbp)
	je	.LBB18_23
	jmp	.LBB18_6
.LBB18_22:
	movq	304(%rbp), %rax
	movq	%rax, 328(%rbp)
.Ltmp110:
	.cv_loc	18 1 325 0
	movq	288(%rbp), %rax
	movq	328(%rbp), %rcx
	movq	%rax, -64(%rbp)
	callq	_ZN50_$LT$T$u20$as$u20$core..convert..Into$LT$U$GT$$GT$4into17h2fa3e750b0861dceE
	movq	%rax, -72(%rbp)
	jmp	.LBB18_24
.Ltmp111:
.LBB18_23:
	.cv_loc	18 1 326 0
	movq	320(%rbp), %rax
	movq	%rax, 352(%rbp)
	movups	304(%rbp), %xmm0
	movaps	%xmm0, 336(%rbp)
.Ltmp112:
	.cv_loc	18 1 326 0
	movq	64(%rbp), %rcx
	movq	352(%rbp), %rax
	movq	%rax, 384(%rbp)
	movaps	336(%rbp), %xmm0
	movaps	%xmm0, 368(%rbp)
	leaq	368(%rbp), %rdx
	callq	_ZN61_$LT$alloc..heap..Heap$u20$as$u20$alloc..allocator..Alloc$GT$3oom17h179880119db49d40E
	ud2
.Ltmp113:
.LBB18_24:
	.cv_loc	18 1 325 0
	movq	-64(%rbp), %rax
	movq	%rax, 96(%rbp)
	movq	-72(%rbp), %rcx
	movq	%rcx, 104(%rbp)
.Ltmp114:
	.cv_loc	18 1 296 0
	jmp	.LBB18_8
.Ltmp115:
.Lfunc_end18:
	.seh_handlerdata
	.section	.text,"xr",one_only,_ZN49_$LT$alloc..raw_vec..RawVec$LT$T$C$$u20$A$GT$$GT$6double17hdf2f9c00a89ff0c6E
.Lcfi113:
	.seh_endproc

	.def	 _ZN82_$LT$alloc..raw_vec..RawVec$LT$T$C$$u20$A$GT$$u20$as$u20$core..ops..drop..Drop$GT$4drop17h40be7a2626c941b0E;
	.scl	2;
	.type	32;
	.endef
	.section	.text,"xr",one_only,_ZN82_$LT$alloc..raw_vec..RawVec$LT$T$C$$u20$A$GT$$u20$as$u20$core..ops..drop..Drop$GT$4drop17h40be7a2626c941b0E
	.globl	_ZN82_$LT$alloc..raw_vec..RawVec$LT$T$C$$u20$A$GT$$u20$as$u20$core..ops..drop..Drop$GT$4drop17h40be7a2626c941b0E
	.p2align	4, 0x90
_ZN82_$LT$alloc..raw_vec..RawVec$LT$T$C$$u20$A$GT$$u20$as$u20$core..ops..drop..Drop$GT$4drop17h40be7a2626c941b0E:
.Lfunc_begin19:
	.cv_func_id 19
	.cv_loc	19 1 695 0
.Lcfi114:
.seh_proc _ZN82_$LT$alloc..raw_vec..RawVec$LT$T$C$$u20$A$GT$$u20$as$u20$core..ops..drop..Drop$GT$4drop17h40be7a2626c941b0E
	pushq	%rbp
.Lcfi115:
	.seh_pushreg 5
	subq	$48, %rsp
.Lcfi116:
	.seh_stackalloc 48
	leaq	48(%rsp), %rbp
.Lcfi117:
	.seh_setframe 5, 48
.Lcfi118:
	.seh_endprologue
	movq	%rcx, -8(%rbp)
.Ltmp116:
	.cv_loc	19 1 696 0
	movq	-8(%rbp), %rcx
	callq	_ZN49_$LT$alloc..raw_vec..RawVec$LT$T$C$$u20$A$GT$$GT$14dealloc_buffer17hae6d4f49a9b55777E
.Ltmp117:
	.cv_loc	19 1 697 0
	nop
	addq	$48, %rsp
	popq	%rbp
	retq
.Ltmp118:
.Lfunc_end19:
	.seh_handlerdata
	.section	.text,"xr",one_only,_ZN82_$LT$alloc..raw_vec..RawVec$LT$T$C$$u20$A$GT$$u20$as$u20$core..ops..drop..Drop$GT$4drop17h40be7a2626c941b0E
.Lcfi119:
	.seh_endproc

	.def	 _ZN82_$LT$alloc..raw_vec..RawVec$LT$T$C$$u20$A$GT$$u20$as$u20$core..ops..drop..Drop$GT$4drop17h6baa41c8e0995814E;
	.scl	2;
	.type	32;
	.endef
	.section	.text,"xr",one_only,_ZN82_$LT$alloc..raw_vec..RawVec$LT$T$C$$u20$A$GT$$u20$as$u20$core..ops..drop..Drop$GT$4drop17h6baa41c8e0995814E
	.globl	_ZN82_$LT$alloc..raw_vec..RawVec$LT$T$C$$u20$A$GT$$u20$as$u20$core..ops..drop..Drop$GT$4drop17h6baa41c8e0995814E
	.p2align	4, 0x90
_ZN82_$LT$alloc..raw_vec..RawVec$LT$T$C$$u20$A$GT$$u20$as$u20$core..ops..drop..Drop$GT$4drop17h6baa41c8e0995814E:
.Lfunc_begin20:
	.cv_func_id 20
	.cv_loc	20 1 695 0
.Lcfi120:
.seh_proc _ZN82_$LT$alloc..raw_vec..RawVec$LT$T$C$$u20$A$GT$$u20$as$u20$core..ops..drop..Drop$GT$4drop17h6baa41c8e0995814E
	pushq	%rbp
.Lcfi121:
	.seh_pushreg 5
	subq	$48, %rsp
.Lcfi122:
	.seh_stackalloc 48
	leaq	48(%rsp), %rbp
.Lcfi123:
	.seh_setframe 5, 48
.Lcfi124:
	.seh_endprologue
	movq	%rcx, -8(%rbp)
.Ltmp119:
	.cv_loc	20 1 696 0
	movq	-8(%rbp), %rcx
	callq	_ZN49_$LT$alloc..raw_vec..RawVec$LT$T$C$$u20$A$GT$$GT$14dealloc_buffer17h00bde87347a5d5baE
.Ltmp120:
	.cv_loc	20 1 697 0
	nop
	addq	$48, %rsp
	popq	%rbp
	retq
.Ltmp121:
.Lfunc_end20:
	.seh_handlerdata
	.section	.text,"xr",one_only,_ZN82_$LT$alloc..raw_vec..RawVec$LT$T$C$$u20$A$GT$$u20$as$u20$core..ops..drop..Drop$GT$4drop17h6baa41c8e0995814E
.Lcfi125:
	.seh_endproc

	.def	 _ZN82_$LT$alloc..raw_vec..RawVec$LT$T$C$$u20$A$GT$$u20$as$u20$core..ops..drop..Drop$GT$4drop17h7c1392fdce5a6f02E;
	.scl	2;
	.type	32;
	.endef
	.section	.text,"xr",one_only,_ZN82_$LT$alloc..raw_vec..RawVec$LT$T$C$$u20$A$GT$$u20$as$u20$core..ops..drop..Drop$GT$4drop17h7c1392fdce5a6f02E
	.globl	_ZN82_$LT$alloc..raw_vec..RawVec$LT$T$C$$u20$A$GT$$u20$as$u20$core..ops..drop..Drop$GT$4drop17h7c1392fdce5a6f02E
	.p2align	4, 0x90
_ZN82_$LT$alloc..raw_vec..RawVec$LT$T$C$$u20$A$GT$$u20$as$u20$core..ops..drop..Drop$GT$4drop17h7c1392fdce5a6f02E:
.Lfunc_begin21:
	.cv_func_id 21
	.cv_loc	21 1 695 0
.Lcfi126:
.seh_proc _ZN82_$LT$alloc..raw_vec..RawVec$LT$T$C$$u20$A$GT$$u20$as$u20$core..ops..drop..Drop$GT$4drop17h7c1392fdce5a6f02E
	pushq	%rbp
.Lcfi127:
	.seh_pushreg 5
	subq	$48, %rsp
.Lcfi128:
	.seh_stackalloc 48
	leaq	48(%rsp), %rbp
.Lcfi129:
	.seh_setframe 5, 48
.Lcfi130:
	.seh_endprologue
	movq	%rcx, -8(%rbp)
.Ltmp122:
	.cv_loc	21 1 696 0
	movq	-8(%rbp), %rcx
	callq	_ZN49_$LT$alloc..raw_vec..RawVec$LT$T$C$$u20$A$GT$$GT$14dealloc_buffer17h116dc68f076543a4E
.Ltmp123:
	.cv_loc	21 1 697 0
	nop
	addq	$48, %rsp
	popq	%rbp
	retq
.Ltmp124:
.Lfunc_end21:
	.seh_handlerdata
	.section	.text,"xr",one_only,_ZN82_$LT$alloc..raw_vec..RawVec$LT$T$C$$u20$A$GT$$u20$as$u20$core..ops..drop..Drop$GT$4drop17h7c1392fdce5a6f02E
.Lcfi131:
	.seh_endproc

	.def	 _ZN82_$LT$alloc..raw_vec..RawVec$LT$T$C$$u20$A$GT$$u20$as$u20$core..ops..drop..Drop$GT$4drop17h84868149299c055dE;
	.scl	2;
	.type	32;
	.endef
	.section	.text,"xr",one_only,_ZN82_$LT$alloc..raw_vec..RawVec$LT$T$C$$u20$A$GT$$u20$as$u20$core..ops..drop..Drop$GT$4drop17h84868149299c055dE
	.globl	_ZN82_$LT$alloc..raw_vec..RawVec$LT$T$C$$u20$A$GT$$u20$as$u20$core..ops..drop..Drop$GT$4drop17h84868149299c055dE
	.p2align	4, 0x90
_ZN82_$LT$alloc..raw_vec..RawVec$LT$T$C$$u20$A$GT$$u20$as$u20$core..ops..drop..Drop$GT$4drop17h84868149299c055dE:
.Lfunc_begin22:
	.cv_func_id 22
	.cv_loc	22 1 695 0
.Lcfi132:
.seh_proc _ZN82_$LT$alloc..raw_vec..RawVec$LT$T$C$$u20$A$GT$$u20$as$u20$core..ops..drop..Drop$GT$4drop17h84868149299c055dE
	pushq	%rbp
.Lcfi133:
	.seh_pushreg 5
	subq	$48, %rsp
.Lcfi134:
	.seh_stackalloc 48
	leaq	48(%rsp), %rbp
.Lcfi135:
	.seh_setframe 5, 48
.Lcfi136:
	.seh_endprologue
	movq	%rcx, -8(%rbp)
.Ltmp125:
	.cv_loc	22 1 696 0
	movq	-8(%rbp), %rcx
	callq	_ZN49_$LT$alloc..raw_vec..RawVec$LT$T$C$$u20$A$GT$$GT$14dealloc_buffer17hdb73280b539b6e2dE
.Ltmp126:
	.cv_loc	22 1 697 0
	nop
	addq	$48, %rsp
	popq	%rbp
	retq
.Ltmp127:
.Lfunc_end22:
	.seh_handlerdata
	.section	.text,"xr",one_only,_ZN82_$LT$alloc..raw_vec..RawVec$LT$T$C$$u20$A$GT$$u20$as$u20$core..ops..drop..Drop$GT$4drop17h84868149299c055dE
.Lcfi137:
	.seh_endproc

	.def	 _ZN82_$LT$alloc..raw_vec..RawVec$LT$T$C$$u20$A$GT$$u20$as$u20$core..ops..drop..Drop$GT$4drop17hcf0f045fc59a783fE;
	.scl	2;
	.type	32;
	.endef
	.section	.text,"xr",one_only,_ZN82_$LT$alloc..raw_vec..RawVec$LT$T$C$$u20$A$GT$$u20$as$u20$core..ops..drop..Drop$GT$4drop17hcf0f045fc59a783fE
	.globl	_ZN82_$LT$alloc..raw_vec..RawVec$LT$T$C$$u20$A$GT$$u20$as$u20$core..ops..drop..Drop$GT$4drop17hcf0f045fc59a783fE
	.p2align	4, 0x90
_ZN82_$LT$alloc..raw_vec..RawVec$LT$T$C$$u20$A$GT$$u20$as$u20$core..ops..drop..Drop$GT$4drop17hcf0f045fc59a783fE:
.Lfunc_begin23:
	.cv_func_id 23
	.cv_loc	23 1 695 0
.Lcfi138:
.seh_proc _ZN82_$LT$alloc..raw_vec..RawVec$LT$T$C$$u20$A$GT$$u20$as$u20$core..ops..drop..Drop$GT$4drop17hcf0f045fc59a783fE
	pushq	%rbp
.Lcfi139:
	.seh_pushreg 5
	subq	$48, %rsp
.Lcfi140:
	.seh_stackalloc 48
	leaq	48(%rsp), %rbp
.Lcfi141:
	.seh_setframe 5, 48
.Lcfi142:
	.seh_endprologue
	movq	%rcx, -8(%rbp)
.Ltmp128:
	.cv_loc	23 1 696 0
	movq	-8(%rbp), %rcx
	callq	_ZN49_$LT$alloc..raw_vec..RawVec$LT$T$C$$u20$A$GT$$GT$14dealloc_buffer17hbea595926ec3f81aE
.Ltmp129:
	.cv_loc	23 1 697 0
	nop
	addq	$48, %rsp
	popq	%rbp
	retq
.Ltmp130:
.Lfunc_end23:
	.seh_handlerdata
	.section	.text,"xr",one_only,_ZN82_$LT$alloc..raw_vec..RawVec$LT$T$C$$u20$A$GT$$u20$as$u20$core..ops..drop..Drop$GT$4drop17hcf0f045fc59a783fE
.Lcfi143:
	.seh_endproc

	.section	.rdata,"dr",one_only,str.0
	.p2align	4
str.0:
	.ascii	"capacity overflow"

	.section	.rdata,"dr",one_only,str.1
	.p2align	4
str.1:
	.ascii	"liballoc\\raw_vec.rs"

	.section	.rdata,"dr",one_only,ref.2
	.p2align	3
ref.2:
	.quad	str.0
	.quad	17
	.quad	str.1
	.quad	19
	.long	294
	.long	13

	.section	.rdata,"dr",one_only,const.3
	.p2align	3
const.3:
	.quad	ref.2
