	.text
	.def	 _ZN36_$LT$T$u20$as$u20$core..any..Any$GT$11get_type_id17he2ba998358980a5cE;
	.scl	2;
	.type	32;
	.endef
	.section	.text,"xr",one_only,_ZN36_$LT$T$u20$as$u20$core..any..Any$GT$11get_type_id17he2ba998358980a5cE
	.globl	_ZN36_$LT$T$u20$as$u20$core..any..Any$GT$11get_type_id17he2ba998358980a5cE
	.p2align	4, 0x90
_ZN36_$LT$T$u20$as$u20$core..any..Any$GT$11get_type_id17he2ba998358980a5cE:
.Lfunc_begin0:
	.cv_func_id 0
	.cv_file	1 "C:\\projects\\rust\\src\\libcore\\any.rs"
	.cv_loc	0 1 115 0 is_stmt 0
.Lcfi0:
.seh_proc _ZN36_$LT$T$u20$as$u20$core..any..Any$GT$11get_type_id17he2ba998358980a5cE
	pushq	%rbp
.Lcfi1:
	.seh_pushreg 5
	subq	$48, %rsp
.Lcfi2:
	.seh_stackalloc 48
	leaq	48(%rsp), %rbp
.Lcfi3:
	.seh_setframe 5, 48
.Lcfi4:
	.seh_endprologue
	movq	%rcx, -8(%rbp)
.Ltmp0:
	callq	_ZN4core3any6TypeId2of17h4ebc11a80038cbd5E
	movq	%rax, -16(%rbp)
	movq	-16(%rbp), %rax
	addq	$48, %rsp
	popq	%rbp
	retq
.Ltmp1:
.Lfunc_end0:
	.seh_handlerdata
	.section	.text,"xr",one_only,_ZN36_$LT$T$u20$as$u20$core..any..Any$GT$11get_type_id17he2ba998358980a5cE
.Lcfi5:
	.seh_endproc

	.def	 _ZN4core3any6TypeId2of17h4ebc11a80038cbd5E;
	.scl	3;
	.type	32;
	.endef
	.section	.text,"xr",one_only,_ZN4core3any6TypeId2of17h4ebc11a80038cbd5E
	.p2align	4, 0x90
_ZN4core3any6TypeId2of17h4ebc11a80038cbd5E:
.Lfunc_begin1:
	.cv_func_id 1
	.cv_loc	1 1 370 0
.Lcfi6:
.seh_proc _ZN4core3any6TypeId2of17h4ebc11a80038cbd5E
	pushq	%rbp
.Lcfi7:
	.seh_pushreg 5
	subq	$24, %rsp
.Lcfi8:
	.seh_stackalloc 24
	leaq	16(%rsp), %rbp
.Lcfi9:
	.seh_setframe 5, 16
.Lcfi10:
	.seh_endprologue
	movabsq	$1229646359891580772, %rax
.Ltmp2:
	.cv_loc	1 1 372 0
	movq	%rax, (%rbp)
	movq	(%rbp), %rax
	movq	%rax, -16(%rbp)
.Ltmp3:
	.cv_loc	1 1 371 0
	movq	-16(%rbp), %rax
	movq	%rax, -8(%rbp)
	.cv_loc	1 1 374 0
	movq	-8(%rbp), %rax
	addq	$24, %rsp
	popq	%rbp
	retq
.Ltmp4:
.Lfunc_end1:
	.seh_handlerdata
	.section	.text,"xr",one_only,_ZN4core3any6TypeId2of17h4ebc11a80038cbd5E
.Lcfi11:
	.seh_endproc

	.def	 _ZN4core3any6TypeId2of17hae11767799f084f6E;
	.scl	2;
	.type	32;
	.endef
	.section	.text,"xr",one_only,_ZN4core3any6TypeId2of17hae11767799f084f6E
	.globl	_ZN4core3any6TypeId2of17hae11767799f084f6E
	.p2align	4, 0x90
_ZN4core3any6TypeId2of17hae11767799f084f6E:
.Lfunc_begin2:
	.cv_func_id 2
	.cv_loc	2 1 370 0
.Lcfi12:
.seh_proc _ZN4core3any6TypeId2of17hae11767799f084f6E
	pushq	%rbp
.Lcfi13:
	.seh_pushreg 5
	subq	$24, %rsp
.Lcfi14:
	.seh_stackalloc 24
	leaq	16(%rsp), %rbp
.Lcfi15:
	.seh_setframe 5, 16
.Lcfi16:
	.seh_endprologue
	movabsq	$-8585690421204938250, %rax
.Ltmp5:
	.cv_loc	2 1 372 0
	movq	%rax, (%rbp)
	movq	(%rbp), %rax
	movq	%rax, -16(%rbp)
.Ltmp6:
	.cv_loc	2 1 371 0
	movq	-16(%rbp), %rax
	movq	%rax, -8(%rbp)
	.cv_loc	2 1 374 0
	movq	-8(%rbp), %rax
	addq	$24, %rsp
	popq	%rbp
	retq
.Ltmp7:
.Lfunc_end2:
	.seh_handlerdata
	.section	.text,"xr",one_only,_ZN4core3any6TypeId2of17hae11767799f084f6E
.Lcfi17:
	.seh_endproc

	.def	 _ZN4core3any6TypeId2of17hb5f4f4caa935eb80E;
	.scl	2;
	.type	32;
	.endef
	.section	.text,"xr",one_only,_ZN4core3any6TypeId2of17hb5f4f4caa935eb80E
	.globl	_ZN4core3any6TypeId2of17hb5f4f4caa935eb80E
	.p2align	4, 0x90
_ZN4core3any6TypeId2of17hb5f4f4caa935eb80E:
.Lfunc_begin3:
	.cv_func_id 3
	.cv_loc	3 1 370 0
.Lcfi18:
.seh_proc _ZN4core3any6TypeId2of17hb5f4f4caa935eb80E
	pushq	%rbp
.Lcfi19:
	.seh_pushreg 5
	subq	$24, %rsp
.Lcfi20:
	.seh_stackalloc 24
	leaq	16(%rsp), %rbp
.Lcfi21:
	.seh_setframe 5, 16
.Lcfi22:
	.seh_endprologue
	movabsq	$-5167651759742249924, %rax
.Ltmp8:
	.cv_loc	3 1 372 0
	movq	%rax, (%rbp)
	movq	(%rbp), %rax
	movq	%rax, -16(%rbp)
.Ltmp9:
	.cv_loc	3 1 371 0
	movq	-16(%rbp), %rax
	movq	%rax, -8(%rbp)
	.cv_loc	3 1 374 0
	movq	-8(%rbp), %rax
	addq	$24, %rsp
	popq	%rbp
	retq
.Ltmp10:
.Lfunc_end3:
	.seh_handlerdata
	.section	.text,"xr",one_only,_ZN4core3any6TypeId2of17hb5f4f4caa935eb80E
.Lcfi23:
	.seh_endproc
