	.text
	.def	 _ZN106_$LT$std..collections..hash..map..HashMap$LT$K$C$$u20$V$C$$u20$S$GT$$u20$as$u20$core..default..Default$GT$7default17hb6659a2141a47d7bE;
	.scl	3;
	.type	32;
	.endef
	.section	.text,"xr",one_only,_ZN106_$LT$std..collections..hash..map..HashMap$LT$K$C$$u20$V$C$$u20$S$GT$$u20$as$u20$core..default..Default$GT$7default17hb6659a2141a47d7bE
	.p2align	4, 0x90
_ZN106_$LT$std..collections..hash..map..HashMap$LT$K$C$$u20$V$C$$u20$S$GT$$u20$as$u20$core..default..Default$GT$7default17hb6659a2141a47d7bE:
.Lfunc_begin0:
	.cv_func_id 0
	.cv_file	1 "C:\\projects\\rust\\src\\libstd\\collections\\hash\\map.rs"
	.cv_loc	0 1 1374 0 is_stmt 0
.Lcfi0:
.seh_proc _ZN106_$LT$std..collections..hash..map..HashMap$LT$K$C$$u20$V$C$$u20$S$GT$$u20$as$u20$core..default..Default$GT$7default17hb6659a2141a47d7bE
	pushq	%rbp
.Lcfi1:
	.seh_pushreg 5
	subq	$64, %rsp
.Lcfi2:
	.seh_stackalloc 64
	leaq	64(%rsp), %rbp
.Lcfi3:
	.seh_setframe 5, 64
.Lcfi4:
	.seh_endprologue
	movq	%rcx, %rax
.Ltmp0:
	.cv_loc	0 1 1375 0
	movq	%rax, -8(%rbp)
	movq	%rcx, -16(%rbp)
	callq	_ZN83_$LT$std..collections..hash..map..RandomState$u20$as$u20$core..default..Default$GT$7default17h9693d1707dfcb0ceE
	movq	%rax, -24(%rbp)
	movq	%rdx, -32(%rbp)
	movq	-16(%rbp), %rcx
	movq	-24(%rbp), %rdx
	movq	-32(%rbp), %r8
	callq	_ZN72_$LT$std..collections..hash..map..HashMap$LT$K$C$$u20$V$C$$u20$S$GT$$GT$11with_hasher17h70b9a70f3c3ed0deE
	.cv_loc	0 1 1376 0
	movq	-8(%rbp), %rax
	addq	$64, %rsp
	popq	%rbp
	retq
.Ltmp1:
.Lfunc_end0:
	.seh_handlerdata
	.section	.text,"xr",one_only,_ZN106_$LT$std..collections..hash..map..HashMap$LT$K$C$$u20$V$C$$u20$S$GT$$u20$as$u20$core..default..Default$GT$7default17hb6659a2141a47d7bE
.Lcfi5:
	.seh_endproc

	.def	 _ZN157_$LT$std..collections..hash..map..InternalEntry$LT$K$C$$u20$V$C$$u20$$RF$$u27$a$u20$mut$u20$std..collections..hash..table..RawTable$LT$K$C$$u20$V$GT$$GT$$GT$10into_entry17h57d678806ed19174E;
	.scl	3;
	.type	32;
	.endef
	.section	.text,"xr",one_only,_ZN157_$LT$std..collections..hash..map..InternalEntry$LT$K$C$$u20$V$C$$u20$$RF$$u27$a$u20$mut$u20$std..collections..hash..table..RawTable$LT$K$C$$u20$V$GT$$GT$$GT$10into_entry17h57d678806ed19174E
	.p2align	4, 0x90
_ZN157_$LT$std..collections..hash..map..InternalEntry$LT$K$C$$u20$V$C$$u20$$RF$$u27$a$u20$mut$u20$std..collections..hash..table..RawTable$LT$K$C$$u20$V$GT$$GT$$GT$10into_entry17h57d678806ed19174E:
.Lfunc_begin1:
	.cv_func_id 1
	.cv_loc	1 1 1549 0
.Lcfi6:
.seh_proc _ZN157_$LT$std..collections..hash..map..InternalEntry$LT$K$C$$u20$V$C$$u20$$RF$$u27$a$u20$mut$u20$std..collections..hash..table..RawTable$LT$K$C$$u20$V$GT$$GT$$GT$10into_entry17h57d678806ed19174E
	pushq	%rbp
.Lcfi7:
	.seh_pushreg 5
	pushq	%rsi
.Lcfi8:
	.seh_pushreg 6
	pushq	%rdi
.Lcfi9:
	.seh_pushreg 7
	pushq	%rbx
.Lcfi10:
	.seh_pushreg 3
	subq	$616, %rsp
.Lcfi11:
	.seh_stackalloc 616
	leaq	128(%rsp), %rbp
.Lcfi12:
	.seh_setframe 5, 128
.Lcfi13:
	.seh_endprologue
	movq	%rcx, %rax
	movl	%r8d, 52(%rbp)
.Ltmp2:
	.cv_loc	1 1 1551 0
	movb	$0, 487(%rbp)
	movb	$1, 487(%rbp)
	movq	(%rdx), %r9
	testq	%r9, %r9
	movq	%rax, 40(%rbp)
	movq	%rcx, 32(%rbp)
	movq	%rdx, 24(%rbp)
.Ltmp3:
	movq	%r9, 16(%rbp)
	je	.LBB1_3
	jmp	.LBB1_8
.Ltmp4:
.LBB1_8:
	movq	16(%rbp), %rax
	subq	$1, %rax
	movq	%rax, 8(%rbp)
	je	.LBB1_4
	jmp	.LBB1_9
.Ltmp5:
.LBB1_9:
	movq	16(%rbp), %rax
	subq	$2, %rax
	movq	%rax, (%rbp)
	jne	.LBB1_2
	jmp	.LBB1_1
.Ltmp6:
.LBB1_1:
	.cv_loc	1 1 1564 0
	movq	32(%rbp), %rax
	movq	$2, (%rax)
	.cv_loc	1 1 1550 0
	jmp	.LBB1_5
.Ltmp7:
.LBB1_2:
	.cv_loc	1 1 1566 0
	ud2
.Ltmp8:
.LBB1_3:
	movl	$72, %eax
	movl	%eax, %r8d
	leaq	144(%rbp), %rcx
	movl	$40, %eax
	movl	%eax, %edx
	leaq	216(%rbp), %r9
	.cv_loc	1 1 1551 0
	movq	24(%rbp), %r10
	movq	8(%r10), %r11
	movq	%r11, 56(%rbp)
	movq	16(%r10), %r11
	movq	%r11, 64(%rbp)
	movq	24(%r10), %r11
	movq	%r11, 72(%rbp)
	movq	32(%r10), %r11
	movq	%r11, 80(%rbp)
.Ltmp9:
	.cv_loc	1 1 1553 0
	movb	$0, 487(%rbp)
	movl	52(%rbp), %eax
	movl	%eax, 260(%rbp)
	.cv_loc	1 1 1554 0
	movq	56(%rbp), %r11
	movq	%r11, 264(%rbp)
	movq	64(%rbp), %r11
	movq	%r11, 272(%rbp)
	movq	72(%rbp), %r11
	movq	%r11, 280(%rbp)
	movq	80(%rbp), %r11
	movq	%r11, 288(%rbp)
	.cv_loc	1 1 1552 0
	movl	260(%rbp), %eax
	movl	%eax, 248(%rbp)
	movq	264(%rbp), %r11
	movq	%r11, 216(%rbp)
	movq	272(%rbp), %r11
	movq	%r11, 224(%rbp)
	movq	280(%rbp), %r11
	movq	%r11, 232(%rbp)
	movq	288(%rbp), %r11
	movq	%r11, 240(%rbp)
	movq	$0, 144(%rbp)
	movq	%rcx, %r11
	addq	$8, %r11
	movq	%rcx, -8(%rbp)
	movq	%r11, %rcx
	movq	%rdx, -16(%rbp)
	movq	%r9, %rdx
	movq	-16(%rbp), %r9
	movq	%r8, -24(%rbp)
	movq	%r9, %r8
	callq	memcpy
	movq	32(%rbp), %rcx
	movq	-8(%rbp), %rdx
	movq	-24(%rbp), %r8
	callq	memcpy
.Ltmp10:
	.cv_loc	1 1 1550 0
	jmp	.LBB1_5
.Ltmp11:
.LBB1_4:
	movl	$72, %eax
	movl	%eax, %r8d
	leaq	296(%rbp), %rcx
	movl	$64, %eax
	movl	%eax, %edx
	leaq	368(%rbp), %r9
	movl	$48, %eax
	movl	%eax, %r10d
	leaq	432(%rbp), %r11
	leaq	96(%rbp), %rsi
	.cv_loc	1 1 1557 0
	movq	24(%rbp), %rdi
	movq	8(%rdi), %rbx
	movq	%rbx, 88(%rbp)
	addq	$16, %rdi
	movq	%rsi, %rbx
	movq	%rcx, -32(%rbp)
	movq	%rbx, %rcx
	movq	%rdx, -40(%rbp)
	movq	%rdi, %rdx
	movq	%r8, -48(%rbp)
	movq	%r10, %r8
	movq	%r10, -56(%rbp)
	movq	%rsi, -64(%rbp)
	movq	%r11, -72(%rbp)
	movq	%r9, -80(%rbp)
	callq	memcpy
.Ltmp12:
	.cv_loc	1 1 1559 0
	movq	88(%rbp), %rcx
	.cv_loc	1 1 1560 0
	movb	$0, 487(%rbp)
	movl	52(%rbp), %eax
	.cv_loc	1 1 1561 0
	movq	-64(%rbp), %rdx
	movq	-72(%rbp), %r8
	movq	%rcx, -88(%rbp)
	movq	%r8, %rcx
	movq	-56(%rbp), %r8
	movl	%eax, -92(%rbp)
	callq	memcpy
	.cv_loc	1 1 1558 0
	movq	-88(%rbp), %rcx
	movq	%rcx, 368(%rbp)
	movl	-92(%rbp), %eax
	movl	%eax, 424(%rbp)
	movq	-80(%rbp), %rcx
	addq	$8, %rcx
	movq	-72(%rbp), %rdx
	movq	-56(%rbp), %r8
	callq	memcpy
	movq	$1, 296(%rbp)
	movq	-32(%rbp), %rcx
	addq	$8, %rcx
	movq	-80(%rbp), %rdx
	movq	-40(%rbp), %r8
	callq	memcpy
	movq	32(%rbp), %rcx
	movq	-32(%rbp), %rdx
	movq	-48(%rbp), %r8
	callq	memcpy
.Ltmp13:
.LBB1_5:
	.cv_loc	1 1 1566 0
	testb	$1, 487(%rbp)
	jne	.LBB1_7
.Ltmp14:
.LBB1_6:
	movq	40(%rbp), %rax
	addq	$616, %rsp
	popq	%rbx
	popq	%rdi
	popq	%rsi
	popq	%rbp
.Ltmp15:
	retq
.LBB1_7:
.Ltmp16:
	movb	$0, 487(%rbp)
	jmp	.LBB1_6
.Ltmp17:
.Lfunc_end1:
	.seh_handlerdata
	.section	.text,"xr",one_only,_ZN157_$LT$std..collections..hash..map..InternalEntry$LT$K$C$$u20$V$C$$u20$$RF$$u27$a$u20$mut$u20$std..collections..hash..table..RawTable$LT$K$C$$u20$V$GT$$GT$$GT$10into_entry17h57d678806ed19174E
.Lcfi14:
	.seh_endproc

	.def	 _ZN3std11collections4hash3map10robin_hood17h525b1b6fdc493008E;
	.scl	3;
	.type	32;
	.endef
	.section	.text,"xr",one_only,_ZN3std11collections4hash3map10robin_hood17h525b1b6fdc493008E
	.p2align	4, 0x90
_ZN3std11collections4hash3map10robin_hood17h525b1b6fdc493008E:
.Lfunc_begin2:
	.cv_func_id 2
	.cv_loc	2 1 480 0
.Lcfi15:
.seh_proc _ZN3std11collections4hash3map10robin_hood17h525b1b6fdc493008E
	.seh_handler __CxxFrameHandler3, @unwind, @except
	pushq	%rbp
.Lcfi16:
	.seh_pushreg 5
	subq	$1136, %rsp
.Lcfi17:
	.seh_stackalloc 1136
	leaq	128(%rsp), %rbp
.Lcfi18:
	.seh_setframe 5, 128
.Lcfi19:
	.seh_endprologue
	movq	$-2, 1000(%rbp)
	movq	%rcx, %rax
	movb	1064(%rbp), %r10b
	movl	1056(%rbp), %r11d
	movq	%r8, 72(%rbp)
	movq	%r9, 80(%rbp)
	movl	%r11d, 88(%rbp)
	andb	$1, %r10b
	movb	%r10b, 95(%rbp)
.Ltmp46:
	.cv_loc	2 1 486 0
	movb	$0, 996(%rbp)
	movb	$0, 999(%rbp)
	movb	$0, 998(%rbp)
	movb	$0, 997(%rbp)
	movb	$1, 996(%rbp)
	movb	$1, 997(%rbp)
.Ltmp18:
	movq	%rcx, 64(%rbp)
	movq	%rdx, %rcx
	movq	%rax, 56(%rbp)
	movq	%rdx, 48(%rbp)
.Ltmp47:
	callq	_ZN77_$LT$std..collections..hash..table..FullBucket$LT$K$C$$u20$V$C$$u20$M$GT$$GT$5table17ha3b7b6e66361b830E
.Ltmp19:
	movq	%rax, 40(%rbp)
	jmp	.LBB2_2
.Ltmp48:
.LBB2_2:
	movq	40(%rbp), %rax
	movq	(%rax), %rcx
.Ltmp20:
	callq	_ZN66_$LT$std..collections..hash..table..RawTable$LT$K$C$$u20$V$GT$$GT$4size17hf0c4ba37d587adacE
.Ltmp21:
	movq	%rax, 32(%rbp)
	jmp	.LBB2_4
.Ltmp49:
.LBB2_4:
	movq	32(%rbp), %rax
	movq	%rax, 96(%rbp)
.Ltmp50:
	.cv_loc	2 1 487 0
.Ltmp22:
	movq	48(%rbp), %rcx
	callq	_ZN77_$LT$std..collections..hash..table..FullBucket$LT$K$C$$u20$V$C$$u20$M$GT$$GT$5table17ha3b7b6e66361b830E
.Ltmp23:
	movq	%rax, 24(%rbp)
	jmp	.LBB2_5
.Ltmp51:
.LBB2_5:
	movq	24(%rbp), %rax
	movq	(%rax), %rcx
.Ltmp24:
	callq	_ZN66_$LT$std..collections..hash..table..RawTable$LT$K$C$$u20$V$GT$$GT$8capacity17h98f7540f40b98664E
.Ltmp25:
	movq	%rax, 16(%rbp)
	jmp	.LBB2_6
.Ltmp52:
.LBB2_6:
	movq	16(%rbp), %rax
	movq	%rax, 104(%rbp)
.Ltmp53:
	.cv_loc	2 1 491 0
.Ltmp26:
	movq	48(%rbp), %rcx
	callq	_ZN77_$LT$std..collections..hash..table..FullBucket$LT$K$C$$u20$V$C$$u20$M$GT$$GT$5index17h3064344bfd381902E
.Ltmp27:
	movq	%rax, 8(%rbp)
	jmp	.LBB2_7
.Ltmp54:
.LBB2_7:
	movq	96(%rbp), %rax
	movq	8(%rbp), %rcx
	addq	%rax, %rcx
.Ltmp28:
	movq	48(%rbp), %rax
	movq	%rcx, (%rbp)
	movq	%rax, %rcx
	callq	_ZN77_$LT$std..collections..hash..table..FullBucket$LT$K$C$$u20$V$C$$u20$M$GT$$GT$12displacement17h92146762f2c0ef19E
.Ltmp29:
	movq	%rax, -8(%rbp)
	jmp	.LBB2_8
.Ltmp55:
.LBB2_8:
	movq	(%rbp), %rax
	movq	-8(%rbp), %rcx
	subq	%rcx, %rax
	movq	104(%rbp), %rdx
	cmpq	$0, %rdx
	sete	%r8b
	testb	$1, %r8b
	movq	%rax, -16(%rbp)
	movq	%rdx, -24(%rbp)
	jne	.LBB2_31
.Ltmp56:
	xorl	%eax, %eax
	movl	%eax, %edx
	movq	-16(%rbp), %rax
	movq	-24(%rbp), %rcx
	divq	%rcx
	movq	%rdx, 112(%rbp)
.Ltmp57:
	.cv_loc	2 1 493 0
	movq	48(%rbp), %rax
	movups	(%rax), %xmm0
	movups	16(%rax), %xmm1
	movaps	%xmm1, 192(%rbp)
	movaps	%xmm0, 176(%rbp)
.Ltmp30:
	leaq	120(%rbp), %rcx
	leaq	176(%rbp), %rdx
	callq	_ZN77_$LT$std..collections..hash..table..FullBucket$LT$K$C$$u20$V$C$$u20$M$GT$$GT$5stash17ha0f95d62ee507a13E
.Ltmp31:
	jmp	.LBB2_10
.Ltmp58:
.LBB2_10:
	.cv_loc	2 1 495 0
	jmp	.LBB2_11
.Ltmp59:
.LBB2_11:
	.cv_loc	2 1 496 0
	movq	80(%rbp), %r8
	movb	$0, 996(%rbp)
	movl	88(%rbp), %r9d
	movb	$0, 997(%rbp)
	movzbl	95(%rbp), %eax
.Ltmp32:
	movq	%rsp, %rcx
	movl	%eax, 32(%rcx)
	leaq	232(%rbp), %rcx
	leaq	120(%rbp), %rdx
	callq	_ZN77_$LT$std..collections..hash..table..FullBucket$LT$K$C$$u20$V$C$$u20$M$GT$$GT$7replace17ha8a57240b4cf4ed9E
.Ltmp33:
	jmp	.LBB2_12
.Ltmp60:
.LBB2_12:
	movq	232(%rbp), %rax
	movq	%rax, 216(%rbp)
	movb	$1, 998(%rbp)
	movl	240(%rbp), %ecx
	movl	%ecx, 224(%rbp)
	movb	$1, 999(%rbp)
	movb	244(%rbp), %dl
	andb	$1, %dl
	movb	%dl, 231(%rbp)
.Ltmp61:
	.cv_loc	2 1 497 0
	movq	216(%rbp), %rax
	movq	%rax, 80(%rbp)
	.cv_loc	2 1 498 0
	movb	$0, 998(%rbp)
	movl	224(%rbp), %ecx
	movb	$1, 996(%rbp)
	movl	%ecx, 88(%rbp)
	.cv_loc	2 1 499 0
	movb	$0, 999(%rbp)
	movb	231(%rbp), %dl
	movb	$1, 997(%rbp)
	andb	$1, %dl
	movb	%dl, 95(%rbp)
	.cv_loc	2 1 501 0
	jmp	.LBB2_14
.Ltmp62:
.LBB2_14:
	.cv_loc	2 1 502 0
	movq	72(%rbp), %rax
	incq	%rax
	movq	%rax, 72(%rbp)
	.cv_loc	2 1 503 0
	movq	168(%rbp), %rax
	movq	%rax, 352(%rbp)
	movups	120(%rbp), %xmm0
	movups	136(%rbp), %xmm1
	movups	152(%rbp), %xmm2
	movaps	%xmm2, 336(%rbp)
	movaps	%xmm1, 320(%rbp)
	movaps	%xmm0, 304(%rbp)
.Ltmp34:
	leaq	248(%rbp), %rcx
	leaq	304(%rbp), %rdx
	callq	_ZN77_$LT$std..collections..hash..table..FullBucket$LT$K$C$$u20$V$C$$u20$M$GT$$GT$4next17ha7685f06be2f15b9E
.Ltmp35:
	jmp	.LBB2_15
.Ltmp63:
.LBB2_15:
	.cv_loc	2 1 506 0
	movq	296(%rbp), %rax
	movq	%rax, 544(%rbp)
	movups	248(%rbp), %xmm0
	movups	264(%rbp), %xmm1
	movups	280(%rbp), %xmm2
	movaps	%xmm2, 528(%rbp)
	movaps	%xmm1, 512(%rbp)
	movaps	%xmm0, 496(%rbp)
.Ltmp36:
	leaq	432(%rbp), %rcx
	leaq	496(%rbp), %rdx
	callq	_ZN73_$LT$std..collections..hash..table..Bucket$LT$K$C$$u20$V$C$$u20$M$GT$$GT$4peek17hbbd04980444a0a31E
.Ltmp37:
	jmp	.LBB2_16
.Ltmp64:
.LBB2_16:
	.cv_loc	2 1 507 0
	movq	432(%rbp), %rax
	testq	%rax, %rax
	movq	%rax, -32(%rbp)
	je	.LBB2_18
	jmp	.LBB2_34
.Ltmp65:
.LBB2_34:
	movq	-32(%rbp), %rax
	subq	$1, %rax
	movq	%rax, -40(%rbp)
	je	.LBB2_19
	jmp	.LBB2_17
.Ltmp66:
.LBB2_17:
	.cv_loc	2 1 533 0
	ud2
.Ltmp67:
.LBB2_18:
	.cv_loc	2 1 507 0
	movq	488(%rbp), %rax
	movq	%rax, 608(%rbp)
	movups	440(%rbp), %xmm0
	movups	456(%rbp), %xmm1
	movups	472(%rbp), %xmm2
	movaps	%xmm2, 592(%rbp)
	movaps	%xmm1, 576(%rbp)
	movaps	%xmm0, 560(%rbp)
.Ltmp68:
	.cv_loc	2 1 509 0
	movq	608(%rbp), %rax
	movq	%rax, 784(%rbp)
	movaps	560(%rbp), %xmm0
	movaps	576(%rbp), %xmm1
	movaps	592(%rbp), %xmm2
	movaps	%xmm2, 768(%rbp)
	movaps	%xmm1, 752(%rbp)
	movaps	%xmm0, 736(%rbp)
	movq	80(%rbp), %r8
	movb	$0, 996(%rbp)
	movl	88(%rbp), %r9d
	movb	$0, 997(%rbp)
	movzbl	95(%rbp), %ecx
.Ltmp40:
	movq	%rsp, %rax
	movl	%ecx, 32(%rax)
	leaq	680(%rbp), %rcx
	leaq	736(%rbp), %rdx
	callq	_ZN78_$LT$std..collections..hash..table..EmptyBucket$LT$K$C$$u20$V$C$$u20$M$GT$$GT$3put17h4aa58822f14f0e83E
.Ltmp41:
	jmp	.LBB2_20
.Ltmp69:
.LBB2_19:
	.cv_loc	2 1 519 0
	movq	488(%rbp), %rax
	movq	%rax, 672(%rbp)
	movups	440(%rbp), %xmm0
	movups	456(%rbp), %xmm1
	movups	472(%rbp), %xmm2
	movaps	%xmm2, 656(%rbp)
	movaps	%xmm1, 640(%rbp)
	movaps	%xmm0, 624(%rbp)
.Ltmp70:
	.cv_loc	2 1 519 0
	movq	672(%rbp), %rax
	movq	%rax, 912(%rbp)
	movaps	624(%rbp), %xmm0
	movaps	640(%rbp), %xmm1
	movaps	656(%rbp), %xmm2
	movaps	%xmm2, 896(%rbp)
	movaps	%xmm1, 880(%rbp)
	movaps	%xmm0, 864(%rbp)
	movq	912(%rbp), %rax
	movq	%rax, 416(%rbp)
	movaps	864(%rbp), %xmm0
	movaps	880(%rbp), %xmm1
	movaps	896(%rbp), %xmm2
	movaps	%xmm2, 400(%rbp)
	movaps	%xmm1, 384(%rbp)
	movaps	%xmm0, 368(%rbp)
.Ltmp71:
	.cv_loc	2 1 522 0
.Ltmp38:
	leaq	368(%rbp), %rcx
	callq	_ZN77_$LT$std..collections..hash..table..FullBucket$LT$K$C$$u20$V$C$$u20$M$GT$$GT$12displacement17h94190e77b773f9d4E
.Ltmp39:
	movq	%rax, -48(%rbp)
	jmp	.LBB2_22
.Ltmp72:
.LBB2_20:
	.cv_loc	2 1 517 0
	movq	728(%rbp), %rax
	movq	%rax, 848(%rbp)
	movups	680(%rbp), %xmm0
	movups	696(%rbp), %xmm1
	movups	712(%rbp), %xmm2
	movaps	%xmm2, 832(%rbp)
	movaps	%xmm1, 816(%rbp)
	movaps	%xmm0, 800(%rbp)
.Ltmp42:
	leaq	800(%rbp), %rdx
	movq	64(%rbp), %rcx
	callq	_ZN77_$LT$std..collections..hash..table..FullBucket$LT$K$C$$u20$V$C$$u20$M$GT$$GT$10into_table17h40fd98ddf8cf4734E
.Ltmp43:
	jmp	.LBB2_21
.Ltmp73:
.LBB2_21:
	.cv_loc	2 1 532 0
	movb	$0, 999(%rbp)
	movb	$0, 998(%rbp)
.Ltmp74:
	.cv_loc	2 1 533 0
	movq	56(%rbp), %rax
	addq	$1136, %rsp
	popq	%rbp
.Ltmp75:
	retq
.LBB2_22:
.Ltmp76:
	movl	$56, %eax
	movl	%eax, %ecx
	leaq	120(%rbp), %rdx
	leaq	936(%rbp), %r8
	leaq	368(%rbp), %r9
.Ltmp77:
	.cv_loc	2 1 522 0
	movq	-48(%rbp), %r10
	movq	%r10, 928(%rbp)
.Ltmp78:
	.cv_loc	2 1 524 0
	movq	%r8, %r11
	movq	%rcx, -56(%rbp)
	movq	%r11, %rcx
	movq	%rdx, -64(%rbp)
	movq	%r9, %rdx
	movq	-56(%rbp), %r9
	movq	%r8, -72(%rbp)
	movq	%r9, %r8
	callq	memcpy
	movq	-72(%rbp), %rcx
	movq	-64(%rbp), %rdx
	movq	%rcx, -80(%rbp)
	movq	%rdx, %rcx
	movq	-80(%rbp), %rdx
	movq	-56(%rbp), %r8
	callq	memcpy
	.cv_loc	2 1 527 0
	movq	928(%rbp), %rcx
	cmpq	72(%rbp), %rcx
	jae	.LBB2_24
.Ltmp79:
	.cv_loc	2 1 528 0
	movq	928(%rbp), %rax
	movq	%rax, 72(%rbp)
.Ltmp80:
	.cv_loc	2 1 532 0
	movb	$0, 999(%rbp)
	movb	$0, 998(%rbp)
	.cv_loc	2 1 495 0
	jmp	.LBB2_11
.Ltmp81:
.LBB2_24:
	.cv_loc	2 1 501 0
	jmp	.LBB2_14
.Ltmp82:
.LBB2_31:
	.cv_loc	2 1 491 0
.Ltmp44:
	leaq	panic_loc.2(%rip), %rcx
	callq	_ZN4core9panicking5panic17hb14241805eba0fdcE
.Ltmp45:
	jmp	.LBB2_32
.Ltmp83:
.LBB2_32:
	ud2
.Ltmp84:
.LBB2_13:
	.cv_loc	2 1 532 0
	testb	$1, 998(%rbp)
	jne	.LBB2_27
	jmp	.LBB2_33
.LBB2_27:
	movb	$0, 998(%rbp)
	addq	$48, %rsp
	popq	%rbp
	retq
.LBB2_28:
	movb	$0, 999(%rbp)
	jmp	.LBB2_13
	.seh_handlerdata
	.long	($cppxdata$_ZN3std11collections4hash3map10robin_hood17h525b1b6fdc493008E)@IMGREL
	.section	.text,"xr",one_only,_ZN3std11collections4hash3map10robin_hood17h525b1b6fdc493008E
.Lcfi20:
	.seh_endproc
	.def	 "?dtor$29@?0?_ZN3std11collections4hash3map10robin_hood17h525b1b6fdc493008E@4HA";
	.scl	3;
	.type	32;
	.endef
	.p2align	4, 0x90
"?dtor$29@?0?_ZN3std11collections4hash3map10robin_hood17h525b1b6fdc493008E@4HA":
.Lcfi21:
.seh_proc "?dtor$29@?0?_ZN3std11collections4hash3map10robin_hood17h525b1b6fdc493008E@4HA"
.LBB2_29:
.Ltmp85:
	movq	%rdx, 16(%rsp)
	pushq	%rbp
.Lcfi22:
	.seh_pushreg 5
	subq	$48, %rsp
.Lcfi23:
	.seh_stackalloc 48
	leaq	128(%rdx), %rbp
.Ltmp86:
.Lcfi24:
	.seh_endprologue
	testb	$1, 999(%rbp)
	jne	.LBB2_28
	jmp	.LBB2_13
.Ltmp87:
.LBB2_33:
	addq	$48, %rsp
	popq	%rbp
	retq
.LBB2_1:
	.cv_loc	2 1 480 0
	addq	$48, %rsp
	popq	%rbp
	retq
.LBB2_3:
	.cv_loc	2 1 533 0
	testb	$1, 996(%rbp)
	jne	.LBB2_25
	jmp	.LBB2_1
.LBB2_25:
	movb	$0, 996(%rbp)
	jmp	.LBB2_1
.LBB2_26:
	movb	$0, 997(%rbp)
	jmp	.LBB2_3
	.seh_handlerdata
	.section	.text,"xr",one_only,_ZN3std11collections4hash3map10robin_hood17h525b1b6fdc493008E
.Lcfi25:
	.seh_endproc
	.def	 "?dtor$30@?0?_ZN3std11collections4hash3map10robin_hood17h525b1b6fdc493008E@4HA";
	.scl	3;
	.type	32;
	.endef
	.p2align	4, 0x90
"?dtor$30@?0?_ZN3std11collections4hash3map10robin_hood17h525b1b6fdc493008E@4HA":
.Lcfi26:
.seh_proc "?dtor$30@?0?_ZN3std11collections4hash3map10robin_hood17h525b1b6fdc493008E@4HA"
.LBB2_30:
	movq	%rdx, 16(%rsp)
	pushq	%rbp
.Lcfi27:
	.seh_pushreg 5
	subq	$48, %rsp
.Lcfi28:
	.seh_stackalloc 48
	leaq	128(%rdx), %rbp
.Lcfi29:
	.seh_endprologue
	testb	$1, 997(%rbp)
	jne	.LBB2_26
	jmp	.LBB2_3
.Ltmp88:
.Lfunc_end2:
	.seh_handlerdata
	.section	.text,"xr",one_only,_ZN3std11collections4hash3map10robin_hood17h525b1b6fdc493008E
.Lcfi30:
	.seh_endproc
	.section	.xdata,"dr",associative,_ZN3std11collections4hash3map10robin_hood17h525b1b6fdc493008E
	.p2align	2
$cppxdata$_ZN3std11collections4hash3map10robin_hood17h525b1b6fdc493008E:
	.long	429065506
	.long	2
	.long	($stateUnwindMap$_ZN3std11collections4hash3map10robin_hood17h525b1b6fdc493008E)@IMGREL
	.long	0
	.long	0
	.long	6
	.long	($ip2state$_ZN3std11collections4hash3map10robin_hood17h525b1b6fdc493008E)@IMGREL
	.long	1128
	.long	0
	.long	1
$stateUnwindMap$_ZN3std11collections4hash3map10robin_hood17h525b1b6fdc493008E:
	.long	-1
	.long	"?dtor$30@?0?_ZN3std11collections4hash3map10robin_hood17h525b1b6fdc493008E@4HA"@IMGREL
	.long	0
	.long	"?dtor$29@?0?_ZN3std11collections4hash3map10robin_hood17h525b1b6fdc493008E@4HA"@IMGREL
$ip2state$_ZN3std11collections4hash3map10robin_hood17h525b1b6fdc493008E:
	.long	.Lfunc_begin2@IMGREL
	.long	-1
	.long	.Ltmp18@IMGREL+1
	.long	0
	.long	.Ltmp34@IMGREL+1
	.long	1
	.long	.Ltmp43@IMGREL+1
	.long	-1
	.long	.Ltmp44@IMGREL+1
	.long	0
	.long	.Ltmp45@IMGREL+1
	.long	-1
	.section	.text,"xr",one_only,_ZN3std11collections4hash3map10robin_hood17h525b1b6fdc493008E

	.def	 _ZN3std11collections4hash3map11RandomState3new28_$u7b$$u7b$closure$u7d$$u7d$17h4fbd1df07ffba523E;
	.scl	2;
	.type	32;
	.endef
	.section	.text,"xr",one_only,_ZN3std11collections4hash3map11RandomState3new28_$u7b$$u7b$closure$u7d$$u7d$17h4fbd1df07ffba523E
	.globl	_ZN3std11collections4hash3map11RandomState3new28_$u7b$$u7b$closure$u7d$$u7d$17h4fbd1df07ffba523E
	.p2align	4, 0x90
_ZN3std11collections4hash3map11RandomState3new28_$u7b$$u7b$closure$u7d$$u7d$17h4fbd1df07ffba523E:
.Lfunc_begin3:
	.cv_func_id 3
	.cv_loc	3 1 2539 0
.Lcfi31:
.seh_proc _ZN3std11collections4hash3map11RandomState3new28_$u7b$$u7b$closure$u7d$$u7d$17h4fbd1df07ffba523E
	pushq	%rbp
.Lcfi32:
	.seh_pushreg 5
	subq	$128, %rsp
.Lcfi33:
	.seh_stackalloc 128
	leaq	128(%rsp), %rbp
.Lcfi34:
	.seh_setframe 5, 128
.Lcfi35:
	.seh_endprologue
	movq	%rcx, -56(%rbp)
.Ltmp89:
	.cv_loc	3 1 2540 0
	movq	-56(%rbp), %rcx
	callq	_ZN34_$LT$core..cell..Cell$LT$T$GT$$GT$3get17h6c778e58f9a2ec73E
	movq	%rax, -72(%rbp)
	movq	%rdx, -80(%rbp)
	movl	$1, %eax
	movl	%eax, %edx
	movq	-72(%rbp), %rcx
	movq	%rcx, -32(%rbp)
	movq	-80(%rbp), %r8
	movq	%r8, -24(%rbp)
.Ltmp90:
	.cv_loc	3 1 2541 0
	movq	-56(%rbp), %rcx
	movq	-32(%rbp), %r9
	movq	%rcx, -88(%rbp)
	movq	%r9, %rcx
	callq	_ZN4core3num21_$LT$impl$u20$u64$GT$12wrapping_add17h6eb05fc927508761E
	movq	%rax, -96(%rbp)
	movq	-24(%rbp), %rax
	movq	-96(%rbp), %rcx
	movq	%rcx, -16(%rbp)
	movq	%rax, -8(%rbp)
	movq	-16(%rbp), %rdx
	movq	-8(%rbp), %r8
	movq	-88(%rbp), %rcx
	callq	_ZN34_$LT$core..cell..Cell$LT$T$GT$$GT$3set17ha3b2355cd7f50606E
	.cv_loc	3 1 2542 0
	movq	-32(%rbp), %rax
	movq	-24(%rbp), %rcx
	movq	%rax, -48(%rbp)
	movq	%rcx, -40(%rbp)
.Ltmp91:
	.cv_loc	3 1 2543 0
	movq	-48(%rbp), %rax
	movq	-40(%rbp), %rdx
	addq	$128, %rsp
	popq	%rbp
	retq
.Ltmp92:
.Lfunc_end3:
	.seh_handlerdata
	.section	.text,"xr",one_only,_ZN3std11collections4hash3map11RandomState3new28_$u7b$$u7b$closure$u7d$$u7d$17h4fbd1df07ffba523E
.Lcfi36:
	.seh_endproc

	.def	 _ZN3std11collections4hash3map13search_hashed17h31f6bda6e6260ecaE;
	.scl	3;
	.type	32;
	.endef
	.section	.text,"xr",one_only,_ZN3std11collections4hash3map13search_hashed17h31f6bda6e6260ecaE
	.p2align	4, 0x90
_ZN3std11collections4hash3map13search_hashed17h31f6bda6e6260ecaE:
.Lfunc_begin4:
	.cv_func_id 4
	.cv_loc	4 1 402 0
.Lcfi37:
.seh_proc _ZN3std11collections4hash3map13search_hashed17h31f6bda6e6260ecaE
	.seh_handler __CxxFrameHandler3, @unwind, @except
	pushq	%rbp
.Lcfi38:
	.seh_pushreg 5
	subq	$736, %rsp
.Lcfi39:
	.seh_stackalloc 736
	leaq	128(%rsp), %rbp
.Lcfi40:
	.seh_setframe 5, 128
.Lcfi41:
	.seh_endprologue
	movq	$-2, 600(%rbp)
	movq	%rcx, %rax
	movq	%rdx, 32(%rbp)
	movq	%r8, 40(%rbp)
	movq	%r9, 48(%rbp)
.Ltmp117:
	.cv_loc	4 1 409 0
	movb	$0, 598(%rbp)
	movb	$0, 599(%rbp)
	movb	$1, 598(%rbp)
.Ltmp93:
	leaq	32(%rbp), %rdx
	movq	%rcx, 24(%rbp)
	movq	%rdx, %rcx
	movq	%rax, 16(%rbp)
	callq	_ZN68_$LT$$RF$$u27$a$u20$mut$u20$T$u20$as$u20$core..ops..deref..Deref$GT$5deref17h1222be5803b425fbE
.Ltmp94:
	movq	%rax, 8(%rbp)
	jmp	.LBB4_1
.Ltmp118:
.LBB4_1:
.Ltmp95:
	movq	8(%rbp), %rcx
	callq	_ZN66_$LT$std..collections..hash..table..RawTable$LT$K$C$$u20$V$GT$$GT$8capacity17h98f7540f40b98664E
.Ltmp96:
	movq	%rax, (%rbp)
	jmp	.LBB4_3
.Ltmp119:
.LBB4_3:
	movq	(%rbp), %rax
	cmpq	$0, %rax
	jne	.LBB4_5
.Ltmp120:
	.cv_loc	4 1 410 0
	movq	24(%rbp), %rax
	movq	$2, (%rax)
	jmp	.LBB4_7
.Ltmp121:
.LBB4_5:
	.cv_loc	4 1 413 0
.Ltmp97:
	leaq	32(%rbp), %rcx
	callq	_ZN68_$LT$$RF$$u27$a$u20$mut$u20$T$u20$as$u20$core..ops..deref..Deref$GT$5deref17h1222be5803b425fbE
.Ltmp98:
	movq	%rax, -8(%rbp)
	jmp	.LBB4_8
.Ltmp122:
.LBB4_6:
	.cv_loc	4 1 452 0
	movq	16(%rbp), %rax
	addq	$736, %rsp
	popq	%rbp
.Ltmp123:
	retq
.LBB4_7:
.Ltmp124:
	testb	$1, 598(%rbp)
	jne	.LBB4_32
	jmp	.LBB4_6
.Ltmp125:
.LBB4_8:
	.cv_loc	4 1 413 0
.Ltmp99:
	movq	-8(%rbp), %rcx
	callq	_ZN66_$LT$std..collections..hash..table..RawTable$LT$K$C$$u20$V$GT$$GT$4size17hf0c4ba37d587adacE
.Ltmp100:
	movq	%rax, -16(%rbp)
	jmp	.LBB4_9
.Ltmp126:
.LBB4_9:
	movq	-16(%rbp), %rax
	movq	%rax, 56(%rbp)
.Ltmp127:
	.cv_loc	4 1 414 0
	movb	$0, 598(%rbp)
	movq	32(%rbp), %rdx
	movq	40(%rbp), %r8
.Ltmp101:
	leaq	64(%rbp), %rcx
	callq	_ZN73_$LT$std..collections..hash..table..Bucket$LT$K$C$$u20$V$C$$u20$M$GT$$GT$3new17h42c4b5742678c041E
.Ltmp102:
	jmp	.LBB4_10
.Ltmp128:
.LBB4_10:
	.cv_loc	4 1 415 0
	movq	$0, 96(%rbp)
.Ltmp129:
.LBB4_11:
	.cv_loc	4 1 418 0
	movups	64(%rbp), %xmm0
	movups	80(%rbp), %xmm1
	movaps	%xmm1, 192(%rbp)
	movaps	%xmm0, 176(%rbp)
.Ltmp103:
	leaq	136(%rbp), %rcx
	leaq	176(%rbp), %rdx
	callq	_ZN73_$LT$std..collections..hash..table..Bucket$LT$K$C$$u20$V$C$$u20$M$GT$$GT$4peek17h77e6c3a10af2ac2fE
.Ltmp104:
	jmp	.LBB4_12
.Ltmp130:
.LBB4_12:
	.cv_loc	4 1 419 0
	movq	136(%rbp), %rax
	testq	%rax, %rax
	movq	%rax, -24(%rbp)
	je	.LBB4_14
	jmp	.LBB4_42
.Ltmp131:
.LBB4_42:
	movq	-24(%rbp), %rax
	subq	$1, %rax
	movq	%rax, -32(%rbp)
	je	.LBB4_15
	jmp	.LBB4_13
.Ltmp132:
.LBB4_13:
	.cv_loc	4 1 452 0
	ud2
.Ltmp133:
.LBB4_14:
	movl	$48, %eax
	movl	%eax, %r8d
	leaq	280(%rbp), %rcx
.Ltmp134:
	.cv_loc	4 1 419 0
	movq	144(%rbp), %rdx
	movq	%rdx, 216(%rbp)
	movq	152(%rbp), %rdx
	movq	%rdx, 224(%rbp)
	movq	160(%rbp), %rdx
	movq	%rdx, 232(%rbp)
	movq	168(%rbp), %rdx
	movq	%rdx, 240(%rbp)
.Ltmp135:
	.cv_loc	4 1 422 0
	movq	40(%rbp), %rdx
	.cv_loc	4 1 423 0
	movq	216(%rbp), %r9
	movq	%r9, 328(%rbp)
	movq	224(%rbp), %r9
	movq	%r9, 336(%rbp)
	movq	232(%rbp), %r9
	movq	%r9, 344(%rbp)
	movq	240(%rbp), %r9
	movq	%r9, 352(%rbp)
	movq	96(%rbp), %r9
	movq	$1, 280(%rbp)
	movq	328(%rbp), %r10
	movq	%r10, 288(%rbp)
	movq	336(%rbp), %r10
	movq	%r10, 296(%rbp)
	movq	344(%rbp), %r10
	movq	%r10, 304(%rbp)
	movq	352(%rbp), %r10
	movq	%r10, 312(%rbp)
	movq	%r9, 320(%rbp)
	.cv_loc	4 1 421 0
	movq	24(%rbp), %r9
	movq	$1, (%r9)
	movq	24(%rbp), %r10
	movq	%rdx, 8(%r10)
	addq	$16, %r9
	movq	%rcx, -40(%rbp)
	movq	%r9, %rcx
	movq	-40(%rbp), %rdx
	callq	memcpy
.Ltmp136:
	.cv_loc	4 1 427 0
	cmpq	$0, 136(%rbp)
	je	.LBB4_33
	jmp	.LBB4_34
.Ltmp137:
.LBB4_15:
	.cv_loc	4 1 426 0
	movq	144(%rbp), %rax
	movq	%rax, 248(%rbp)
	movq	152(%rbp), %rax
	movq	%rax, 256(%rbp)
	movq	160(%rbp), %rax
	movq	%rax, 264(%rbp)
	movq	168(%rbp), %rax
	movq	%rax, 272(%rbp)
.Ltmp138:
	.cv_loc	4 1 426 0
	movq	248(%rbp), %rax
	movq	%rax, 360(%rbp)
	movq	256(%rbp), %rax
	movq	%rax, 368(%rbp)
	movq	264(%rbp), %rax
	movq	%rax, 376(%rbp)
	movq	272(%rbp), %rax
	movq	%rax, 384(%rbp)
	movb	$1, 599(%rbp)
	movq	360(%rbp), %rax
	movq	%rax, 104(%rbp)
	movq	368(%rbp), %rax
	movq	%rax, 112(%rbp)
	movq	376(%rbp), %rax
	movq	%rax, 120(%rbp)
	movq	384(%rbp), %rax
	movq	%rax, 128(%rbp)
.Ltmp139:
	.cv_loc	4 1 427 0
	cmpq	$0, 136(%rbp)
	je	.LBB4_36
	jmp	.LBB4_35
.Ltmp140:
.LBB4_16:
	.cv_loc	4 1 421 0
	jmp	.LBB4_7
.Ltmp141:
.LBB4_17:
	.cv_loc	4 1 429 0
	movq	-48(%rbp), %rax
	movq	%rax, 392(%rbp)
.Ltmp142:
	.cv_loc	4 1 431 0
	movq	392(%rbp), %rcx
	cmpq	96(%rbp), %rcx
	jae	.LBB4_19
.Ltmp143:
	movl	$48, %eax
	movl	%eax, %r8d
	leaq	400(%rbp), %rcx
	.cv_loc	4 1 436 0
	movq	40(%rbp), %rdx
	.cv_loc	4 1 437 0
	movb	$0, 599(%rbp)
	movq	104(%rbp), %r9
	movq	%r9, 448(%rbp)
	movq	112(%rbp), %r9
	movq	%r9, 456(%rbp)
	movq	120(%rbp), %r9
	movq	%r9, 464(%rbp)
	movq	128(%rbp), %r9
	movq	%r9, 472(%rbp)
	movq	392(%rbp), %r9
	movq	$0, 400(%rbp)
	movq	448(%rbp), %r10
	movq	%r10, 408(%rbp)
	movq	456(%rbp), %r10
	movq	%r10, 416(%rbp)
	movq	464(%rbp), %r10
	movq	%r10, 424(%rbp)
	movq	472(%rbp), %r10
	movq	%r10, 432(%rbp)
	movq	%r9, 440(%rbp)
	.cv_loc	4 1 435 0
	movq	24(%rbp), %r9
	movq	$1, (%r9)
	movq	24(%rbp), %r10
	movq	%rdx, 8(%r10)
	addq	$16, %r9
	movq	%rcx, -56(%rbp)
	movq	%r9, %rcx
	movq	-56(%rbp), %rdx
	callq	memcpy
.Ltmp144:
	.cv_loc	4 1 435 0
	jmp	.LBB4_20
.Ltmp145:
.LBB4_19:
	.cv_loc	4 1 442 0
.Ltmp107:
	leaq	104(%rbp), %rcx
	callq	_ZN77_$LT$std..collections..hash..table..FullBucket$LT$K$C$$u20$V$C$$u20$M$GT$$GT$4hash17hb65c324c71e1c7f3E
.Ltmp108:
	movq	%rax, -64(%rbp)
	jmp	.LBB4_21
.Ltmp146:
.LBB4_20:
	.cv_loc	4 1 451 0
	movb	$0, 599(%rbp)
	.cv_loc	4 1 435 0
	jmp	.LBB4_16
.Ltmp147:
.LBB4_21:
	.cv_loc	4 1 442 0
	movq	-64(%rbp), %rax
	movq	%rax, 480(%rbp)
.Ltmp109:
	leaq	40(%rbp), %rcx
	leaq	480(%rbp), %rdx
	callq	_ZN80_$LT$std..collections..hash..table..SafeHash$u20$as$u20$core..cmp..PartialEq$GT$2eq17h3010ab25e61f8eb8E
.Ltmp110:
	movb	%al, -65(%rbp)
	jmp	.LBB4_22
.Ltmp148:
.LBB4_22:
	movb	-65(%rbp), %al
	testb	$1, %al
	jne	.LBB4_23
	jmp	.LBB4_24
.Ltmp149:
.LBB4_23:
	.cv_loc	4 1 444 0
.Ltmp111:
	leaq	104(%rbp), %rcx
	callq	_ZN77_$LT$std..collections..hash..table..FullBucket$LT$K$C$$u20$V$C$$u20$M$GT$$GT$4read17h4ee38f005c205d33E
.Ltmp112:
	movq	%rdx, -80(%rbp)
	movq	%rax, -88(%rbp)
	jmp	.LBB4_25
.Ltmp150:
.LBB4_24:
	.cv_loc	4 1 442 0
	jmp	.LBB4_29
.Ltmp151:
.LBB4_25:
	.cv_loc	4 1 444 0
	movq	-88(%rbp), %rax
	movq	%rax, 488(%rbp)
	movq	488(%rbp), %rdx
.Ltmp113:
	leaq	48(%rbp), %rcx
	callq	_ZN72_$LT$std..collections..hash..map..HashMap$LT$K$C$$u20$V$C$$u20$S$GT$$GT$21insert_hashed_nocheck28_$u7b$$u7b$closure$u7d$$u7d$17ha0bbfb677ae82d9cE
.Ltmp114:
	movb	%al, -89(%rbp)
	jmp	.LBB4_26
.Ltmp152:
.LBB4_26:
	movb	-89(%rbp), %al
	testb	$1, %al
	jne	.LBB4_27
	jmp	.LBB4_28
.Ltmp153:
.LBB4_27:
	.cv_loc	4 1 445 0
	movb	$0, 599(%rbp)
	movq	104(%rbp), %rax
	movq	%rax, 496(%rbp)
	movq	112(%rbp), %rax
	movq	%rax, 504(%rbp)
	movq	120(%rbp), %rax
	movq	%rax, 512(%rbp)
	movq	128(%rbp), %rax
	movq	%rax, 520(%rbp)
	movq	24(%rbp), %rax
	movq	$0, (%rax)
	movq	496(%rbp), %rcx
	movq	%rcx, 8(%rax)
	movq	504(%rbp), %rcx
	movq	%rcx, 16(%rax)
	movq	512(%rbp), %rcx
	movq	%rcx, 24(%rax)
	movq	520(%rbp), %rcx
	movq	%rcx, 32(%rax)
.Ltmp154:
	.cv_loc	4 1 445 0
	jmp	.LBB4_20
.Ltmp155:
.LBB4_28:
	.cv_loc	4 1 442 0
	jmp	.LBB4_29
.Ltmp156:
.LBB4_29:
	.cv_loc	4 1 448 0
	movq	96(%rbp), %rax
	incq	%rax
	movq	%rax, 96(%rbp)
	.cv_loc	4 1 449 0
	movb	$0, 599(%rbp)
	movups	104(%rbp), %xmm0
	movups	120(%rbp), %xmm1
	movaps	%xmm1, 576(%rbp)
	movaps	%xmm0, 560(%rbp)
.Ltmp115:
	leaq	528(%rbp), %rcx
	leaq	560(%rbp), %rdx
	callq	_ZN77_$LT$std..collections..hash..table..FullBucket$LT$K$C$$u20$V$C$$u20$M$GT$$GT$4next17he6265f366e297300E
.Ltmp116:
	jmp	.LBB4_30
.Ltmp157:
.LBB4_30:
	movq	528(%rbp), %rax
	movq	%rax, 64(%rbp)
	movq	536(%rbp), %rax
	movq	%rax, 72(%rbp)
	movq	544(%rbp), %rax
	movq	%rax, 80(%rbp)
	movq	552(%rbp), %rax
	movq	%rax, 88(%rbp)
.Ltmp158:
	.cv_loc	4 1 451 0
	movb	$0, 599(%rbp)
	.cv_loc	4 1 417 0
	jmp	.LBB4_11
.Ltmp159:
.LBB4_32:
	.cv_loc	4 1 452 0
	movb	$0, 598(%rbp)
	jmp	.LBB4_6
.Ltmp160:
.LBB4_33:
	.cv_loc	4 1 421 0
	jmp	.LBB4_16
.Ltmp161:
.LBB4_34:
	.cv_loc	4 1 427 0
	jmp	.LBB4_33
.Ltmp162:
.LBB4_35:
	.cv_loc	4 1 429 0
.Ltmp105:
	leaq	104(%rbp), %rcx
	callq	_ZN77_$LT$std..collections..hash..table..FullBucket$LT$K$C$$u20$V$C$$u20$M$GT$$GT$12displacement17h92146762f2c0ef19E
.Ltmp106:
	movq	%rax, -48(%rbp)
	jmp	.LBB4_17
.Ltmp163:
.LBB4_36:
	.cv_loc	4 1 427 0
	jmp	.LBB4_35
.Ltmp164:
.LBB4_2:
	.cv_loc	4 1 402 0
	addq	$32, %rsp
	popq	%rbp
	retq
.LBB4_31:
	.cv_loc	4 1 452 0
	movb	$0, 598(%rbp)
	jmp	.LBB4_2
	.seh_handlerdata
	.long	($cppxdata$_ZN3std11collections4hash3map13search_hashed17h31f6bda6e6260ecaE)@IMGREL
	.section	.text,"xr",one_only,_ZN3std11collections4hash3map13search_hashed17h31f6bda6e6260ecaE
.Lcfi42:
	.seh_endproc
	.def	 "?dtor$38@?0?_ZN3std11collections4hash3map13search_hashed17h31f6bda6e6260ecaE@4HA";
	.scl	3;
	.type	32;
	.endef
	.p2align	4, 0x90
"?dtor$38@?0?_ZN3std11collections4hash3map13search_hashed17h31f6bda6e6260ecaE@4HA":
.Lcfi43:
.seh_proc "?dtor$38@?0?_ZN3std11collections4hash3map13search_hashed17h31f6bda6e6260ecaE@4HA"
.LBB4_38:
	movq	%rdx, 16(%rsp)
	pushq	%rbp
.Lcfi44:
	.seh_pushreg 5
	subq	$32, %rsp
.Lcfi45:
	.seh_stackalloc 32
	leaq	128(%rdx), %rbp
.Lcfi46:
	.seh_endprologue
	testb	$1, 598(%rbp)
	jne	.LBB4_31
	jmp	.LBB4_2
	.seh_handlerdata
	.section	.text,"xr",one_only,_ZN3std11collections4hash3map13search_hashed17h31f6bda6e6260ecaE
.Lcfi47:
	.seh_endproc
	.def	 "?dtor$39@?0?_ZN3std11collections4hash3map13search_hashed17h31f6bda6e6260ecaE@4HA";
	.scl	3;
	.type	32;
	.endef
	.p2align	4, 0x90
"?dtor$39@?0?_ZN3std11collections4hash3map13search_hashed17h31f6bda6e6260ecaE@4HA":
.Lcfi48:
.seh_proc "?dtor$39@?0?_ZN3std11collections4hash3map13search_hashed17h31f6bda6e6260ecaE@4HA"
.LBB4_39:
	movq	%rdx, 16(%rsp)
	pushq	%rbp
.Lcfi49:
	.seh_pushreg 5
	subq	$32, %rsp
.Lcfi50:
	.seh_stackalloc 32
	leaq	128(%rdx), %rbp
.Lcfi51:
	.seh_endprologue
	addq	$32, %rsp
	popq	%rbp
	retq
.LBB4_37:
.Ltmp165:
	.cv_loc	4 1 451 0
	movb	$0, 599(%rbp)
	addq	$32, %rsp
	popq	%rbp
	retq
	.seh_handlerdata
	.section	.text,"xr",one_only,_ZN3std11collections4hash3map13search_hashed17h31f6bda6e6260ecaE
.Lcfi52:
	.seh_endproc
	.def	 "?dtor$40@?0?_ZN3std11collections4hash3map13search_hashed17h31f6bda6e6260ecaE@4HA";
	.scl	3;
	.type	32;
	.endef
	.p2align	4, 0x90
"?dtor$40@?0?_ZN3std11collections4hash3map13search_hashed17h31f6bda6e6260ecaE@4HA":
.Lcfi53:
.seh_proc "?dtor$40@?0?_ZN3std11collections4hash3map13search_hashed17h31f6bda6e6260ecaE@4HA"
.LBB4_40:
.Ltmp166:
	movq	%rdx, 16(%rsp)
	pushq	%rbp
.Lcfi54:
	.seh_pushreg 5
	subq	$32, %rsp
.Lcfi55:
	.seh_stackalloc 32
	leaq	128(%rdx), %rbp
.Ltmp167:
.Lcfi56:
	.seh_endprologue
	testb	$1, 599(%rbp)
	jne	.LBB4_37
.Ltmp168:
	addq	$32, %rsp
	popq	%rbp
	retq
.Lfunc_end4:
	.seh_handlerdata
	.section	.text,"xr",one_only,_ZN3std11collections4hash3map13search_hashed17h31f6bda6e6260ecaE
.Lcfi57:
	.seh_endproc
	.section	.xdata,"dr",associative,_ZN3std11collections4hash3map13search_hashed17h31f6bda6e6260ecaE
	.p2align	2
$cppxdata$_ZN3std11collections4hash3map13search_hashed17h31f6bda6e6260ecaE:
	.long	429065506
	.long	3
	.long	($stateUnwindMap$_ZN3std11collections4hash3map13search_hashed17h31f6bda6e6260ecaE)@IMGREL
	.long	0
	.long	0
	.long	5
	.long	($ip2state$_ZN3std11collections4hash3map13search_hashed17h31f6bda6e6260ecaE)@IMGREL
	.long	728
	.long	0
	.long	1
$stateUnwindMap$_ZN3std11collections4hash3map13search_hashed17h31f6bda6e6260ecaE:
	.long	-1
	.long	"?dtor$38@?0?_ZN3std11collections4hash3map13search_hashed17h31f6bda6e6260ecaE@4HA"@IMGREL
	.long	0
	.long	"?dtor$39@?0?_ZN3std11collections4hash3map13search_hashed17h31f6bda6e6260ecaE@4HA"@IMGREL
	.long	1
	.long	"?dtor$40@?0?_ZN3std11collections4hash3map13search_hashed17h31f6bda6e6260ecaE@4HA"@IMGREL
$ip2state$_ZN3std11collections4hash3map13search_hashed17h31f6bda6e6260ecaE:
	.long	.Lfunc_begin4@IMGREL
	.long	-1
	.long	.Ltmp93@IMGREL+1
	.long	1
	.long	.Ltmp104@IMGREL+1
	.long	-1
	.long	.Ltmp107@IMGREL+1
	.long	2
	.long	.Ltmp106@IMGREL+1
	.long	-1
	.section	.text,"xr",one_only,_ZN3std11collections4hash3map13search_hashed17h31f6bda6e6260ecaE

	.def	 _ZN3std11collections4hash3map13search_hashed17hcca51b2bd3bbb916E;
	.scl	3;
	.type	32;
	.endef
	.section	.text,"xr",one_only,_ZN3std11collections4hash3map13search_hashed17hcca51b2bd3bbb916E
	.p2align	4, 0x90
_ZN3std11collections4hash3map13search_hashed17hcca51b2bd3bbb916E:
.Lfunc_begin5:
	.cv_func_id 5
	.cv_loc	5 1 402 0
.Lcfi58:
.seh_proc _ZN3std11collections4hash3map13search_hashed17hcca51b2bd3bbb916E
	.seh_handler __CxxFrameHandler3, @unwind, @except
	pushq	%rbp
.Lcfi59:
	.seh_pushreg 5
	subq	$736, %rsp
.Lcfi60:
	.seh_stackalloc 736
	leaq	128(%rsp), %rbp
.Lcfi61:
	.seh_setframe 5, 128
.Lcfi62:
	.seh_endprologue
	movq	$-2, 600(%rbp)
	movq	%rcx, %rax
	movq	%rdx, 32(%rbp)
	movq	%r8, 40(%rbp)
	movq	%r9, 48(%rbp)
.Ltmp193:
	.cv_loc	5 1 409 0
	movb	$0, 598(%rbp)
	movb	$0, 599(%rbp)
	movb	$1, 598(%rbp)
.Ltmp169:
	leaq	32(%rbp), %rdx
	movq	%rcx, 24(%rbp)
	movq	%rdx, %rcx
	movq	%rax, 16(%rbp)
	callq	_ZN60_$LT$$RF$$u27$a$u20$T$u20$as$u20$core..ops..deref..Deref$GT$5deref17h631e8b36ec28d214E
.Ltmp170:
	movq	%rax, 8(%rbp)
	jmp	.LBB5_1
.Ltmp194:
.LBB5_1:
.Ltmp171:
	movq	8(%rbp), %rcx
	callq	_ZN66_$LT$std..collections..hash..table..RawTable$LT$K$C$$u20$V$GT$$GT$8capacity17h98f7540f40b98664E
.Ltmp172:
	movq	%rax, (%rbp)
	jmp	.LBB5_3
.Ltmp195:
.LBB5_3:
	movq	(%rbp), %rax
	cmpq	$0, %rax
	jne	.LBB5_5
.Ltmp196:
	.cv_loc	5 1 410 0
	movq	24(%rbp), %rax
	movq	$2, (%rax)
	jmp	.LBB5_7
.Ltmp197:
.LBB5_5:
	.cv_loc	5 1 413 0
.Ltmp173:
	leaq	32(%rbp), %rcx
	callq	_ZN60_$LT$$RF$$u27$a$u20$T$u20$as$u20$core..ops..deref..Deref$GT$5deref17h631e8b36ec28d214E
.Ltmp174:
	movq	%rax, -8(%rbp)
	jmp	.LBB5_8
.Ltmp198:
.LBB5_6:
	.cv_loc	5 1 452 0
	movq	16(%rbp), %rax
	addq	$736, %rsp
	popq	%rbp
.Ltmp199:
	retq
.LBB5_7:
.Ltmp200:
	testb	$1, 598(%rbp)
	jne	.LBB5_32
	jmp	.LBB5_6
.Ltmp201:
.LBB5_8:
	.cv_loc	5 1 413 0
.Ltmp175:
	movq	-8(%rbp), %rcx
	callq	_ZN66_$LT$std..collections..hash..table..RawTable$LT$K$C$$u20$V$GT$$GT$4size17hf0c4ba37d587adacE
.Ltmp176:
	movq	%rax, -16(%rbp)
	jmp	.LBB5_9
.Ltmp202:
.LBB5_9:
	movq	-16(%rbp), %rax
	movq	%rax, 56(%rbp)
.Ltmp203:
	.cv_loc	5 1 414 0
	movb	$0, 598(%rbp)
	movq	32(%rbp), %rdx
	movq	40(%rbp), %r8
.Ltmp177:
	leaq	64(%rbp), %rcx
	callq	_ZN73_$LT$std..collections..hash..table..Bucket$LT$K$C$$u20$V$C$$u20$M$GT$$GT$3new17h77efa9c80bece2edE
.Ltmp178:
	jmp	.LBB5_10
.Ltmp204:
.LBB5_10:
	.cv_loc	5 1 415 0
	movq	$0, 96(%rbp)
.Ltmp205:
.LBB5_11:
	.cv_loc	5 1 418 0
	movups	64(%rbp), %xmm0
	movups	80(%rbp), %xmm1
	movaps	%xmm1, 192(%rbp)
	movaps	%xmm0, 176(%rbp)
.Ltmp179:
	leaq	136(%rbp), %rcx
	leaq	176(%rbp), %rdx
	callq	_ZN73_$LT$std..collections..hash..table..Bucket$LT$K$C$$u20$V$C$$u20$M$GT$$GT$4peek17h6782f2a97ec871c0E
.Ltmp180:
	jmp	.LBB5_12
.Ltmp206:
.LBB5_12:
	.cv_loc	5 1 419 0
	movq	136(%rbp), %rax
	testq	%rax, %rax
	movq	%rax, -24(%rbp)
	je	.LBB5_14
	jmp	.LBB5_42
.Ltmp207:
.LBB5_42:
	movq	-24(%rbp), %rax
	subq	$1, %rax
	movq	%rax, -32(%rbp)
	je	.LBB5_15
	jmp	.LBB5_13
.Ltmp208:
.LBB5_13:
	.cv_loc	5 1 452 0
	ud2
.Ltmp209:
.LBB5_14:
	movl	$48, %eax
	movl	%eax, %r8d
	leaq	280(%rbp), %rcx
.Ltmp210:
	.cv_loc	5 1 419 0
	movq	144(%rbp), %rdx
	movq	%rdx, 216(%rbp)
	movq	152(%rbp), %rdx
	movq	%rdx, 224(%rbp)
	movq	160(%rbp), %rdx
	movq	%rdx, 232(%rbp)
	movq	168(%rbp), %rdx
	movq	%rdx, 240(%rbp)
.Ltmp211:
	.cv_loc	5 1 422 0
	movq	40(%rbp), %rdx
	.cv_loc	5 1 423 0
	movq	216(%rbp), %r9
	movq	%r9, 328(%rbp)
	movq	224(%rbp), %r9
	movq	%r9, 336(%rbp)
	movq	232(%rbp), %r9
	movq	%r9, 344(%rbp)
	movq	240(%rbp), %r9
	movq	%r9, 352(%rbp)
	movq	96(%rbp), %r9
	movq	$1, 280(%rbp)
	movq	328(%rbp), %r10
	movq	%r10, 288(%rbp)
	movq	336(%rbp), %r10
	movq	%r10, 296(%rbp)
	movq	344(%rbp), %r10
	movq	%r10, 304(%rbp)
	movq	352(%rbp), %r10
	movq	%r10, 312(%rbp)
	movq	%r9, 320(%rbp)
	.cv_loc	5 1 421 0
	movq	24(%rbp), %r9
	movq	$1, (%r9)
	movq	24(%rbp), %r10
	movq	%rdx, 8(%r10)
	addq	$16, %r9
	movq	%rcx, -40(%rbp)
	movq	%r9, %rcx
	movq	-40(%rbp), %rdx
	callq	memcpy
.Ltmp212:
	.cv_loc	5 1 427 0
	cmpq	$0, 136(%rbp)
	je	.LBB5_33
	jmp	.LBB5_34
.Ltmp213:
.LBB5_15:
	.cv_loc	5 1 426 0
	movq	144(%rbp), %rax
	movq	%rax, 248(%rbp)
	movq	152(%rbp), %rax
	movq	%rax, 256(%rbp)
	movq	160(%rbp), %rax
	movq	%rax, 264(%rbp)
	movq	168(%rbp), %rax
	movq	%rax, 272(%rbp)
.Ltmp214:
	.cv_loc	5 1 426 0
	movq	248(%rbp), %rax
	movq	%rax, 360(%rbp)
	movq	256(%rbp), %rax
	movq	%rax, 368(%rbp)
	movq	264(%rbp), %rax
	movq	%rax, 376(%rbp)
	movq	272(%rbp), %rax
	movq	%rax, 384(%rbp)
	movb	$1, 599(%rbp)
	movq	360(%rbp), %rax
	movq	%rax, 104(%rbp)
	movq	368(%rbp), %rax
	movq	%rax, 112(%rbp)
	movq	376(%rbp), %rax
	movq	%rax, 120(%rbp)
	movq	384(%rbp), %rax
	movq	%rax, 128(%rbp)
.Ltmp215:
	.cv_loc	5 1 427 0
	cmpq	$0, 136(%rbp)
	je	.LBB5_36
	jmp	.LBB5_35
.Ltmp216:
.LBB5_16:
	.cv_loc	5 1 421 0
	jmp	.LBB5_7
.Ltmp217:
.LBB5_17:
	.cv_loc	5 1 429 0
	movq	-48(%rbp), %rax
	movq	%rax, 392(%rbp)
.Ltmp218:
	.cv_loc	5 1 431 0
	movq	392(%rbp), %rcx
	cmpq	96(%rbp), %rcx
	jae	.LBB5_19
.Ltmp219:
	movl	$48, %eax
	movl	%eax, %r8d
	leaq	400(%rbp), %rcx
	.cv_loc	5 1 436 0
	movq	40(%rbp), %rdx
	.cv_loc	5 1 437 0
	movb	$0, 599(%rbp)
	movq	104(%rbp), %r9
	movq	%r9, 448(%rbp)
	movq	112(%rbp), %r9
	movq	%r9, 456(%rbp)
	movq	120(%rbp), %r9
	movq	%r9, 464(%rbp)
	movq	128(%rbp), %r9
	movq	%r9, 472(%rbp)
	movq	392(%rbp), %r9
	movq	$0, 400(%rbp)
	movq	448(%rbp), %r10
	movq	%r10, 408(%rbp)
	movq	456(%rbp), %r10
	movq	%r10, 416(%rbp)
	movq	464(%rbp), %r10
	movq	%r10, 424(%rbp)
	movq	472(%rbp), %r10
	movq	%r10, 432(%rbp)
	movq	%r9, 440(%rbp)
	.cv_loc	5 1 435 0
	movq	24(%rbp), %r9
	movq	$1, (%r9)
	movq	24(%rbp), %r10
	movq	%rdx, 8(%r10)
	addq	$16, %r9
	movq	%rcx, -56(%rbp)
	movq	%r9, %rcx
	movq	-56(%rbp), %rdx
	callq	memcpy
.Ltmp220:
	.cv_loc	5 1 435 0
	jmp	.LBB5_20
.Ltmp221:
.LBB5_19:
	.cv_loc	5 1 442 0
.Ltmp183:
	leaq	104(%rbp), %rcx
	callq	_ZN77_$LT$std..collections..hash..table..FullBucket$LT$K$C$$u20$V$C$$u20$M$GT$$GT$4hash17h5ff12acb1a46bfabE
.Ltmp184:
	movq	%rax, -64(%rbp)
	jmp	.LBB5_21
.Ltmp222:
.LBB5_20:
	.cv_loc	5 1 451 0
	movb	$0, 599(%rbp)
	.cv_loc	5 1 435 0
	jmp	.LBB5_16
.Ltmp223:
.LBB5_21:
	.cv_loc	5 1 442 0
	movq	-64(%rbp), %rax
	movq	%rax, 480(%rbp)
.Ltmp185:
	leaq	40(%rbp), %rcx
	leaq	480(%rbp), %rdx
	callq	_ZN80_$LT$std..collections..hash..table..SafeHash$u20$as$u20$core..cmp..PartialEq$GT$2eq17h3010ab25e61f8eb8E
.Ltmp186:
	movb	%al, -65(%rbp)
	jmp	.LBB5_22
.Ltmp224:
.LBB5_22:
	movb	-65(%rbp), %al
	testb	$1, %al
	jne	.LBB5_23
	jmp	.LBB5_24
.Ltmp225:
.LBB5_23:
	.cv_loc	5 1 444 0
.Ltmp187:
	leaq	104(%rbp), %rcx
	callq	_ZN77_$LT$std..collections..hash..table..FullBucket$LT$K$C$$u20$V$C$$u20$M$GT$$GT$4read17h376a0b44418693b0E
.Ltmp188:
	movq	%rdx, -80(%rbp)
	movq	%rax, -88(%rbp)
	jmp	.LBB5_25
.Ltmp226:
.LBB5_24:
	.cv_loc	5 1 442 0
	jmp	.LBB5_29
.Ltmp227:
.LBB5_25:
	.cv_loc	5 1 444 0
	movq	-88(%rbp), %rax
	movq	%rax, 488(%rbp)
	movq	488(%rbp), %rdx
.Ltmp189:
	leaq	48(%rbp), %rcx
	callq	_ZN72_$LT$std..collections..hash..map..HashMap$LT$K$C$$u20$V$C$$u20$S$GT$$GT$6search28_$u7b$$u7b$closure$u7d$$u7d$17h004aa16b8ba47abbE
.Ltmp190:
	movb	%al, -89(%rbp)
	jmp	.LBB5_26
.Ltmp228:
.LBB5_26:
	movb	-89(%rbp), %al
	testb	$1, %al
	jne	.LBB5_27
	jmp	.LBB5_28
.Ltmp229:
.LBB5_27:
	.cv_loc	5 1 445 0
	movb	$0, 599(%rbp)
	movq	104(%rbp), %rax
	movq	%rax, 496(%rbp)
	movq	112(%rbp), %rax
	movq	%rax, 504(%rbp)
	movq	120(%rbp), %rax
	movq	%rax, 512(%rbp)
	movq	128(%rbp), %rax
	movq	%rax, 520(%rbp)
	movq	24(%rbp), %rax
	movq	$0, (%rax)
	movq	496(%rbp), %rcx
	movq	%rcx, 8(%rax)
	movq	504(%rbp), %rcx
	movq	%rcx, 16(%rax)
	movq	512(%rbp), %rcx
	movq	%rcx, 24(%rax)
	movq	520(%rbp), %rcx
	movq	%rcx, 32(%rax)
.Ltmp230:
	.cv_loc	5 1 445 0
	jmp	.LBB5_20
.Ltmp231:
.LBB5_28:
	.cv_loc	5 1 442 0
	jmp	.LBB5_29
.Ltmp232:
.LBB5_29:
	.cv_loc	5 1 448 0
	movq	96(%rbp), %rax
	incq	%rax
	movq	%rax, 96(%rbp)
	.cv_loc	5 1 449 0
	movb	$0, 599(%rbp)
	movups	104(%rbp), %xmm0
	movups	120(%rbp), %xmm1
	movaps	%xmm1, 576(%rbp)
	movaps	%xmm0, 560(%rbp)
.Ltmp191:
	leaq	528(%rbp), %rcx
	leaq	560(%rbp), %rdx
	callq	_ZN77_$LT$std..collections..hash..table..FullBucket$LT$K$C$$u20$V$C$$u20$M$GT$$GT$4next17hf85bb41d9025e2c4E
.Ltmp192:
	jmp	.LBB5_30
.Ltmp233:
.LBB5_30:
	movq	528(%rbp), %rax
	movq	%rax, 64(%rbp)
	movq	536(%rbp), %rax
	movq	%rax, 72(%rbp)
	movq	544(%rbp), %rax
	movq	%rax, 80(%rbp)
	movq	552(%rbp), %rax
	movq	%rax, 88(%rbp)
.Ltmp234:
	.cv_loc	5 1 451 0
	movb	$0, 599(%rbp)
	.cv_loc	5 1 417 0
	jmp	.LBB5_11
.Ltmp235:
.LBB5_32:
	.cv_loc	5 1 452 0
	movb	$0, 598(%rbp)
	jmp	.LBB5_6
.Ltmp236:
.LBB5_33:
	.cv_loc	5 1 421 0
	jmp	.LBB5_16
.Ltmp237:
.LBB5_34:
	.cv_loc	5 1 427 0
	jmp	.LBB5_33
.Ltmp238:
.LBB5_35:
	.cv_loc	5 1 429 0
.Ltmp181:
	leaq	104(%rbp), %rcx
	callq	_ZN77_$LT$std..collections..hash..table..FullBucket$LT$K$C$$u20$V$C$$u20$M$GT$$GT$12displacement17ha2bea1a4674ecbdfE
.Ltmp182:
	movq	%rax, -48(%rbp)
	jmp	.LBB5_17
.Ltmp239:
.LBB5_36:
	.cv_loc	5 1 427 0
	jmp	.LBB5_35
.Ltmp240:
.LBB5_2:
	.cv_loc	5 1 402 0
	addq	$32, %rsp
	popq	%rbp
	retq
.LBB5_31:
	.cv_loc	5 1 452 0
	movb	$0, 598(%rbp)
	jmp	.LBB5_2
	.seh_handlerdata
	.long	($cppxdata$_ZN3std11collections4hash3map13search_hashed17hcca51b2bd3bbb916E)@IMGREL
	.section	.text,"xr",one_only,_ZN3std11collections4hash3map13search_hashed17hcca51b2bd3bbb916E
.Lcfi63:
	.seh_endproc
	.def	 "?dtor$38@?0?_ZN3std11collections4hash3map13search_hashed17hcca51b2bd3bbb916E@4HA";
	.scl	3;
	.type	32;
	.endef
	.p2align	4, 0x90
"?dtor$38@?0?_ZN3std11collections4hash3map13search_hashed17hcca51b2bd3bbb916E@4HA":
.Lcfi64:
.seh_proc "?dtor$38@?0?_ZN3std11collections4hash3map13search_hashed17hcca51b2bd3bbb916E@4HA"
.LBB5_38:
	movq	%rdx, 16(%rsp)
	pushq	%rbp
.Lcfi65:
	.seh_pushreg 5
	subq	$32, %rsp
.Lcfi66:
	.seh_stackalloc 32
	leaq	128(%rdx), %rbp
.Lcfi67:
	.seh_endprologue
	testb	$1, 598(%rbp)
	jne	.LBB5_31
	jmp	.LBB5_2
	.seh_handlerdata
	.section	.text,"xr",one_only,_ZN3std11collections4hash3map13search_hashed17hcca51b2bd3bbb916E
.Lcfi68:
	.seh_endproc
	.def	 "?dtor$39@?0?_ZN3std11collections4hash3map13search_hashed17hcca51b2bd3bbb916E@4HA";
	.scl	3;
	.type	32;
	.endef
	.p2align	4, 0x90
"?dtor$39@?0?_ZN3std11collections4hash3map13search_hashed17hcca51b2bd3bbb916E@4HA":
.Lcfi69:
.seh_proc "?dtor$39@?0?_ZN3std11collections4hash3map13search_hashed17hcca51b2bd3bbb916E@4HA"
.LBB5_39:
	movq	%rdx, 16(%rsp)
	pushq	%rbp
.Lcfi70:
	.seh_pushreg 5
	subq	$32, %rsp
.Lcfi71:
	.seh_stackalloc 32
	leaq	128(%rdx), %rbp
.Lcfi72:
	.seh_endprologue
	addq	$32, %rsp
	popq	%rbp
	retq
.LBB5_37:
.Ltmp241:
	.cv_loc	5 1 451 0
	movb	$0, 599(%rbp)
	addq	$32, %rsp
	popq	%rbp
	retq
	.seh_handlerdata
	.section	.text,"xr",one_only,_ZN3std11collections4hash3map13search_hashed17hcca51b2bd3bbb916E
.Lcfi73:
	.seh_endproc
	.def	 "?dtor$40@?0?_ZN3std11collections4hash3map13search_hashed17hcca51b2bd3bbb916E@4HA";
	.scl	3;
	.type	32;
	.endef
	.p2align	4, 0x90
"?dtor$40@?0?_ZN3std11collections4hash3map13search_hashed17hcca51b2bd3bbb916E@4HA":
.Lcfi74:
.seh_proc "?dtor$40@?0?_ZN3std11collections4hash3map13search_hashed17hcca51b2bd3bbb916E@4HA"
.LBB5_40:
.Ltmp242:
	movq	%rdx, 16(%rsp)
	pushq	%rbp
.Lcfi75:
	.seh_pushreg 5
	subq	$32, %rsp
.Lcfi76:
	.seh_stackalloc 32
	leaq	128(%rdx), %rbp
.Ltmp243:
.Lcfi77:
	.seh_endprologue
	testb	$1, 599(%rbp)
	jne	.LBB5_37
.Ltmp244:
	addq	$32, %rsp
	popq	%rbp
	retq
.Lfunc_end5:
	.seh_handlerdata
	.section	.text,"xr",one_only,_ZN3std11collections4hash3map13search_hashed17hcca51b2bd3bbb916E
.Lcfi78:
	.seh_endproc
	.section	.xdata,"dr",associative,_ZN3std11collections4hash3map13search_hashed17hcca51b2bd3bbb916E
	.p2align	2
$cppxdata$_ZN3std11collections4hash3map13search_hashed17hcca51b2bd3bbb916E:
	.long	429065506
	.long	3
	.long	($stateUnwindMap$_ZN3std11collections4hash3map13search_hashed17hcca51b2bd3bbb916E)@IMGREL
	.long	0
	.long	0
	.long	5
	.long	($ip2state$_ZN3std11collections4hash3map13search_hashed17hcca51b2bd3bbb916E)@IMGREL
	.long	728
	.long	0
	.long	1
$stateUnwindMap$_ZN3std11collections4hash3map13search_hashed17hcca51b2bd3bbb916E:
	.long	-1
	.long	"?dtor$38@?0?_ZN3std11collections4hash3map13search_hashed17hcca51b2bd3bbb916E@4HA"@IMGREL
	.long	0
	.long	"?dtor$39@?0?_ZN3std11collections4hash3map13search_hashed17hcca51b2bd3bbb916E@4HA"@IMGREL
	.long	1
	.long	"?dtor$40@?0?_ZN3std11collections4hash3map13search_hashed17hcca51b2bd3bbb916E@4HA"@IMGREL
$ip2state$_ZN3std11collections4hash3map13search_hashed17hcca51b2bd3bbb916E:
	.long	.Lfunc_begin5@IMGREL
	.long	-1
	.long	.Ltmp169@IMGREL+1
	.long	1
	.long	.Ltmp180@IMGREL+1
	.long	-1
	.long	.Ltmp183@IMGREL+1
	.long	2
	.long	.Ltmp182@IMGREL+1
	.long	-1
	.section	.text,"xr",one_only,_ZN3std11collections4hash3map13search_hashed17hcca51b2bd3bbb916E

	.def	 _ZN4core4hash6Hasher9write_u6417hee4d7bcdbe438feeE;
	.scl	2;
	.type	32;
	.endef
	.section	.text,"xr",one_only,_ZN4core4hash6Hasher9write_u6417hee4d7bcdbe438feeE
	.globl	_ZN4core4hash6Hasher9write_u6417hee4d7bcdbe438feeE
	.p2align	4, 0x90
_ZN4core4hash6Hasher9write_u6417hee4d7bcdbe438feeE:
.Lfunc_begin6:
	.cv_func_id 6
	.cv_file	2 "C:\\projects\\rust\\src\\libcore\\hash\\mod.rs"
	.cv_loc	6 2 305 0
.Lcfi79:
.seh_proc _ZN4core4hash6Hasher9write_u6417hee4d7bcdbe438feeE
	pushq	%rbp
.Lcfi80:
	.seh_pushreg 5
	subq	$80, %rsp
.Lcfi81:
	.seh_stackalloc 80
	leaq	80(%rsp), %rbp
.Lcfi82:
	.seh_setframe 5, 80
.Lcfi83:
	.seh_endprologue
	movq	%rcx, -24(%rbp)
	movq	%rdx, -16(%rbp)
.Ltmp245:
	.cv_loc	6 2 306 0
	movq	-24(%rbp), %rcx
.Ltmp246:
	.cv_loc	6 2 306 0
	movq	-16(%rbp), %rdx
	movq	%rdx, -8(%rbp)
	movq	%rcx, -32(%rbp)
.Ltmp247:
	movl	$8, %eax
	movl	%eax, %r8d
	leaq	-8(%rbp), %rcx
	.cv_loc	6 2 306 0
	movq	-32(%rbp), %rdx
	movq	%rcx, -40(%rbp)
	movq	%rdx, %rcx
	movq	-40(%rbp), %rdx
	callq	_ZN81_$LT$std..collections..hash..map..DefaultHasher$u20$as$u20$core..hash..Hasher$GT$5write17hfdb78320a71d0087E
	.cv_loc	6 2 307 0
	nop
	addq	$80, %rsp
	popq	%rbp
	retq
.Ltmp248:
.Lfunc_end6:
	.seh_handlerdata
	.section	.text,"xr",one_only,_ZN4core4hash6Hasher9write_u6417hee4d7bcdbe438feeE
.Lcfi84:
	.seh_endproc

	.def	 _ZN63_$LT$std..collections..hash..map..HashMap$LT$K$C$$u20$V$GT$$GT$3new17h90387fcabc65c917E;
	.scl	2;
	.type	32;
	.endef
	.section	.text,"xr",one_only,_ZN63_$LT$std..collections..hash..map..HashMap$LT$K$C$$u20$V$GT$$GT$3new17h90387fcabc65c917E
	.globl	_ZN63_$LT$std..collections..hash..map..HashMap$LT$K$C$$u20$V$GT$$GT$3new17h90387fcabc65c917E
	.p2align	4, 0x90
_ZN63_$LT$std..collections..hash..map..HashMap$LT$K$C$$u20$V$GT$$GT$3new17h90387fcabc65c917E:
.Lfunc_begin7:
	.cv_func_id 7
	.cv_loc	7 1 602 0
.Lcfi85:
.seh_proc _ZN63_$LT$std..collections..hash..map..HashMap$LT$K$C$$u20$V$GT$$GT$3new17h90387fcabc65c917E
	pushq	%rbp
.Lcfi86:
	.seh_pushreg 5
	subq	$48, %rsp
.Lcfi87:
	.seh_stackalloc 48
	leaq	48(%rsp), %rbp
.Lcfi88:
	.seh_setframe 5, 48
.Lcfi89:
	.seh_endprologue
	movq	%rcx, %rax
.Ltmp249:
	.cv_loc	7 1 603 0
	movq	%rax, -8(%rbp)
	callq	_ZN106_$LT$std..collections..hash..map..HashMap$LT$K$C$$u20$V$C$$u20$S$GT$$u20$as$u20$core..default..Default$GT$7default17hb6659a2141a47d7bE
	.cv_loc	7 1 604 0
	movq	-8(%rbp), %rax
	addq	$48, %rsp
	popq	%rbp
	retq
.Ltmp250:
.Lfunc_end7:
	.seh_handlerdata
	.section	.text,"xr",one_only,_ZN63_$LT$std..collections..hash..map..HashMap$LT$K$C$$u20$V$GT$$GT$3new17h90387fcabc65c917E
.Lcfi90:
	.seh_endproc

	.def	 _ZN72_$LT$std..collections..hash..map..HashMap$LT$K$C$$u20$V$C$$u20$S$GT$$GT$11with_hasher17h70b9a70f3c3ed0deE;
	.scl	3;
	.type	32;
	.endef
	.section	.text,"xr",one_only,_ZN72_$LT$std..collections..hash..map..HashMap$LT$K$C$$u20$V$C$$u20$S$GT$$GT$11with_hasher17h70b9a70f3c3ed0deE
	.p2align	4, 0x90
_ZN72_$LT$std..collections..hash..map..HashMap$LT$K$C$$u20$V$C$$u20$S$GT$$GT$11with_hasher17h70b9a70f3c3ed0deE:
.Lfunc_begin8:
	.cv_func_id 8
	.cv_loc	8 1 650 0
.Lcfi91:
.seh_proc _ZN72_$LT$std..collections..hash..map..HashMap$LT$K$C$$u20$V$C$$u20$S$GT$$GT$11with_hasher17h70b9a70f3c3ed0deE
	.seh_handler __CxxFrameHandler3, @unwind, @except
	pushq	%rbp
.Lcfi92:
	.seh_pushreg 5
	subq	$112, %rsp
.Lcfi93:
	.seh_stackalloc 112
	leaq	112(%rsp), %rbp
.Lcfi94:
	.seh_setframe 5, 112
.Lcfi95:
	.seh_endprologue
	movq	$-2, -8(%rbp)
	movq	%rcx, %rax
	movq	%rdx, -48(%rbp)
	movq	%r8, -40(%rbp)
.Ltmp255:
	.cv_loc	8 1 652 0
	movq	-48(%rbp), %rdx
	movq	-40(%rbp), %r8
	.cv_loc	8 1 653 0
.Ltmp251:
	movq	%rax, -56(%rbp)
	movq	%rcx, -64(%rbp)
	movq	%rdx, -72(%rbp)
	movq	%r8, -80(%rbp)
	callq	_ZN3std11collections4hash3map19DefaultResizePolicy3new17h62f12d57f3984b09E
.Ltmp252:
	jmp	.LBB8_1
.Ltmp256:
.LBB8_1:
	.cv_loc	8 1 654 0
.Ltmp253:
	xorl	%eax, %eax
	movl	%eax, %edx
	leaq	-32(%rbp), %rcx
	callq	_ZN66_$LT$std..collections..hash..table..RawTable$LT$K$C$$u20$V$GT$$GT$3new17h92a68725afda94c1E
.Ltmp254:
	jmp	.LBB8_2
.Ltmp257:
.LBB8_2:
	.cv_loc	8 1 651 0
	movq	-64(%rbp), %rax
	movq	-72(%rbp), %rcx
	movq	%rcx, (%rax)
	movq	-80(%rbp), %rdx
	movq	%rdx, 8(%rax)
	movq	-32(%rbp), %r8
	movq	%r8, 16(%rax)
	movq	-24(%rbp), %r8
	movq	%r8, 24(%rax)
	movq	-16(%rbp), %r8
	movq	%r8, 32(%rax)
	.cv_loc	8 1 656 0
	movq	-56(%rbp), %rax
	addq	$112, %rsp
	popq	%rbp
.Ltmp258:
	retq
	.seh_handlerdata
	.long	($cppxdata$_ZN72_$LT$std..collections..hash..map..HashMap$LT$K$C$$u20$V$C$$u20$S$GT$$GT$11with_hasher17h70b9a70f3c3ed0deE)@IMGREL
	.section	.text,"xr",one_only,_ZN72_$LT$std..collections..hash..map..HashMap$LT$K$C$$u20$V$C$$u20$S$GT$$GT$11with_hasher17h70b9a70f3c3ed0deE
.Lcfi96:
	.seh_endproc
	.def	 "?dtor$3@?0?_ZN72_$LT$std..collections..hash..map..HashMap$LT$K$C$$u20$V$C$$u20$S$GT$$GT$11with_hasher17h70b9a70f3c3ed0deE@4HA";
	.scl	3;
	.type	32;
	.endef
	.p2align	4, 0x90
"?dtor$3@?0?_ZN72_$LT$std..collections..hash..map..HashMap$LT$K$C$$u20$V$C$$u20$S$GT$$GT$11with_hasher17h70b9a70f3c3ed0deE@4HA":
.Lcfi97:
.seh_proc "?dtor$3@?0?_ZN72_$LT$std..collections..hash..map..HashMap$LT$K$C$$u20$V$C$$u20$S$GT$$GT$11with_hasher17h70b9a70f3c3ed0deE@4HA"
.LBB8_3:
	movq	%rdx, 16(%rsp)
	pushq	%rbp
.Lcfi98:
	.seh_pushreg 5
	subq	$32, %rsp
.Lcfi99:
	.seh_stackalloc 32
	leaq	112(%rdx), %rbp
.Lcfi100:
	.seh_endprologue
	.cv_loc	8 1 650 0
	addq	$32, %rsp
	popq	%rbp
	retq
.Ltmp259:
.Lfunc_end8:
	.seh_handlerdata
	.section	.text,"xr",one_only,_ZN72_$LT$std..collections..hash..map..HashMap$LT$K$C$$u20$V$C$$u20$S$GT$$GT$11with_hasher17h70b9a70f3c3ed0deE
.Lcfi101:
	.seh_endproc
	.section	.xdata,"dr",associative,_ZN72_$LT$std..collections..hash..map..HashMap$LT$K$C$$u20$V$C$$u20$S$GT$$GT$11with_hasher17h70b9a70f3c3ed0deE
	.p2align	2
$cppxdata$_ZN72_$LT$std..collections..hash..map..HashMap$LT$K$C$$u20$V$C$$u20$S$GT$$GT$11with_hasher17h70b9a70f3c3ed0deE:
	.long	429065506
	.long	1
	.long	($stateUnwindMap$_ZN72_$LT$std..collections..hash..map..HashMap$LT$K$C$$u20$V$C$$u20$S$GT$$GT$11with_hasher17h70b9a70f3c3ed0deE)@IMGREL
	.long	0
	.long	0
	.long	3
	.long	($ip2state$_ZN72_$LT$std..collections..hash..map..HashMap$LT$K$C$$u20$V$C$$u20$S$GT$$GT$11with_hasher17h70b9a70f3c3ed0deE)@IMGREL
	.long	104
	.long	0
	.long	1
$stateUnwindMap$_ZN72_$LT$std..collections..hash..map..HashMap$LT$K$C$$u20$V$C$$u20$S$GT$$GT$11with_hasher17h70b9a70f3c3ed0deE:
	.long	-1
	.long	"?dtor$3@?0?_ZN72_$LT$std..collections..hash..map..HashMap$LT$K$C$$u20$V$C$$u20$S$GT$$GT$11with_hasher17h70b9a70f3c3ed0deE@4HA"@IMGREL
$ip2state$_ZN72_$LT$std..collections..hash..map..HashMap$LT$K$C$$u20$V$C$$u20$S$GT$$GT$11with_hasher17h70b9a70f3c3ed0deE:
	.long	.Lfunc_begin8@IMGREL
	.long	-1
	.long	.Ltmp251@IMGREL+1
	.long	0
	.long	.Ltmp254@IMGREL+1
	.long	-1
	.section	.text,"xr",one_only,_ZN72_$LT$std..collections..hash..map..HashMap$LT$K$C$$u20$V$C$$u20$S$GT$$GT$11with_hasher17h70b9a70f3c3ed0deE

	.def	 _ZN72_$LT$std..collections..hash..map..HashMap$LT$K$C$$u20$V$C$$u20$S$GT$$GT$12raw_capacity17h274af1fa28190f65E;
	.scl	3;
	.type	32;
	.endef
	.section	.text,"xr",one_only,_ZN72_$LT$std..collections..hash..map..HashMap$LT$K$C$$u20$V$C$$u20$S$GT$$GT$12raw_capacity17h274af1fa28190f65E
	.p2align	4, 0x90
_ZN72_$LT$std..collections..hash..map..HashMap$LT$K$C$$u20$V$C$$u20$S$GT$$GT$12raw_capacity17h274af1fa28190f65E:
.Lfunc_begin9:
	.cv_func_id 9
	.cv_loc	9 1 730 0
.Lcfi102:
.seh_proc _ZN72_$LT$std..collections..hash..map..HashMap$LT$K$C$$u20$V$C$$u20$S$GT$$GT$12raw_capacity17h274af1fa28190f65E
	pushq	%rbp
.Lcfi103:
	.seh_pushreg 5
	subq	$48, %rsp
.Lcfi104:
	.seh_stackalloc 48
	leaq	48(%rsp), %rbp
.Lcfi105:
	.seh_setframe 5, 48
.Lcfi106:
	.seh_endprologue
	movq	%rcx, -8(%rbp)
.Ltmp260:
	.cv_loc	9 1 731 0
	movq	-8(%rbp), %rcx
	addq	$16, %rcx
	callq	_ZN66_$LT$std..collections..hash..table..RawTable$LT$K$C$$u20$V$GT$$GT$8capacity17h98f7540f40b98664E
	movq	%rax, -16(%rbp)
	.cv_loc	9 1 732 0
	movq	-16(%rbp), %rax
	addq	$48, %rsp
	popq	%rbp
	retq
.Ltmp261:
.Lfunc_end9:
	.seh_handlerdata
	.section	.text,"xr",one_only,_ZN72_$LT$std..collections..hash..map..HashMap$LT$K$C$$u20$V$C$$u20$S$GT$$GT$12raw_capacity17h274af1fa28190f65E
.Lcfi107:
	.seh_endproc

	.def	 _ZN72_$LT$std..collections..hash..map..HashMap$LT$K$C$$u20$V$C$$u20$S$GT$$GT$21insert_hashed_nocheck17h8264356c7ff06e48E;
	.scl	3;
	.type	32;
	.endef
	.section	.text,"xr",one_only,_ZN72_$LT$std..collections..hash..map..HashMap$LT$K$C$$u20$V$C$$u20$S$GT$$GT$21insert_hashed_nocheck17h8264356c7ff06e48E
	.p2align	4, 0x90
_ZN72_$LT$std..collections..hash..map..HashMap$LT$K$C$$u20$V$C$$u20$S$GT$$GT$21insert_hashed_nocheck17h8264356c7ff06e48E:
.Lfunc_begin10:
	.cv_func_id 10
	.cv_loc	10 1 856 0
.Lcfi108:
.seh_proc _ZN72_$LT$std..collections..hash..map..HashMap$LT$K$C$$u20$V$C$$u20$S$GT$$GT$21insert_hashed_nocheck17h8264356c7ff06e48E
	.seh_handler __CxxFrameHandler3, @unwind, @except
	pushq	%rbp
.Lcfi109:
	.seh_pushreg 5
	subq	$464, %rsp
.Lcfi110:
	.seh_stackalloc 464
	leaq	128(%rsp), %rbp
.Lcfi111:
	.seh_setframe 5, 128
.Lcfi112:
	.seh_endprologue
	movq	$-2, 328(%rbp)
	movb	%r9b, %al
	movq	%rcx, -24(%rbp)
	movq	%rdx, -16(%rbp)
	movl	%r8d, -8(%rbp)
	andb	$1, %al
	movb	%al, -2(%rbp)
.Ltmp272:
	.cv_loc	10 1 857 0
	movb	$0, 325(%rbp)
	movb	$0, 324(%rbp)
	movb	$0, 327(%rbp)
	movb	$0, 323(%rbp)
	movb	$0, 326(%rbp)
	movb	$1, 323(%rbp)
	movb	$1, 324(%rbp)
	movq	-24(%rbp), %rcx
	addq	$16, %rcx
	movq	-16(%rbp), %r8
	leaq	-8(%rbp), %rdx
	movq	%rdx, 136(%rbp)
	movq	136(%rbp), %r9
.Ltmp262:
	leaq	72(%rbp), %rdx
	movq	%rcx, -32(%rbp)
	movq	%rdx, %rcx
	movq	-32(%rbp), %rdx
	callq	_ZN3std11collections4hash3map13search_hashed17h31f6bda6e6260ecaE
.Ltmp263:
	jmp	.LBB10_2
.Ltmp273:
.LBB10_2:
	movb	$0, 323(%rbp)
	movl	-8(%rbp), %r8d
.Ltmp264:
	movq	%rbp, %rcx
	leaq	72(%rbp), %rdx
	callq	_ZN157_$LT$std..collections..hash..map..InternalEntry$LT$K$C$$u20$V$C$$u20$$RF$$u27$a$u20$mut$u20$std..collections..hash..table..RawTable$LT$K$C$$u20$V$GT$$GT$$GT$10into_entry17h57d678806ed19174E
.Ltmp265:
	jmp	.LBB10_4
.Ltmp274:
.LBB10_4:
	movb	$1, 325(%rbp)
	movb	$1, 326(%rbp)
.Ltmp275:
	.cv_loc	10 1 859 0
	movq	(%rbp), %rax
	subq	$2, %rax
	setne	%cl
	movzbl	%cl, %edx
	movl	%edx, %r8d
	movq	%rax, -40(%rbp)
	movq	%r8, -48(%rbp)
	je	.LBB10_5
	jmp	.LBB10_38
.Ltmp276:
.LBB10_38:
	movq	-48(%rbp), %rax
	subq	$1, %rax
	movq	%rax, -56(%rbp)
	je	.LBB10_8
	jmp	.LBB10_9
.Ltmp277:
.LBB10_5:
	.cv_file	3 "C:\\projects\\rust\\src\\libstd\\macros.rs"
	.cv_loc	10 3 69 0
.Ltmp270:
	leaq	str.6(%rip), %rcx
	leaq	ref.4(%rip), %r8
	movl	$40, %eax
	movl	%eax, %edx
	callq	_ZN3std9panicking11begin_panic17h83790f2ca815c643E
.Ltmp271:
	jmp	.LBB10_34
.Ltmp278:
.LBB10_6:
	.cv_loc	10 1 859 0
	movb	$0, 326(%rbp)
	movb	$1, 327(%rbp)
	movq	40(%rbp), %rax
	movq	%rax, 176(%rbp)
	movups	8(%rbp), %xmm0
	movups	24(%rbp), %xmm1
	movaps	%xmm1, 160(%rbp)
	movaps	%xmm0, 144(%rbp)
.Ltmp279:
	.cv_loc	10 1 859 0
	movb	$0, 324(%rbp)
	movzbl	-2(%rbp), %edx
.Ltmp268:
	leaq	144(%rbp), %rcx
	callq	_ZN83_$LT$std..collections..hash..map..OccupiedEntry$LT$$u27$a$C$$u20$K$C$$u20$V$GT$$GT$6insert17ha7b1b715b6d7f0b0E
.Ltmp269:
	movb	%al, -57(%rbp)
	jmp	.LBB10_11
.Ltmp280:
.LBB10_7:
	.cv_loc	10 1 860 0
	movb	$0, 325(%rbp)
	movups	8(%rbp), %xmm0
	movups	24(%rbp), %xmm1
	movups	40(%rbp), %xmm2
	movups	56(%rbp), %xmm3
	movaps	%xmm3, 240(%rbp)
	movaps	%xmm2, 224(%rbp)
	movaps	%xmm1, 208(%rbp)
	movaps	%xmm0, 192(%rbp)
.Ltmp281:
	.cv_loc	10 1 861 0
	movaps	192(%rbp), %xmm0
	movaps	208(%rbp), %xmm1
	movaps	224(%rbp), %xmm2
	movaps	240(%rbp), %xmm3
	movaps	%xmm3, 304(%rbp)
	movaps	%xmm2, 288(%rbp)
	movaps	%xmm1, 272(%rbp)
	movaps	%xmm0, 256(%rbp)
	movb	$0, 324(%rbp)
	movzbl	-2(%rbp), %edx
.Ltmp266:
	leaq	256(%rbp), %rcx
	callq	_ZN81_$LT$std..collections..hash..map..VacantEntry$LT$$u27$a$C$$u20$K$C$$u20$V$GT$$GT$6insert17h469d9db9be9ed849E
.Ltmp267:
	movq	%rax, -72(%rbp)
	jmp	.LBB10_12
.Ltmp282:
.LBB10_8:
	.cv_loc	10 1 859 0
	movq	(%rbp), %rax
	testq	%rax, %rax
	movq	%rax, -80(%rbp)
	je	.LBB10_6
	jmp	.LBB10_39
.Ltmp283:
.LBB10_39:
	movq	-80(%rbp), %rax
	subq	$1, %rax
	movq	%rax, -88(%rbp)
	je	.LBB10_7
	jmp	.LBB10_9
.Ltmp284:
.LBB10_9:
	.cv_loc	10 1 866 0
	ud2
.Ltmp285:
.LBB10_10:
	.cv_loc	10 1 865 0
	testb	$1, 327(%rbp)
	jne	.LBB10_23
	jmp	.LBB10_13
.Ltmp286:
.LBB10_11:
	.cv_loc	10 1 859 0
	movb	-57(%rbp), %al
	andb	$1, %al
	movb	%al, -1(%rbp)
.Ltmp287:
	.cv_loc	10 1 858 0
	jmp	.LBB10_10
.Ltmp288:
.LBB10_12:
	.cv_loc	10 1 862 0
	movb	$2, -1(%rbp)
.Ltmp289:
	.cv_loc	10 1 858 0
	jmp	.LBB10_10
.Ltmp290:
.LBB10_13:
	movl	$1, %eax
	movl	%eax, %ecx
	xorl	%eax, %eax
	movl	%eax, %edx
	.cv_loc	10 1 865 0
	movb	$0, 327(%rbp)
.Ltmp291:
	.cv_loc	10 1 866 0
	cmpq	$2, (%rbp)
	cmoveq	%rdx, %rcx
	cmpq	$1, %rcx
	je	.LBB10_25
	jmp	.LBB10_30
.Ltmp292:
.LBB10_23:
	.cv_loc	10 1 865 0
	movb	$0, 327(%rbp)
	jmp	.LBB10_13
.Ltmp293:
.LBB10_24:
	.cv_loc	10 1 866 0
	movb	$0, 325(%rbp)
	movb	$0, 326(%rbp)
	movb	-1(%rbp), %al
	addq	$464, %rsp
	popq	%rbp
	retq
.LBB10_25:
.Ltmp294:
	cmpq	$0, (%rbp)
	jne	.LBB10_28
.Ltmp295:
	testb	$1, 326(%rbp)
	je	.LBB10_24
.Ltmp296:
	movb	$0, 326(%rbp)
	jmp	.LBB10_24
.Ltmp297:
.LBB10_28:
	testb	$1, 325(%rbp)
	je	.LBB10_24
.Ltmp298:
	movb	$0, 325(%rbp)
	jmp	.LBB10_24
.Ltmp299:
.LBB10_30:
	jmp	.LBB10_24
.Ltmp300:
.LBB10_34:
	ud2
.Ltmp301:
.LBB10_16:
	cmpq	$0, (%rbp)
	jne	.LBB10_19
	testb	$1, 326(%rbp)
	je	.LBB10_37
	movb	$0, 326(%rbp)
	addq	$32, %rsp
	popq	%rbp
	retq
.LBB10_19:
	testb	$1, 325(%rbp)
	je	.LBB10_36
	movb	$0, 325(%rbp)
	addq	$32, %rsp
	popq	%rbp
	retq
.LBB10_21:
	addq	$32, %rsp
	popq	%rbp
	retq
	.seh_handlerdata
	.long	($cppxdata$_ZN72_$LT$std..collections..hash..map..HashMap$LT$K$C$$u20$V$C$$u20$S$GT$$GT$21insert_hashed_nocheck17h8264356c7ff06e48E)@IMGREL
	.section	.text,"xr",one_only,_ZN72_$LT$std..collections..hash..map..HashMap$LT$K$C$$u20$V$C$$u20$S$GT$$GT$21insert_hashed_nocheck17h8264356c7ff06e48E
.Lcfi113:
	.seh_endproc
	.def	 "?dtor$31@?0?_ZN72_$LT$std..collections..hash..map..HashMap$LT$K$C$$u20$V$C$$u20$S$GT$$GT$21insert_hashed_nocheck17h8264356c7ff06e48E@4HA";
	.scl	3;
	.type	32;
	.endef
	.p2align	4, 0x90
"?dtor$31@?0?_ZN72_$LT$std..collections..hash..map..HashMap$LT$K$C$$u20$V$C$$u20$S$GT$$GT$21insert_hashed_nocheck17h8264356c7ff06e48E@4HA":
.Lcfi114:
.seh_proc "?dtor$31@?0?_ZN72_$LT$std..collections..hash..map..HashMap$LT$K$C$$u20$V$C$$u20$S$GT$$GT$21insert_hashed_nocheck17h8264356c7ff06e48E@4HA"
.LBB10_31:
	movq	%rdx, 16(%rsp)
	pushq	%rbp
.Lcfi115:
	.seh_pushreg 5
	subq	$32, %rsp
.Lcfi116:
	.seh_stackalloc 32
	leaq	128(%rdx), %rbp
.Lcfi117:
	.seh_endprologue
	movl	$1, %eax
	movl	%eax, %ecx
	xorl	%eax, %eax
	movl	%eax, %edx
	cmpq	$2, (%rbp)
	cmoveq	%rdx, %rcx
	cmpq	$1, %rcx
	je	.LBB10_16
	jmp	.LBB10_21
.LBB10_36:
	addq	$32, %rsp
	popq	%rbp
	retq
.LBB10_37:
	addq	$32, %rsp
	popq	%rbp
	retq
.LBB10_1:
	.cv_loc	10 1 856 0
	addq	$32, %rsp
	popq	%rbp
	retq
.LBB10_3:
	.cv_loc	10 1 866 0
	testb	$1, 323(%rbp)
	jne	.LBB10_14
	jmp	.LBB10_1
.LBB10_14:
	movb	$0, 323(%rbp)
	jmp	.LBB10_1
.LBB10_15:
	movb	$0, 324(%rbp)
	jmp	.LBB10_3
	.seh_handlerdata
	.section	.text,"xr",one_only,_ZN72_$LT$std..collections..hash..map..HashMap$LT$K$C$$u20$V$C$$u20$S$GT$$GT$21insert_hashed_nocheck17h8264356c7ff06e48E
.Lcfi118:
	.seh_endproc
	.def	 "?dtor$32@?0?_ZN72_$LT$std..collections..hash..map..HashMap$LT$K$C$$u20$V$C$$u20$S$GT$$GT$21insert_hashed_nocheck17h8264356c7ff06e48E@4HA";
	.scl	3;
	.type	32;
	.endef
	.p2align	4, 0x90
"?dtor$32@?0?_ZN72_$LT$std..collections..hash..map..HashMap$LT$K$C$$u20$V$C$$u20$S$GT$$GT$21insert_hashed_nocheck17h8264356c7ff06e48E@4HA":
.Lcfi119:
.seh_proc "?dtor$32@?0?_ZN72_$LT$std..collections..hash..map..HashMap$LT$K$C$$u20$V$C$$u20$S$GT$$GT$21insert_hashed_nocheck17h8264356c7ff06e48E@4HA"
.LBB10_32:
	movq	%rdx, 16(%rsp)
	pushq	%rbp
.Lcfi120:
	.seh_pushreg 5
	subq	$32, %rsp
.Lcfi121:
	.seh_stackalloc 32
	leaq	128(%rdx), %rbp
.Lcfi122:
	.seh_endprologue
	testb	$1, 324(%rbp)
	jne	.LBB10_15
	jmp	.LBB10_3
.LBB10_22:
.Ltmp302:
	.cv_loc	10 1 865 0
	movb	$0, 327(%rbp)
	addq	$32, %rsp
	popq	%rbp
	retq
	.seh_handlerdata
	.section	.text,"xr",one_only,_ZN72_$LT$std..collections..hash..map..HashMap$LT$K$C$$u20$V$C$$u20$S$GT$$GT$21insert_hashed_nocheck17h8264356c7ff06e48E
.Lcfi123:
	.seh_endproc
	.def	 "?dtor$33@?0?_ZN72_$LT$std..collections..hash..map..HashMap$LT$K$C$$u20$V$C$$u20$S$GT$$GT$21insert_hashed_nocheck17h8264356c7ff06e48E@4HA";
	.scl	3;
	.type	32;
	.endef
	.p2align	4, 0x90
"?dtor$33@?0?_ZN72_$LT$std..collections..hash..map..HashMap$LT$K$C$$u20$V$C$$u20$S$GT$$GT$21insert_hashed_nocheck17h8264356c7ff06e48E@4HA":
.Lcfi124:
.seh_proc "?dtor$33@?0?_ZN72_$LT$std..collections..hash..map..HashMap$LT$K$C$$u20$V$C$$u20$S$GT$$GT$21insert_hashed_nocheck17h8264356c7ff06e48E@4HA"
.LBB10_33:
	movq	%rdx, 16(%rsp)
	pushq	%rbp
.Lcfi125:
	.seh_pushreg 5
	subq	$32, %rsp
.Lcfi126:
	.seh_stackalloc 32
	leaq	128(%rdx), %rbp
.Lcfi127:
	.seh_endprologue
	testb	$1, 327(%rbp)
	jne	.LBB10_22
	jmp	.LBB10_35
.Ltmp303:
.LBB10_35:
	addq	$32, %rsp
	popq	%rbp
	retq
.Lfunc_end10:
	.seh_handlerdata
	.section	.text,"xr",one_only,_ZN72_$LT$std..collections..hash..map..HashMap$LT$K$C$$u20$V$C$$u20$S$GT$$GT$21insert_hashed_nocheck17h8264356c7ff06e48E
.Lcfi128:
	.seh_endproc
	.section	.xdata,"dr",associative,_ZN72_$LT$std..collections..hash..map..HashMap$LT$K$C$$u20$V$C$$u20$S$GT$$GT$21insert_hashed_nocheck17h8264356c7ff06e48E
	.p2align	2
$cppxdata$_ZN72_$LT$std..collections..hash..map..HashMap$LT$K$C$$u20$V$C$$u20$S$GT$$GT$21insert_hashed_nocheck17h8264356c7ff06e48E:
	.long	429065506
	.long	3
	.long	($stateUnwindMap$_ZN72_$LT$std..collections..hash..map..HashMap$LT$K$C$$u20$V$C$$u20$S$GT$$GT$21insert_hashed_nocheck17h8264356c7ff06e48E)@IMGREL
	.long	0
	.long	0
	.long	4
	.long	($ip2state$_ZN72_$LT$std..collections..hash..map..HashMap$LT$K$C$$u20$V$C$$u20$S$GT$$GT$21insert_hashed_nocheck17h8264356c7ff06e48E)@IMGREL
	.long	456
	.long	0
	.long	1
$stateUnwindMap$_ZN72_$LT$std..collections..hash..map..HashMap$LT$K$C$$u20$V$C$$u20$S$GT$$GT$21insert_hashed_nocheck17h8264356c7ff06e48E:
	.long	-1
	.long	"?dtor$32@?0?_ZN72_$LT$std..collections..hash..map..HashMap$LT$K$C$$u20$V$C$$u20$S$GT$$GT$21insert_hashed_nocheck17h8264356c7ff06e48E@4HA"@IMGREL
	.long	0
	.long	"?dtor$31@?0?_ZN72_$LT$std..collections..hash..map..HashMap$LT$K$C$$u20$V$C$$u20$S$GT$$GT$21insert_hashed_nocheck17h8264356c7ff06e48E@4HA"@IMGREL
	.long	1
	.long	"?dtor$33@?0?_ZN72_$LT$std..collections..hash..map..HashMap$LT$K$C$$u20$V$C$$u20$S$GT$$GT$21insert_hashed_nocheck17h8264356c7ff06e48E@4HA"@IMGREL
$ip2state$_ZN72_$LT$std..collections..hash..map..HashMap$LT$K$C$$u20$V$C$$u20$S$GT$$GT$21insert_hashed_nocheck17h8264356c7ff06e48E:
	.long	.Lfunc_begin10@IMGREL
	.long	-1
	.long	.Ltmp262@IMGREL+1
	.long	0
	.long	.Ltmp270@IMGREL+1
	.long	2
	.long	.Ltmp267@IMGREL+1
	.long	-1
	.section	.text,"xr",one_only,_ZN72_$LT$std..collections..hash..map..HashMap$LT$K$C$$u20$V$C$$u20$S$GT$$GT$21insert_hashed_nocheck17h8264356c7ff06e48E

	.def	 _ZN72_$LT$std..collections..hash..map..HashMap$LT$K$C$$u20$V$C$$u20$S$GT$$GT$21insert_hashed_nocheck28_$u7b$$u7b$closure$u7d$$u7d$17ha0bbfb677ae82d9cE;
	.scl	3;
	.type	32;
	.endef
	.section	.text,"xr",one_only,_ZN72_$LT$std..collections..hash..map..HashMap$LT$K$C$$u20$V$C$$u20$S$GT$$GT$21insert_hashed_nocheck28_$u7b$$u7b$closure$u7d$$u7d$17ha0bbfb677ae82d9cE
	.p2align	4, 0x90
_ZN72_$LT$std..collections..hash..map..HashMap$LT$K$C$$u20$V$C$$u20$S$GT$$GT$21insert_hashed_nocheck28_$u7b$$u7b$closure$u7d$$u7d$17ha0bbfb677ae82d9cE:
.Lfunc_begin11:
	.cv_func_id 11
	.cv_loc	11 1 857 0
.Lcfi129:
.seh_proc _ZN72_$LT$std..collections..hash..map..HashMap$LT$K$C$$u20$V$C$$u20$S$GT$$GT$21insert_hashed_nocheck28_$u7b$$u7b$closure$u7d$$u7d$17ha0bbfb677ae82d9cE
	pushq	%rbp
.Lcfi130:
	.seh_pushreg 5
	subq	$64, %rsp
.Lcfi131:
	.seh_stackalloc 64
	leaq	64(%rsp), %rbp
.Lcfi132:
	.seh_setframe 5, 64
.Lcfi133:
	.seh_endprologue
	movq	%rcx, -16(%rbp)
	movq	%rdx, -8(%rbp)
.Ltmp304:
	movq	-8(%rbp), %rcx
	movq	-16(%rbp), %rdx
	movq	(%rdx), %rdx
	callq	_ZN73_$LT$sdl2..keyboard..keycode..Keycode$u20$as$u20$core..cmp..PartialEq$GT$2eq17hadffe265bfaac475E
	movb	%al, -17(%rbp)
	movb	-17(%rbp), %al
	andb	$1, %al
	movzbl	%al, %eax
	addq	$64, %rsp
	popq	%rbp
	retq
.Ltmp305:
.Lfunc_end11:
	.seh_handlerdata
	.section	.text,"xr",one_only,_ZN72_$LT$std..collections..hash..map..HashMap$LT$K$C$$u20$V$C$$u20$S$GT$$GT$21insert_hashed_nocheck28_$u7b$$u7b$closure$u7d$$u7d$17ha0bbfb677ae82d9cE
.Lcfi134:
	.seh_endproc

	.def	 _ZN72_$LT$std..collections..hash..map..HashMap$LT$K$C$$u20$V$C$$u20$S$GT$$GT$21insert_hashed_ordered17h8c7fa4f21ad52138E;
	.scl	3;
	.type	32;
	.endef
	.section	.text,"xr",one_only,_ZN72_$LT$std..collections..hash..map..HashMap$LT$K$C$$u20$V$C$$u20$S$GT$$GT$21insert_hashed_ordered17h8c7fa4f21ad52138E
	.p2align	4, 0x90
_ZN72_$LT$std..collections..hash..map..HashMap$LT$K$C$$u20$V$C$$u20$S$GT$$GT$21insert_hashed_ordered17h8c7fa4f21ad52138E:
.Lfunc_begin12:
	.cv_func_id 12
	.cv_loc	12 1 568 0
.Lcfi135:
.seh_proc _ZN72_$LT$std..collections..hash..map..HashMap$LT$K$C$$u20$V$C$$u20$S$GT$$GT$21insert_hashed_ordered17h8c7fa4f21ad52138E
	.seh_handler __CxxFrameHandler3, @unwind, @except
	pushq	%rbp
.Lcfi136:
	.seh_pushreg 5
	subq	$416, %rsp
.Lcfi137:
	.seh_stackalloc 416
	leaq	128(%rsp), %rbp
.Lcfi138:
	.seh_setframe 5, 128
.Lcfi139:
	.seh_endprologue
	movq	$-2, 280(%rbp)
	movb	%r9b, %al
	movq	%rcx, -56(%rbp)
	movq	%rdx, -48(%rbp)
	movl	%r8d, -40(%rbp)
	andb	$1, %al
	movb	%al, -33(%rbp)
.Ltmp318:
	.cv_loc	12 1 569 0
	movb	$0, 279(%rbp)
	movb	$0, 278(%rbp)
	movb	$1, 278(%rbp)
	movb	$1, 279(%rbp)
	movq	-56(%rbp), %rcx
	addq	$16, %rcx
	movq	-48(%rbp), %r8
.Ltmp306:
	leaq	-32(%rbp), %rdx
	movq	%rcx, -64(%rbp)
	movq	%rdx, %rcx
	movq	-64(%rbp), %rdx
	callq	_ZN73_$LT$std..collections..hash..table..Bucket$LT$K$C$$u20$V$C$$u20$M$GT$$GT$3new17h42c4b5742678c041E
.Ltmp307:
	jmp	.LBB12_2
.Ltmp319:
.LBB12_2:
	.cv_loc	12 1 570 0
.Ltmp308:
	leaq	-32(%rbp), %rcx
	callq	_ZN73_$LT$std..collections..hash..table..Bucket$LT$K$C$$u20$V$C$$u20$M$GT$$GT$5index17h91b07e122ac833faE
.Ltmp309:
	movq	%rax, -72(%rbp)
	jmp	.LBB12_4
.Ltmp320:
.LBB12_4:
	movq	-72(%rbp), %rax
	movq	%rax, (%rbp)
.Ltmp321:
.LBB12_5:
	.cv_loc	12 1 575 0
	movups	-32(%rbp), %xmm0
	movups	-16(%rbp), %xmm1
	movaps	%xmm1, 96(%rbp)
	movaps	%xmm0, 80(%rbp)
.Ltmp310:
	leaq	40(%rbp), %rcx
	leaq	80(%rbp), %rdx
	callq	_ZN73_$LT$std..collections..hash..table..Bucket$LT$K$C$$u20$V$C$$u20$M$GT$$GT$4peek17h77e6c3a10af2ac2fE
.Ltmp311:
	jmp	.LBB12_6
.Ltmp322:
.LBB12_6:
	.cv_loc	12 1 576 0
	movq	40(%rbp), %rax
	testq	%rax, %rax
	movq	%rax, -80(%rbp)
	je	.LBB12_8
	jmp	.LBB12_16
.Ltmp323:
.LBB12_16:
	movq	-80(%rbp), %rax
	subq	$1, %rax
	movq	%rax, -88(%rbp)
	je	.LBB12_9
	jmp	.LBB12_7
.Ltmp324:
.LBB12_7:
	.cv_loc	12 1 585 0
	ud2
.Ltmp325:
.LBB12_8:
	.cv_loc	12 1 576 0
	movups	48(%rbp), %xmm0
	movups	64(%rbp), %xmm1
	movaps	%xmm1, 128(%rbp)
	movaps	%xmm0, 112(%rbp)
.Ltmp326:
	.cv_loc	12 1 577 0
	movaps	112(%rbp), %xmm0
	movaps	128(%rbp), %xmm1
	movaps	%xmm1, 224(%rbp)
	movaps	%xmm0, 208(%rbp)
	movq	-48(%rbp), %r8
	movb	$0, 278(%rbp)
	movl	-40(%rbp), %r9d
	movb	$0, 279(%rbp)
	movzbl	-33(%rbp), %eax
.Ltmp316:
	movq	%rsp, %rcx
	movl	%eax, 32(%rcx)
	leaq	176(%rbp), %rcx
	leaq	208(%rbp), %rdx
	callq	_ZN78_$LT$std..collections..hash..table..EmptyBucket$LT$K$C$$u20$V$C$$u20$M$GT$$GT$3put17h27688bc2185fe164E
.Ltmp317:
	jmp	.LBB12_10
.Ltmp327:
.LBB12_9:
	.cv_loc	12 1 580 0
	movups	48(%rbp), %xmm0
	movups	64(%rbp), %xmm1
	movaps	%xmm1, 160(%rbp)
	movaps	%xmm0, 144(%rbp)
.Ltmp328:
	.cv_loc	12 1 580 0
	movaps	144(%rbp), %xmm0
	movaps	160(%rbp), %xmm1
	movaps	%xmm1, 256(%rbp)
	movaps	%xmm0, 240(%rbp)
.Ltmp312:
	leaq	8(%rbp), %rcx
	leaq	240(%rbp), %rdx
	callq	_ZN77_$LT$std..collections..hash..table..FullBucket$LT$K$C$$u20$V$C$$u20$M$GT$$GT$11into_bucket17h5c95ad361474a578E
.Ltmp313:
	jmp	.LBB12_11
.Ltmp329:
.LBB12_10:
	.cv_loc	12 1 585 0
	addq	$416, %rsp
	popq	%rbp
.Ltmp330:
	retq
.LBB12_11:
.Ltmp331:
	.cv_loc	12 1 575 0
	movups	8(%rbp), %xmm0
	movups	24(%rbp), %xmm1
	movaps	%xmm1, -16(%rbp)
	movaps	%xmm0, -32(%rbp)
	.cv_loc	12 1 582 0
.Ltmp314:
	leaq	-32(%rbp), %rcx
	callq	_ZN73_$LT$std..collections..hash..table..Bucket$LT$K$C$$u20$V$C$$u20$M$GT$$GT$4next17h13c47ff36d9a07cbE
.Ltmp315:
	jmp	.LBB12_12
.Ltmp332:
.LBB12_12:
	.cv_loc	12 1 572 0
	jmp	.LBB12_5
.Ltmp333:
.LBB12_1:
	.cv_loc	12 1 568 0
	addq	$48, %rsp
	popq	%rbp
	retq
.LBB12_3:
	.cv_loc	12 1 585 0
	testb	$1, 278(%rbp)
	jne	.LBB12_13
	jmp	.LBB12_1
.LBB12_13:
	movb	$0, 278(%rbp)
	jmp	.LBB12_1
.LBB12_14:
	movb	$0, 279(%rbp)
	jmp	.LBB12_3
	.seh_handlerdata
	.long	($cppxdata$_ZN72_$LT$std..collections..hash..map..HashMap$LT$K$C$$u20$V$C$$u20$S$GT$$GT$21insert_hashed_ordered17h8c7fa4f21ad52138E)@IMGREL
	.section	.text,"xr",one_only,_ZN72_$LT$std..collections..hash..map..HashMap$LT$K$C$$u20$V$C$$u20$S$GT$$GT$21insert_hashed_ordered17h8c7fa4f21ad52138E
.Lcfi140:
	.seh_endproc
	.def	 "?dtor$15@?0?_ZN72_$LT$std..collections..hash..map..HashMap$LT$K$C$$u20$V$C$$u20$S$GT$$GT$21insert_hashed_ordered17h8c7fa4f21ad52138E@4HA";
	.scl	3;
	.type	32;
	.endef
	.p2align	4, 0x90
"?dtor$15@?0?_ZN72_$LT$std..collections..hash..map..HashMap$LT$K$C$$u20$V$C$$u20$S$GT$$GT$21insert_hashed_ordered17h8c7fa4f21ad52138E@4HA":
.Lcfi141:
.seh_proc "?dtor$15@?0?_ZN72_$LT$std..collections..hash..map..HashMap$LT$K$C$$u20$V$C$$u20$S$GT$$GT$21insert_hashed_ordered17h8c7fa4f21ad52138E@4HA"
.LBB12_15:
	movq	%rdx, 16(%rsp)
	pushq	%rbp
.Lcfi142:
	.seh_pushreg 5
	subq	$48, %rsp
.Lcfi143:
	.seh_stackalloc 48
	leaq	128(%rdx), %rbp
.Lcfi144:
	.seh_endprologue
	testb	$1, 279(%rbp)
	jne	.LBB12_14
	jmp	.LBB12_3
.Ltmp334:
.Lfunc_end12:
	.seh_handlerdata
	.section	.text,"xr",one_only,_ZN72_$LT$std..collections..hash..map..HashMap$LT$K$C$$u20$V$C$$u20$S$GT$$GT$21insert_hashed_ordered17h8c7fa4f21ad52138E
.Lcfi145:
	.seh_endproc
	.section	.xdata,"dr",associative,_ZN72_$LT$std..collections..hash..map..HashMap$LT$K$C$$u20$V$C$$u20$S$GT$$GT$21insert_hashed_ordered17h8c7fa4f21ad52138E
	.p2align	2
$cppxdata$_ZN72_$LT$std..collections..hash..map..HashMap$LT$K$C$$u20$V$C$$u20$S$GT$$GT$21insert_hashed_ordered17h8c7fa4f21ad52138E:
	.long	429065506
	.long	1
	.long	($stateUnwindMap$_ZN72_$LT$std..collections..hash..map..HashMap$LT$K$C$$u20$V$C$$u20$S$GT$$GT$21insert_hashed_ordered17h8c7fa4f21ad52138E)@IMGREL
	.long	0
	.long	0
	.long	3
	.long	($ip2state$_ZN72_$LT$std..collections..hash..map..HashMap$LT$K$C$$u20$V$C$$u20$S$GT$$GT$21insert_hashed_ordered17h8c7fa4f21ad52138E)@IMGREL
	.long	408
	.long	0
	.long	1
$stateUnwindMap$_ZN72_$LT$std..collections..hash..map..HashMap$LT$K$C$$u20$V$C$$u20$S$GT$$GT$21insert_hashed_ordered17h8c7fa4f21ad52138E:
	.long	-1
	.long	"?dtor$15@?0?_ZN72_$LT$std..collections..hash..map..HashMap$LT$K$C$$u20$V$C$$u20$S$GT$$GT$21insert_hashed_ordered17h8c7fa4f21ad52138E@4HA"@IMGREL
$ip2state$_ZN72_$LT$std..collections..hash..map..HashMap$LT$K$C$$u20$V$C$$u20$S$GT$$GT$21insert_hashed_ordered17h8c7fa4f21ad52138E:
	.long	.Lfunc_begin12@IMGREL
	.long	-1
	.long	.Ltmp306@IMGREL+1
	.long	0
	.long	.Ltmp315@IMGREL+1
	.long	-1
	.section	.text,"xr",one_only,_ZN72_$LT$std..collections..hash..map..HashMap$LT$K$C$$u20$V$C$$u20$S$GT$$GT$21insert_hashed_ordered17h8c7fa4f21ad52138E

	.def	 _ZN72_$LT$std..collections..hash..map..HashMap$LT$K$C$$u20$V$C$$u20$S$GT$$GT$3get17h14716297c36d004bE;
	.scl	2;
	.type	32;
	.endef
	.section	.text,"xr",one_only,_ZN72_$LT$std..collections..hash..map..HashMap$LT$K$C$$u20$V$C$$u20$S$GT$$GT$3get17h14716297c36d004bE
	.globl	_ZN72_$LT$std..collections..hash..map..HashMap$LT$K$C$$u20$V$C$$u20$S$GT$$GT$3get17h14716297c36d004bE
	.p2align	4, 0x90
_ZN72_$LT$std..collections..hash..map..HashMap$LT$K$C$$u20$V$C$$u20$S$GT$$GT$3get17h14716297c36d004bE:
.Lfunc_begin13:
	.cv_func_id 13
	.cv_loc	13 1 1117 0
.Lcfi146:
.seh_proc _ZN72_$LT$std..collections..hash..map..HashMap$LT$K$C$$u20$V$C$$u20$S$GT$$GT$3get17h14716297c36d004bE
	pushq	%rbp
.Lcfi147:
	.seh_pushreg 5
	subq	$160, %rsp
.Lcfi148:
	.seh_stackalloc 160
	leaq	128(%rsp), %rbp
.Lcfi149:
	.seh_setframe 5, 128
.Lcfi150:
	.seh_endprologue
	leaq	-32(%rbp), %rax
	movq	%rcx, -80(%rbp)
	movq	%rdx, -72(%rbp)
.Ltmp335:
	.cv_loc	13 1 1121 0
	movq	-80(%rbp), %rdx
	movq	-72(%rbp), %r8
	movq	%rax, %rcx
	callq	_ZN72_$LT$std..collections..hash..map..HashMap$LT$K$C$$u20$V$C$$u20$S$GT$$GT$6search17he45fd16faf2e5b28E
	leaq	-64(%rbp), %rcx
	leaq	-32(%rbp), %rdx
	callq	_ZN78_$LT$std..collections..hash..map..InternalEntry$LT$K$C$$u20$V$C$$u20$M$GT$$GT$20into_occupied_bucket17h8641f402b14ef686E
	leaq	-64(%rbp), %rcx
	callq	_ZN38_$LT$core..option..Option$LT$T$GT$$GT$3map17hd18842da73548acbE
	movq	%rax, -88(%rbp)
	.cv_loc	13 1 1122 0
	movq	-88(%rbp), %rax
	addq	$160, %rsp
	popq	%rbp
	retq
.Ltmp336:
.Lfunc_end13:
	.seh_handlerdata
	.section	.text,"xr",one_only,_ZN72_$LT$std..collections..hash..map..HashMap$LT$K$C$$u20$V$C$$u20$S$GT$$GT$3get17h14716297c36d004bE
.Lcfi151:
	.seh_endproc

	.def	 _ZN72_$LT$std..collections..hash..map..HashMap$LT$K$C$$u20$V$C$$u20$S$GT$$GT$3get28_$u7b$$u7b$closure$u7d$$u7d$17h8fb5dabd52658004E;
	.scl	2;
	.type	32;
	.endef
	.section	.text,"xr",one_only,_ZN72_$LT$std..collections..hash..map..HashMap$LT$K$C$$u20$V$C$$u20$S$GT$$GT$3get28_$u7b$$u7b$closure$u7d$$u7d$17h8fb5dabd52658004E
	.globl	_ZN72_$LT$std..collections..hash..map..HashMap$LT$K$C$$u20$V$C$$u20$S$GT$$GT$3get28_$u7b$$u7b$closure$u7d$$u7d$17h8fb5dabd52658004E
	.p2align	4, 0x90
_ZN72_$LT$std..collections..hash..map..HashMap$LT$K$C$$u20$V$C$$u20$S$GT$$GT$3get28_$u7b$$u7b$closure$u7d$$u7d$17h8fb5dabd52658004E:
.Lfunc_begin14:
	.cv_func_id 14
	.cv_loc	14 1 1121 0
.Lcfi152:
.seh_proc _ZN72_$LT$std..collections..hash..map..HashMap$LT$K$C$$u20$V$C$$u20$S$GT$$GT$3get28_$u7b$$u7b$closure$u7d$$u7d$17h8fb5dabd52658004E
	pushq	%rbp
.Lcfi153:
	.seh_pushreg 5
	subq	$96, %rsp
.Lcfi154:
	.seh_stackalloc 96
	leaq	96(%rsp), %rbp
.Lcfi155:
	.seh_setframe 5, 96
.Lcfi156:
	.seh_endprologue
	leaq	-32(%rbp), %rax
.Ltmp337:
	movq	(%rcx), %rdx
	movq	%rdx, -32(%rbp)
	movq	8(%rcx), %rdx
	movq	%rdx, -24(%rbp)
	movq	16(%rcx), %rdx
	movq	%rdx, -16(%rbp)
	movq	24(%rcx), %rcx
.Ltmp338:
	movq	%rcx, -8(%rbp)
	movq	%rax, %rcx
	callq	_ZN77_$LT$std..collections..hash..table..FullBucket$LT$K$C$$u20$V$C$$u20$M$GT$$GT$9into_refs17hf77f8bdf774de510E
	movq	%rax, -48(%rbp)
	movq	%rdx, -56(%rbp)
	movq	-56(%rbp), %rax
	addq	$96, %rsp
	popq	%rbp
	retq
.Ltmp339:
.Lfunc_end14:
	.seh_handlerdata
	.section	.text,"xr",one_only,_ZN72_$LT$std..collections..hash..map..HashMap$LT$K$C$$u20$V$C$$u20$S$GT$$GT$3get28_$u7b$$u7b$closure$u7d$$u7d$17h8fb5dabd52658004E
.Lcfi157:
	.seh_endproc

	.def	 _ZN72_$LT$std..collections..hash..map..HashMap$LT$K$C$$u20$V$C$$u20$S$GT$$GT$3len17h972656b51f2ad4a9E;
	.scl	3;
	.type	32;
	.endef
	.section	.text,"xr",one_only,_ZN72_$LT$std..collections..hash..map..HashMap$LT$K$C$$u20$V$C$$u20$S$GT$$GT$3len17h972656b51f2ad4a9E
	.p2align	4, 0x90
_ZN72_$LT$std..collections..hash..map..HashMap$LT$K$C$$u20$V$C$$u20$S$GT$$GT$3len17h972656b51f2ad4a9E:
.Lfunc_begin15:
	.cv_func_id 15
	.cv_loc	15 1 1030 0
.Lcfi158:
.seh_proc _ZN72_$LT$std..collections..hash..map..HashMap$LT$K$C$$u20$V$C$$u20$S$GT$$GT$3len17h972656b51f2ad4a9E
	pushq	%rbp
.Lcfi159:
	.seh_pushreg 5
	subq	$48, %rsp
.Lcfi160:
	.seh_stackalloc 48
	leaq	48(%rsp), %rbp
.Lcfi161:
	.seh_setframe 5, 48
.Lcfi162:
	.seh_endprologue
	movq	%rcx, -8(%rbp)
.Ltmp340:
	.cv_loc	15 1 1031 0
	movq	-8(%rbp), %rcx
	addq	$16, %rcx
	callq	_ZN66_$LT$std..collections..hash..table..RawTable$LT$K$C$$u20$V$GT$$GT$4size17hf0c4ba37d587adacE
	movq	%rax, -16(%rbp)
	.cv_loc	15 1 1032 0
	movq	-16(%rbp), %rax
	addq	$48, %rsp
	popq	%rbp
	retq
.Ltmp341:
.Lfunc_end15:
	.seh_handlerdata
	.section	.text,"xr",one_only,_ZN72_$LT$std..collections..hash..map..HashMap$LT$K$C$$u20$V$C$$u20$S$GT$$GT$3len17h972656b51f2ad4a9E
.Lcfi163:
	.seh_endproc

	.def	 _ZN72_$LT$std..collections..hash..map..HashMap$LT$K$C$$u20$V$C$$u20$S$GT$$GT$6insert17ha89bdfd40ad0bf74E;
	.scl	2;
	.type	32;
	.endef
	.section	.text,"xr",one_only,_ZN72_$LT$std..collections..hash..map..HashMap$LT$K$C$$u20$V$C$$u20$S$GT$$GT$6insert17ha89bdfd40ad0bf74E
	.globl	_ZN72_$LT$std..collections..hash..map..HashMap$LT$K$C$$u20$V$C$$u20$S$GT$$GT$6insert17ha89bdfd40ad0bf74E
	.p2align	4, 0x90
_ZN72_$LT$std..collections..hash..map..HashMap$LT$K$C$$u20$V$C$$u20$S$GT$$GT$6insert17ha89bdfd40ad0bf74E:
.Lfunc_begin16:
	.cv_func_id 16
	.cv_loc	16 1 1206 0
.Lcfi164:
.seh_proc _ZN72_$LT$std..collections..hash..map..HashMap$LT$K$C$$u20$V$C$$u20$S$GT$$GT$6insert17ha89bdfd40ad0bf74E
	.seh_handler __CxxFrameHandler3, @unwind, @except
	pushq	%rbp
.Lcfi165:
	.seh_pushreg 5
	subq	$96, %rsp
.Lcfi166:
	.seh_stackalloc 96
	leaq	96(%rsp), %rbp
.Lcfi167:
	.seh_setframe 5, 96
.Lcfi168:
	.seh_endprologue
	movq	$-2, -8(%rbp)
	movb	%r8b, %al
	movq	%rcx, -40(%rbp)
	movl	%edx, -32(%rbp)
	andb	$1, %al
	movb	%al, -25(%rbp)
.Ltmp348:
	.cv_loc	16 1 1207 0
	movb	$0, -9(%rbp)
	movb	$0, -10(%rbp)
	movb	$1, -10(%rbp)
	movb	$1, -9(%rbp)
	movq	-40(%rbp), %rcx
.Ltmp342:
	leaq	-32(%rbp), %rdx
	callq	_ZN72_$LT$std..collections..hash..map..HashMap$LT$K$C$$u20$V$C$$u20$S$GT$$GT$9make_hash17h39055a194e39304eE
.Ltmp343:
	movq	%rax, -48(%rbp)
	jmp	.LBB16_2
.Ltmp349:
.LBB16_2:
	movq	-48(%rbp), %rax
	movq	%rax, -24(%rbp)
.Ltmp350:
	.cv_loc	16 1 1208 0
	movq	-40(%rbp), %rcx
.Ltmp344:
	movl	$1, %edx
	callq	_ZN72_$LT$std..collections..hash..map..HashMap$LT$K$C$$u20$V$C$$u20$S$GT$$GT$7reserve17h93f782138afd3707E
.Ltmp345:
	jmp	.LBB16_4
.Ltmp351:
.LBB16_4:
	.cv_loc	16 1 1209 0
	movq	-40(%rbp), %rcx
	movq	-24(%rbp), %rdx
	movb	$0, -10(%rbp)
	movl	-32(%rbp), %r8d
	movb	$0, -9(%rbp)
	movzbl	-25(%rbp), %r9d
.Ltmp346:
	callq	_ZN72_$LT$std..collections..hash..map..HashMap$LT$K$C$$u20$V$C$$u20$S$GT$$GT$21insert_hashed_nocheck17h8264356c7ff06e48E
.Ltmp347:
	movb	%al, -49(%rbp)
	jmp	.LBB16_5
.Ltmp352:
.LBB16_5:
	.cv_loc	16 1 1210 0
	movb	-49(%rbp), %al
	addq	$96, %rsp
	popq	%rbp
.Ltmp353:
	retq
.LBB16_1:
	.cv_loc	16 1 1206 0
	addq	$32, %rsp
	popq	%rbp
	retq
.LBB16_3:
	.cv_loc	16 1 1210 0
	testb	$1, -10(%rbp)
	jne	.LBB16_6
	jmp	.LBB16_1
.LBB16_6:
	movb	$0, -10(%rbp)
	jmp	.LBB16_1
.LBB16_7:
	movb	$0, -9(%rbp)
	jmp	.LBB16_3
	.seh_handlerdata
	.long	($cppxdata$_ZN72_$LT$std..collections..hash..map..HashMap$LT$K$C$$u20$V$C$$u20$S$GT$$GT$6insert17ha89bdfd40ad0bf74E)@IMGREL
	.section	.text,"xr",one_only,_ZN72_$LT$std..collections..hash..map..HashMap$LT$K$C$$u20$V$C$$u20$S$GT$$GT$6insert17ha89bdfd40ad0bf74E
.Lcfi169:
	.seh_endproc
	.def	 "?dtor$8@?0?_ZN72_$LT$std..collections..hash..map..HashMap$LT$K$C$$u20$V$C$$u20$S$GT$$GT$6insert17ha89bdfd40ad0bf74E@4HA";
	.scl	3;
	.type	32;
	.endef
	.p2align	4, 0x90
"?dtor$8@?0?_ZN72_$LT$std..collections..hash..map..HashMap$LT$K$C$$u20$V$C$$u20$S$GT$$GT$6insert17ha89bdfd40ad0bf74E@4HA":
.Lcfi170:
.seh_proc "?dtor$8@?0?_ZN72_$LT$std..collections..hash..map..HashMap$LT$K$C$$u20$V$C$$u20$S$GT$$GT$6insert17ha89bdfd40ad0bf74E@4HA"
.LBB16_8:
	movq	%rdx, 16(%rsp)
	pushq	%rbp
.Lcfi171:
	.seh_pushreg 5
	subq	$32, %rsp
.Lcfi172:
	.seh_stackalloc 32
	leaq	96(%rdx), %rbp
.Lcfi173:
	.seh_endprologue
	testb	$1, -9(%rbp)
	jne	.LBB16_7
	jmp	.LBB16_3
.Ltmp354:
.Lfunc_end16:
	.seh_handlerdata
	.section	.text,"xr",one_only,_ZN72_$LT$std..collections..hash..map..HashMap$LT$K$C$$u20$V$C$$u20$S$GT$$GT$6insert17ha89bdfd40ad0bf74E
.Lcfi174:
	.seh_endproc
	.section	.xdata,"dr",associative,_ZN72_$LT$std..collections..hash..map..HashMap$LT$K$C$$u20$V$C$$u20$S$GT$$GT$6insert17ha89bdfd40ad0bf74E
	.p2align	2
$cppxdata$_ZN72_$LT$std..collections..hash..map..HashMap$LT$K$C$$u20$V$C$$u20$S$GT$$GT$6insert17ha89bdfd40ad0bf74E:
	.long	429065506
	.long	1
	.long	($stateUnwindMap$_ZN72_$LT$std..collections..hash..map..HashMap$LT$K$C$$u20$V$C$$u20$S$GT$$GT$6insert17ha89bdfd40ad0bf74E)@IMGREL
	.long	0
	.long	0
	.long	3
	.long	($ip2state$_ZN72_$LT$std..collections..hash..map..HashMap$LT$K$C$$u20$V$C$$u20$S$GT$$GT$6insert17ha89bdfd40ad0bf74E)@IMGREL
	.long	88
	.long	0
	.long	1
$stateUnwindMap$_ZN72_$LT$std..collections..hash..map..HashMap$LT$K$C$$u20$V$C$$u20$S$GT$$GT$6insert17ha89bdfd40ad0bf74E:
	.long	-1
	.long	"?dtor$8@?0?_ZN72_$LT$std..collections..hash..map..HashMap$LT$K$C$$u20$V$C$$u20$S$GT$$GT$6insert17ha89bdfd40ad0bf74E@4HA"@IMGREL
$ip2state$_ZN72_$LT$std..collections..hash..map..HashMap$LT$K$C$$u20$V$C$$u20$S$GT$$GT$6insert17ha89bdfd40ad0bf74E:
	.long	.Lfunc_begin16@IMGREL
	.long	-1
	.long	.Ltmp342@IMGREL+1
	.long	0
	.long	.Ltmp347@IMGREL+1
	.long	-1
	.section	.text,"xr",one_only,_ZN72_$LT$std..collections..hash..map..HashMap$LT$K$C$$u20$V$C$$u20$S$GT$$GT$6insert17ha89bdfd40ad0bf74E

	.def	 _ZN72_$LT$std..collections..hash..map..HashMap$LT$K$C$$u20$V$C$$u20$S$GT$$GT$6resize17h3ce930d4e22c28a6E;
	.scl	3;
	.type	32;
	.endef
	.section	.text,"xr",one_only,_ZN72_$LT$std..collections..hash..map..HashMap$LT$K$C$$u20$V$C$$u20$S$GT$$GT$6resize17h3ce930d4e22c28a6E
	.p2align	4, 0x90
_ZN72_$LT$std..collections..hash..map..HashMap$LT$K$C$$u20$V$C$$u20$S$GT$$GT$6resize17h3ce930d4e22c28a6E:
.Lfunc_begin17:
	.cv_func_id 17
	.cv_loc	17 1 773 0
.Lcfi175:
.seh_proc _ZN72_$LT$std..collections..hash..map..HashMap$LT$K$C$$u20$V$C$$u20$S$GT$$GT$6resize17h3ce930d4e22c28a6E
	.seh_handler __CxxFrameHandler3, @unwind, @except
	pushq	%rbp
.Lcfi176:
	.seh_pushreg 5
	subq	$848, %rsp
.Lcfi177:
	.seh_stackalloc 848
	leaq	128(%rsp), %rbp
.Lcfi178:
	.seh_setframe 5, 128
.Lcfi179:
	.seh_endprologue
	movq	$-2, 712(%rbp)
	movq	%rcx, 64(%rbp)
	movq	%rdx, 72(%rbp)
.Ltmp389:
	.cv_file	4 "\\<assert macros>"
	.cv_loc	17 4 2 0
	movb	$0, 711(%rbp)
	movb	$0, 710(%rbp)
	.cv_loc	17 1 774 0
	movq	64(%rbp), %rcx
	addq	$16, %rcx
	callq	_ZN66_$LT$std..collections..hash..table..RawTable$LT$K$C$$u20$V$GT$$GT$4size17hf0c4ba37d587adacE
	cmpq	72(%rbp), %rax
	setbe	%r8b
	.cv_loc	17 4 2 0
	xorb	$-1, %r8b
	testb	$1, %r8b
	jne	.LBB17_1
	jmp	.LBB17_2
.LBB17_1:
	.cv_loc	17 3 69 0
	leaq	str.9(%rip), %rcx
	leaq	ref.7(%rip), %r8
	movl	$50, %eax
	movl	%eax, %edx
	callq	_ZN3std9panicking11begin_panic17h83790f2ca815c643E
	ud2
.LBB17_2:
	.cv_loc	17 1 775 0
	movq	72(%rbp), %rcx
	callq	_ZN4core3num23_$LT$impl$u20$usize$GT$15is_power_of_two17h47775aceccb15faeE
	testb	$1, %al
	jne	.LBB17_3
	jmp	.LBB17_5
.LBB17_3:
	movb	$1, 87(%rbp)
	jmp	.LBB17_6
.LBB17_4:
	movb	$0, 87(%rbp)
	jmp	.LBB17_6
.LBB17_5:
	cmpq	$0, 72(%rbp)
	je	.LBB17_3
	jmp	.LBB17_4
.LBB17_6:
	.cv_loc	17 4 2 0
	movb	87(%rbp), %al
	xorb	$-1, %al
	testb	$1, %al
	jne	.LBB17_7
	jmp	.LBB17_8
.LBB17_7:
	.cv_loc	17 3 69 0
	leaq	str.c(%rip), %rcx
	leaq	ref.a(%rip), %r8
	movl	$67, %eax
	movl	%eax, %edx
	callq	_ZN3std9panicking11begin_panic17h83790f2ca815c643E
	ud2
.LBB17_8:
	.cv_loc	17 1 777 0
	movq	64(%rbp), %rax
	addq	$16, %rax
	movq	72(%rbp), %rdx
	leaq	112(%rbp), %rcx
	movq	%rcx, 56(%rbp)
	movq	%rax, 48(%rbp)
	callq	_ZN66_$LT$std..collections..hash..table..RawTable$LT$K$C$$u20$V$GT$$GT$3new17h92a68725afda94c1E
	leaq	88(%rbp), %rax
	movq	%rax, %rcx
	movq	48(%rbp), %rdx
	movq	56(%rbp), %r8
	movq	%rax, 40(%rbp)
	callq	_ZN4core3mem7replace17hd28a85ac64149200E
.Ltmp390:
	.cv_loc	17 1 778 0
.Ltmp355:
	movq	40(%rbp), %rcx
	callq	_ZN66_$LT$std..collections..hash..table..RawTable$LT$K$C$$u20$V$GT$$GT$4size17hf0c4ba37d587adacE
.Ltmp356:
	movq	%rax, 32(%rbp)
	jmp	.LBB17_9
.LBB17_9:
	movq	32(%rbp), %rax
	movq	%rax, 136(%rbp)
.Ltmp391:
	.cv_loc	17 1 780 0
.Ltmp357:
	leaq	88(%rbp), %rcx
	callq	_ZN66_$LT$std..collections..hash..table..RawTable$LT$K$C$$u20$V$GT$$GT$4size17hf0c4ba37d587adacE
.Ltmp358:
	movq	%rax, 24(%rbp)
	jmp	.LBB17_10
.LBB17_10:
	movq	24(%rbp), %rax
	cmpq	$0, %rax
	jne	.LBB17_12
.Ltmp392:
	leaq	88(%rbp), %rcx
	.cv_loc	17 1 816 0
	callq	_ZN4core3ptr13drop_in_place17h67760d014c257544E
	.cv_loc	17 1 781 0
	jmp	.LBB17_13
.LBB17_12:
.Ltmp393:
	.cv_loc	17 1 784 0
.Ltmp359:
	leaq	144(%rbp), %rcx
	leaq	88(%rbp), %rdx
	callq	_ZN73_$LT$std..collections..hash..table..Bucket$LT$K$C$$u20$V$C$$u20$M$GT$$GT$11head_bucket17h8476d49b81e3a91bE
.Ltmp360:
	jmp	.LBB17_14
.Ltmp394:
.LBB17_13:
	.cv_loc	17 1 816 0
	addq	$848, %rsp
	popq	%rbp
	retq
.LBB17_14:
.Ltmp395:
	.cv_loc	17 1 799 0
	jmp	.LBB17_15
.LBB17_15:
	.cv_loc	17 1 800 0
	movups	144(%rbp), %xmm0
	movups	160(%rbp), %xmm1
	movaps	%xmm1, 272(%rbp)
	movaps	%xmm0, 256(%rbp)
.Ltmp361:
	leaq	216(%rbp), %rcx
	leaq	256(%rbp), %rdx
	callq	_ZN73_$LT$std..collections..hash..table..Bucket$LT$K$C$$u20$V$C$$u20$M$GT$$GT$4peek17h77e6c3a10af2ac2fE
.Ltmp362:
	jmp	.LBB17_16
.LBB17_16:
	.cv_loc	17 1 801 0
	movq	216(%rbp), %rax
	testq	%rax, %rax
	movq	%rax, 16(%rbp)
	je	.LBB17_18
	jmp	.LBB17_44
.Ltmp396:
.LBB17_44:
	movq	16(%rbp), %rax
	subq	$1, %rax
	movq	%rax, 8(%rbp)
	je	.LBB17_19
	jmp	.LBB17_17
.LBB17_17:
	.cv_loc	17 1 816 0
	ud2
.LBB17_18:
.Ltmp397:
	.cv_loc	17 1 810 0
	movups	224(%rbp), %xmm0
	movups	240(%rbp), %xmm1
	movaps	%xmm1, 336(%rbp)
	movaps	%xmm0, 320(%rbp)
.Ltmp398:
	.cv_loc	17 1 810 0
	movaps	320(%rbp), %xmm0
	movaps	336(%rbp), %xmm1
	movaps	%xmm1, 528(%rbp)
	movaps	%xmm0, 512(%rbp)
.Ltmp385:
	leaq	184(%rbp), %rcx
	leaq	512(%rbp), %rdx
	callq	_ZN78_$LT$std..collections..hash..table..EmptyBucket$LT$K$C$$u20$V$C$$u20$M$GT$$GT$11into_bucket17h489d34636e49b8baE
.Ltmp386:
	jmp	.LBB17_30
.Ltmp399:
.LBB17_19:
	.cv_loc	17 1 801 0
	movups	224(%rbp), %xmm0
	movups	240(%rbp), %xmm1
	movaps	%xmm1, 304(%rbp)
	movaps	%xmm0, 288(%rbp)
.Ltmp400:
	.cv_loc	17 1 802 0
.Ltmp363:
	leaq	288(%rbp), %rcx
	callq	_ZN77_$LT$std..collections..hash..table..FullBucket$LT$K$C$$u20$V$C$$u20$M$GT$$GT$4hash17hb65c324c71e1c7f3E
.Ltmp364:
	movq	%rax, (%rbp)
	jmp	.LBB17_21
.Ltmp401:
.LBB17_20:
	.cv_loc	17 1 800 0
	movups	184(%rbp), %xmm0
	movups	200(%rbp), %xmm1
	movaps	%xmm1, 160(%rbp)
	movaps	%xmm0, 144(%rbp)
	.cv_loc	17 1 812 0
.Ltmp387:
	leaq	144(%rbp), %rcx
	callq	_ZN73_$LT$std..collections..hash..table..Bucket$LT$K$C$$u20$V$C$$u20$M$GT$$GT$4next17h13c47ff36d9a07cbE
.Ltmp388:
	jmp	.LBB17_31
.LBB17_21:
.Ltmp402:
	.cv_loc	17 1 802 0
	movq	(%rbp), %rax
	movq	%rax, 360(%rbp)
.Ltmp403:
	.cv_loc	17 1 803 0
	movaps	288(%rbp), %xmm0
	movaps	304(%rbp), %xmm1
	movaps	%xmm1, 464(%rbp)
	movaps	%xmm0, 448(%rbp)
.Ltmp365:
	leaq	408(%rbp), %rcx
	leaq	448(%rbp), %rdx
	callq	_ZN156_$LT$std..collections..hash..table..FullBucket$LT$K$C$$u20$V$C$$u20$$RF$$u27$t$u20$mut$u20$std..collections..hash..table..RawTable$LT$K$C$$u20$V$GT$$GT$$GT$4take17hffade6f3ae41e95dE
.Ltmp366:
	jmp	.LBB17_22
.LBB17_22:
	movups	408(%rbp), %xmm0
	movups	424(%rbp), %xmm1
	movaps	%xmm1, 384(%rbp)
	movaps	%xmm0, 368(%rbp)
	movb	$1, 710(%rbp)
	movl	440(%rbp), %eax
	movl	%eax, 400(%rbp)
	movb	$1, 711(%rbp)
	movb	444(%rbp), %cl
	movb	%cl, 407(%rbp)
.Ltmp404:
	.cv_loc	17 1 804 0
	movq	64(%rbp), %rcx
	movq	360(%rbp), %rdx
	movb	$0, 710(%rbp)
	movl	400(%rbp), %r8d
	movb	$0, 711(%rbp)
	movzbl	407(%rbp), %r9d
.Ltmp367:
	callq	_ZN72_$LT$std..collections..hash..map..HashMap$LT$K$C$$u20$V$C$$u20$S$GT$$GT$21insert_hashed_ordered17h8c7fa4f21ad52138E
.Ltmp368:
	jmp	.LBB17_24
.LBB17_24:
	.cv_loc	17 1 805 0
.Ltmp369:
	leaq	368(%rbp), %rcx
	callq	_ZN78_$LT$std..collections..hash..table..EmptyBucket$LT$K$C$$u20$V$C$$u20$M$GT$$GT$5table17heac6823192005622E
.Ltmp370:
	movq	%rax, -8(%rbp)
	jmp	.LBB17_25
.LBB17_25:
	movq	-8(%rbp), %rax
	movq	(%rax), %rcx
.Ltmp371:
	callq	_ZN66_$LT$std..collections..hash..table..RawTable$LT$K$C$$u20$V$GT$$GT$4size17hf0c4ba37d587adacE
.Ltmp372:
	movq	%rax, -16(%rbp)
	jmp	.LBB17_26
.LBB17_26:
	movq	-16(%rbp), %rax
	cmpq	$0, %rax
	jne	.LBB17_28
.Ltmp405:
	.cv_loc	17 1 809 0
	movb	$0, 711(%rbp)
	movb	$0, 710(%rbp)
.Ltmp406:
	.cv_loc	17 1 815 0
	movq	64(%rbp), %rax
	addq	$16, %rax
.Ltmp375:
	movq	%rax, %rcx
	callq	_ZN66_$LT$std..collections..hash..table..RawTable$LT$K$C$$u20$V$GT$$GT$4size17hf0c4ba37d587adacE
.Ltmp376:
	movq	%rax, -24(%rbp)
	jmp	.LBB17_32
.LBB17_28:
.Ltmp407:
	.cv_loc	17 1 808 0
	movaps	368(%rbp), %xmm0
	movaps	384(%rbp), %xmm1
	movaps	%xmm1, 496(%rbp)
	movaps	%xmm0, 480(%rbp)
.Ltmp373:
	leaq	184(%rbp), %rcx
	leaq	480(%rbp), %rdx
	callq	_ZN78_$LT$std..collections..hash..table..EmptyBucket$LT$K$C$$u20$V$C$$u20$M$GT$$GT$11into_bucket17h489d34636e49b8baE
.Ltmp374:
	jmp	.LBB17_29
.Ltmp408:
.LBB17_29:
	.cv_loc	17 1 809 0
	movb	$0, 711(%rbp)
	movb	$0, 710(%rbp)
.Ltmp409:
	.cv_loc	17 1 800 0
	jmp	.LBB17_20
.LBB17_30:
	jmp	.LBB17_20
.LBB17_31:
	.cv_loc	17 1 799 0
	jmp	.LBB17_15
.LBB17_32:
	leaq	136(%rbp), %rax
	leaq	568(%rbp), %rcx
	.cv_loc	17 1 815 0
	movq	-24(%rbp), %rdx
	movq	%rdx, 568(%rbp)
	.cv_file	5 "\\<assert_eq macros>"
	.cv_loc	17 5 3 0
	movq	%rcx, 552(%rbp)
	movq	%rax, 560(%rbp)
	.cv_loc	17 5 4 0
	movq	552(%rbp), %rax
	movq	%rax, 576(%rbp)
	movq	560(%rbp), %rax
	movq	%rax, 584(%rbp)
.Ltmp410:
	.cv_loc	17 5 5 0
	movq	576(%rbp), %rax
	movq	(%rax), %rax
	movq	584(%rbp), %rcx
	cmpq	(%rcx), %rax
	sete	%r8b
	xorb	$-1, %r8b
	testb	$1, %r8b
	jne	.LBB17_33
	jmp	.LBB17_34
.LBB17_33:
	leaq	576(%rbp), %rax
	.cv_loc	17 5 7 0
	movq	%rax, 672(%rbp)
	leaq	584(%rbp), %rax
	movq	%rax, 680(%rbp)
	.cv_file	6 "C:\\projects\\rust\\src\\libstd\\lib.rs"
	.cv_loc	17 6 1 0
	movq	672(%rbp), %rax
	movq	%rax, 688(%rbp)
	movq	680(%rbp), %rax
	movq	%rax, 696(%rbp)
.Ltmp411:
	.cv_loc	17 5 10 0
	movq	688(%rbp), %rcx
	.cv_loc	17 3 72 0
.Ltmp377:
	leaq	_ZN53_$LT$$RF$$u27$a$u20$T$u20$as$u20$core..fmt..Debug$GT$3fmt17h5ec44fe6e16e15bbE(%rip), %rdx
	callq	_ZN4core3fmt10ArgumentV13new17h77639e2f724da403E
.Ltmp378:
	movq	%rdx, -32(%rbp)
	movq	%rax, -40(%rbp)
	jmp	.LBB17_35
.Ltmp412:
.LBB17_34:
	leaq	88(%rbp), %rcx
	.cv_loc	17 1 816 0
	callq	_ZN4core3ptr13drop_in_place17h67760d014c257544E
	jmp	.LBB17_13
.LBB17_35:
.Ltmp413:
	.cv_loc	17 3 72 0
	movq	-40(%rbp), %rax
	movq	-32(%rbp), %rcx
	.cv_loc	17 5 10 0
	movq	696(%rbp), %rdx
	.cv_loc	17 3 72 0
.Ltmp379:
	leaq	_ZN53_$LT$$RF$$u27$a$u20$T$u20$as$u20$core..fmt..Debug$GT$3fmt17h5ec44fe6e16e15bbE(%rip), %r8
	movq	%rcx, -48(%rbp)
	movq	%rdx, %rcx
	movq	%r8, %rdx
	movq	%rax, -56(%rbp)
	callq	_ZN4core3fmt10ArgumentV13new17h77639e2f724da403E
.Ltmp380:
	movq	%rdx, -64(%rbp)
	movq	%rax, -72(%rbp)
	jmp	.LBB17_36
.LBB17_36:
	.cv_loc	17 5 7 0
	movq	-56(%rbp), %rax
	movq	%rax, 640(%rbp)
	movq	-48(%rbp), %rcx
	movq	%rcx, 648(%rbp)
	movq	-72(%rbp), %rdx
	movq	%rdx, 656(%rbp)
	movq	-64(%rbp), %r8
	movq	%r8, 664(%rbp)
.Ltmp414:
	.cv_loc	17 3 72 0
.Ltmp381:
	leaq	ref.h(%rip), %r9
	movq	%rsp, %r10
	movq	%r9, 40(%r10)
	movq	$2, 48(%r10)
	movq	$2, 32(%r10)
	leaq	ref.g(%rip), %rdx
	movl	$3, %r11d
	movl	%r11d, %r8d
	leaq	592(%rbp), %rcx
	leaq	640(%rbp), %r9
	callq	_ZN4core3fmt9Arguments16new_v1_formatted17h647572f4005f46b4E
.Ltmp382:
	jmp	.LBB17_37
.LBB17_37:
.Ltmp383:
	leaq	ref.j(%rip), %rdx
	leaq	592(%rbp), %rcx
	callq	_ZN3std9panicking15begin_panic_fmt17hfbb7d0ccbb7102e9E
.Ltmp384:
	jmp	.LBB17_42
.Ltmp415:
.LBB17_42:
	ud2
	.seh_handlerdata
	.long	($cppxdata$_ZN72_$LT$std..collections..hash..map..HashMap$LT$K$C$$u20$V$C$$u20$S$GT$$GT$6resize17h3ce930d4e22c28a6E)@IMGREL
	.section	.text,"xr",one_only,_ZN72_$LT$std..collections..hash..map..HashMap$LT$K$C$$u20$V$C$$u20$S$GT$$GT$6resize17h3ce930d4e22c28a6E
.Lcfi180:
	.seh_endproc
	.def	 "?dtor$40@?0?_ZN72_$LT$std..collections..hash..map..HashMap$LT$K$C$$u20$V$C$$u20$S$GT$$GT$6resize17h3ce930d4e22c28a6E@4HA";
	.scl	3;
	.type	32;
	.endef
	.p2align	4, 0x90
"?dtor$40@?0?_ZN72_$LT$std..collections..hash..map..HashMap$LT$K$C$$u20$V$C$$u20$S$GT$$GT$6resize17h3ce930d4e22c28a6E@4HA":
.Lcfi181:
.seh_proc "?dtor$40@?0?_ZN72_$LT$std..collections..hash..map..HashMap$LT$K$C$$u20$V$C$$u20$S$GT$$GT$6resize17h3ce930d4e22c28a6E@4HA"
.LBB17_40:
	movq	%rdx, 16(%rsp)
	pushq	%rbp
.Lcfi182:
	.seh_pushreg 5
	subq	$64, %rsp
.Lcfi183:
	.seh_stackalloc 64
	leaq	128(%rdx), %rbp
.Lcfi184:
	.seh_endprologue
	leaq	88(%rbp), %rcx
	.cv_loc	17 1 816 0
	callq	_ZN4core3ptr13drop_in_place17h67760d014c257544E
	.cv_loc	17 1 773 0
	nop
	addq	$64, %rsp
	popq	%rbp
	retq
.LBB17_23:
.Ltmp416:
	.cv_loc	17 1 809 0
	testb	$1, 710(%rbp)
	jne	.LBB17_38
	jmp	.LBB17_43
.LBB17_38:
	movb	$0, 710(%rbp)
	addq	$64, %rsp
	popq	%rbp
	retq
.LBB17_39:
	movb	$0, 711(%rbp)
	jmp	.LBB17_23
	.seh_handlerdata
	.section	.text,"xr",one_only,_ZN72_$LT$std..collections..hash..map..HashMap$LT$K$C$$u20$V$C$$u20$S$GT$$GT$6resize17h3ce930d4e22c28a6E
.Lcfi185:
	.seh_endproc
	.def	 "?dtor$41@?0?_ZN72_$LT$std..collections..hash..map..HashMap$LT$K$C$$u20$V$C$$u20$S$GT$$GT$6resize17h3ce930d4e22c28a6E@4HA";
	.scl	3;
	.type	32;
	.endef
	.p2align	4, 0x90
"?dtor$41@?0?_ZN72_$LT$std..collections..hash..map..HashMap$LT$K$C$$u20$V$C$$u20$S$GT$$GT$6resize17h3ce930d4e22c28a6E@4HA":
.Lcfi186:
.seh_proc "?dtor$41@?0?_ZN72_$LT$std..collections..hash..map..HashMap$LT$K$C$$u20$V$C$$u20$S$GT$$GT$6resize17h3ce930d4e22c28a6E@4HA"
.LBB17_41:
	movq	%rdx, 16(%rsp)
	pushq	%rbp
.Lcfi187:
	.seh_pushreg 5
	subq	$64, %rsp
.Lcfi188:
	.seh_stackalloc 64
	leaq	128(%rdx), %rbp
.Lcfi189:
	.seh_endprologue
	testb	$1, 711(%rbp)
	jne	.LBB17_39
	jmp	.LBB17_23
.Ltmp417:
.LBB17_43:
	addq	$64, %rsp
	popq	%rbp
	retq
.Lfunc_end17:
	.seh_handlerdata
	.section	.text,"xr",one_only,_ZN72_$LT$std..collections..hash..map..HashMap$LT$K$C$$u20$V$C$$u20$S$GT$$GT$6resize17h3ce930d4e22c28a6E
.Lcfi190:
	.seh_endproc
	.section	.xdata,"dr",associative,_ZN72_$LT$std..collections..hash..map..HashMap$LT$K$C$$u20$V$C$$u20$S$GT$$GT$6resize17h3ce930d4e22c28a6E
	.p2align	2
$cppxdata$_ZN72_$LT$std..collections..hash..map..HashMap$LT$K$C$$u20$V$C$$u20$S$GT$$GT$6resize17h3ce930d4e22c28a6E:
	.long	429065506
	.long	2
	.long	($stateUnwindMap$_ZN72_$LT$std..collections..hash..map..HashMap$LT$K$C$$u20$V$C$$u20$S$GT$$GT$6resize17h3ce930d4e22c28a6E)@IMGREL
	.long	0
	.long	0
	.long	11
	.long	($ip2state$_ZN72_$LT$std..collections..hash..map..HashMap$LT$K$C$$u20$V$C$$u20$S$GT$$GT$6resize17h3ce930d4e22c28a6E)@IMGREL
	.long	840
	.long	0
	.long	1
$stateUnwindMap$_ZN72_$LT$std..collections..hash..map..HashMap$LT$K$C$$u20$V$C$$u20$S$GT$$GT$6resize17h3ce930d4e22c28a6E:
	.long	-1
	.long	"?dtor$40@?0?_ZN72_$LT$std..collections..hash..map..HashMap$LT$K$C$$u20$V$C$$u20$S$GT$$GT$6resize17h3ce930d4e22c28a6E@4HA"@IMGREL
	.long	0
	.long	"?dtor$41@?0?_ZN72_$LT$std..collections..hash..map..HashMap$LT$K$C$$u20$V$C$$u20$S$GT$$GT$6resize17h3ce930d4e22c28a6E@4HA"@IMGREL
$ip2state$_ZN72_$LT$std..collections..hash..map..HashMap$LT$K$C$$u20$V$C$$u20$S$GT$$GT$6resize17h3ce930d4e22c28a6E:
	.long	.Lfunc_begin17@IMGREL
	.long	-1
	.long	.Ltmp355@IMGREL+1
	.long	0
	.long	.Ltmp358@IMGREL+1
	.long	-1
	.long	.Ltmp359@IMGREL+1
	.long	0
	.long	.Ltmp367@IMGREL+1
	.long	1
	.long	.Ltmp375@IMGREL+1
	.long	0
	.long	.Ltmp373@IMGREL+1
	.long	1
	.long	.Ltmp377@IMGREL+1
	.long	0
	.long	.Ltmp378@IMGREL+1
	.long	-1
	.long	.Ltmp379@IMGREL+1
	.long	0
	.long	.Ltmp384@IMGREL+1
	.long	-1
	.section	.text,"xr",one_only,_ZN72_$LT$std..collections..hash..map..HashMap$LT$K$C$$u20$V$C$$u20$S$GT$$GT$6resize17h3ce930d4e22c28a6E

	.def	 _ZN72_$LT$std..collections..hash..map..HashMap$LT$K$C$$u20$V$C$$u20$S$GT$$GT$6search17he45fd16faf2e5b28E;
	.scl	3;
	.type	32;
	.endef
	.section	.text,"xr",one_only,_ZN72_$LT$std..collections..hash..map..HashMap$LT$K$C$$u20$V$C$$u20$S$GT$$GT$6search17he45fd16faf2e5b28E
	.p2align	4, 0x90
_ZN72_$LT$std..collections..hash..map..HashMap$LT$K$C$$u20$V$C$$u20$S$GT$$GT$6search17he45fd16faf2e5b28E:
.Lfunc_begin18:
	.cv_func_id 18
	.cv_loc	18 1 549 0
.Lcfi191:
.seh_proc _ZN72_$LT$std..collections..hash..map..HashMap$LT$K$C$$u20$V$C$$u20$S$GT$$GT$6search17he45fd16faf2e5b28E
	pushq	%rbp
.Lcfi192:
	.seh_pushreg 5
	subq	$96, %rsp
.Lcfi193:
	.seh_stackalloc 96
	leaq	96(%rsp), %rbp
.Lcfi194:
	.seh_setframe 5, 96
.Lcfi195:
	.seh_endprologue
	movq	%rcx, %rax
	movq	%rdx, -32(%rbp)
	movq	%r8, -24(%rbp)
.Ltmp418:
	.cv_loc	18 1 553 0
	movq	-32(%rbp), %rdx
	movq	-24(%rbp), %r8
	movq	%rcx, -40(%rbp)
	movq	%rdx, %rcx
	movq	%r8, %rdx
	movq	%rax, -48(%rbp)
	callq	_ZN72_$LT$std..collections..hash..map..HashMap$LT$K$C$$u20$V$C$$u20$S$GT$$GT$9make_hash17h39055a194e39304eE
	movq	%rax, -16(%rbp)
	leaq	-24(%rbp), %rax
.Ltmp419:
	.cv_loc	18 1 554 0
	movq	-32(%rbp), %rcx
	addq	$16, %rcx
	movq	-16(%rbp), %r8
	movq	%rax, -8(%rbp)
	movq	-8(%rbp), %r9
	movq	-40(%rbp), %rax
	movq	%rcx, -56(%rbp)
	movq	%rax, %rcx
	movq	-56(%rbp), %rdx
	callq	_ZN3std11collections4hash3map13search_hashed17hcca51b2bd3bbb916E
.Ltmp420:
	.cv_loc	18 1 555 0
	movq	-48(%rbp), %rax
	addq	$96, %rsp
	popq	%rbp
	retq
.Ltmp421:
.Lfunc_end18:
	.seh_handlerdata
	.section	.text,"xr",one_only,_ZN72_$LT$std..collections..hash..map..HashMap$LT$K$C$$u20$V$C$$u20$S$GT$$GT$6search17he45fd16faf2e5b28E
.Lcfi196:
	.seh_endproc

	.def	 _ZN72_$LT$std..collections..hash..map..HashMap$LT$K$C$$u20$V$C$$u20$S$GT$$GT$6search28_$u7b$$u7b$closure$u7d$$u7d$17h004aa16b8ba47abbE;
	.scl	3;
	.type	32;
	.endef
	.section	.text,"xr",one_only,_ZN72_$LT$std..collections..hash..map..HashMap$LT$K$C$$u20$V$C$$u20$S$GT$$GT$6search28_$u7b$$u7b$closure$u7d$$u7d$17h004aa16b8ba47abbE
	.p2align	4, 0x90
_ZN72_$LT$std..collections..hash..map..HashMap$LT$K$C$$u20$V$C$$u20$S$GT$$GT$6search28_$u7b$$u7b$closure$u7d$$u7d$17h004aa16b8ba47abbE:
.Lfunc_begin19:
	.cv_func_id 19
	.cv_loc	19 1 554 0
.Lcfi197:
.seh_proc _ZN72_$LT$std..collections..hash..map..HashMap$LT$K$C$$u20$V$C$$u20$S$GT$$GT$6search28_$u7b$$u7b$closure$u7d$$u7d$17h004aa16b8ba47abbE
	pushq	%rbp
.Lcfi198:
	.seh_pushreg 5
	subq	$80, %rsp
.Lcfi199:
	.seh_stackalloc 80
	leaq	80(%rsp), %rbp
.Lcfi200:
	.seh_setframe 5, 80
.Lcfi201:
	.seh_endprologue
	movq	%rcx, -16(%rbp)
	movq	%rdx, -8(%rbp)
.Ltmp422:
	movq	-16(%rbp), %rcx
	movq	(%rcx), %rcx
	movq	(%rcx), %rcx
	movq	-8(%rbp), %rdx
	movq	%rcx, -24(%rbp)
	movq	%rdx, %rcx
	callq	_ZN51_$LT$T$u20$as$u20$core..borrow..Borrow$LT$T$GT$$GT$6borrow17hbc9d1b63d6ce2a8fE
	movq	%rax, -32(%rbp)
	movq	-24(%rbp), %rcx
	movq	-32(%rbp), %rdx
	callq	_ZN73_$LT$sdl2..keyboard..keycode..Keycode$u20$as$u20$core..cmp..PartialEq$GT$2eq17hadffe265bfaac475E
	movb	%al, -33(%rbp)
	movb	-33(%rbp), %al
	andb	$1, %al
	movzbl	%al, %eax
	addq	$80, %rsp
	popq	%rbp
	retq
.Ltmp423:
.Lfunc_end19:
	.seh_handlerdata
	.section	.text,"xr",one_only,_ZN72_$LT$std..collections..hash..map..HashMap$LT$K$C$$u20$V$C$$u20$S$GT$$GT$6search28_$u7b$$u7b$closure$u7d$$u7d$17h004aa16b8ba47abbE
.Lcfi202:
	.seh_endproc

	.def	 _ZN72_$LT$std..collections..hash..map..HashMap$LT$K$C$$u20$V$C$$u20$S$GT$$GT$7reserve17h93f782138afd3707E;
	.scl	3;
	.type	32;
	.endef
	.section	.text,"xr",one_only,_ZN72_$LT$std..collections..hash..map..HashMap$LT$K$C$$u20$V$C$$u20$S$GT$$GT$7reserve17h93f782138afd3707E
	.p2align	4, 0x90
_ZN72_$LT$std..collections..hash..map..HashMap$LT$K$C$$u20$V$C$$u20$S$GT$$GT$7reserve17h93f782138afd3707E:
.Lfunc_begin20:
	.cv_func_id 20
	.cv_loc	20 1 752 0
.Lcfi203:
.seh_proc _ZN72_$LT$std..collections..hash..map..HashMap$LT$K$C$$u20$V$C$$u20$S$GT$$GT$7reserve17h93f782138afd3707E
	pushq	%rbp
.Lcfi204:
	.seh_pushreg 5
	subq	$176, %rsp
.Lcfi205:
	.seh_stackalloc 176
	leaq	128(%rsp), %rbp
.Lcfi206:
	.seh_setframe 5, 128
.Lcfi207:
	.seh_endprologue
	movq	%rcx, -32(%rbp)
	movq	%rdx, -24(%rbp)
.Ltmp424:
	.cv_loc	20 1 753 0
	movq	-32(%rbp), %rcx
	callq	_ZN72_$LT$std..collections..hash..map..HashMap$LT$K$C$$u20$V$C$$u20$S$GT$$GT$8capacity17he9053dbb0cbeae50E
	movq	%rax, -40(%rbp)
	movq	-32(%rbp), %rcx
	callq	_ZN72_$LT$std..collections..hash..map..HashMap$LT$K$C$$u20$V$C$$u20$S$GT$$GT$3len17h972656b51f2ad4a9E
	movq	%rax, -48(%rbp)
	movq	-40(%rbp), %rax
	movq	-48(%rbp), %rcx
	subq	%rcx, %rax
	movq	%rax, -8(%rbp)
.Ltmp425:
	.cv_loc	20 1 754 0
	movq	-8(%rbp), %rax
	cmpq	-24(%rbp), %rax
	jae	.LBB20_4
	.cv_loc	20 1 755 0
	movq	-32(%rbp), %rcx
	callq	_ZN72_$LT$std..collections..hash..map..HashMap$LT$K$C$$u20$V$C$$u20$S$GT$$GT$3len17h972656b51f2ad4a9E
	movq	%rax, -56(%rbp)
	jmp	.LBB20_5
.LBB20_4:
	.cv_loc	20 1 758 0
	movq	-32(%rbp), %rax
	addq	$16, %rax
	movq	%rax, %rcx
	callq	_ZN66_$LT$std..collections..hash..table..RawTable$LT$K$C$$u20$V$GT$$GT$3tag17h21fcfb1fdc4a261aE
	movb	%al, -57(%rbp)
	jmp	.LBB20_14
.LBB20_5:
	leaq	8(%rbp), %rcx
	.cv_loc	20 1 755 0
	movq	-24(%rbp), %r8
	movq	-56(%rbp), %rdx
	callq	_ZN4core3num23_$LT$impl$u20$usize$GT$11checked_add17h2595e4725e9ad1d8E
	leaq	8(%rbp), %rcx
	leaq	str.l(%rip), %rax
	movl	$16, %edx
	movl	%edx, %r8d
	movq	%rax, %rdx
	callq	_ZN38_$LT$core..option..Option$LT$T$GT$$GT$6expect17hccd3d6bd46d363aaE
	movq	%rax, (%rbp)
.Ltmp426:
	.cv_loc	20 1 756 0
	movq	-32(%rbp), %rax
	movq	(%rbp), %rdx
	movq	%rax, %rcx
	callq	_ZN3std11collections4hash3map19DefaultResizePolicy12raw_capacity17h20c8231958df7e41E
	movq	%rax, 24(%rbp)
.Ltmp427:
	.cv_loc	20 1 757 0
	movq	-32(%rbp), %rcx
	movq	24(%rbp), %rdx
	callq	_ZN72_$LT$std..collections..hash..map..HashMap$LT$K$C$$u20$V$C$$u20$S$GT$$GT$6resize17h3ce930d4e22c28a6E
.Ltmp428:
	.cv_loc	20 1 754 0
	jmp	.LBB20_21
.LBB20_10:
	.cv_loc	20 1 758 0
	movb	$1, 39(%rbp)
	jmp	.LBB20_13
.LBB20_11:
	movb	$0, 39(%rbp)
	jmp	.LBB20_13
.LBB20_12:
	movq	-8(%rbp), %rax
	movq	-32(%rbp), %rcx
	movq	%rax, -72(%rbp)
	callq	_ZN72_$LT$std..collections..hash..map..HashMap$LT$K$C$$u20$V$C$$u20$S$GT$$GT$3len17h972656b51f2ad4a9E
	movq	%rax, -80(%rbp)
	jmp	.LBB20_15
.LBB20_13:
	testb	$1, 39(%rbp)
	jne	.LBB20_16
	jmp	.LBB20_17
.LBB20_14:
	movb	-57(%rbp), %al
	testb	$1, %al
	jne	.LBB20_12
	jmp	.LBB20_11
.LBB20_15:
	movq	-72(%rbp), %rax
	movq	-80(%rbp), %rcx
	cmpq	%rcx, %rax
	jbe	.LBB20_10
	jmp	.LBB20_11
.LBB20_16:
	.cv_loc	20 1 761 0
	movq	-32(%rbp), %rax
	addq	$16, %rax
	movq	%rax, %rcx
	callq	_ZN66_$LT$std..collections..hash..table..RawTable$LT$K$C$$u20$V$GT$$GT$8capacity17h98f7540f40b98664E
	movq	%rax, -88(%rbp)
	jmp	.LBB20_18
.LBB20_17:
	.cv_loc	20 1 758 0
	jmp	.LBB20_20
.LBB20_18:
	.cv_loc	20 1 761 0
	movq	-88(%rbp), %rax
	shlq	$1, %rax
	movq	%rax, 40(%rbp)
.Ltmp429:
	.cv_loc	20 1 762 0
	movq	-32(%rbp), %rcx
	movq	40(%rbp), %rdx
	callq	_ZN72_$LT$std..collections..hash..map..HashMap$LT$K$C$$u20$V$C$$u20$S$GT$$GT$6resize17h3ce930d4e22c28a6E
.Ltmp430:
	.cv_loc	20 1 758 0
	jmp	.LBB20_20
.LBB20_20:
	.cv_loc	20 1 754 0
	jmp	.LBB20_21
.Ltmp431:
.LBB20_21:
	.cv_loc	20 1 764 0
	addq	$176, %rsp
	popq	%rbp
	retq
.Ltmp432:
.Lfunc_end20:
	.seh_handlerdata
	.section	.text,"xr",one_only,_ZN72_$LT$std..collections..hash..map..HashMap$LT$K$C$$u20$V$C$$u20$S$GT$$GT$7reserve17h93f782138afd3707E
.Lcfi208:
	.seh_endproc

	.def	 _ZN72_$LT$std..collections..hash..map..HashMap$LT$K$C$$u20$V$C$$u20$S$GT$$GT$8capacity17he9053dbb0cbeae50E;
	.scl	3;
	.type	32;
	.endef
	.section	.text,"xr",one_only,_ZN72_$LT$std..collections..hash..map..HashMap$LT$K$C$$u20$V$C$$u20$S$GT$$GT$8capacity17he9053dbb0cbeae50E
	.p2align	4, 0x90
_ZN72_$LT$std..collections..hash..map..HashMap$LT$K$C$$u20$V$C$$u20$S$GT$$GT$8capacity17he9053dbb0cbeae50E:
.Lfunc_begin21:
	.cv_func_id 21
	.cv_loc	21 1 724 0
.Lcfi209:
.seh_proc _ZN72_$LT$std..collections..hash..map..HashMap$LT$K$C$$u20$V$C$$u20$S$GT$$GT$8capacity17he9053dbb0cbeae50E
	pushq	%rbp
.Lcfi210:
	.seh_pushreg 5
	subq	$64, %rsp
.Lcfi211:
	.seh_stackalloc 64
	leaq	64(%rsp), %rbp
.Lcfi212:
	.seh_setframe 5, 64
.Lcfi213:
	.seh_endprologue
	movq	%rcx, -8(%rbp)
.Ltmp433:
	.cv_loc	21 1 725 0
	movq	-8(%rbp), %rcx
	movq	-8(%rbp), %rax
	movq	%rcx, -16(%rbp)
	movq	%rax, %rcx
	callq	_ZN72_$LT$std..collections..hash..map..HashMap$LT$K$C$$u20$V$C$$u20$S$GT$$GT$12raw_capacity17h274af1fa28190f65E
	movq	%rax, -24(%rbp)
	movq	-16(%rbp), %rcx
	movq	-24(%rbp), %rdx
	callq	_ZN3std11collections4hash3map19DefaultResizePolicy8capacity17hab879b5e49215f69E
	movq	%rax, -32(%rbp)
	.cv_loc	21 1 726 0
	movq	-32(%rbp), %rax
	addq	$64, %rsp
	popq	%rbp
	retq
.Ltmp434:
.Lfunc_end21:
	.seh_handlerdata
	.section	.text,"xr",one_only,_ZN72_$LT$std..collections..hash..map..HashMap$LT$K$C$$u20$V$C$$u20$S$GT$$GT$8capacity17he9053dbb0cbeae50E
.Lcfi214:
	.seh_endproc

	.def	 _ZN72_$LT$std..collections..hash..map..HashMap$LT$K$C$$u20$V$C$$u20$S$GT$$GT$9make_hash17h39055a194e39304eE;
	.scl	3;
	.type	32;
	.endef
	.section	.text,"xr",one_only,_ZN72_$LT$std..collections..hash..map..HashMap$LT$K$C$$u20$V$C$$u20$S$GT$$GT$9make_hash17h39055a194e39304eE
	.p2align	4, 0x90
_ZN72_$LT$std..collections..hash..map..HashMap$LT$K$C$$u20$V$C$$u20$S$GT$$GT$9make_hash17h39055a194e39304eE:
.Lfunc_begin22:
	.cv_func_id 22
	.cv_loc	22 1 539 0
.Lcfi215:
.seh_proc _ZN72_$LT$std..collections..hash..map..HashMap$LT$K$C$$u20$V$C$$u20$S$GT$$GT$9make_hash17h39055a194e39304eE
	pushq	%rbp
.Lcfi216:
	.seh_pushreg 5
	subq	$64, %rsp
.Lcfi217:
	.seh_stackalloc 64
	leaq	64(%rsp), %rbp
.Lcfi218:
	.seh_setframe 5, 64
.Lcfi219:
	.seh_endprologue
	movq	%rcx, -16(%rbp)
	movq	%rdx, -8(%rbp)
.Ltmp435:
	.cv_loc	22 1 542 0
	movq	-16(%rbp), %rcx
	movq	-8(%rbp), %rdx
	callq	_ZN3std11collections4hash5table9make_hash17h132789cdb0e07793E
	movq	%rax, -24(%rbp)
	.cv_loc	22 1 543 0
	movq	-24(%rbp), %rax
	addq	$64, %rsp
	popq	%rbp
	retq
.Ltmp436:
.Lfunc_end22:
	.seh_handlerdata
	.section	.text,"xr",one_only,_ZN72_$LT$std..collections..hash..map..HashMap$LT$K$C$$u20$V$C$$u20$S$GT$$GT$9make_hash17h39055a194e39304eE
.Lcfi220:
	.seh_endproc

	.def	 _ZN78_$LT$std..collections..hash..map..InternalEntry$LT$K$C$$u20$V$C$$u20$M$GT$$GT$20into_occupied_bucket17h8641f402b14ef686E;
	.scl	3;
	.type	32;
	.endef
	.section	.text,"xr",one_only,_ZN78_$LT$std..collections..hash..map..InternalEntry$LT$K$C$$u20$V$C$$u20$M$GT$$GT$20into_occupied_bucket17h8641f402b14ef686E
	.p2align	4, 0x90
_ZN78_$LT$std..collections..hash..map..InternalEntry$LT$K$C$$u20$V$C$$u20$M$GT$$GT$20into_occupied_bucket17h8641f402b14ef686E:
.Lfunc_begin23:
	.cv_func_id 23
	.cv_loc	23 1 1539 0
.Lcfi221:
.seh_proc _ZN78_$LT$std..collections..hash..map..InternalEntry$LT$K$C$$u20$V$C$$u20$M$GT$$GT$20into_occupied_bucket17h8641f402b14ef686E
	pushq	%rbp
.Lcfi222:
	.seh_pushreg 5
	subq	$96, %rsp
.Lcfi223:
	.seh_stackalloc 96
	leaq	96(%rsp), %rbp
.Lcfi224:
	.seh_setframe 5, 96
.Lcfi225:
	.seh_endprologue
	movq	%rcx, %rax
.Ltmp437:
	.cv_loc	23 1 1541 0
	movb	$0, -1(%rbp)
	movb	$1, -1(%rbp)
	movq	(%rdx), %r8
	testq	%r8, %r8
	movq	%rax, -80(%rbp)
	movq	%rdx, -88(%rbp)
.Ltmp438:
	movq	%rcx, -96(%rbp)
	je	.LBB23_2
	jmp	.LBB23_1
.Ltmp439:
.LBB23_1:
	.cv_loc	23 1 1542 0
	movq	-96(%rbp), %rax
	movq	$0, 24(%rax)
	.cv_loc	23 1 1540 0
	jmp	.LBB23_3
.Ltmp440:
.LBB23_2:
	.cv_loc	23 1 1541 0
	movb	$0, -1(%rbp)
	movq	-88(%rbp), %rax
	movq	8(%rax), %rcx
	movq	%rcx, -72(%rbp)
	movq	16(%rax), %rcx
	movq	%rcx, -64(%rbp)
	movq	24(%rax), %rcx
	movq	%rcx, -56(%rbp)
	movq	32(%rax), %rcx
	movq	%rcx, -48(%rbp)
.Ltmp441:
	.cv_loc	23 1 1541 0
	movq	-72(%rbp), %rcx
	movq	%rcx, -40(%rbp)
	movq	-64(%rbp), %rcx
	movq	%rcx, -32(%rbp)
	movq	-56(%rbp), %rcx
	movq	%rcx, -24(%rbp)
	movq	-48(%rbp), %rcx
	movq	%rcx, -16(%rbp)
	movq	-40(%rbp), %rcx
	movq	-96(%rbp), %rdx
	movq	%rcx, (%rdx)
	movq	-32(%rbp), %rcx
	movq	%rcx, 8(%rdx)
	movq	-24(%rbp), %rcx
	movq	%rcx, 16(%rdx)
	movq	-16(%rbp), %rcx
	movq	%rcx, 24(%rdx)
.Ltmp442:
.LBB23_3:
	.cv_loc	23 1 1544 0
	movq	-88(%rbp), %rax
	movq	(%rax), %rcx
	testq	%rcx, %rcx
	je	.LBB23_5
	jmp	.LBB23_7
.Ltmp443:
.LBB23_4:
	movq	-80(%rbp), %rax
	addq	$96, %rsp
	popq	%rbp
.Ltmp444:
	retq
.LBB23_5:
.Ltmp445:
	testb	$1, -1(%rbp)
	je	.LBB23_4
.Ltmp446:
	movb	$0, -1(%rbp)
	jmp	.LBB23_4
.Ltmp447:
.LBB23_7:
	jmp	.LBB23_4
.Ltmp448:
.Lfunc_end23:
	.seh_handlerdata
	.section	.text,"xr",one_only,_ZN78_$LT$std..collections..hash..map..InternalEntry$LT$K$C$$u20$V$C$$u20$M$GT$$GT$20into_occupied_bucket17h8641f402b14ef686E
.Lcfi226:
	.seh_endproc

	.def	 _ZN81_$LT$std..collections..hash..map..VacantEntry$LT$$u27$a$C$$u20$K$C$$u20$V$GT$$GT$6insert17h469d9db9be9ed849E;
	.scl	3;
	.type	32;
	.endef
	.section	.text,"xr",one_only,_ZN81_$LT$std..collections..hash..map..VacantEntry$LT$$u27$a$C$$u20$K$C$$u20$V$GT$$GT$6insert17h469d9db9be9ed849E
	.p2align	4, 0x90
_ZN81_$LT$std..collections..hash..map..VacantEntry$LT$$u27$a$C$$u20$K$C$$u20$V$GT$$GT$6insert17h469d9db9be9ed849E:
.Lfunc_begin24:
	.cv_func_id 24
	.cv_loc	24 1 2398 0
.Lcfi227:
.seh_proc _ZN81_$LT$std..collections..hash..map..VacantEntry$LT$$u27$a$C$$u20$K$C$$u20$V$GT$$GT$6insert17h469d9db9be9ed849E
	.seh_handler __CxxFrameHandler3, @unwind, @except
	pushq	%rbp
.Lcfi228:
	.seh_pushreg 5
	subq	$336, %rsp
.Lcfi229:
	.seh_stackalloc 336
	leaq	128(%rsp), %rbp
.Lcfi230:
	.seh_setframe 5, 128
.Lcfi231:
	.seh_endprologue
	movq	$-2, 200(%rbp)
	movb	%dl, %al
	andb	$1, %al
	movb	%al, -17(%rbp)
.Ltmp463:
	movb	$0, 197(%rbp)
	movb	$0, 196(%rbp)
	movb	$0, 198(%rbp)
	movb	$0, 199(%rbp)
	movb	$1, 196(%rbp)
	movb	$1, 197(%rbp)
	movb	$1, 198(%rbp)
	movb	$1, 199(%rbp)
	.cv_loc	24 1 2400 0
	movq	8(%rcx), %r8
	testq	%r8, %r8
	movq	%rcx, -32(%rbp)
.Ltmp464:
	movq	%r8, -40(%rbp)
	je	.LBB24_2
	jmp	.LBB24_23
.Ltmp465:
.LBB24_23:
	movq	-40(%rbp), %rax
	subq	$1, %rax
	movq	%rax, -48(%rbp)
	je	.LBB24_3
	jmp	.LBB24_1
.Ltmp466:
.LBB24_1:
	.cv_loc	24 1 2414 0
	ud2
.Ltmp467:
.LBB24_2:
	.cv_loc	24 1 2400 0
	movb	$0, 198(%rbp)
	movq	-32(%rbp), %rax
	movq	16(%rax), %rcx
	movq	%rcx, 16(%rbp)
	movq	24(%rax), %rcx
	movq	%rcx, 24(%rbp)
	movq	32(%rax), %rcx
	movq	%rcx, 32(%rbp)
	movq	40(%rax), %rcx
	movq	%rcx, 40(%rbp)
	movq	48(%rax), %rcx
	movq	%rcx, 48(%rbp)
.Ltmp468:
	.cv_loc	24 1 2401 0
	cmpq	$128, 48(%rbp)
	jae	.LBB24_5
	jmp	.LBB24_6
.Ltmp469:
.LBB24_3:
	.cv_loc	24 1 2406 0
	movb	$0, 197(%rbp)
	movq	-32(%rbp), %rax
	movq	16(%rax), %rcx
	movq	%rcx, 56(%rbp)
	movq	24(%rax), %rcx
	movq	%rcx, 64(%rbp)
	movq	32(%rax), %rcx
	movq	%rcx, 72(%rbp)
	movq	40(%rax), %rcx
	movq	%rcx, 80(%rbp)
	movq	48(%rax), %rcx
	movq	%rcx, 88(%rbp)
.Ltmp470:
	.cv_loc	24 1 2407 0
	cmpq	$128, 88(%rbp)
	jae	.LBB24_12
	jmp	.LBB24_13
.Ltmp471:
.LBB24_4:
	.cv_loc	24 1 2413 0
	movups	-16(%rbp), %xmm0
	movups	(%rbp), %xmm1
	movaps	%xmm1, 176(%rbp)
	movaps	%xmm0, 160(%rbp)
.Ltmp461:
	leaq	160(%rbp), %rcx
	callq	_ZN77_$LT$std..collections..hash..table..FullBucket$LT$K$C$$u20$V$C$$u20$M$GT$$GT$13into_mut_refs17h87889cb9843cf5c8E
.Ltmp462:
	movq	%rdx, -56(%rbp)
	movq	%rax, -64(%rbp)
	jmp	.LBB24_18
.Ltmp472:
.LBB24_5:
	.cv_loc	24 1 2402 0
.Ltmp455:
	leaq	16(%rbp), %rcx
	callq	_ZN77_$LT$std..collections..hash..table..FullBucket$LT$K$C$$u20$V$C$$u20$M$GT$$GT$9table_mut17hc00346f591e7230aE
.Ltmp456:
	movq	%rax, -72(%rbp)
	jmp	.LBB24_7
.Ltmp473:
.LBB24_6:
	.cv_loc	24 1 2401 0
	jmp	.LBB24_10
.Ltmp474:
.LBB24_7:
	.cv_loc	24 1 2402 0
	movq	-72(%rbp), %rax
	movq	(%rax), %rcx
.Ltmp457:
	movl	$1, %edx
	callq	_ZN66_$LT$std..collections..hash..table..RawTable$LT$K$C$$u20$V$GT$$GT$7set_tag17h7818c92e8a2fab2dE
.Ltmp458:
	jmp	.LBB24_9
.Ltmp475:
.LBB24_9:
	.cv_loc	24 1 2401 0
	jmp	.LBB24_10
.Ltmp476:
.LBB24_10:
	.cv_loc	24 1 2404 0
	movups	16(%rbp), %xmm0
	movups	32(%rbp), %xmm1
	movaps	%xmm1, 112(%rbp)
	movaps	%xmm0, 96(%rbp)
	movq	48(%rbp), %r8
	movq	-32(%rbp), %rax
	movq	(%rax), %r9
	movb	$0, 196(%rbp)
	movl	56(%rax), %ecx
	movb	$0, 199(%rbp)
	movzbl	-17(%rbp), %edx
.Ltmp459:
	movq	%rsp, %r10
	movl	%edx, 40(%r10)
	movl	%ecx, 32(%r10)
	leaq	-16(%rbp), %rcx
	leaq	96(%rbp), %rdx
	callq	_ZN3std11collections4hash3map10robin_hood17h525b1b6fdc493008E
.Ltmp460:
	jmp	.LBB24_11
.Ltmp477:
.LBB24_11:
	.cv_loc	24 1 2399 0
	jmp	.LBB24_4
.Ltmp478:
.LBB24_12:
	.cv_loc	24 1 2408 0
.Ltmp449:
	leaq	56(%rbp), %rcx
	callq	_ZN78_$LT$std..collections..hash..table..EmptyBucket$LT$K$C$$u20$V$C$$u20$M$GT$$GT$9table_mut17h22a264f6d8cc20abE
.Ltmp450:
	movq	%rax, -80(%rbp)
	jmp	.LBB24_14
.Ltmp479:
.LBB24_13:
	.cv_loc	24 1 2407 0
	jmp	.LBB24_16
.Ltmp480:
.LBB24_14:
	.cv_loc	24 1 2408 0
	movq	-80(%rbp), %rax
	movq	(%rax), %rcx
.Ltmp451:
	movl	$1, %edx
	callq	_ZN66_$LT$std..collections..hash..table..RawTable$LT$K$C$$u20$V$GT$$GT$7set_tag17h7818c92e8a2fab2dE
.Ltmp452:
	jmp	.LBB24_15
.Ltmp481:
.LBB24_15:
	.cv_loc	24 1 2407 0
	jmp	.LBB24_16
.Ltmp482:
.LBB24_16:
	.cv_loc	24 1 2410 0
	movups	56(%rbp), %xmm0
	movups	72(%rbp), %xmm1
	movaps	%xmm1, 144(%rbp)
	movaps	%xmm0, 128(%rbp)
	movq	-32(%rbp), %rax
	movq	(%rax), %r8
	movb	$0, 196(%rbp)
	movl	56(%rax), %r9d
	movb	$0, 199(%rbp)
	movzbl	-17(%rbp), %ecx
.Ltmp453:
	movq	%rsp, %rdx
	movl	%ecx, 32(%rdx)
	leaq	-16(%rbp), %rcx
	leaq	128(%rbp), %rdx
	callq	_ZN78_$LT$std..collections..hash..table..EmptyBucket$LT$K$C$$u20$V$C$$u20$M$GT$$GT$3put17h27688bc2185fe164E
.Ltmp454:
	jmp	.LBB24_17
.Ltmp483:
.LBB24_17:
	.cv_loc	24 1 2399 0
	jmp	.LBB24_4
.Ltmp484:
.LBB24_18:
	.cv_loc	24 1 2414 0
	movq	-56(%rbp), %rax
	addq	$336, %rsp
	popq	%rbp
	retq
.LBB24_8:
	testb	$1, 196(%rbp)
	jne	.LBB24_20
	jmp	.LBB24_19
.LBB24_19:
	.cv_loc	24 1 2398 0
	addq	$48, %rsp
	popq	%rbp
	retq
.LBB24_20:
	.cv_loc	24 1 2414 0
	movb	$0, 196(%rbp)
	jmp	.LBB24_19
.LBB24_21:
	movb	$0, 199(%rbp)
	jmp	.LBB24_8
	.seh_handlerdata
	.long	($cppxdata$_ZN81_$LT$std..collections..hash..map..VacantEntry$LT$$u27$a$C$$u20$K$C$$u20$V$GT$$GT$6insert17h469d9db9be9ed849E)@IMGREL
	.section	.text,"xr",one_only,_ZN81_$LT$std..collections..hash..map..VacantEntry$LT$$u27$a$C$$u20$K$C$$u20$V$GT$$GT$6insert17h469d9db9be9ed849E
.Lcfi232:
	.seh_endproc
	.def	 "?dtor$22@?0?_ZN81_$LT$std..collections..hash..map..VacantEntry$LT$$u27$a$C$$u20$K$C$$u20$V$GT$$GT$6insert17h469d9db9be9ed849E@4HA";
	.scl	3;
	.type	32;
	.endef
	.p2align	4, 0x90
"?dtor$22@?0?_ZN81_$LT$std..collections..hash..map..VacantEntry$LT$$u27$a$C$$u20$K$C$$u20$V$GT$$GT$6insert17h469d9db9be9ed849E@4HA":
.Lcfi233:
.seh_proc "?dtor$22@?0?_ZN81_$LT$std..collections..hash..map..VacantEntry$LT$$u27$a$C$$u20$K$C$$u20$V$GT$$GT$6insert17h469d9db9be9ed849E@4HA"
.LBB24_22:
	movq	%rdx, 16(%rsp)
	pushq	%rbp
.Lcfi234:
	.seh_pushreg 5
	subq	$48, %rsp
.Lcfi235:
	.seh_stackalloc 48
	leaq	128(%rdx), %rbp
.Lcfi236:
	.seh_endprologue
	testb	$1, 199(%rbp)
	jne	.LBB24_21
	jmp	.LBB24_8
.Ltmp485:
.Lfunc_end24:
	.seh_handlerdata
	.section	.text,"xr",one_only,_ZN81_$LT$std..collections..hash..map..VacantEntry$LT$$u27$a$C$$u20$K$C$$u20$V$GT$$GT$6insert17h469d9db9be9ed849E
.Lcfi237:
	.seh_endproc
	.section	.xdata,"dr",associative,_ZN81_$LT$std..collections..hash..map..VacantEntry$LT$$u27$a$C$$u20$K$C$$u20$V$GT$$GT$6insert17h469d9db9be9ed849E
	.p2align	2
$cppxdata$_ZN81_$LT$std..collections..hash..map..VacantEntry$LT$$u27$a$C$$u20$K$C$$u20$V$GT$$GT$6insert17h469d9db9be9ed849E:
	.long	429065506
	.long	1
	.long	($stateUnwindMap$_ZN81_$LT$std..collections..hash..map..VacantEntry$LT$$u27$a$C$$u20$K$C$$u20$V$GT$$GT$6insert17h469d9db9be9ed849E)@IMGREL
	.long	0
	.long	0
	.long	3
	.long	($ip2state$_ZN81_$LT$std..collections..hash..map..VacantEntry$LT$$u27$a$C$$u20$K$C$$u20$V$GT$$GT$6insert17h469d9db9be9ed849E)@IMGREL
	.long	328
	.long	0
	.long	1
$stateUnwindMap$_ZN81_$LT$std..collections..hash..map..VacantEntry$LT$$u27$a$C$$u20$K$C$$u20$V$GT$$GT$6insert17h469d9db9be9ed849E:
	.long	-1
	.long	"?dtor$22@?0?_ZN81_$LT$std..collections..hash..map..VacantEntry$LT$$u27$a$C$$u20$K$C$$u20$V$GT$$GT$6insert17h469d9db9be9ed849E@4HA"@IMGREL
$ip2state$_ZN81_$LT$std..collections..hash..map..VacantEntry$LT$$u27$a$C$$u20$K$C$$u20$V$GT$$GT$6insert17h469d9db9be9ed849E:
	.long	.Lfunc_begin24@IMGREL
	.long	-1
	.long	.Ltmp461@IMGREL+1
	.long	0
	.long	.Ltmp454@IMGREL+1
	.long	-1
	.section	.text,"xr",one_only,_ZN81_$LT$std..collections..hash..map..VacantEntry$LT$$u27$a$C$$u20$K$C$$u20$V$GT$$GT$6insert17h469d9db9be9ed849E

	.def	 _ZN83_$LT$std..collections..hash..map..OccupiedEntry$LT$$u27$a$C$$u20$K$C$$u20$V$GT$$GT$6insert17ha7b1b715b6d7f0b0E;
	.scl	3;
	.type	32;
	.endef
	.section	.text,"xr",one_only,_ZN83_$LT$std..collections..hash..map..OccupiedEntry$LT$$u27$a$C$$u20$K$C$$u20$V$GT$$GT$6insert17ha7b1b715b6d7f0b0E
	.p2align	4, 0x90
_ZN83_$LT$std..collections..hash..map..OccupiedEntry$LT$$u27$a$C$$u20$K$C$$u20$V$GT$$GT$6insert17ha7b1b715b6d7f0b0E:
.Lfunc_begin25:
	.cv_func_id 25
	.cv_loc	25 1 2247 0
.Lcfi238:
.seh_proc _ZN83_$LT$std..collections..hash..map..OccupiedEntry$LT$$u27$a$C$$u20$K$C$$u20$V$GT$$GT$6insert17ha7b1b715b6d7f0b0E
	.seh_handler __CxxFrameHandler3, @unwind, @except
	pushq	%rbp
.Lcfi239:
	.seh_pushreg 5
	subq	$80, %rsp
.Lcfi240:
	.seh_stackalloc 80
	leaq	80(%rsp), %rbp
.Lcfi241:
	.seh_setframe 5, 80
.Lcfi242:
	.seh_endprologue
	movq	$-2, -8(%rbp)
	movb	%dl, %al
	movq	%rcx, -32(%rbp)
	andb	$1, %al
	movb	%al, -17(%rbp)
.Ltmp490:
	.cv_loc	25 1 2248 0
	movq	-32(%rbp), %rcx
.Ltmp486:
	callq	_ZN83_$LT$std..collections..hash..map..OccupiedEntry$LT$$u27$a$C$$u20$K$C$$u20$V$GT$$GT$7get_mut17hd7b1d72b06a8d4e4E
.Ltmp487:
	movq	%rax, -40(%rbp)
	jmp	.LBB25_1
.Ltmp491:
.LBB25_1:
	movq	-40(%rbp), %rax
	movq	%rax, -16(%rbp)
.Ltmp492:
	.cv_loc	25 1 2249 0
	movq	-16(%rbp), %rdx
.Ltmp488:
	leaq	-17(%rbp), %rcx
	callq	_ZN4core3mem4swap17h06be80a8938d09eeE
.Ltmp489:
	jmp	.LBB25_2
.Ltmp493:
.LBB25_2:
	.cv_loc	25 1 2250 0
	movb	-17(%rbp), %al
.Ltmp494:
	.cv_loc	25 1 2251 0
	andb	$1, %al
	movzbl	%al, %eax
	addq	$80, %rsp
	popq	%rbp
.Ltmp495:
	retq
	.seh_handlerdata
	.long	($cppxdata$_ZN83_$LT$std..collections..hash..map..OccupiedEntry$LT$$u27$a$C$$u20$K$C$$u20$V$GT$$GT$6insert17ha7b1b715b6d7f0b0E)@IMGREL
	.section	.text,"xr",one_only,_ZN83_$LT$std..collections..hash..map..OccupiedEntry$LT$$u27$a$C$$u20$K$C$$u20$V$GT$$GT$6insert17ha7b1b715b6d7f0b0E
.Lcfi243:
	.seh_endproc
	.def	 "?dtor$3@?0?_ZN83_$LT$std..collections..hash..map..OccupiedEntry$LT$$u27$a$C$$u20$K$C$$u20$V$GT$$GT$6insert17ha7b1b715b6d7f0b0E@4HA";
	.scl	3;
	.type	32;
	.endef
	.p2align	4, 0x90
"?dtor$3@?0?_ZN83_$LT$std..collections..hash..map..OccupiedEntry$LT$$u27$a$C$$u20$K$C$$u20$V$GT$$GT$6insert17ha7b1b715b6d7f0b0E@4HA":
.Lcfi244:
.seh_proc "?dtor$3@?0?_ZN83_$LT$std..collections..hash..map..OccupiedEntry$LT$$u27$a$C$$u20$K$C$$u20$V$GT$$GT$6insert17ha7b1b715b6d7f0b0E@4HA"
.LBB25_3:
	movq	%rdx, 16(%rsp)
	pushq	%rbp
.Lcfi245:
	.seh_pushreg 5
	subq	$32, %rsp
.Lcfi246:
	.seh_stackalloc 32
	leaq	80(%rdx), %rbp
.Lcfi247:
	.seh_endprologue
	.cv_loc	25 1 2247 0
	addq	$32, %rsp
	popq	%rbp
	retq
.Ltmp496:
.Lfunc_end25:
	.seh_handlerdata
	.section	.text,"xr",one_only,_ZN83_$LT$std..collections..hash..map..OccupiedEntry$LT$$u27$a$C$$u20$K$C$$u20$V$GT$$GT$6insert17ha7b1b715b6d7f0b0E
.Lcfi248:
	.seh_endproc
	.section	.xdata,"dr",associative,_ZN83_$LT$std..collections..hash..map..OccupiedEntry$LT$$u27$a$C$$u20$K$C$$u20$V$GT$$GT$6insert17ha7b1b715b6d7f0b0E
	.p2align	2
$cppxdata$_ZN83_$LT$std..collections..hash..map..OccupiedEntry$LT$$u27$a$C$$u20$K$C$$u20$V$GT$$GT$6insert17ha7b1b715b6d7f0b0E:
	.long	429065506
	.long	1
	.long	($stateUnwindMap$_ZN83_$LT$std..collections..hash..map..OccupiedEntry$LT$$u27$a$C$$u20$K$C$$u20$V$GT$$GT$6insert17ha7b1b715b6d7f0b0E)@IMGREL
	.long	0
	.long	0
	.long	3
	.long	($ip2state$_ZN83_$LT$std..collections..hash..map..OccupiedEntry$LT$$u27$a$C$$u20$K$C$$u20$V$GT$$GT$6insert17ha7b1b715b6d7f0b0E)@IMGREL
	.long	72
	.long	0
	.long	1
$stateUnwindMap$_ZN83_$LT$std..collections..hash..map..OccupiedEntry$LT$$u27$a$C$$u20$K$C$$u20$V$GT$$GT$6insert17ha7b1b715b6d7f0b0E:
	.long	-1
	.long	"?dtor$3@?0?_ZN83_$LT$std..collections..hash..map..OccupiedEntry$LT$$u27$a$C$$u20$K$C$$u20$V$GT$$GT$6insert17ha7b1b715b6d7f0b0E@4HA"@IMGREL
$ip2state$_ZN83_$LT$std..collections..hash..map..OccupiedEntry$LT$$u27$a$C$$u20$K$C$$u20$V$GT$$GT$6insert17ha7b1b715b6d7f0b0E:
	.long	.Lfunc_begin25@IMGREL
	.long	-1
	.long	.Ltmp486@IMGREL+1
	.long	0
	.long	.Ltmp489@IMGREL+1
	.long	-1
	.section	.text,"xr",one_only,_ZN83_$LT$std..collections..hash..map..OccupiedEntry$LT$$u27$a$C$$u20$K$C$$u20$V$GT$$GT$6insert17ha7b1b715b6d7f0b0E

	.def	 _ZN83_$LT$std..collections..hash..map..OccupiedEntry$LT$$u27$a$C$$u20$K$C$$u20$V$GT$$GT$7get_mut17hd7b1d72b06a8d4e4E;
	.scl	3;
	.type	32;
	.endef
	.section	.text,"xr",one_only,_ZN83_$LT$std..collections..hash..map..OccupiedEntry$LT$$u27$a$C$$u20$K$C$$u20$V$GT$$GT$7get_mut17hd7b1d72b06a8d4e4E
	.p2align	4, 0x90
_ZN83_$LT$std..collections..hash..map..OccupiedEntry$LT$$u27$a$C$$u20$K$C$$u20$V$GT$$GT$7get_mut17hd7b1d72b06a8d4e4E:
.Lfunc_begin26:
	.cv_func_id 26
	.cv_loc	26 1 2201 0
.Lcfi249:
.seh_proc _ZN83_$LT$std..collections..hash..map..OccupiedEntry$LT$$u27$a$C$$u20$K$C$$u20$V$GT$$GT$7get_mut17hd7b1d72b06a8d4e4E
	pushq	%rbp
.Lcfi250:
	.seh_pushreg 5
	subq	$64, %rsp
.Lcfi251:
	.seh_stackalloc 64
	leaq	64(%rsp), %rbp
.Lcfi252:
	.seh_setframe 5, 64
.Lcfi253:
	.seh_endprologue
	movq	%rcx, -8(%rbp)
.Ltmp497:
	.cv_loc	26 1 2202 0
	movq	-8(%rbp), %rcx
	callq	_ZN77_$LT$std..collections..hash..table..FullBucket$LT$K$C$$u20$V$C$$u20$M$GT$$GT$8read_mut17h60712f8493f875b0E
	movq	%rax, -16(%rbp)
	movq	%rdx, -24(%rbp)
	.cv_loc	26 1 2203 0
	movq	-24(%rbp), %rax
	addq	$64, %rsp
	popq	%rbp
	retq
.Ltmp498:
.Lfunc_end26:
	.seh_handlerdata
	.section	.text,"xr",one_only,_ZN83_$LT$std..collections..hash..map..OccupiedEntry$LT$$u27$a$C$$u20$K$C$$u20$V$GT$$GT$7get_mut17hd7b1d72b06a8d4e4E
.Lcfi254:
	.seh_endproc

	.section	.rdata,"dr",one_only,str.0
	.p2align	4
str.0:
	.ascii	"C:\\projects\\rust\\src\\libstd\\collections\\hash\\map.rs"

	.section	.rdata,"dr",one_only,str.1
	.p2align	4
str.1:
	.ascii	"attempt to calculate the remainder with a divisor of zero"

	.section	.rdata,"dr",one_only,panic_loc.2
	.p2align	3
panic_loc.2:
	.quad	str.1
	.quad	57
	.quad	str.0
	.quad	51
	.long	491
	.long	19

	.section	.rdata,"dr",one_only,str.3
	.p2align	4
str.3:
	.ascii	"libstd\\collections\\hash\\map.rs"

	.section	.rdata,"dr",one_only,ref.4
	.p2align	3
ref.4:
	.quad	str.3
	.quad	30
	.long	864
	.long	21

	.section	.rdata,"dr",one_only,const.5
	.p2align	3
const.5:
	.quad	ref.4

	.section	.rdata,"dr",one_only,str.6
	.p2align	4
str.6:
	.ascii	"internal error: entered unreachable code"

	.section	.rdata,"dr",one_only,ref.7
	.p2align	3
ref.7:
	.quad	str.3
	.quad	30
	.long	774
	.long	9

	.section	.rdata,"dr",one_only,const.8
	.p2align	3
const.8:
	.quad	ref.7

	.section	.rdata,"dr",one_only,str.9
	.p2align	4
str.9:
	.ascii	"assertion failed: self.table.size() <= new_raw_cap"

	.section	.rdata,"dr",one_only,ref.a
	.p2align	3
ref.a:
	.quad	str.3
	.quad	30
	.long	775
	.long	9

	.section	.rdata,"dr",one_only,const.b
	.p2align	3
const.b:
	.quad	ref.a

	.section	.rdata,"dr",one_only,str.c
	.p2align	4
str.c:
	.ascii	"assertion failed: new_raw_cap.is_power_of_two() || new_raw_cap == 0"

	.section	.rdata,"dr",one_only,str.d
	.p2align	4
str.d:
	.ascii	"assertion failed: `(left == right)`\n  left: `"

	.section	.rdata,"dr",one_only,str.e
str.e:
	.ascii	"`,\n right: `"

	.section	.rdata,"dr",one_only,str.f
str.f:
	.byte	96

	.section	.rdata,"dr",one_only,ref.g
	.p2align	3
ref.g:
	.quad	str.d
	.quad	45
	.quad	str.e
	.quad	12
	.quad	str.f
	.quad	1

	.section	.rdata,"dr",one_only,ref.h
	.p2align	3
ref.h:
	.quad	1
	.quad	0
	.quad	3
	.zero	8
	.quad	3
	.zero	8
	.long	32
	.long	0
	.byte	3
	.zero	7
	.quad	1
	.quad	1
	.quad	3
	.zero	8
	.quad	3
	.zero	8
	.long	32
	.long	0
	.byte	3
	.zero	7

	.section	.rdata,"dr",one_only,const.i
	.p2align	3
const.i:
	.quad	ref.h

	.section	.rdata,"dr",one_only,ref.j
	.p2align	3
ref.j:
	.quad	str.3
	.quad	30
	.long	815
	.long	9

	.section	.rdata,"dr",one_only,const.k
	.p2align	3
const.k:
	.quad	ref.j

	.section	.rdata,"dr",one_only,str.l
str.l:
	.ascii	"reserve overflow"
