	.text
	.def	 _ZN4core3fmt10ArgumentV13new17h2de44666c618e669E;
	.scl	2;
	.type	32;
	.endef
	.section	.text,"xr",one_only,_ZN4core3fmt10ArgumentV13new17h2de44666c618e669E
	.globl	_ZN4core3fmt10ArgumentV13new17h2de44666c618e669E
	.p2align	4, 0x90
_ZN4core3fmt10ArgumentV13new17h2de44666c618e669E:
.Lfunc_begin0:
	.cv_func_id 0
	.cv_file	1 "C:\\projects\\rust\\src\\libcore\\fmt\\mod.rs"
	.cv_loc	0 1 308 0 is_stmt 0
.Lcfi0:
.seh_proc _ZN4core3fmt10ArgumentV13new17h2de44666c618e669E
	pushq	%rbp
.Lcfi1:
	.seh_pushreg 5
	subq	$64, %rsp
.Lcfi2:
	.seh_stackalloc 64
	leaq	64(%rsp), %rbp
.Lcfi3:
	.seh_setframe 5, 64
.Lcfi4:
	.seh_endprologue
	movq	%rcx, -48(%rbp)
	movq	%rdx, -40(%rbp)
.Ltmp0:
	.cv_loc	0 1 312 0
	movq	-40(%rbp), %rcx
	movq	%rcx, -16(%rbp)
	movq	-16(%rbp), %rcx
	movq	%rcx, -56(%rbp)
	.cv_loc	0 1 313 0
	movq	-48(%rbp), %rax
	movq	%rax, -8(%rbp)
	movq	-8(%rbp), %rax
	movq	%rax, -64(%rbp)
	.cv_loc	0 1 311 0
	movq	-64(%rbp), %rax
	movq	%rax, -32(%rbp)
	movq	-56(%rbp), %rcx
	movq	%rcx, -24(%rbp)
.Ltmp1:
	.cv_loc	0 1 316 0
	movq	-32(%rbp), %rax
	movq	-24(%rbp), %rdx
	addq	$64, %rsp
	popq	%rbp
	retq
.Ltmp2:
.Lfunc_end0:
	.seh_handlerdata
	.section	.text,"xr",one_only,_ZN4core3fmt10ArgumentV13new17h2de44666c618e669E
.Lcfi5:
	.seh_endproc

	.def	 _ZN4core3fmt10ArgumentV13new17h3ee2d8e9c867d9a0E;
	.scl	2;
	.type	32;
	.endef
	.section	.text,"xr",one_only,_ZN4core3fmt10ArgumentV13new17h3ee2d8e9c867d9a0E
	.globl	_ZN4core3fmt10ArgumentV13new17h3ee2d8e9c867d9a0E
	.p2align	4, 0x90
_ZN4core3fmt10ArgumentV13new17h3ee2d8e9c867d9a0E:
.Lfunc_begin1:
	.cv_func_id 1
	.cv_loc	1 1 308 0
.Lcfi6:
.seh_proc _ZN4core3fmt10ArgumentV13new17h3ee2d8e9c867d9a0E
	pushq	%rbp
.Lcfi7:
	.seh_pushreg 5
	subq	$64, %rsp
.Lcfi8:
	.seh_stackalloc 64
	leaq	64(%rsp), %rbp
.Lcfi9:
	.seh_setframe 5, 64
.Lcfi10:
	.seh_endprologue
	movq	%rcx, -48(%rbp)
	movq	%rdx, -40(%rbp)
.Ltmp3:
	.cv_loc	1 1 312 0
	movq	-40(%rbp), %rcx
	movq	%rcx, -16(%rbp)
	movq	-16(%rbp), %rcx
	movq	%rcx, -56(%rbp)
	.cv_loc	1 1 313 0
	movq	-48(%rbp), %rax
	movq	%rax, -8(%rbp)
	movq	-8(%rbp), %rax
	movq	%rax, -64(%rbp)
	.cv_loc	1 1 311 0
	movq	-64(%rbp), %rax
	movq	%rax, -32(%rbp)
	movq	-56(%rbp), %rcx
	movq	%rcx, -24(%rbp)
.Ltmp4:
	.cv_loc	1 1 316 0
	movq	-32(%rbp), %rax
	movq	-24(%rbp), %rdx
	addq	$64, %rsp
	popq	%rbp
	retq
.Ltmp5:
.Lfunc_end1:
	.seh_handlerdata
	.section	.text,"xr",one_only,_ZN4core3fmt10ArgumentV13new17h3ee2d8e9c867d9a0E
.Lcfi11:
	.seh_endproc

	.def	 _ZN4core3fmt10ArgumentV13new17h73728f1bc0b534d0E;
	.scl	2;
	.type	32;
	.endef
	.section	.text,"xr",one_only,_ZN4core3fmt10ArgumentV13new17h73728f1bc0b534d0E
	.globl	_ZN4core3fmt10ArgumentV13new17h73728f1bc0b534d0E
	.p2align	4, 0x90
_ZN4core3fmt10ArgumentV13new17h73728f1bc0b534d0E:
.Lfunc_begin2:
	.cv_func_id 2
	.cv_loc	2 1 308 0
.Lcfi12:
.seh_proc _ZN4core3fmt10ArgumentV13new17h73728f1bc0b534d0E
	pushq	%rbp
.Lcfi13:
	.seh_pushreg 5
	subq	$64, %rsp
.Lcfi14:
	.seh_stackalloc 64
	leaq	64(%rsp), %rbp
.Lcfi15:
	.seh_setframe 5, 64
.Lcfi16:
	.seh_endprologue
	movq	%rcx, -48(%rbp)
	movq	%rdx, -40(%rbp)
.Ltmp6:
	.cv_loc	2 1 312 0
	movq	-40(%rbp), %rcx
	movq	%rcx, -16(%rbp)
	movq	-16(%rbp), %rcx
	movq	%rcx, -56(%rbp)
	.cv_loc	2 1 313 0
	movq	-48(%rbp), %rax
	movq	%rax, -8(%rbp)
	movq	-8(%rbp), %rax
	movq	%rax, -64(%rbp)
	.cv_loc	2 1 311 0
	movq	-64(%rbp), %rax
	movq	%rax, -32(%rbp)
	movq	-56(%rbp), %rcx
	movq	%rcx, -24(%rbp)
.Ltmp7:
	.cv_loc	2 1 316 0
	movq	-32(%rbp), %rax
	movq	-24(%rbp), %rdx
	addq	$64, %rsp
	popq	%rbp
	retq
.Ltmp8:
.Lfunc_end2:
	.seh_handlerdata
	.section	.text,"xr",one_only,_ZN4core3fmt10ArgumentV13new17h73728f1bc0b534d0E
.Lcfi17:
	.seh_endproc

	.def	 _ZN4core3fmt10ArgumentV13new17h77639e2f724da403E;
	.scl	2;
	.type	32;
	.endef
	.section	.text,"xr",one_only,_ZN4core3fmt10ArgumentV13new17h77639e2f724da403E
	.globl	_ZN4core3fmt10ArgumentV13new17h77639e2f724da403E
	.p2align	4, 0x90
_ZN4core3fmt10ArgumentV13new17h77639e2f724da403E:
.Lfunc_begin3:
	.cv_func_id 3
	.cv_loc	3 1 308 0
.Lcfi18:
.seh_proc _ZN4core3fmt10ArgumentV13new17h77639e2f724da403E
	pushq	%rbp
.Lcfi19:
	.seh_pushreg 5
	subq	$64, %rsp
.Lcfi20:
	.seh_stackalloc 64
	leaq	64(%rsp), %rbp
.Lcfi21:
	.seh_setframe 5, 64
.Lcfi22:
	.seh_endprologue
	movq	%rcx, -48(%rbp)
	movq	%rdx, -40(%rbp)
.Ltmp9:
	.cv_loc	3 1 312 0
	movq	-40(%rbp), %rcx
	movq	%rcx, -16(%rbp)
	movq	-16(%rbp), %rcx
	movq	%rcx, -56(%rbp)
	.cv_loc	3 1 313 0
	movq	-48(%rbp), %rax
	movq	%rax, -8(%rbp)
	movq	-8(%rbp), %rax
	movq	%rax, -64(%rbp)
	.cv_loc	3 1 311 0
	movq	-64(%rbp), %rax
	movq	%rax, -32(%rbp)
	movq	-56(%rbp), %rcx
	movq	%rcx, -24(%rbp)
.Ltmp10:
	.cv_loc	3 1 316 0
	movq	-32(%rbp), %rax
	movq	-24(%rbp), %rdx
	addq	$64, %rsp
	popq	%rbp
	retq
.Ltmp11:
.Lfunc_end3:
	.seh_handlerdata
	.section	.text,"xr",one_only,_ZN4core3fmt10ArgumentV13new17h77639e2f724da403E
.Lcfi23:
	.seh_endproc

	.def	 _ZN4core3fmt10ArgumentV13new17h809ba772b0a6bacaE;
	.scl	2;
	.type	32;
	.endef
	.section	.text,"xr",one_only,_ZN4core3fmt10ArgumentV13new17h809ba772b0a6bacaE
	.globl	_ZN4core3fmt10ArgumentV13new17h809ba772b0a6bacaE
	.p2align	4, 0x90
_ZN4core3fmt10ArgumentV13new17h809ba772b0a6bacaE:
.Lfunc_begin4:
	.cv_func_id 4
	.cv_loc	4 1 308 0
.Lcfi24:
.seh_proc _ZN4core3fmt10ArgumentV13new17h809ba772b0a6bacaE
	pushq	%rbp
.Lcfi25:
	.seh_pushreg 5
	subq	$64, %rsp
.Lcfi26:
	.seh_stackalloc 64
	leaq	64(%rsp), %rbp
.Lcfi27:
	.seh_setframe 5, 64
.Lcfi28:
	.seh_endprologue
	movq	%rcx, -48(%rbp)
	movq	%rdx, -40(%rbp)
.Ltmp12:
	.cv_loc	4 1 312 0
	movq	-40(%rbp), %rcx
	movq	%rcx, -16(%rbp)
	movq	-16(%rbp), %rcx
	movq	%rcx, -56(%rbp)
	.cv_loc	4 1 313 0
	movq	-48(%rbp), %rax
	movq	%rax, -8(%rbp)
	movq	-8(%rbp), %rax
	movq	%rax, -64(%rbp)
	.cv_loc	4 1 311 0
	movq	-64(%rbp), %rax
	movq	%rax, -32(%rbp)
	movq	-56(%rbp), %rcx
	movq	%rcx, -24(%rbp)
.Ltmp13:
	.cv_loc	4 1 316 0
	movq	-32(%rbp), %rax
	movq	-24(%rbp), %rdx
	addq	$64, %rsp
	popq	%rbp
	retq
.Ltmp14:
.Lfunc_end4:
	.seh_handlerdata
	.section	.text,"xr",one_only,_ZN4core3fmt10ArgumentV13new17h809ba772b0a6bacaE
.Lcfi29:
	.seh_endproc

	.def	 _ZN4core3fmt10ArgumentV13new17ha30c89cb7ba7b8d9E;
	.scl	2;
	.type	32;
	.endef
	.section	.text,"xr",one_only,_ZN4core3fmt10ArgumentV13new17ha30c89cb7ba7b8d9E
	.globl	_ZN4core3fmt10ArgumentV13new17ha30c89cb7ba7b8d9E
	.p2align	4, 0x90
_ZN4core3fmt10ArgumentV13new17ha30c89cb7ba7b8d9E:
.Lfunc_begin5:
	.cv_func_id 5
	.cv_loc	5 1 308 0
.Lcfi30:
.seh_proc _ZN4core3fmt10ArgumentV13new17ha30c89cb7ba7b8d9E
	pushq	%rbp
.Lcfi31:
	.seh_pushreg 5
	subq	$64, %rsp
.Lcfi32:
	.seh_stackalloc 64
	leaq	64(%rsp), %rbp
.Lcfi33:
	.seh_setframe 5, 64
.Lcfi34:
	.seh_endprologue
	movq	%rcx, -48(%rbp)
	movq	%rdx, -40(%rbp)
.Ltmp15:
	.cv_loc	5 1 312 0
	movq	-40(%rbp), %rcx
	movq	%rcx, -16(%rbp)
	movq	-16(%rbp), %rcx
	movq	%rcx, -56(%rbp)
	.cv_loc	5 1 313 0
	movq	-48(%rbp), %rax
	movq	%rax, -8(%rbp)
	movq	-8(%rbp), %rax
	movq	%rax, -64(%rbp)
	.cv_loc	5 1 311 0
	movq	-64(%rbp), %rax
	movq	%rax, -32(%rbp)
	movq	-56(%rbp), %rcx
	movq	%rcx, -24(%rbp)
.Ltmp16:
	.cv_loc	5 1 316 0
	movq	-32(%rbp), %rax
	movq	-24(%rbp), %rdx
	addq	$64, %rsp
	popq	%rbp
	retq
.Ltmp17:
.Lfunc_end5:
	.seh_handlerdata
	.section	.text,"xr",one_only,_ZN4core3fmt10ArgumentV13new17ha30c89cb7ba7b8d9E
.Lcfi35:
	.seh_endproc

	.def	 _ZN4core3fmt10ArgumentV13new17ha7efe3f43a69d008E;
	.scl	2;
	.type	32;
	.endef
	.section	.text,"xr",one_only,_ZN4core3fmt10ArgumentV13new17ha7efe3f43a69d008E
	.globl	_ZN4core3fmt10ArgumentV13new17ha7efe3f43a69d008E
	.p2align	4, 0x90
_ZN4core3fmt10ArgumentV13new17ha7efe3f43a69d008E:
.Lfunc_begin6:
	.cv_func_id 6
	.cv_loc	6 1 308 0
.Lcfi36:
.seh_proc _ZN4core3fmt10ArgumentV13new17ha7efe3f43a69d008E
	pushq	%rbp
.Lcfi37:
	.seh_pushreg 5
	subq	$64, %rsp
.Lcfi38:
	.seh_stackalloc 64
	leaq	64(%rsp), %rbp
.Lcfi39:
	.seh_setframe 5, 64
.Lcfi40:
	.seh_endprologue
	movq	%rcx, -48(%rbp)
	movq	%rdx, -40(%rbp)
.Ltmp18:
	.cv_loc	6 1 312 0
	movq	-40(%rbp), %rcx
	movq	%rcx, -16(%rbp)
	movq	-16(%rbp), %rcx
	movq	%rcx, -56(%rbp)
	.cv_loc	6 1 313 0
	movq	-48(%rbp), %rax
	movq	%rax, -8(%rbp)
	movq	-8(%rbp), %rax
	movq	%rax, -64(%rbp)
	.cv_loc	6 1 311 0
	movq	-64(%rbp), %rax
	movq	%rax, -32(%rbp)
	movq	-56(%rbp), %rcx
	movq	%rcx, -24(%rbp)
.Ltmp19:
	.cv_loc	6 1 316 0
	movq	-32(%rbp), %rax
	movq	-24(%rbp), %rdx
	addq	$64, %rsp
	popq	%rbp
	retq
.Ltmp20:
.Lfunc_end6:
	.seh_handlerdata
	.section	.text,"xr",one_only,_ZN4core3fmt10ArgumentV13new17ha7efe3f43a69d008E
.Lcfi41:
	.seh_endproc

	.def	 _ZN4core3fmt10ArgumentV13new17hd93d38a0879647ffE;
	.scl	2;
	.type	32;
	.endef
	.section	.text,"xr",one_only,_ZN4core3fmt10ArgumentV13new17hd93d38a0879647ffE
	.globl	_ZN4core3fmt10ArgumentV13new17hd93d38a0879647ffE
	.p2align	4, 0x90
_ZN4core3fmt10ArgumentV13new17hd93d38a0879647ffE:
.Lfunc_begin7:
	.cv_func_id 7
	.cv_loc	7 1 308 0
.Lcfi42:
.seh_proc _ZN4core3fmt10ArgumentV13new17hd93d38a0879647ffE
	pushq	%rbp
.Lcfi43:
	.seh_pushreg 5
	subq	$64, %rsp
.Lcfi44:
	.seh_stackalloc 64
	leaq	64(%rsp), %rbp
.Lcfi45:
	.seh_setframe 5, 64
.Lcfi46:
	.seh_endprologue
	movq	%rcx, -48(%rbp)
	movq	%rdx, -40(%rbp)
.Ltmp21:
	.cv_loc	7 1 312 0
	movq	-40(%rbp), %rcx
	movq	%rcx, -16(%rbp)
	movq	-16(%rbp), %rcx
	movq	%rcx, -56(%rbp)
	.cv_loc	7 1 313 0
	movq	-48(%rbp), %rax
	movq	%rax, -8(%rbp)
	movq	-8(%rbp), %rax
	movq	%rax, -64(%rbp)
	.cv_loc	7 1 311 0
	movq	-64(%rbp), %rax
	movq	%rax, -32(%rbp)
	movq	-56(%rbp), %rcx
	movq	%rcx, -24(%rbp)
.Ltmp22:
	.cv_loc	7 1 316 0
	movq	-32(%rbp), %rax
	movq	-24(%rbp), %rdx
	addq	$64, %rsp
	popq	%rbp
	retq
.Ltmp23:
.Lfunc_end7:
	.seh_handlerdata
	.section	.text,"xr",one_only,_ZN4core3fmt10ArgumentV13new17hd93d38a0879647ffE
.Lcfi47:
	.seh_endproc

	.def	 _ZN4core3fmt10ArgumentV13new17hf824271e495627a5E;
	.scl	2;
	.type	32;
	.endef
	.section	.text,"xr",one_only,_ZN4core3fmt10ArgumentV13new17hf824271e495627a5E
	.globl	_ZN4core3fmt10ArgumentV13new17hf824271e495627a5E
	.p2align	4, 0x90
_ZN4core3fmt10ArgumentV13new17hf824271e495627a5E:
.Lfunc_begin8:
	.cv_func_id 8
	.cv_loc	8 1 308 0
.Lcfi48:
.seh_proc _ZN4core3fmt10ArgumentV13new17hf824271e495627a5E
	pushq	%rbp
.Lcfi49:
	.seh_pushreg 5
	subq	$64, %rsp
.Lcfi50:
	.seh_stackalloc 64
	leaq	64(%rsp), %rbp
.Lcfi51:
	.seh_setframe 5, 64
.Lcfi52:
	.seh_endprologue
	movq	%rcx, -48(%rbp)
	movq	%rdx, -40(%rbp)
.Ltmp24:
	.cv_loc	8 1 312 0
	movq	-40(%rbp), %rcx
	movq	%rcx, -16(%rbp)
	movq	-16(%rbp), %rcx
	movq	%rcx, -56(%rbp)
	.cv_loc	8 1 313 0
	movq	-48(%rbp), %rax
	movq	%rax, -8(%rbp)
	movq	-8(%rbp), %rax
	movq	%rax, -64(%rbp)
	.cv_loc	8 1 311 0
	movq	-64(%rbp), %rax
	movq	%rax, -32(%rbp)
	movq	-56(%rbp), %rcx
	movq	%rcx, -24(%rbp)
.Ltmp25:
	.cv_loc	8 1 316 0
	movq	-32(%rbp), %rax
	movq	-24(%rbp), %rdx
	addq	$64, %rsp
	popq	%rbp
	retq
.Ltmp26:
.Lfunc_end8:
	.seh_handlerdata
	.section	.text,"xr",one_only,_ZN4core3fmt10ArgumentV13new17hf824271e495627a5E
.Lcfi53:
	.seh_endproc

	.def	 _ZN53_$LT$$RF$$u27$a$u20$T$u20$as$u20$core..fmt..Debug$GT$3fmt17h5ec44fe6e16e15bbE;
	.scl	2;
	.type	32;
	.endef
	.section	.text,"xr",one_only,_ZN53_$LT$$RF$$u27$a$u20$T$u20$as$u20$core..fmt..Debug$GT$3fmt17h5ec44fe6e16e15bbE
	.globl	_ZN53_$LT$$RF$$u27$a$u20$T$u20$as$u20$core..fmt..Debug$GT$3fmt17h5ec44fe6e16e15bbE
	.p2align	4, 0x90
_ZN53_$LT$$RF$$u27$a$u20$T$u20$as$u20$core..fmt..Debug$GT$3fmt17h5ec44fe6e16e15bbE:
.Lfunc_begin9:
	.cv_func_id 9
	.cv_loc	9 1 1561 0
.Lcfi54:
.seh_proc _ZN53_$LT$$RF$$u27$a$u20$T$u20$as$u20$core..fmt..Debug$GT$3fmt17h5ec44fe6e16e15bbE
	pushq	%rbp
.Lcfi55:
	.seh_pushreg 5
	subq	$64, %rsp
.Lcfi56:
	.seh_stackalloc 64
	leaq	64(%rsp), %rbp
.Lcfi57:
	.seh_setframe 5, 64
.Lcfi58:
	.seh_endprologue
	movq	%rcx, -16(%rbp)
	movq	%rdx, -8(%rbp)
.Ltmp27:
	movq	-16(%rbp), %rcx
	movq	(%rcx), %rcx
	movq	-8(%rbp), %rdx
	callq	_ZN4core3fmt3num52_$LT$impl$u20$core..fmt..Debug$u20$for$u20$usize$GT$3fmt17h78496eb4198b8200E
	movb	%al, -17(%rbp)
	movb	-17(%rbp), %al
	andb	$1, %al
	movzbl	%al, %eax
	addq	$64, %rsp
	popq	%rbp
	retq
.Ltmp28:
.Lfunc_end9:
	.seh_handlerdata
	.section	.text,"xr",one_only,_ZN53_$LT$$RF$$u27$a$u20$T$u20$as$u20$core..fmt..Debug$GT$3fmt17h5ec44fe6e16e15bbE
.Lcfi59:
	.seh_endproc

	.def	 _ZN53_$LT$$RF$$u27$a$u20$T$u20$as$u20$core..fmt..Debug$GT$3fmt17h786ae1949f0f02f8E;
	.scl	2;
	.type	32;
	.endef
	.section	.text,"xr",one_only,_ZN53_$LT$$RF$$u27$a$u20$T$u20$as$u20$core..fmt..Debug$GT$3fmt17h786ae1949f0f02f8E
	.globl	_ZN53_$LT$$RF$$u27$a$u20$T$u20$as$u20$core..fmt..Debug$GT$3fmt17h786ae1949f0f02f8E
	.p2align	4, 0x90
_ZN53_$LT$$RF$$u27$a$u20$T$u20$as$u20$core..fmt..Debug$GT$3fmt17h786ae1949f0f02f8E:
.Lfunc_begin10:
	.cv_func_id 10
	.cv_loc	10 1 1561 0
.Lcfi60:
.seh_proc _ZN53_$LT$$RF$$u27$a$u20$T$u20$as$u20$core..fmt..Debug$GT$3fmt17h786ae1949f0f02f8E
	pushq	%rbp
.Lcfi61:
	.seh_pushreg 5
	subq	$64, %rsp
.Lcfi62:
	.seh_stackalloc 64
	leaq	64(%rsp), %rbp
.Lcfi63:
	.seh_setframe 5, 64
.Lcfi64:
	.seh_endprologue
	movq	%rcx, -16(%rbp)
	movq	%rdx, -8(%rbp)
.Ltmp29:
	movq	-16(%rbp), %rcx
	movq	(%rcx), %rcx
	movq	-8(%rbp), %rdx
	callq	_ZN4core3fmt3num50_$LT$impl$u20$core..fmt..Debug$u20$for$u20$i32$GT$3fmt17h427aea5dbec5b81fE
	movb	%al, -17(%rbp)
	movb	-17(%rbp), %al
	andb	$1, %al
	movzbl	%al, %eax
	addq	$64, %rsp
	popq	%rbp
	retq
.Ltmp30:
.Lfunc_end10:
	.seh_handlerdata
	.section	.text,"xr",one_only,_ZN53_$LT$$RF$$u27$a$u20$T$u20$as$u20$core..fmt..Debug$GT$3fmt17h786ae1949f0f02f8E
.Lcfi65:
	.seh_endproc

	.def	 _ZN53_$LT$$RF$$u27$a$u20$T$u20$as$u20$core..fmt..Debug$GT$3fmt17h94bc8f43385eb9c1E;
	.scl	2;
	.type	32;
	.endef
	.section	.text,"xr",one_only,_ZN53_$LT$$RF$$u27$a$u20$T$u20$as$u20$core..fmt..Debug$GT$3fmt17h94bc8f43385eb9c1E
	.globl	_ZN53_$LT$$RF$$u27$a$u20$T$u20$as$u20$core..fmt..Debug$GT$3fmt17h94bc8f43385eb9c1E
	.p2align	4, 0x90
_ZN53_$LT$$RF$$u27$a$u20$T$u20$as$u20$core..fmt..Debug$GT$3fmt17h94bc8f43385eb9c1E:
.Lfunc_begin11:
	.cv_func_id 11
	.cv_loc	11 1 1561 0
.Lcfi66:
.seh_proc _ZN53_$LT$$RF$$u27$a$u20$T$u20$as$u20$core..fmt..Debug$GT$3fmt17h94bc8f43385eb9c1E
	pushq	%rbp
.Lcfi67:
	.seh_pushreg 5
	subq	$64, %rsp
.Lcfi68:
	.seh_stackalloc 64
	leaq	64(%rsp), %rbp
.Lcfi69:
	.seh_setframe 5, 64
.Lcfi70:
	.seh_endprologue
	movq	%rcx, -16(%rbp)
	movq	%rdx, -8(%rbp)
.Ltmp31:
	movq	-16(%rbp), %rcx
	movq	(%rcx), %rcx
	movq	-8(%rbp), %rdx
	callq	_ZN4core3fmt3num50_$LT$impl$u20$core..fmt..Debug$u20$for$u20$u32$GT$3fmt17h5a370a70a4c321efE
	movb	%al, -17(%rbp)
	movb	-17(%rbp), %al
	andb	$1, %al
	movzbl	%al, %eax
	addq	$64, %rsp
	popq	%rbp
	retq
.Ltmp32:
.Lfunc_end11:
	.seh_handlerdata
	.section	.text,"xr",one_only,_ZN53_$LT$$RF$$u27$a$u20$T$u20$as$u20$core..fmt..Debug$GT$3fmt17h94bc8f43385eb9c1E
.Lcfi71:
	.seh_endproc

	.def	 _ZN55_$LT$$RF$$u27$a$u20$T$u20$as$u20$core..fmt..Display$GT$3fmt17hc0258ac194701719E;
	.scl	2;
	.type	32;
	.endef
	.section	.text,"xr",one_only,_ZN55_$LT$$RF$$u27$a$u20$T$u20$as$u20$core..fmt..Display$GT$3fmt17hc0258ac194701719E
	.globl	_ZN55_$LT$$RF$$u27$a$u20$T$u20$as$u20$core..fmt..Display$GT$3fmt17hc0258ac194701719E
	.p2align	4, 0x90
_ZN55_$LT$$RF$$u27$a$u20$T$u20$as$u20$core..fmt..Display$GT$3fmt17hc0258ac194701719E:
.Lfunc_begin12:
	.cv_func_id 12
	.cv_loc	12 1 1561 0
.Lcfi72:
.seh_proc _ZN55_$LT$$RF$$u27$a$u20$T$u20$as$u20$core..fmt..Display$GT$3fmt17hc0258ac194701719E
	pushq	%rbp
.Lcfi73:
	.seh_pushreg 5
	subq	$64, %rsp
.Lcfi74:
	.seh_stackalloc 64
	leaq	64(%rsp), %rbp
.Lcfi75:
	.seh_setframe 5, 64
.Lcfi76:
	.seh_endprologue
	movq	%rcx, -16(%rbp)
	movq	%rdx, -8(%rbp)
.Ltmp33:
	movq	-16(%rbp), %rcx
	movq	(%rcx), %rdx
	movq	8(%rcx), %rcx
	movq	-8(%rbp), %r8
	movq	%rcx, -24(%rbp)
	movq	%rdx, %rcx
	movq	-24(%rbp), %rdx
	callq	_ZN42_$LT$str$u20$as$u20$core..fmt..Display$GT$3fmt17hb1f20b48a8c9e724E
	movb	%al, -25(%rbp)
	movb	-25(%rbp), %al
	andb	$1, %al
	movzbl	%al, %eax
	addq	$64, %rsp
	popq	%rbp
	retq
.Ltmp34:
.Lfunc_end12:
	.seh_handlerdata
	.section	.text,"xr",one_only,_ZN55_$LT$$RF$$u27$a$u20$T$u20$as$u20$core..fmt..Display$GT$3fmt17hc0258ac194701719E
.Lcfi77:
	.seh_endproc
