	.text
	.def	 _ZN64_$LT$asteroid..TestGame$u20$as$u20$asteroid..game..GameState$GT$6update17h89b14a815fecda41E;
	.scl	2;
	.type	32;
	.endef
	.globl	__real@40e86a0000000000
	.section	.rdata,"dr",discard,__real@40e86a0000000000
	.p2align	3
__real@40e86a0000000000:
	.quad	4677104761256804352
	.section	.text,"xr",one_only,_ZN64_$LT$asteroid..TestGame$u20$as$u20$asteroid..game..GameState$GT$6update17h89b14a815fecda41E
	.globl	_ZN64_$LT$asteroid..TestGame$u20$as$u20$asteroid..game..GameState$GT$6update17h89b14a815fecda41E
	.p2align	4, 0x90
_ZN64_$LT$asteroid..TestGame$u20$as$u20$asteroid..game..GameState$GT$6update17h89b14a815fecda41E:
.Lfunc_begin0:
	.cv_func_id 0
	.cv_file	1 "C:\\Users\\Zack\\source\\asteroid\\src\\lib.rs"
	.cv_loc	0 1 96 0 is_stmt 0
.Lcfi0:
.seh_proc _ZN64_$LT$asteroid..TestGame$u20$as$u20$asteroid..game..GameState$GT$6update17h89b14a815fecda41E
	pushq	%rbp
.Lcfi1:
	.seh_pushreg 5
	subq	$208, %rsp
.Lcfi2:
	.seh_stackalloc 208
	leaq	128(%rsp), %rbp
.Lcfi3:
	.seh_setframe 5, 128
.Lcfi4:
	.seh_endprologue
	movq	%rcx, %rax
	movq	%rdx, 16(%rbp)
	movq	%r8, 24(%rbp)
.Ltmp0:
	.cv_loc	0 1 97 0
	movq	24(%rbp), %rdx
	movl	$119, 36(%rbp)
	movl	36(%rbp), %r9d
	movq	%rcx, 8(%rbp)
	movq	%rdx, %rcx
	movl	%r9d, %edx
	movq	%rax, (%rbp)
	callq	_ZN8asteroid4game4Args7is_down17h6f67f98d6acf2525E
	movb	%al, -1(%rbp)
	movb	-1(%rbp), %al
	testb	$1, %al
	jne	.LBB0_2
	jmp	.LBB0_3
.LBB0_2:
	.cv_loc	0 1 98 0
	movq	24(%rbp), %rcx
	callq	_ZN8asteroid4game4Args2dt17h609e6e269bb9ce71E
	movsd	%xmm0, -16(%rbp)
	jmp	.LBB0_4
.LBB0_3:
	.cv_loc	0 1 97 0
	jmp	.LBB0_5
.LBB0_4:
	movsd	__real@40e86a0000000000(%rip), %xmm0
	.cv_loc	0 1 98 0
	movsd	-16(%rbp), %xmm1
	mulsd	%xmm1, %xmm0
	movq	16(%rbp), %rax
	movq	16(%rbp), %rcx
	movsd	8(%rcx), %xmm2
	subsd	%xmm0, %xmm2
	movsd	%xmm2, 8(%rax)
.LBB0_5:
	.cv_loc	0 1 100 0
	movq	24(%rbp), %rcx
	movl	$97, 44(%rbp)
	movl	44(%rbp), %edx
	callq	_ZN8asteroid4game4Args7is_down17h6f67f98d6acf2525E
	movb	%al, -17(%rbp)
	movb	-17(%rbp), %al
	testb	$1, %al
	jne	.LBB0_7
	jmp	.LBB0_8
.LBB0_7:
	.cv_loc	0 1 101 0
	movq	24(%rbp), %rcx
	callq	_ZN8asteroid4game4Args2dt17h609e6e269bb9ce71E
	movsd	%xmm0, -32(%rbp)
	jmp	.LBB0_9
.LBB0_8:
	.cv_loc	0 1 100 0
	jmp	.LBB0_10
.LBB0_9:
	movsd	__real@40e86a0000000000(%rip), %xmm0
	.cv_loc	0 1 101 0
	movsd	-32(%rbp), %xmm1
	mulsd	%xmm1, %xmm0
	movq	16(%rbp), %rax
	movq	16(%rbp), %rcx
	movsd	(%rcx), %xmm2
	subsd	%xmm0, %xmm2
	movsd	%xmm2, (%rax)
.LBB0_10:
	.cv_loc	0 1 103 0
	movq	24(%rbp), %rcx
	movl	$115, 52(%rbp)
	movl	52(%rbp), %edx
	callq	_ZN8asteroid4game4Args7is_down17h6f67f98d6acf2525E
	movb	%al, -33(%rbp)
	movb	-33(%rbp), %al
	testb	$1, %al
	jne	.LBB0_12
	jmp	.LBB0_13
.LBB0_12:
	.cv_loc	0 1 104 0
	movq	24(%rbp), %rcx
	callq	_ZN8asteroid4game4Args2dt17h609e6e269bb9ce71E
	movsd	%xmm0, -48(%rbp)
	jmp	.LBB0_14
.LBB0_13:
	.cv_loc	0 1 103 0
	jmp	.LBB0_15
.LBB0_14:
	movsd	__real@40e86a0000000000(%rip), %xmm0
	.cv_loc	0 1 104 0
	movsd	-48(%rbp), %xmm1
	mulsd	%xmm1, %xmm0
	movq	16(%rbp), %rax
	movq	16(%rbp), %rcx
	addsd	8(%rcx), %xmm0
	movsd	%xmm0, 8(%rax)
.LBB0_15:
	.cv_loc	0 1 106 0
	movq	24(%rbp), %rcx
	movl	$100, 60(%rbp)
	movl	60(%rbp), %edx
	callq	_ZN8asteroid4game4Args7is_down17h6f67f98d6acf2525E
	movb	%al, -49(%rbp)
	movb	-49(%rbp), %al
	testb	$1, %al
	jne	.LBB0_17
	jmp	.LBB0_18
.LBB0_17:
	.cv_loc	0 1 107 0
	movq	24(%rbp), %rcx
	callq	_ZN8asteroid4game4Args2dt17h609e6e269bb9ce71E
	movsd	%xmm0, -64(%rbp)
	jmp	.LBB0_19
.LBB0_18:
	.cv_loc	0 1 106 0
	jmp	.LBB0_20
.LBB0_19:
	movsd	__real@40e86a0000000000(%rip), %xmm0
	.cv_loc	0 1 107 0
	movsd	-64(%rbp), %xmm1
	mulsd	%xmm1, %xmm0
	movq	16(%rbp), %rax
	movq	16(%rbp), %rcx
	addsd	(%rcx), %xmm0
	movsd	%xmm0, (%rax)
.LBB0_20:
	.cv_loc	0 1 109 0
	movq	24(%rbp), %rcx
	movl	$113, 68(%rbp)
	movl	68(%rbp), %edx
	callq	_ZN8asteroid4game4Args7is_down17h6f67f98d6acf2525E
	movb	%al, -65(%rbp)
	movb	-65(%rbp), %al
	testb	$1, %al
	jne	.LBB0_22
	jmp	.LBB0_23
.LBB0_22:
	.cv_loc	0 1 110 0
	movq	24(%rbp), %rcx
	callq	_ZN8asteroid4game4Args2dt17h609e6e269bb9ce71E
	movsd	%xmm0, -80(%rbp)
	jmp	.LBB0_24
.LBB0_23:
	.cv_loc	0 1 109 0
	jmp	.LBB0_25
.LBB0_24:
	movsd	__real@40e86a0000000000(%rip), %xmm0
	.cv_loc	0 1 110 0
	movsd	-80(%rbp), %xmm1
	mulsd	%xmm1, %xmm0
	movq	16(%rbp), %rax
	movq	16(%rbp), %rcx
	addsd	16(%rcx), %xmm0
	movsd	%xmm0, 16(%rax)
.LBB0_25:
	.cv_loc	0 1 112 0
	movq	24(%rbp), %rcx
	movl	$101, 76(%rbp)
	movl	76(%rbp), %edx
	callq	_ZN8asteroid4game4Args7is_down17h6f67f98d6acf2525E
	movb	%al, -81(%rbp)
	movb	-81(%rbp), %al
	testb	$1, %al
	jne	.LBB0_27
	jmp	.LBB0_28
.LBB0_27:
	.cv_loc	0 1 113 0
	movq	24(%rbp), %rcx
	callq	_ZN8asteroid4game4Args2dt17h609e6e269bb9ce71E
	movsd	%xmm0, -96(%rbp)
	jmp	.LBB0_29
.LBB0_28:
	.cv_loc	0 1 112 0
	jmp	.LBB0_30
.LBB0_29:
	movsd	__real@40e86a0000000000(%rip), %xmm0
	.cv_loc	0 1 113 0
	movsd	-96(%rbp), %xmm1
	mulsd	%xmm1, %xmm0
	movq	16(%rbp), %rax
	movq	16(%rbp), %rcx
	movsd	16(%rcx), %xmm2
	subsd	%xmm0, %xmm2
	movsd	%xmm2, 16(%rax)
.LBB0_30:
	.cv_loc	0 1 115 0
	movq	8(%rbp), %rax
	movb	$1, 24(%rax)
	.cv_loc	0 1 116 0
	movq	(%rbp), %rax
	addq	$208, %rsp
	popq	%rbp
	retq
.Ltmp1:
.Lfunc_end0:
	.seh_handlerdata
	.section	.text,"xr",one_only,_ZN64_$LT$asteroid..TestGame$u20$as$u20$asteroid..game..GameState$GT$6update17h89b14a815fecda41E
.Lcfi5:
	.seh_endproc

	.def	 _ZN64_$LT$asteroid..TestGame$u20$as$u20$asteroid..game..GameState$GT$6render17h8789bd3b77b75698E;
	.scl	2;
	.type	32;
	.endef
	.globl	__real@c03e000000000000
	.section	.rdata,"dr",discard,__real@c03e000000000000
	.p2align	3
__real@c03e000000000000:
	.quad	-4594234569871327232
	.globl	__real@4008000000000000
	.section	.rdata,"dr",discard,__real@4008000000000000
	.p2align	3
__real@4008000000000000:
	.quad	4613937818241073152
	.globl	__real@4058c00000000000
	.section	.rdata,"dr",discard,__real@4058c00000000000
	.p2align	3
__real@4058c00000000000:
	.quad	4636666922610458624
	.section	.text,"xr",one_only,_ZN64_$LT$asteroid..TestGame$u20$as$u20$asteroid..game..GameState$GT$6render17h8789bd3b77b75698E
	.globl	_ZN64_$LT$asteroid..TestGame$u20$as$u20$asteroid..game..GameState$GT$6render17h8789bd3b77b75698E
	.p2align	4, 0x90
_ZN64_$LT$asteroid..TestGame$u20$as$u20$asteroid..game..GameState$GT$6render17h8789bd3b77b75698E:
.Lfunc_begin1:
	.cv_func_id 1
	.cv_loc	1 1 118 0
.Lcfi6:
.seh_proc _ZN64_$LT$asteroid..TestGame$u20$as$u20$asteroid..game..GameState$GT$6render17h8789bd3b77b75698E
	pushq	%rbp
.Lcfi7:
	.seh_pushreg 5
	subq	$176, %rsp
.Lcfi8:
	.seh_stackalloc 176
	leaq	128(%rsp), %rbp
.Lcfi9:
	.seh_setframe 5, 128
.Lcfi10:
	.seh_endprologue
	movq	%rcx, %rax
	movl	$255, %r10d
	movq	%rdx, -48(%rbp)
	movq	%r8, -40(%rbp)
	movq	%r9, -32(%rbp)
.Ltmp2:
	.cv_loc	1 1 119 0
	movq	-32(%rbp), %rdx
	movq	%rcx, -56(%rbp)
	movq	%rdx, %rcx
	movl	%r10d, %edx
	movl	%r10d, %r8d
	movl	%r10d, %r9d
	movq	%rax, -64(%rbp)
	callq	_ZN8asteroid8graphics8Graphics9set_color17heb19adb414cd643eE
	leaq	-24(%rbp), %rdx
	.cv_loc	1 1 120 0
	movq	-32(%rbp), %rcx
	movq	-48(%rbp), %rax
	cvttsd2si	(%rax), %r8d
	movq	-48(%rbp), %rax
	cvttsd2si	8(%rax), %r9d
	movq	-48(%rbp), %rax
	cvttsd2si	16(%rax), %r10d
	movl	$0, -24(%rbp)
	movl	%r8d, -20(%rbp)
	movl	%r9d, -16(%rbp)
	movl	%r10d, -12(%rbp)
	callq	_ZN8asteroid8graphics8Graphics4draw17hb61fa7d8d875ad4bE
	movl	$2, %eax
	.cv_loc	1 1 121 0
	movq	-32(%rbp), %rcx
	movq	-48(%rbp), %rdx
	cvttsd2si	(%rdx), %r8d
	movq	-48(%rbp), %rdx
	cvttsd2si	8(%rdx), %r9d
	movq	-48(%rbp), %rdx
	cvttsd2si	16(%rdx), %r10d
	imull	%eax, %r10d
	seto	%r11b
	testb	$1, %r11b
	movl	%r10d, -68(%rbp)
	movq	%rcx, -80(%rbp)
	movl	%r8d, -84(%rbp)
	movl	%r9d, -88(%rbp)
	jne	.LBB1_7
	movq	%rbp, %rdx
	movq	-48(%rbp), %rax
	cvttsd2si	16(%rax), %ecx
	movl	$5, (%rbp)
	movl	-84(%rbp), %r8d
	movl	%r8d, 4(%rbp)
	movl	-88(%rbp), %r9d
	movl	%r9d, 8(%rbp)
	movl	-68(%rbp), %r10d
	movl	%r10d, 12(%rbp)
	movl	%ecx, 16(%rbp)
	movq	-80(%rbp), %rcx
	callq	_ZN8asteroid8graphics8Graphics4draw17hb61fa7d8d875ad4bE
	xorl	%edx, %edx
	movl	$50, %r8d
	movl	$255, %r9d
	.cv_loc	1 1 122 0
	movq	-32(%rbp), %rcx
	callq	_ZN8asteroid8graphics8Graphics9set_color17heb19adb414cd643eE
	leaq	24(%rbp), %rdx
	.cv_loc	1 1 123 0
	movq	-32(%rbp), %rcx
	movq	-48(%rbp), %rax
	movsd	(%rax), %xmm0
	movsd	8(%rax), %xmm1
	movsd	__real@c03e000000000000(%rip), %xmm2
	addsd	%xmm2, %xmm0
	cvttsd2si	%xmm0, %r8d
	movsd	__real@4008000000000000(%rip), %xmm0
	mulsd	%xmm0, %xmm1
	movsd	__real@4058c00000000000(%rip), %xmm2
	subsd	%xmm1, %xmm2
	cvttsd2si	%xmm2, %r9d
	movsd	16(%rax), %xmm1
	cvttsd2si	%xmm1, %rax
	movl	%eax, %r10d
	addsd	%xmm1, %xmm1
	divsd	%xmm0, %xmm1
	cvttsd2si	%xmm1, %rax
	movl	%eax, %r11d
	movl	$3, 24(%rbp)
	movl	%r8d, 28(%rbp)
	movl	%r9d, 32(%rbp)
	movl	%r10d, 36(%rbp)
	movl	%r11d, 40(%rbp)
	callq	_ZN8asteroid8graphics8Graphics4draw17hb61fa7d8d875ad4bE
	.cv_loc	1 1 125 0
	movq	-56(%rbp), %rax
	movb	$1, 24(%rax)
	.cv_loc	1 1 126 0
	movq	-64(%rbp), %rax
	addq	$176, %rsp
	popq	%rbp
	retq
.LBB1_7:
	.cv_loc	1 1 121 0
	leaq	panic_loc.2(%rip), %rcx
	callq	_ZN4core9panicking5panic17hb14241805eba0fdcE
	ud2
.Ltmp3:
.Lfunc_end1:
	.seh_handlerdata
	.section	.text,"xr",one_only,_ZN64_$LT$asteroid..TestGame$u20$as$u20$asteroid..game..GameState$GT$6render17h8789bd3b77b75698E
.Lcfi11:
	.seh_endproc

	.def	 game_loop_test;
	.scl	2;
	.type	32;
	.endef
	.section	.text,"xr",one_only,game_loop_test
	.globl	game_loop_test
	.p2align	4, 0x90
game_loop_test:
.Lfunc_begin2:
	.cv_func_id 2
	.cv_loc	2 1 131 0
.Lcfi12:
.seh_proc game_loop_test
	.seh_handler __CxxFrameHandler3, @unwind, @except
	pushq	%rbp
.Lcfi13:
	.seh_pushreg 5
	pushq	%rsi
.Lcfi14:
	.seh_pushreg 6
	pushq	%rdi
.Lcfi15:
	.seh_pushreg 7
	subq	$1616, %rsp
.Lcfi16:
	.seh_stackalloc 1616
	leaq	128(%rsp), %rbp
.Lcfi17:
	.seh_setframe 5, 128
.Lcfi18:
	.seh_endprologue
	movq	$-2, 1480(%rbp)
	movq	%rcx, %rax
.Ltmp122:
	.cv_loc	2 1 132 0
	movb	$0, 1469(%rbp)
	movb	$0, 1470(%rbp)
	movb	$0, 1471(%rbp)
	movb	$0, 1468(%rbp)
	movabsq	$4632233691727265792, %r8
	movq	%r8, 232(%rbp)
	movq	%r8, 240(%rbp)
	movabsq	$4629841154425225216, %r8
	movq	%r8, 248(%rbp)
.Ltmp123:
	.cv_loc	2 1 138 0
.Ltmp4:
	leaq	264(%rbp), %r8
	movq	%rcx, 224(%rbp)
	movq	%r8, %rcx
	movq	%rax, 216(%rbp)
	movq	%rdx, 208(%rbp)
.Ltmp124:
	callq	_ZN4sdl23sdl4init17heca99781910135f2E
.Ltmp5:
	jmp	.LBB2_1
.Ltmp125:
.LBB2_1:
.Ltmp6:
	leaq	264(%rbp), %rcx
	callq	_ZN47_$LT$core..result..Result$LT$T$C$$u20$E$GT$$GT$6unwrap17hd603a306757cbd6bE
.Ltmp7:
	movq	%rax, 200(%rbp)
	jmp	.LBB2_2
.Ltmp126:
.LBB2_2:
	movq	200(%rbp), %rax
	movq	%rax, 256(%rbp)
.Ltmp127:
	.cv_loc	2 1 139 0
.Ltmp8:
	leaq	304(%rbp), %rcx
	leaq	256(%rbp), %rdx
	callq	_ZN4sdl23sdl3Sdl5video17hc0ef1d6ef7959b9cE
.Ltmp9:
	jmp	.LBB2_3
.Ltmp128:
.LBB2_3:
.Ltmp10:
	leaq	304(%rbp), %rcx
	callq	_ZN47_$LT$core..result..Result$LT$T$C$$u20$E$GT$$GT$6unwrap17ha8d9a12e9794e9ddE
.Ltmp11:
	movq	%rax, 192(%rbp)
	jmp	.LBB2_4
.Ltmp129:
.LBB2_4:
	movq	192(%rbp), %rax
	movq	%rax, 296(%rbp)
.Ltmp130:
	.cv_loc	2 1 141 0
.Ltmp12:
	movq	208(%rbp), %rcx
	callq	_ZN65_$LT$alloc..string..String$u20$as$u20$core..ops..deref..Deref$GT$5deref17h87e2e24adb925e4cE
.Ltmp13:
	movq	%rdx, 184(%rbp)
	movq	%rax, 176(%rbp)
	jmp	.LBB2_5
.Ltmp131:
.LBB2_5:
	movq	208(%rbp), %rax
	movl	24(%rax), %ecx
	movl	28(%rax), %edx
.Ltmp14:
	movq	%rsp, %r8
	movl	%edx, 40(%r8)
	movl	%ecx, 32(%r8)
	leaq	392(%rbp), %rcx
	leaq	296(%rbp), %rdx
	movq	176(%rbp), %r8
	movq	184(%rbp), %r9
	callq	_ZN4sdl25video43_$LT$impl$u20$sdl2..sdl..VideoSubsystem$GT$6window17ha8dcd2c3c5c7d98eE
.Ltmp15:
	jmp	.LBB2_6
.Ltmp132:
.LBB2_6:
.Ltmp16:
	leaq	392(%rbp), %rcx
	callq	_ZN4sdl25video13WindowBuilder6opengl17h903e195dd7c1cee2E
.Ltmp17:
	movq	%rax, 168(%rbp)
	jmp	.LBB2_7
.Ltmp133:
.LBB2_7:
.Ltmp18:
	movq	168(%rbp), %rcx
	callq	_ZN4sdl25video13WindowBuilder17position_centered17h4b17d97df04b881cE
.Ltmp19:
	movq	%rax, 160(%rbp)
	jmp	.LBB2_8
.Ltmp134:
.LBB2_8:
.Ltmp20:
	leaq	344(%rbp), %rcx
	movq	160(%rbp), %rdx
	callq	_ZN4sdl25video13WindowBuilder5build17h1bb9fad9d20022cfE
.Ltmp21:
	jmp	.LBB2_9
.Ltmp135:
.LBB2_9:
.Ltmp22:
	leaq	344(%rbp), %rcx
	callq	_ZN47_$LT$core..result..Result$LT$T$C$$u20$E$GT$$GT$6unwrap17h6712c9823b8c7e2cE
.Ltmp23:
	movq	%rax, 152(%rbp)
	jmp	.LBB2_10
.Ltmp136:
.LBB2_10:
	movq	152(%rbp), %rax
	movq	%rax, 336(%rbp)
	.cv_loc	2 1 144 0
	movb	$1, 1468(%rbp)
.Ltmp24:
	leaq	392(%rbp), %rcx
	callq	_ZN4core3ptr13drop_in_place17h95b40b333f7cf603E
.Ltmp25:
	jmp	.LBB2_11
.Ltmp137:
.LBB2_11:
	.cv_loc	2 1 146 0
	movb	$0, 1468(%rbp)
	movq	336(%rbp), %rdx
.Ltmp26:
	leaq	456(%rbp), %rcx
	callq	_ZN4sdl25video6Window11into_canvas17h7de6a915166414ebE
.Ltmp27:
	jmp	.LBB2_12
.Ltmp138:
.LBB2_12:
	.cv_loc	2 1 147 0
	movq	208(%rbp), %rax
	testb	$1, 32(%rax)
	je	.LBB2_14
.Ltmp139:
	.cv_loc	2 1 148 0
	movq	472(%rbp), %rax
	movq	%rax, 576(%rbp)
	movups	456(%rbp), %xmm0
	movaps	%xmm0, 560(%rbp)
.Ltmp28:
	leaq	536(%rbp), %rcx
	leaq	560(%rbp), %rdx
	callq	_ZN4sdl26render13CanvasBuilder13present_vsync17ha19ddba561072228E
.Ltmp29:
	jmp	.LBB2_15
.Ltmp140:
.LBB2_14:
	.cv_loc	2 1 149 0
	movq	456(%rbp), %rax
	movq	%rax, 592(%rbp)
	movq	464(%rbp), %rax
	movq	%rax, 600(%rbp)
	movq	472(%rbp), %rax
	movq	%rax, 608(%rbp)
	movq	592(%rbp), %rax
	movq	%rax, 536(%rbp)
	movq	600(%rbp), %rax
	movq	%rax, 544(%rbp)
	movq	608(%rbp), %rax
	movq	%rax, 552(%rbp)
	.cv_loc	2 1 147 0
	jmp	.LBB2_16
.Ltmp141:
.LBB2_15:
	jmp	.LBB2_16
.Ltmp142:
.LBB2_16:
.Ltmp30:
	leaq	496(%rbp), %rcx
	leaq	536(%rbp), %rdx
	callq	_ZN4sdl26render13CanvasBuilder5build17h0b4063dc11182a4eE
.Ltmp31:
	jmp	.LBB2_17
.Ltmp143:
.LBB2_17:
.Ltmp32:
	leaq	496(%rbp), %rcx
	callq	_ZN47_$LT$core..result..Result$LT$T$C$$u20$E$GT$$GT$6unwrap17h31883219f9c249abE
.Ltmp33:
	movq	%rdx, 144(%rbp)
	movq	%rax, 136(%rbp)
	jmp	.LBB2_18
.Ltmp144:
.LBB2_18:
	movq	136(%rbp), %rax
	movq	%rax, 480(%rbp)
	movq	144(%rbp), %rcx
	movq	%rcx, 488(%rbp)
	.cv_loc	2 1 149 0
	movb	$1, 1469(%rbp)
.Ltmp145:
	.cv_loc	2 1 151 0
.Ltmp34:
	xorl	%edx, %edx
	movl	%edx, %ecx
	movl	%edx, 132(%rbp)
	movl	132(%rbp), %r8d
	callq	_ZN4sdl26pixels5Color3RGB17h45ec15c7674b0687E
.Ltmp35:
	movl	%eax, 128(%rbp)
	jmp	.LBB2_19
.Ltmp146:
.LBB2_19:
	movl	128(%rbp), %eax
	movl	%eax, 1472(%rbp)
	movl	1472(%rbp), %ecx
	movl	%ecx, 616(%rbp)
	movl	616(%rbp), %edx
.Ltmp36:
	leaq	480(%rbp), %rcx
	callq	_ZN38_$LT$sdl2..render..Canvas$LT$T$GT$$GT$14set_draw_color17ha1f3de5ffac9bc12E
.Ltmp37:
	jmp	.LBB2_20
.Ltmp147:
.LBB2_20:
	.cv_loc	2 1 152 0
.Ltmp38:
	leaq	480(%rbp), %rcx
	callq	_ZN38_$LT$sdl2..render..Canvas$LT$T$GT$$GT$5clear17hd108fe3307669b49E
.Ltmp39:
	jmp	.LBB2_21
.Ltmp148:
.LBB2_21:
	.cv_loc	2 1 153 0
.Ltmp40:
	leaq	480(%rbp), %rcx
	callq	_ZN38_$LT$sdl2..render..Canvas$LT$T$GT$$GT$7present17h75c6d76c72808fe0E
.Ltmp41:
	jmp	.LBB2_22
.Ltmp149:
.LBB2_22:
	.cv_loc	2 1 154 0
.Ltmp42:
	leaq	632(%rbp), %rcx
	leaq	256(%rbp), %rdx
	callq	_ZN4sdl23sdl3Sdl10event_pump17h620164fb717550e3E
.Ltmp43:
	jmp	.LBB2_23
.Ltmp150:
.LBB2_23:
.Ltmp44:
	leaq	632(%rbp), %rcx
	callq	_ZN47_$LT$core..result..Result$LT$T$C$$u20$E$GT$$GT$6unwrap17hd7ca13c803e074f3E
.Ltmp45:
	movq	%rax, 120(%rbp)
	jmp	.LBB2_24
.Ltmp151:
.LBB2_24:
	movq	120(%rbp), %rax
	movq	%rax, 624(%rbp)
.Ltmp152:
	.cv_loc	2 1 156 0
.Ltmp46:
	callq	_ZN4time14precise_time_s17h0511289c7b7151f9E
.Ltmp47:
	movsd	%xmm0, 112(%rbp)
	jmp	.LBB2_25
.Ltmp153:
.LBB2_25:
	movsd	112(%rbp), %xmm0
	movsd	%xmm0, 664(%rbp)
.Ltmp154:
	.cv_loc	2 1 157 0
	movb	$1, 1470(%rbp)
	movb	$2, 696(%rbp)
.Ltmp155:
	.cv_loc	2 1 158 0
.Ltmp48:
	leaq	712(%rbp), %rcx
	callq	_ZN8asteroid4game4Args3new17h03cfbeffacb6427cE
.Ltmp49:
	jmp	.LBB2_26
.Ltmp156:
.LBB2_26:
	.cv_loc	2 1 160 0
	movb	$0, 1469(%rbp)
	movq	480(%rbp), %rcx
	movq	488(%rbp), %rdx
.Ltmp50:
	callq	_ZN8asteroid8graphics8Graphics3new17he3e7eadc9b0b4326E
.Ltmp51:
	movq	%rdx, 104(%rbp)
	movq	%rax, 96(%rbp)
	jmp	.LBB2_27
.Ltmp157:
.LBB2_27:
	movq	96(%rbp), %rax
	movq	%rax, 760(%rbp)
	movq	104(%rbp), %rcx
	movq	%rcx, 768(%rbp)
.Ltmp158:
.LBB2_28:
	.cv_loc	2 1 162 0
.Ltmp52:
	leaq	672(%rbp), %rcx
	callq	_ZN38_$LT$core..option..Option$LT$T$GT$$GT$7is_none17h10fa9e9975bb3bd8E
.Ltmp53:
	movb	%al, 95(%rbp)
	jmp	.LBB2_30
.Ltmp159:
.LBB2_29:
	.cv_loc	2 1 201 0
	movb	$0, 1470(%rbp)
	movups	672(%rbp), %xmm0
	movups	688(%rbp), %xmm1
	movaps	%xmm1, 1440(%rbp)
	movaps	%xmm0, 1424(%rbp)
.Ltmp54:
	leaq	1424(%rbp), %rdx
	movq	224(%rbp), %rcx
	callq	_ZN38_$LT$core..option..Option$LT$T$GT$$GT$6unwrap17h76a171d4d771dee7E
.Ltmp55:
	jmp	.LBB2_76
.Ltmp160:
.LBB2_30:
	.cv_loc	2 1 162 0
	movb	95(%rbp), %al
	testb	$1, %al
	jne	.LBB2_31
	jmp	.LBB2_29
.Ltmp161:
.LBB2_31:
	.cv_loc	2 1 163 0
.Ltmp66:
	leaq	624(%rbp), %rcx
	callq	_ZN4sdl25event38_$LT$impl$u20$sdl2..sdl..EventPump$GT$9poll_iter17hcd929f61ee05c302E
.Ltmp67:
	jmp	.LBB2_32
.Ltmp162:
.LBB2_32:
.Ltmp68:
	callq	_ZN54_$LT$I$u20$as$u20$core..iter..traits..IntoIterator$GT$9into_iter17h05930a9efd81f2eaE
.Ltmp69:
	jmp	.LBB2_33
.Ltmp163:
.LBB2_33:
	jmp	.LBB2_34
.Ltmp164:
.LBB2_34:
	.cv_loc	2 1 163 0
.Ltmp70:
	leaq	832(%rbp), %rcx
	leaq	776(%rbp), %rdx
	callq	_ZN95_$LT$sdl2..event..EventPollIterator$LT$$u27$a$GT$$u20$as$u20$core..iter..iterator..Iterator$GT$4next17h2817bbeb844de176E
.Ltmp71:
	jmp	.LBB2_35
.Ltmp165:
.LBB2_35:
	movb	832(%rbp), %al
	subb	$39, %al
	setne	%cl
	movzbl	%cl, %edx
	movl	%edx, %r8d
	movb	%al, 94(%rbp)
	movq	%r8, 80(%rbp)
	je	.LBB2_36
	jmp	.LBB2_108
.Ltmp166:
.LBB2_108:
	movq	80(%rbp), %rax
	subq	$1, %rax
	movq	%rax, 72(%rbp)
	je	.LBB2_38
	jmp	.LBB2_37
.Ltmp167:
.LBB2_36:
	.cv_loc	2 1 183 0
.Ltmp90:
	leaq	832(%rbp), %rcx
	callq	_ZN4core3ptr13drop_in_place17h0bdcb4bcee1dd761E
.Ltmp91:
	jmp	.LBB2_39
.Ltmp168:
.LBB2_37:
	.cv_loc	2 1 202 0
	ud2
.Ltmp169:
.LBB2_38:
	movl	$1, %eax
	movl	%eax, %ecx
	xorl	%eax, %eax
	movl	%eax, %edx
	movl	$48, %eax
	movl	%eax, %r8d
	leaq	784(%rbp), %r9
	leaq	928(%rbp), %r10
	leaq	880(%rbp), %r11
	leaq	832(%rbp), %rsi
.Ltmp170:
	.cv_loc	2 1 163 0
	movq	%r11, %rdi
	movq	%rcx, 64(%rbp)
	movq	%rdi, %rcx
	movq	%rdx, 56(%rbp)
	movq	%rsi, %rdx
	movq	%r8, 48(%rbp)
	movq	%r11, 40(%rbp)
	movq	%r10, 32(%rbp)
	movq	%r9, 24(%rbp)
	callq	memcpy
.Ltmp171:
	.cv_loc	2 1 163 0
	movq	40(%rbp), %rcx
	movq	32(%rbp), %rdx
	movq	%rcx, 16(%rbp)
	movq	%rdx, %rcx
	movq	16(%rbp), %rdx
	movq	48(%rbp), %r8
	callq	memcpy
	movb	$1, 1471(%rbp)
	movq	32(%rbp), %rcx
	movq	24(%rbp), %rdx
	movq	%rcx, 8(%rbp)
	movq	%rdx, %rcx
	movq	8(%rbp), %rdx
	movq	48(%rbp), %r8
	callq	memcpy
.Ltmp172:
	.cv_loc	2 1 183 0
	cmpb	$39, 832(%rbp)
	movq	64(%rbp), %rcx
	movq	56(%rbp), %rdx
	cmoveq	%rdx, %rcx
	cmpq	$1, %rcx
	je	.LBB2_86
	jmp	.LBB2_87
.Ltmp173:
.LBB2_39:
	.cv_loc	2 1 183 0
	movb	$0, 1471(%rbp)
.Ltmp174:
	.cv_loc	2 1 185 0
.Ltmp92:
	xorl	%eax, %eax
	movl	%eax, %ecx
	movl	%eax, %edx
	movl	%eax, %r8d
	callq	_ZN4sdl26pixels5Color3RGB17h45ec15c7674b0687E
.Ltmp93:
	movl	%eax, 4(%rbp)
	jmp	.LBB2_61
.Ltmp175:
.LBB2_40:
	.cv_loc	2 1 165 0
	movb	$1, 1144(%rbp)
	movups	1120(%rbp), %xmm0
	movups	1136(%rbp), %xmm1
	movaps	%xmm1, 1104(%rbp)
	movaps	%xmm0, 1088(%rbp)
	movb	$0, 1470(%rbp)
.Ltmp86:
	leaq	672(%rbp), %rcx
	callq	_ZN4core3ptr13drop_in_place17h5bfb803e786f258cE
.Ltmp87:
	jmp	.LBB2_88
.Ltmp176:
.LBB2_41:
	.cv_loc	2 1 164 0
	jmp	.LBB2_48
.Ltmp177:
.LBB2_42:
	.cv_loc	2 1 167 0
	movq	208(%rbp), %rax
	testb	$1, 34(%rax)
	jne	.LBB2_49
	jmp	.LBB2_50
.Ltmp178:
.LBB2_43:
	.cv_loc	2 1 173 0
	movl	988(%rbp), %eax
	movl	%eax, 1080(%rbp)
.Ltmp179:
	.cv_loc	2 1 174 0
	movl	1080(%rbp), %edx
.Ltmp76:
	leaq	712(%rbp), %rcx
	callq	_ZN8asteroid4game4Args7is_down17h6f67f98d6acf2525E
.Ltmp77:
	movb	%al, 3(%rbp)
	jmp	.LBB2_54
.Ltmp180:
.LBB2_44:
	.cv_loc	2 1 178 0
	movl	988(%rbp), %eax
	movl	%eax, 1084(%rbp)
.Ltmp181:
	.cv_loc	2 1 179 0
	movl	1084(%rbp), %edx
.Ltmp74:
	leaq	712(%rbp), %rcx
	callq	_ZN8asteroid4game4Args10set_key_up17hbbf7c0d40aeb4a7aE
.Ltmp75:
	jmp	.LBB2_59
.Ltmp182:
.LBB2_45:
	movl	$1, %eax
	movl	%eax, %ecx
	xorl	%eax, %eax
	movl	%eax, %edx
	.cv_loc	2 1 166 0
	cmpl	$1073742107, 988(%rbp)
	cmoveq	%rdx, %rcx
	cmpq	$1, %rcx
	je	.LBB2_47
	jmp	.LBB2_41
.Ltmp183:
.LBB2_46:
	movl	$1, %eax
	movl	%eax, %ecx
	xorl	%eax, %eax
	movl	%eax, %edx
	.cv_loc	2 1 178 0
	cmpl	$1073742107, 988(%rbp)
	cmoveq	%rdx, %rcx
	cmpq	$1, %rcx
	je	.LBB2_44
	jmp	.LBB2_41
.Ltmp184:
.LBB2_47:
	.cv_loc	2 1 166 0
	cmpl	$27, 988(%rbp)
	je	.LBB2_42
	jmp	.LBB2_43
.Ltmp185:
.LBB2_48:
	.cv_loc	2 1 183 0
.Ltmp88:
	leaq	976(%rbp), %rcx
	callq	_ZN4core3ptr13drop_in_place17hdbea6ed0fa8ba53bE
.Ltmp89:
	jmp	.LBB2_60
.Ltmp186:
.LBB2_49:
	.cv_loc	2 1 168 0
	movb	$1, 1216(%rbp)
	movups	1192(%rbp), %xmm0
	movups	1208(%rbp), %xmm1
	movaps	%xmm1, 1168(%rbp)
	movaps	%xmm0, 1152(%rbp)
	movb	$0, 1470(%rbp)
.Ltmp84:
	leaq	672(%rbp), %rcx
	callq	_ZN4core3ptr13drop_in_place17h5bfb803e786f258cE
.Ltmp85:
	jmp	.LBB2_89
.Ltmp187:
.LBB2_50:
	.cv_loc	2 1 170 0
	movl	$27, 1260(%rbp)
	movl	1260(%rbp), %r8d
.Ltmp80:
	leaq	1224(%rbp), %rcx
	leaq	232(%rbp), %rdx
	callq	_ZN8asteroid4game9GameState14keyboard_input17he6a40af5825541afE
.Ltmp81:
	jmp	.LBB2_51
.Ltmp188:
.LBB2_51:
.Ltmp82:
	leaq	1224(%rbp), %rcx
	callq	_ZN4core3ptr13drop_in_place17hba026a1b109b8173E
.Ltmp83:
	jmp	.LBB2_52
.Ltmp189:
.LBB2_52:
	.cv_loc	2 1 167 0
	jmp	.LBB2_53
.Ltmp190:
.LBB2_53:
	.cv_loc	2 1 164 0
	jmp	.LBB2_48
.Ltmp191:
.LBB2_54:
	.cv_loc	2 1 174 0
	movb	3(%rbp), %al
	xorb	$-1, %al
	testb	$1, %al
	jne	.LBB2_55
	jmp	.LBB2_56
.Ltmp192:
.LBB2_55:
	.cv_loc	2 1 175 0
	movl	1080(%rbp), %edx
.Ltmp78:
	leaq	712(%rbp), %rcx
	callq	_ZN8asteroid4game4Args12set_key_down17h0100f84f1e915d85E
.Ltmp79:
	jmp	.LBB2_57
.Ltmp193:
.LBB2_56:
	.cv_loc	2 1 174 0
	jmp	.LBB2_58
.Ltmp194:
.LBB2_57:
	jmp	.LBB2_58
.Ltmp195:
.LBB2_58:
	.cv_loc	2 1 164 0
	jmp	.LBB2_48
.Ltmp196:
.LBB2_59:
	jmp	.LBB2_48
.Ltmp197:
.LBB2_60:
	.cv_loc	2 1 183 0
	movb	$0, 1471(%rbp)
	.cv_loc	2 1 163 0
	jmp	.LBB2_34
.Ltmp198:
.LBB2_61:
	.cv_loc	2 1 185 0
	movl	4(%rbp), %eax
	movl	%eax, 1476(%rbp)
	movl	1476(%rbp), %ecx
	movl	%ecx, 1264(%rbp)
	movl	1264(%rbp), %edx
.Ltmp94:
	leaq	760(%rbp), %rcx
	callq	_ZN38_$LT$sdl2..render..Canvas$LT$T$GT$$GT$14set_draw_color17ha1f3de5ffac9bc12E
.Ltmp95:
	jmp	.LBB2_62
.Ltmp199:
.LBB2_62:
	.cv_loc	2 1 186 0
.Ltmp96:
	leaq	760(%rbp), %rcx
	callq	_ZN38_$LT$sdl2..render..Canvas$LT$T$GT$$GT$5clear17hd108fe3307669b49E
.Ltmp97:
	jmp	.LBB2_63
.Ltmp200:
.LBB2_63:
	.cv_loc	2 1 188 0
.Ltmp98:
	callq	_ZN4time14precise_time_s17h0511289c7b7151f9E
.Ltmp99:
	movsd	%xmm0, -8(%rbp)
	jmp	.LBB2_64
.Ltmp201:
.LBB2_64:
	movsd	664(%rbp), %xmm0
	movsd	-8(%rbp), %xmm1
	subsd	%xmm0, %xmm1
	movsd	%xmm1, 1344(%rbp)
	leaq	1344(%rbp), %rax
	movq	%rax, 1336(%rbp)
	movq	1336(%rbp), %rax
	movq	%rax, 1352(%rbp)
.Ltmp202:
	.cv_loc	2 1 188 0
	movq	1352(%rbp), %rcx
.Ltmp100:
	leaq	_ZN4core3fmt5float52_$LT$impl$u20$core..fmt..Display$u20$for$u20$f64$GT$3fmt17h3ec218481e0dd746E(%rip), %rdx
	callq	_ZN4core3fmt10ArgumentV13new17hfb252f4212f709faE
.Ltmp101:
	movq	%rdx, -16(%rbp)
	movq	%rax, -24(%rbp)
	jmp	.LBB2_65
.Ltmp203:
.LBB2_65:
	movq	-24(%rbp), %rax
	movq	%rax, 1320(%rbp)
	movq	-16(%rbp), %rcx
	movq	%rcx, 1328(%rbp)
.Ltmp204:
	.cv_loc	2 1 188 0
.Ltmp102:
	leaq	ref.6(%rip), %rdx
	movq	%rsp, %r8
	movq	%rdx, 40(%r8)
	movq	$1, 48(%r8)
	movq	$1, 32(%r8)
	leaq	ref.5(%rip), %rdx
	movl	$2, %r9d
	movl	%r9d, %r8d
	leaq	1272(%rbp), %rcx
	leaq	1320(%rbp), %r9
	callq	_ZN4core3fmt9Arguments16new_v1_formatted17h647572f4005f46b4E
.Ltmp103:
	jmp	.LBB2_66
.Ltmp205:
.LBB2_66:
.Ltmp104:
	leaq	1272(%rbp), %rcx
	callq	_ZN3std2io5stdio6_print17hfbfe1bd088f43dc9E
.Ltmp105:
	jmp	.LBB2_67
.Ltmp206:
.LBB2_67:
	.cv_loc	2 1 189 0
.Ltmp106:
	callq	_ZN4time14precise_time_s17h0511289c7b7151f9E
.Ltmp107:
	movsd	%xmm0, -32(%rbp)
	jmp	.LBB2_68
.Ltmp207:
.LBB2_68:
	movsd	664(%rbp), %xmm0
	movsd	-32(%rbp), %xmm1
	subsd	%xmm0, %xmm1
.Ltmp108:
	leaq	712(%rbp), %rcx
	callq	_ZN8asteroid4game4Args6set_dt17hb75d4170b08eef5aE
.Ltmp109:
	jmp	.LBB2_69
.Ltmp208:
.LBB2_69:
	.cv_loc	2 1 191 0
.Ltmp110:
	leaq	1360(%rbp), %rcx
	leaq	232(%rbp), %rdx
	leaq	712(%rbp), %r8
	callq	_ZN64_$LT$asteroid..TestGame$u20$as$u20$asteroid..game..GameState$GT$6update17h89b14a815fecda41E
.Ltmp111:
	jmp	.LBB2_70
.Ltmp209:
.LBB2_70:
.Ltmp112:
	leaq	1360(%rbp), %rcx
	callq	_ZN4core3ptr13drop_in_place17hba026a1b109b8173E
.Ltmp113:
	jmp	.LBB2_71
.Ltmp210:
.LBB2_71:
	.cv_loc	2 1 192 0
.Ltmp114:
	leaq	1392(%rbp), %rcx
	leaq	232(%rbp), %rdx
	leaq	712(%rbp), %r8
	leaq	760(%rbp), %r9
	callq	_ZN64_$LT$asteroid..TestGame$u20$as$u20$asteroid..game..GameState$GT$6render17h8789bd3b77b75698E
.Ltmp115:
	jmp	.LBB2_72
.Ltmp211:
.LBB2_72:
.Ltmp116:
	leaq	1392(%rbp), %rcx
	callq	_ZN4core3ptr13drop_in_place17hba026a1b109b8173E
.Ltmp117:
	jmp	.LBB2_73
.Ltmp212:
.LBB2_73:
	.cv_loc	2 1 196 0
.Ltmp118:
	leaq	760(%rbp), %rcx
	callq	_ZN38_$LT$sdl2..render..Canvas$LT$T$GT$$GT$7present17h75c6d76c72808fe0E
.Ltmp119:
	jmp	.LBB2_74
.Ltmp213:
.LBB2_74:
	.cv_loc	2 1 198 0
.Ltmp120:
	callq	_ZN4time14precise_time_s17h0511289c7b7151f9E
.Ltmp121:
	movsd	%xmm0, -40(%rbp)
	jmp	.LBB2_75
.Ltmp214:
.LBB2_75:
	movsd	-40(%rbp), %xmm0
	movsd	%xmm0, 664(%rbp)
	.cv_loc	2 1 162 0
	jmp	.LBB2_28
.Ltmp215:
.LBB2_76:
	.cv_loc	2 1 202 0
.Ltmp56:
	leaq	760(%rbp), %rcx
	callq	_ZN4core3ptr13drop_in_place17h7c7c1d680f53f2fbE
.Ltmp57:
	jmp	.LBB2_77
.Ltmp216:
.LBB2_77:
	.cv_loc	2 1 202 0
.Ltmp58:
	leaq	712(%rbp), %rcx
	callq	_ZN4core3ptr13drop_in_place17h074065136f77237cE
.Ltmp59:
	jmp	.LBB2_78
.Ltmp217:
.LBB2_78:
	.cv_loc	2 1 202 0
	movb	$0, 1470(%rbp)
.Ltmp218:
	.cv_loc	2 1 202 0
.Ltmp60:
	leaq	624(%rbp), %rcx
	callq	_ZN4core3ptr13drop_in_place17ha7a34af5324fdbd5E
.Ltmp61:
	jmp	.LBB2_79
.Ltmp219:
.LBB2_79:
	.cv_loc	2 1 202 0
	movb	$0, 1469(%rbp)
.Ltmp220:
	.cv_loc	2 1 202 0
	movb	$0, 1468(%rbp)
.Ltmp221:
	.cv_loc	2 1 202 0
.Ltmp62:
	leaq	296(%rbp), %rcx
	callq	_ZN4core3ptr13drop_in_place17hfd5168d07fb6601dE
.Ltmp63:
	jmp	.LBB2_80
.Ltmp222:
.LBB2_80:
	.cv_loc	2 1 202 0
.Ltmp64:
	leaq	256(%rbp), %rcx
	callq	_ZN4core3ptr13drop_in_place17ha4f230ce768e932fE
.Ltmp65:
	jmp	.LBB2_81
.Ltmp223:
.LBB2_81:
	.cv_loc	2 1 202 0
	movq	208(%rbp), %rcx
	callq	_ZN4core3ptr13drop_in_place17h0ab26a2d2bf7d751E
	movq	216(%rbp), %rax
	addq	$1616, %rsp
	popq	%rdi
	popq	%rsi
	popq	%rbp
.Ltmp224:
	retq
.LBB2_86:
.Ltmp225:
	.cv_loc	2 1 163 0
	movb	$0, 1471(%rbp)
	movups	784(%rbp), %xmm0
	movups	800(%rbp), %xmm1
	movups	816(%rbp), %xmm2
	movaps	%xmm2, 1056(%rbp)
	movaps	%xmm1, 1040(%rbp)
	movaps	%xmm0, 1024(%rbp)
	movaps	1024(%rbp), %xmm0
	movaps	1040(%rbp), %xmm1
	movaps	1056(%rbp), %xmm2
	movaps	%xmm2, 1008(%rbp)
	movaps	%xmm1, 992(%rbp)
	movaps	%xmm0, 976(%rbp)
.Ltmp226:
	.cv_loc	2 1 165 0
	movzbl	976(%rbp), %eax
	movl	%eax, %ecx
	testq	%rcx, %rcx
	movq	%rcx, -48(%rbp)
	je	.LBB2_40
	jmp	.LBB2_109
.Ltmp227:
.LBB2_109:
	movq	-48(%rbp), %rax
	subq	$8, %rax
	movq	%rax, -56(%rbp)
	je	.LBB2_45
	jmp	.LBB2_110
.Ltmp228:
.LBB2_110:
	movq	-48(%rbp), %rax
	subq	$9, %rax
	movq	%rax, -64(%rbp)
	je	.LBB2_46
	jmp	.LBB2_41
.Ltmp229:
.LBB2_87:
	.cv_loc	2 1 183 0
.Ltmp72:
	leaq	832(%rbp), %rcx
	callq	_ZN4core3ptr13drop_in_place17h0bdcb4bcee1dd761E
.Ltmp73:
	jmp	.LBB2_86
.Ltmp230:
.LBB2_88:
	.cv_loc	2 1 165 0
	movb	$1, 1470(%rbp)
	movq	1088(%rbp), %rax
	movq	%rax, 672(%rbp)
	movq	1096(%rbp), %rax
	movq	%rax, 680(%rbp)
	movq	1104(%rbp), %rax
	movq	%rax, 688(%rbp)
	movq	1112(%rbp), %rax
	movq	%rax, 696(%rbp)
	.cv_loc	2 1 164 0
	jmp	.LBB2_48
.Ltmp231:
.LBB2_89:
	.cv_loc	2 1 168 0
	movb	$1, 1470(%rbp)
	movq	1152(%rbp), %rax
	movq	%rax, 672(%rbp)
	movq	1160(%rbp), %rax
	movq	%rax, 680(%rbp)
	movq	1168(%rbp), %rax
	movq	%rax, 688(%rbp)
	movq	1176(%rbp), %rax
	movq	%rax, 696(%rbp)
	.cv_loc	2 1 167 0
	jmp	.LBB2_53
.Ltmp232:
	.seh_handlerdata
	.long	($cppxdata$game_loop_test)@IMGREL
	.section	.text,"xr",one_only,game_loop_test
.Lcfi19:
	.seh_endproc
	.def	 "?dtor$90@?0?game_loop_test@4HA";
	.scl	3;
	.type	32;
	.endef
	.p2align	4, 0x90
"?dtor$90@?0?game_loop_test@4HA":
.Lcfi20:
.seh_proc "?dtor$90@?0?game_loop_test@4HA"
.LBB2_90:
	movq	%rdx, 16(%rsp)
	pushq	%rbp
.Lcfi21:
	.seh_pushreg 5
	pushq	%rsi
.Lcfi22:
	.seh_pushreg 6
	pushq	%rdi
.Lcfi23:
	.seh_pushreg 7
	subq	$64, %rsp
.Lcfi24:
	.seh_stackalloc 64
	leaq	128(%rdx), %rbp
.Lcfi25:
	.seh_endprologue
	.cv_loc	2 1 202 0
	movq	208(%rbp), %rcx
	callq	_ZN4core3ptr13drop_in_place17h0ab26a2d2bf7d751E
	.cv_loc	2 1 131 0
	nop
	addq	$64, %rsp
	popq	%rdi
	popq	%rsi
	popq	%rbp
	retq
	.seh_handlerdata
	.section	.text,"xr",one_only,game_loop_test
.Lcfi26:
	.seh_endproc
	.def	 "?dtor$91@?0?game_loop_test@4HA";
	.scl	3;
	.type	32;
	.endef
	.p2align	4, 0x90
"?dtor$91@?0?game_loop_test@4HA":
.Lcfi27:
.seh_proc "?dtor$91@?0?game_loop_test@4HA"
.LBB2_91:
	movq	%rdx, 16(%rsp)
	pushq	%rbp
.Lcfi28:
	.seh_pushreg 5
	pushq	%rsi
.Lcfi29:
	.seh_pushreg 6
	pushq	%rdi
.Lcfi30:
	.seh_pushreg 7
	subq	$64, %rsp
.Lcfi31:
	.seh_stackalloc 64
	leaq	128(%rdx), %rbp
.Lcfi32:
	.seh_endprologue
	leaq	256(%rbp), %rcx
.Ltmp233:
	.cv_loc	2 1 202 0
	callq	_ZN4core3ptr13drop_in_place17ha4f230ce768e932fE
	nop
	addq	$64, %rsp
	popq	%rdi
	popq	%rsi
	popq	%rbp
	retq
	.seh_handlerdata
	.section	.text,"xr",one_only,game_loop_test
.Lcfi33:
	.seh_endproc
	.def	 "?dtor$92@?0?game_loop_test@4HA";
	.scl	3;
	.type	32;
	.endef
	.p2align	4, 0x90
"?dtor$92@?0?game_loop_test@4HA":
.Lcfi34:
.seh_proc "?dtor$92@?0?game_loop_test@4HA"
.LBB2_92:
	movq	%rdx, 16(%rsp)
	pushq	%rbp
.Lcfi35:
	.seh_pushreg 5
	pushq	%rsi
.Lcfi36:
	.seh_pushreg 6
	pushq	%rdi
.Lcfi37:
	.seh_pushreg 7
	subq	$64, %rsp
.Lcfi38:
	.seh_stackalloc 64
	leaq	128(%rdx), %rbp
.Lcfi39:
	.seh_endprologue
	leaq	296(%rbp), %rcx
.Ltmp234:
	.cv_loc	2 1 202 0
	callq	_ZN4core3ptr13drop_in_place17hfd5168d07fb6601dE
	nop
	addq	$64, %rsp
	popq	%rdi
	popq	%rsi
	popq	%rbp
	retq
	.seh_handlerdata
	.section	.text,"xr",one_only,game_loop_test
.Lcfi40:
	.seh_endproc
	.def	 "?dtor$93@?0?game_loop_test@4HA";
	.scl	3;
	.type	32;
	.endef
	.p2align	4, 0x90
"?dtor$93@?0?game_loop_test@4HA":
.Lcfi41:
.seh_proc "?dtor$93@?0?game_loop_test@4HA"
.LBB2_93:
.Ltmp235:
	movq	%rdx, 16(%rsp)
	pushq	%rbp
.Lcfi42:
	.seh_pushreg 5
	pushq	%rsi
.Lcfi43:
	.seh_pushreg 6
	pushq	%rdi
.Lcfi44:
	.seh_pushreg 7
	subq	$64, %rsp
.Lcfi45:
	.seh_stackalloc 64
	leaq	128(%rdx), %rbp
.Ltmp236:
.Lcfi46:
	.seh_endprologue
	leaq	392(%rbp), %rcx
.Ltmp237:
	.cv_loc	2 1 144 0
	callq	_ZN4core3ptr13drop_in_place17h95b40b333f7cf603E
	nop
	addq	$64, %rsp
	popq	%rdi
	popq	%rsi
	popq	%rbp
	retq
.LBB2_82:
	.cv_loc	2 1 202 0
	movb	$0, 1468(%rbp)
	leaq	336(%rbp), %rcx
	callq	_ZN4core3ptr13drop_in_place17h99e4c59f7f744659E
	nop
	addq	$64, %rsp
	popq	%rdi
	popq	%rsi
	popq	%rbp
	retq
	.seh_handlerdata
	.section	.text,"xr",one_only,game_loop_test
.Lcfi47:
	.seh_endproc
	.def	 "?dtor$94@?0?game_loop_test@4HA";
	.scl	3;
	.type	32;
	.endef
	.p2align	4, 0x90
"?dtor$94@?0?game_loop_test@4HA":
.Lcfi48:
.seh_proc "?dtor$94@?0?game_loop_test@4HA"
.LBB2_94:
	movq	%rdx, 16(%rsp)
	pushq	%rbp
.Lcfi49:
	.seh_pushreg 5
	pushq	%rsi
.Lcfi50:
	.seh_pushreg 6
	pushq	%rdi
.Lcfi51:
	.seh_pushreg 7
	subq	$64, %rsp
.Lcfi52:
	.seh_stackalloc 64
	leaq	128(%rdx), %rbp
.Lcfi53:
	.seh_endprologue
	testb	$1, 1468(%rbp)
	jne	.LBB2_82
	jmp	.LBB2_107
.LBB2_107:
	addq	$64, %rsp
	popq	%rdi
	popq	%rsi
	popq	%rbp
	retq
	.seh_handlerdata
	.section	.text,"xr",one_only,game_loop_test
.Lcfi54:
	.seh_endproc
	.def	 "?dtor$95@?0?game_loop_test@4HA";
	.scl	3;
	.type	32;
	.endef
	.p2align	4, 0x90
"?dtor$95@?0?game_loop_test@4HA":
.Lcfi55:
.seh_proc "?dtor$95@?0?game_loop_test@4HA"
.LBB2_95:
	movq	%rdx, 16(%rsp)
	pushq	%rbp
.Lcfi56:
	.seh_pushreg 5
	pushq	%rsi
.Lcfi57:
	.seh_pushreg 6
	pushq	%rdi
.Lcfi58:
	.seh_pushreg 7
	subq	$64, %rsp
.Lcfi59:
	.seh_stackalloc 64
	leaq	128(%rdx), %rbp
.Lcfi60:
	.seh_endprologue
	leaq	624(%rbp), %rcx
.Ltmp238:
	.cv_loc	2 1 202 0
	callq	_ZN4core3ptr13drop_in_place17ha7a34af5324fdbd5E
	nop
	addq	$64, %rsp
	popq	%rdi
	popq	%rsi
	popq	%rbp
	retq
	.seh_handlerdata
	.section	.text,"xr",one_only,game_loop_test
.Lcfi61:
	.seh_endproc
	.def	 "?dtor$96@?0?game_loop_test@4HA";
	.scl	3;
	.type	32;
	.endef
	.p2align	4, 0x90
"?dtor$96@?0?game_loop_test@4HA":
.Lcfi62:
.seh_proc "?dtor$96@?0?game_loop_test@4HA"
.LBB2_96:
	movq	%rdx, 16(%rsp)
	pushq	%rbp
.Lcfi63:
	.seh_pushreg 5
	pushq	%rsi
.Lcfi64:
	.seh_pushreg 6
	pushq	%rdi
.Lcfi65:
	.seh_pushreg 7
	subq	$64, %rsp
.Lcfi66:
	.seh_stackalloc 64
	leaq	128(%rdx), %rbp
.Lcfi67:
	.seh_endprologue
	leaq	712(%rbp), %rcx
.Ltmp239:
	.cv_loc	2 1 202 0
	callq	_ZN4core3ptr13drop_in_place17h074065136f77237cE
	nop
	addq	$64, %rsp
	popq	%rdi
	popq	%rsi
	popq	%rbp
	retq
	.seh_handlerdata
	.section	.text,"xr",one_only,game_loop_test
.Lcfi68:
	.seh_endproc
	.def	 "?dtor$97@?0?game_loop_test@4HA";
	.scl	3;
	.type	32;
	.endef
	.p2align	4, 0x90
"?dtor$97@?0?game_loop_test@4HA":
.Lcfi69:
.seh_proc "?dtor$97@?0?game_loop_test@4HA"
.LBB2_97:
	movq	%rdx, 16(%rsp)
	pushq	%rbp
.Lcfi70:
	.seh_pushreg 5
	pushq	%rsi
.Lcfi71:
	.seh_pushreg 6
	pushq	%rdi
.Lcfi72:
	.seh_pushreg 7
	subq	$64, %rsp
.Lcfi73:
	.seh_stackalloc 64
	leaq	128(%rdx), %rbp
.Lcfi74:
	.seh_endprologue
	leaq	760(%rbp), %rcx
.Ltmp240:
	.cv_loc	2 1 202 0
	callq	_ZN4core3ptr13drop_in_place17h7c7c1d680f53f2fbE
	nop
	addq	$64, %rsp
	popq	%rdi
	popq	%rsi
	popq	%rbp
	retq
	.seh_handlerdata
	.section	.text,"xr",one_only,game_loop_test
.Lcfi75:
	.seh_endproc
	.def	 "?dtor$98@?0?game_loop_test@4HA";
	.scl	3;
	.type	32;
	.endef
	.p2align	4, 0x90
"?dtor$98@?0?game_loop_test@4HA":
.Lcfi76:
.seh_proc "?dtor$98@?0?game_loop_test@4HA"
.LBB2_98:
	movq	%rdx, 16(%rsp)
	pushq	%rbp
.Lcfi77:
	.seh_pushreg 5
	pushq	%rsi
.Lcfi78:
	.seh_pushreg 6
	pushq	%rdi
.Lcfi79:
	.seh_pushreg 7
	subq	$64, %rsp
.Lcfi80:
	.seh_stackalloc 64
	leaq	128(%rdx), %rbp
.Lcfi81:
	.seh_endprologue
	leaq	976(%rbp), %rcx
.Ltmp241:
	.cv_loc	2 1 183 0
	callq	_ZN4core3ptr13drop_in_place17hdbea6ed0fa8ba53bE
	nop
	addq	$64, %rsp
	popq	%rdi
	popq	%rsi
	popq	%rbp
	retq
.Ltmp242:
.LBB2_83:
	.cv_loc	2 1 202 0
	movb	$0, 1469(%rbp)
	leaq	480(%rbp), %rcx
	callq	_ZN4core3ptr13drop_in_place17h3cba2928835bac32E
	nop
	addq	$64, %rsp
	popq	%rdi
	popq	%rsi
	popq	%rbp
	retq
	.seh_handlerdata
	.section	.text,"xr",one_only,game_loop_test
.Lcfi82:
	.seh_endproc
	.def	 "?dtor$99@?0?game_loop_test@4HA";
	.scl	3;
	.type	32;
	.endef
	.p2align	4, 0x90
"?dtor$99@?0?game_loop_test@4HA":
.Lcfi83:
.seh_proc "?dtor$99@?0?game_loop_test@4HA"
.LBB2_99:
	movq	%rdx, 16(%rsp)
	pushq	%rbp
.Lcfi84:
	.seh_pushreg 5
	pushq	%rsi
.Lcfi85:
	.seh_pushreg 6
	pushq	%rdi
.Lcfi86:
	.seh_pushreg 7
	subq	$64, %rsp
.Lcfi87:
	.seh_stackalloc 64
	leaq	128(%rdx), %rbp
.Lcfi88:
	.seh_endprologue
	testb	$1, 1469(%rbp)
	jne	.LBB2_83
	jmp	.LBB2_106
.LBB2_106:
	addq	$64, %rsp
	popq	%rdi
	popq	%rsi
	popq	%rbp
	retq
.LBB2_84:
.Ltmp243:
	.cv_loc	2 1 202 0
	movb	$0, 1470(%rbp)
	leaq	672(%rbp), %rcx
	callq	_ZN4core3ptr13drop_in_place17h5bfb803e786f258cE
	nop
	addq	$64, %rsp
	popq	%rdi
	popq	%rsi
	popq	%rbp
	retq
	.seh_handlerdata
	.section	.text,"xr",one_only,game_loop_test
.Lcfi89:
	.seh_endproc
	.def	 "?dtor$100@?0?game_loop_test@4HA";
	.scl	3;
	.type	32;
	.endef
	.p2align	4, 0x90
"?dtor$100@?0?game_loop_test@4HA":
.Lcfi90:
.seh_proc "?dtor$100@?0?game_loop_test@4HA"
.LBB2_100:
	movq	%rdx, 16(%rsp)
	pushq	%rbp
.Lcfi91:
	.seh_pushreg 5
	pushq	%rsi
.Lcfi92:
	.seh_pushreg 6
	pushq	%rdi
.Lcfi93:
	.seh_pushreg 7
	subq	$64, %rsp
.Lcfi94:
	.seh_stackalloc 64
	leaq	128(%rdx), %rbp
.Lcfi95:
	.seh_endprologue
	testb	$1, 1470(%rbp)
	jne	.LBB2_84
	jmp	.LBB2_105
.LBB2_105:
	addq	$64, %rsp
	popq	%rdi
	popq	%rsi
	popq	%rbp
	retq
.LBB2_85:
.Ltmp244:
	.cv_loc	2 1 183 0
	movb	$0, 1471(%rbp)
	leaq	784(%rbp), %rcx
	callq	_ZN4core3ptr13drop_in_place17hdbea6ed0fa8ba53bE
	nop
	addq	$64, %rsp
	popq	%rdi
	popq	%rsi
	popq	%rbp
	retq
	.seh_handlerdata
	.section	.text,"xr",one_only,game_loop_test
.Lcfi96:
	.seh_endproc
	.def	 "?dtor$101@?0?game_loop_test@4HA";
	.scl	3;
	.type	32;
	.endef
	.p2align	4, 0x90
"?dtor$101@?0?game_loop_test@4HA":
.Lcfi97:
.seh_proc "?dtor$101@?0?game_loop_test@4HA"
.LBB2_101:
	movq	%rdx, 16(%rsp)
	pushq	%rbp
.Lcfi98:
	.seh_pushreg 5
	pushq	%rsi
.Lcfi99:
	.seh_pushreg 6
	pushq	%rdi
.Lcfi100:
	.seh_pushreg 7
	subq	$64, %rsp
.Lcfi101:
	.seh_stackalloc 64
	leaq	128(%rdx), %rbp
.Lcfi102:
	.seh_endprologue
	testb	$1, 1471(%rbp)
	jne	.LBB2_85
	jmp	.LBB2_104
.LBB2_104:
	addq	$64, %rsp
	popq	%rdi
	popq	%rsi
	popq	%rbp
	retq
	.seh_handlerdata
	.section	.text,"xr",one_only,game_loop_test
.Lcfi103:
	.seh_endproc
	.def	 "?dtor$102@?0?game_loop_test@4HA";
	.scl	3;
	.type	32;
	.endef
	.p2align	4, 0x90
"?dtor$102@?0?game_loop_test@4HA":
.Lcfi104:
.seh_proc "?dtor$102@?0?game_loop_test@4HA"
.LBB2_102:
.Ltmp245:
	movq	%rdx, 16(%rsp)
	pushq	%rbp
.Lcfi105:
	.seh_pushreg 5
.Ltmp246:
	pushq	%rsi
.Lcfi106:
	.seh_pushreg 6
	pushq	%rdi
.Lcfi107:
	.seh_pushreg 7
	subq	$64, %rsp
.Lcfi108:
	.seh_stackalloc 64
	leaq	128(%rdx), %rbp
.Ltmp247:
.Lcfi109:
	.seh_endprologue
	.cv_loc	2 1 165 0
	movb	$1, 1470(%rbp)
	movaps	1088(%rbp), %xmm0
	movaps	1104(%rbp), %xmm1
	movaps	%xmm1, 688(%rbp)
	movaps	%xmm0, 672(%rbp)
	addq	$64, %rsp
	popq	%rdi
	popq	%rsi
	popq	%rbp
	retq
	.seh_handlerdata
	.section	.text,"xr",one_only,game_loop_test
.Lcfi110:
	.seh_endproc
	.def	 "?dtor$103@?0?game_loop_test@4HA";
	.scl	3;
	.type	32;
	.endef
	.p2align	4, 0x90
"?dtor$103@?0?game_loop_test@4HA":
.Lcfi111:
.seh_proc "?dtor$103@?0?game_loop_test@4HA"
.LBB2_103:
.Ltmp248:
	movq	%rdx, 16(%rsp)
	pushq	%rbp
.Lcfi112:
	.seh_pushreg 5
	pushq	%rsi
.Lcfi113:
	.seh_pushreg 6
	pushq	%rdi
.Lcfi114:
	.seh_pushreg 7
	subq	$64, %rsp
.Lcfi115:
	.seh_stackalloc 64
	leaq	128(%rdx), %rbp
.Ltmp249:
.Lcfi116:
	.seh_endprologue
	.cv_loc	2 1 168 0
	movb	$1, 1470(%rbp)
	movaps	1152(%rbp), %xmm0
	movaps	1168(%rbp), %xmm1
	movaps	%xmm1, 688(%rbp)
	movaps	%xmm0, 672(%rbp)
	addq	$64, %rsp
	popq	%rdi
	popq	%rsi
	popq	%rbp
	retq
.Ltmp250:
.Lfunc_end2:
	.seh_handlerdata
	.section	.text,"xr",one_only,game_loop_test
.Lcfi117:
	.seh_endproc
	.section	.xdata,"dr",associative,game_loop_test
	.p2align	2
$cppxdata$game_loop_test:
	.long	429065506
	.long	14
	.long	($stateUnwindMap$game_loop_test)@IMGREL
	.long	0
	.long	0
	.long	28
	.long	($ip2state$game_loop_test)@IMGREL
	.long	1608
	.long	0
	.long	1
$stateUnwindMap$game_loop_test:
	.long	-1
	.long	"?dtor$90@?0?game_loop_test@4HA"@IMGREL
	.long	0
	.long	"?dtor$91@?0?game_loop_test@4HA"@IMGREL
	.long	1
	.long	"?dtor$92@?0?game_loop_test@4HA"@IMGREL
	.long	2
	.long	"?dtor$94@?0?game_loop_test@4HA"@IMGREL
	.long	3
	.long	"?dtor$99@?0?game_loop_test@4HA"@IMGREL
	.long	4
	.long	"?dtor$95@?0?game_loop_test@4HA"@IMGREL
	.long	5
	.long	"?dtor$100@?0?game_loop_test@4HA"@IMGREL
	.long	6
	.long	"?dtor$96@?0?game_loop_test@4HA"@IMGREL
	.long	7
	.long	"?dtor$97@?0?game_loop_test@4HA"@IMGREL
	.long	8
	.long	"?dtor$101@?0?game_loop_test@4HA"@IMGREL
	.long	9
	.long	"?dtor$98@?0?game_loop_test@4HA"@IMGREL
	.long	10
	.long	"?dtor$103@?0?game_loop_test@4HA"@IMGREL
	.long	10
	.long	"?dtor$102@?0?game_loop_test@4HA"@IMGREL
	.long	2
	.long	"?dtor$93@?0?game_loop_test@4HA"@IMGREL
$ip2state$game_loop_test:
	.long	.Lfunc_begin2@IMGREL
	.long	-1
	.long	.Ltmp4@IMGREL+1
	.long	0
	.long	.Ltmp8@IMGREL+1
	.long	1
	.long	.Ltmp12@IMGREL+1
	.long	2
	.long	.Ltmp16@IMGREL+1
	.long	13
	.long	.Ltmp24@IMGREL+1
	.long	3
	.long	.Ltmp34@IMGREL+1
	.long	4
	.long	.Ltmp46@IMGREL+1
	.long	5
	.long	.Ltmp48@IMGREL+1
	.long	6
	.long	.Ltmp50@IMGREL+1
	.long	7
	.long	.Ltmp52@IMGREL+1
	.long	8
	.long	.Ltmp70@IMGREL+1
	.long	9
	.long	.Ltmp91@IMGREL+1
	.long	-1
	.long	.Ltmp92@IMGREL+1
	.long	8
	.long	.Ltmp86@IMGREL+1
	.long	12
	.long	.Ltmp76@IMGREL+1
	.long	10
	.long	.Ltmp88@IMGREL+1
	.long	9
	.long	.Ltmp84@IMGREL+1
	.long	11
	.long	.Ltmp80@IMGREL+1
	.long	10
	.long	.Ltmp94@IMGREL+1
	.long	8
	.long	.Ltmp56@IMGREL+1
	.long	7
	.long	.Ltmp58@IMGREL+1
	.long	6
	.long	.Ltmp60@IMGREL+1
	.long	4
	.long	.Ltmp62@IMGREL+1
	.long	1
	.long	.Ltmp64@IMGREL+1
	.long	0
	.long	.Ltmp65@IMGREL+1
	.long	-1
	.long	.Ltmp72@IMGREL+1
	.long	9
	.long	.Ltmp73@IMGREL+1
	.long	-1
	.section	.text,"xr",one_only,game_loop_test

	.section	.rdata,"dr",one_only,str.0
str.0:
	.ascii	"src\\lib.rs"

	.section	.rdata,"dr",one_only,str.1
	.p2align	4
str.1:
	.ascii	"attempt to multiply with overflow"

	.section	.rdata,"dr",one_only,panic_loc.2
	.p2align	3
panic_loc.2:
	.quad	str.1
	.quad	33
	.quad	str.0
	.quad	10
	.long	121
	.long	99

	.section	.rdata,"dr",one_only,str.3
str.3:

	.section	.rdata,"dr",one_only,str.4
str.4:
	.byte	10

	.section	.rdata,"dr",one_only,ref.5
	.p2align	3
ref.5:
	.quad	str.3
	.quad	0
	.quad	str.4
	.quad	1

	.section	.rdata,"dr",one_only,ref.6
	.p2align	3
ref.6:
	.quad	1
	.quad	0
	.quad	3
	.zero	8
	.quad	3
	.zero	8
	.long	32
	.long	0
	.byte	3
	.zero	7

	.section	.rdata,"dr",one_only,const.7
	.p2align	3
const.7:
	.quad	ref.6
