	.text
	.def	 _ZN5alloc9allocator10size_align17hf23daf66807575cfE;
	.scl	3;
	.type	32;
	.endef
	.section	.text,"xr",one_only,_ZN5alloc9allocator10size_align17hf23daf66807575cfE
	.p2align	4, 0x90
_ZN5alloc9allocator10size_align17hf23daf66807575cfE:
.Lfunc_begin0:
	.cv_func_id 0
	.cv_file	1 "C:\\projects\\rust\\src\\liballoc\\allocator.rs"
	.cv_loc	0 1 29 0 is_stmt 0
.Lcfi0:
.seh_proc _ZN5alloc9allocator10size_align17hf23daf66807575cfE
	pushq	%rbp
.Lcfi1:
	.seh_pushreg 5
.Ltmp0:
	subq	$64, %rsp
.Lcfi2:
	.seh_stackalloc 64
	leaq	64(%rsp), %rbp
.Lcfi3:
	.seh_setframe 5, 64
.Lcfi4:
	.seh_endprologue
	.cv_loc	0 1 30 0
	callq	_ZN4core3mem7size_of17h3229ec5c83280b08E
	movq	%rax, -24(%rbp)
	callq	_ZN4core3mem8align_of17hfb6e9a6ade20c9baE
	movq	%rax, -32(%rbp)
	movq	-24(%rbp), %rax
	movq	%rax, -16(%rbp)
	movq	-32(%rbp), %rcx
	movq	%rcx, -8(%rbp)
	.cv_loc	0 1 31 0
	movq	-16(%rbp), %rax
	movq	-8(%rbp), %rdx
	addq	$64, %rsp
	popq	%rbp
	retq
.Ltmp1:
.Lfunc_end0:
	.seh_handlerdata
	.section	.text,"xr",one_only,_ZN5alloc9allocator10size_align17hf23daf66807575cfE
.Lcfi5:
	.seh_endproc

	.def	 _ZN5alloc9allocator5Alloc11alloc_array28_$u7b$$u7b$closure$u7d$$u7d$17h4b86e9194ee67686E;
	.scl	2;
	.type	32;
	.endef
	.section	.text,"xr",one_only,_ZN5alloc9allocator5Alloc11alloc_array28_$u7b$$u7b$closure$u7d$$u7d$17h4b86e9194ee67686E
	.globl	_ZN5alloc9allocator5Alloc11alloc_array28_$u7b$$u7b$closure$u7d$$u7d$17h4b86e9194ee67686E
	.p2align	4, 0x90
_ZN5alloc9allocator5Alloc11alloc_array28_$u7b$$u7b$closure$u7d$$u7d$17h4b86e9194ee67686E:
.Lfunc_begin1:
	.cv_func_id 1
	.cv_loc	1 1 973 0
.Lcfi6:
.seh_proc _ZN5alloc9allocator5Alloc11alloc_array28_$u7b$$u7b$closure$u7d$$u7d$17h4b86e9194ee67686E
	pushq	%rbp
.Lcfi7:
	.seh_pushreg 5
	subq	$64, %rsp
.Lcfi8:
	.seh_stackalloc 64
	leaq	64(%rsp), %rbp
.Lcfi9:
	.seh_setframe 5, 64
.Lcfi10:
	.seh_endprologue
	movq	%rcx, -8(%rbp)
.Ltmp2:
	.cv_loc	1 1 974 0
	movq	-8(%rbp), %rcx
	callq	_ZN36_$LT$core..ptr..NonNull$LT$T$GT$$GT$13new_unchecked17h37c850a542f83c5bE
	movq	%rax, -24(%rbp)
	.cv_loc	1 1 975 0
	movq	-24(%rbp), %rax
	addq	$64, %rsp
	popq	%rbp
	retq
.Ltmp3:
.Lfunc_end1:
	.seh_handlerdata
	.section	.text,"xr",one_only,_ZN5alloc9allocator5Alloc11alloc_array28_$u7b$$u7b$closure$u7d$$u7d$17h4b86e9194ee67686E
.Lcfi11:
	.seh_endproc

	.def	 _ZN5alloc9allocator6Layout3new17h6e14186c6ba3dac1E;
	.scl	3;
	.type	32;
	.endef
	.section	.text,"xr",one_only,_ZN5alloc9allocator6Layout3new17h6e14186c6ba3dac1E
	.p2align	4, 0x90
_ZN5alloc9allocator6Layout3new17h6e14186c6ba3dac1E:
.Lfunc_begin2:
	.cv_func_id 2
	.cv_loc	2 1 133 0
.Lcfi12:
.seh_proc _ZN5alloc9allocator6Layout3new17h6e14186c6ba3dac1E
	pushq	%rbp
.Lcfi13:
	.seh_pushreg 5
.Ltmp4:
	subq	$112, %rsp
.Lcfi14:
	.seh_stackalloc 112
	leaq	112(%rsp), %rbp
.Lcfi15:
	.seh_setframe 5, 112
.Lcfi16:
	.seh_endprologue
	.cv_loc	2 1 134 0
	callq	_ZN5alloc9allocator10size_align17hf23daf66807575cfE
	movq	%rax, -48(%rbp)
	movq	%rdx, -56(%rbp)
	leaq	-24(%rbp), %rcx
	movq	-48(%rbp), %rax
	movq	%rax, -40(%rbp)
	movq	-56(%rbp), %rdx
	movq	%rdx, -32(%rbp)
.Ltmp5:
	.cv_loc	2 1 135 0
	movq	-40(%rbp), %rdx
	movq	-32(%rbp), %r8
	callq	_ZN5alloc9allocator6Layout15from_size_align17hab64bbdbc929b8bbE
	leaq	-24(%rbp), %rcx
	callq	_ZN38_$LT$core..option..Option$LT$T$GT$$GT$6unwrap17hbc899c9fc81cc1ccE
	movq	%rax, -64(%rbp)
	movq	%rdx, -72(%rbp)
.Ltmp6:
	.cv_loc	2 1 136 0
	movq	-64(%rbp), %rax
	movq	-72(%rbp), %rdx
	addq	$112, %rsp
	popq	%rbp
	retq
.Ltmp7:
.Lfunc_end2:
	.seh_handlerdata
	.section	.text,"xr",one_only,_ZN5alloc9allocator6Layout3new17h6e14186c6ba3dac1E
.Lcfi17:
	.seh_endproc

	.def	 _ZN5alloc9allocator6Layout5array17h0657dbd9b4647c37E;
	.scl	2;
	.type	32;
	.endef
	.section	.text,"xr",one_only,_ZN5alloc9allocator6Layout5array17h0657dbd9b4647c37E
	.globl	_ZN5alloc9allocator6Layout5array17h0657dbd9b4647c37E
	.p2align	4, 0x90
_ZN5alloc9allocator6Layout5array17h0657dbd9b4647c37E:
.Lfunc_begin3:
	.cv_func_id 3
	.cv_loc	3 1 295 0
.Lcfi18:
.seh_proc _ZN5alloc9allocator6Layout5array17h0657dbd9b4647c37E
	pushq	%rbp
.Lcfi19:
	.seh_pushreg 5
	subq	$112, %rsp
.Lcfi20:
	.seh_stackalloc 112
	leaq	112(%rsp), %rbp
.Lcfi21:
	.seh_setframe 5, 112
.Lcfi22:
	.seh_endprologue
	movq	%rcx, %rax
	movq	%rdx, -56(%rbp)
.Ltmp8:
	.cv_loc	3 1 296 0
	movq	%rax, -64(%rbp)
	movq	%rcx, -72(%rbp)
	callq	_ZN5alloc9allocator6Layout3new17h6e14186c6ba3dac1E
	movq	%rdx, -8(%rbp)
	movq	%rax, -16(%rbp)
.Ltmp9:
	leaq	-48(%rbp), %rcx
	leaq	-16(%rbp), %rdx
	.cv_loc	3 1 297 0
	movq	-56(%rbp), %r8
	.cv_loc	3 1 296 0
	callq	_ZN5alloc9allocator6Layout6repeat17h98887a56a1186815E
.Ltmp10:
	leaq	-48(%rbp), %rdx
	movq	-72(%rbp), %rcx
	callq	_ZN38_$LT$core..option..Option$LT$T$GT$$GT$3map17h74e864a39d2df0cbE
.Ltmp11:
	.cv_loc	3 1 302 0
	movq	-64(%rbp), %rax
	addq	$112, %rsp
	popq	%rbp
.Ltmp12:
	retq
.Ltmp13:
.Lfunc_end3:
	.seh_handlerdata
	.section	.text,"xr",one_only,_ZN5alloc9allocator6Layout5array17h0657dbd9b4647c37E
.Lcfi23:
	.seh_endproc

	.def	 _ZN5alloc9allocator6Layout5array28_$u7b$$u7b$closure$u7d$$u7d$17h98f3a7f6b9a01548E;
	.scl	2;
	.type	32;
	.endef
	.section	.text,"xr",one_only,_ZN5alloc9allocator6Layout5array28_$u7b$$u7b$closure$u7d$$u7d$17h98f3a7f6b9a01548E
	.globl	_ZN5alloc9allocator6Layout5array28_$u7b$$u7b$closure$u7d$$u7d$17h98f3a7f6b9a01548E
	.p2align	4, 0x90
_ZN5alloc9allocator6Layout5array28_$u7b$$u7b$closure$u7d$$u7d$17h98f3a7f6b9a01548E:
.Lfunc_begin4:
	.cv_func_id 4
	.cv_loc	4 1 298 0
.Lcfi24:
.seh_proc _ZN5alloc9allocator6Layout5array28_$u7b$$u7b$closure$u7d$$u7d$17h98f3a7f6b9a01548E
	pushq	%rbp
.Lcfi25:
	.seh_pushreg 5
.Ltmp14:
	subq	$32, %rsp
.Lcfi26:
	.seh_stackalloc 32
	leaq	32(%rsp), %rbp
.Lcfi27:
	.seh_setframe 5, 32
.Lcfi28:
	.seh_endprologue
	movq	(%rcx), %rax
	movq	8(%rcx), %rdx
	movq	%rax, -24(%rbp)
	movq	%rdx, -16(%rbp)
	movq	16(%rcx), %rax
	movq	%rax, -8(%rbp)
.Ltmp15:
	.cv_loc	4 1 300 0
	movq	-24(%rbp), %rax
	movq	-16(%rbp), %rdx
.Ltmp16:
	.cv_loc	4 1 301 0
	addq	$32, %rsp
	popq	%rbp
	retq
.Ltmp17:
.Lfunc_end4:
	.seh_handlerdata
	.section	.text,"xr",one_only,_ZN5alloc9allocator6Layout5array28_$u7b$$u7b$closure$u7d$$u7d$17h98f3a7f6b9a01548E
.Lcfi29:
	.seh_endproc

	.def	 _ZN5alloc9allocator6Layout9for_value17h53a05aa62f84576aE;
	.scl	2;
	.type	32;
	.endef
	.section	.text,"xr",one_only,_ZN5alloc9allocator6Layout9for_value17h53a05aa62f84576aE
	.globl	_ZN5alloc9allocator6Layout9for_value17h53a05aa62f84576aE
	.p2align	4, 0x90
_ZN5alloc9allocator6Layout9for_value17h53a05aa62f84576aE:
.Lfunc_begin5:
	.cv_func_id 5
	.cv_loc	5 1 141 0
.Lcfi30:
.seh_proc _ZN5alloc9allocator6Layout9for_value17h53a05aa62f84576aE
	pushq	%rbp
.Lcfi31:
	.seh_pushreg 5
	subq	$128, %rsp
.Lcfi32:
	.seh_stackalloc 128
	leaq	128(%rsp), %rbp
.Lcfi33:
	.seh_setframe 5, 128
.Lcfi34:
	.seh_endprologue
	movq	%rcx, -64(%rbp)
.Ltmp18:
	.cv_loc	5 1 142 0
	movq	-64(%rbp), %rcx
	callq	_ZN4core3mem11size_of_val17h6a3c98312c8a1402E
	movq	%rax, -72(%rbp)
	movq	-64(%rbp), %rcx
	callq	_ZN4core3mem12align_of_val17hc8f0cb0c84aa0d7cE
	movq	%rax, -80(%rbp)
	leaq	-24(%rbp), %rcx
	movq	-72(%rbp), %rax
	movq	%rax, -40(%rbp)
	movq	-80(%rbp), %rdx
	movq	%rdx, -32(%rbp)
	movq	-40(%rbp), %r8
	movq	%r8, -56(%rbp)
	movq	-32(%rbp), %r8
	movq	%r8, -48(%rbp)
.Ltmp19:
	.cv_loc	5 1 143 0
	movq	-56(%rbp), %rdx
	movq	-48(%rbp), %r8
	callq	_ZN5alloc9allocator6Layout15from_size_align17hab64bbdbc929b8bbE
	leaq	-24(%rbp), %rcx
	callq	_ZN38_$LT$core..option..Option$LT$T$GT$$GT$6unwrap17hbc899c9fc81cc1ccE
	movq	%rax, -88(%rbp)
	movq	%rdx, -96(%rbp)
.Ltmp20:
	.cv_loc	5 1 144 0
	movq	-88(%rbp), %rax
	movq	-96(%rbp), %rdx
	addq	$128, %rsp
	popq	%rbp
	retq
.Ltmp21:
.Lfunc_end5:
	.seh_handlerdata
	.section	.text,"xr",one_only,_ZN5alloc9allocator6Layout9for_value17h53a05aa62f84576aE
.Lcfi35:
	.seh_endproc

	.def	 _ZN5alloc9allocator6Layout9for_value17h5d2c0c1749a0a8ccE;
	.scl	2;
	.type	32;
	.endef
	.section	.text,"xr",one_only,_ZN5alloc9allocator6Layout9for_value17h5d2c0c1749a0a8ccE
	.globl	_ZN5alloc9allocator6Layout9for_value17h5d2c0c1749a0a8ccE
	.p2align	4, 0x90
_ZN5alloc9allocator6Layout9for_value17h5d2c0c1749a0a8ccE:
.Lfunc_begin6:
	.cv_func_id 6
	.cv_loc	6 1 141 0
.Lcfi36:
.seh_proc _ZN5alloc9allocator6Layout9for_value17h5d2c0c1749a0a8ccE
	pushq	%rbp
.Lcfi37:
	.seh_pushreg 5
	subq	$128, %rsp
.Lcfi38:
	.seh_stackalloc 128
	leaq	128(%rsp), %rbp
.Lcfi39:
	.seh_setframe 5, 128
.Lcfi40:
	.seh_endprologue
	movq	%rcx, -64(%rbp)
.Ltmp22:
	.cv_loc	6 1 142 0
	movq	-64(%rbp), %rcx
	callq	_ZN4core3mem11size_of_val17h7878d6a241d5cc73E
	movq	%rax, -72(%rbp)
	movq	-64(%rbp), %rcx
	callq	_ZN4core3mem12align_of_val17h6fe3471923f35a51E
	movq	%rax, -80(%rbp)
	leaq	-24(%rbp), %rcx
	movq	-72(%rbp), %rax
	movq	%rax, -40(%rbp)
	movq	-80(%rbp), %rdx
	movq	%rdx, -32(%rbp)
	movq	-40(%rbp), %r8
	movq	%r8, -56(%rbp)
	movq	-32(%rbp), %r8
	movq	%r8, -48(%rbp)
.Ltmp23:
	.cv_loc	6 1 143 0
	movq	-56(%rbp), %rdx
	movq	-48(%rbp), %r8
	callq	_ZN5alloc9allocator6Layout15from_size_align17hab64bbdbc929b8bbE
	leaq	-24(%rbp), %rcx
	callq	_ZN38_$LT$core..option..Option$LT$T$GT$$GT$6unwrap17hbc899c9fc81cc1ccE
	movq	%rax, -88(%rbp)
	movq	%rdx, -96(%rbp)
.Ltmp24:
	.cv_loc	6 1 144 0
	movq	-88(%rbp), %rax
	movq	-96(%rbp), %rdx
	addq	$128, %rsp
	popq	%rbp
	retq
.Ltmp25:
.Lfunc_end6:
	.seh_handlerdata
	.section	.text,"xr",one_only,_ZN5alloc9allocator6Layout9for_value17h5d2c0c1749a0a8ccE
.Lcfi41:
	.seh_endproc

	.def	 _ZN5alloc9allocator6Layout9for_value17h68b3e4049b0a8b9eE;
	.scl	2;
	.type	32;
	.endef
	.section	.text,"xr",one_only,_ZN5alloc9allocator6Layout9for_value17h68b3e4049b0a8b9eE
	.globl	_ZN5alloc9allocator6Layout9for_value17h68b3e4049b0a8b9eE
	.p2align	4, 0x90
_ZN5alloc9allocator6Layout9for_value17h68b3e4049b0a8b9eE:
.Lfunc_begin7:
	.cv_func_id 7
	.cv_loc	7 1 141 0
.Lcfi42:
.seh_proc _ZN5alloc9allocator6Layout9for_value17h68b3e4049b0a8b9eE
	pushq	%rbp
.Lcfi43:
	.seh_pushreg 5
	subq	$128, %rsp
.Lcfi44:
	.seh_stackalloc 128
	leaq	128(%rsp), %rbp
.Lcfi45:
	.seh_setframe 5, 128
.Lcfi46:
	.seh_endprologue
	movq	%rcx, -64(%rbp)
.Ltmp26:
	.cv_loc	7 1 142 0
	movq	-64(%rbp), %rcx
	callq	_ZN4core3mem11size_of_val17ha7a5fac4a94fdd4dE
	movq	%rax, -72(%rbp)
	movq	-64(%rbp), %rcx
	callq	_ZN4core3mem12align_of_val17heaa9adf166dd083fE
	movq	%rax, -80(%rbp)
	leaq	-24(%rbp), %rcx
	movq	-72(%rbp), %rax
	movq	%rax, -40(%rbp)
	movq	-80(%rbp), %rdx
	movq	%rdx, -32(%rbp)
	movq	-40(%rbp), %r8
	movq	%r8, -56(%rbp)
	movq	-32(%rbp), %r8
	movq	%r8, -48(%rbp)
.Ltmp27:
	.cv_loc	7 1 143 0
	movq	-56(%rbp), %rdx
	movq	-48(%rbp), %r8
	callq	_ZN5alloc9allocator6Layout15from_size_align17hab64bbdbc929b8bbE
	leaq	-24(%rbp), %rcx
	callq	_ZN38_$LT$core..option..Option$LT$T$GT$$GT$6unwrap17hbc899c9fc81cc1ccE
	movq	%rax, -88(%rbp)
	movq	%rdx, -96(%rbp)
.Ltmp28:
	.cv_loc	7 1 144 0
	movq	-88(%rbp), %rax
	movq	-96(%rbp), %rdx
	addq	$128, %rsp
	popq	%rbp
	retq
.Ltmp29:
.Lfunc_end7:
	.seh_handlerdata
	.section	.text,"xr",one_only,_ZN5alloc9allocator6Layout9for_value17h68b3e4049b0a8b9eE
.Lcfi47:
	.seh_endproc

	.def	 _ZN5alloc9allocator6Layout9for_value17hb566f79f605d4454E;
	.scl	2;
	.type	32;
	.endef
	.section	.text,"xr",one_only,_ZN5alloc9allocator6Layout9for_value17hb566f79f605d4454E
	.globl	_ZN5alloc9allocator6Layout9for_value17hb566f79f605d4454E
	.p2align	4, 0x90
_ZN5alloc9allocator6Layout9for_value17hb566f79f605d4454E:
.Lfunc_begin8:
	.cv_func_id 8
	.cv_loc	8 1 141 0
.Lcfi48:
.seh_proc _ZN5alloc9allocator6Layout9for_value17hb566f79f605d4454E
	pushq	%rbp
.Lcfi49:
	.seh_pushreg 5
	subq	$128, %rsp
.Lcfi50:
	.seh_stackalloc 128
	leaq	128(%rsp), %rbp
.Lcfi51:
	.seh_setframe 5, 128
.Lcfi52:
	.seh_endprologue
	movq	%rcx, -64(%rbp)
.Ltmp30:
	.cv_loc	8 1 142 0
	movq	-64(%rbp), %rcx
	callq	_ZN4core3mem11size_of_val17h8a25cdc0adb37862E
	movq	%rax, -72(%rbp)
	movq	-64(%rbp), %rcx
	callq	_ZN4core3mem12align_of_val17h0fd4131ef6a1ea10E
	movq	%rax, -80(%rbp)
	leaq	-24(%rbp), %rcx
	movq	-72(%rbp), %rax
	movq	%rax, -40(%rbp)
	movq	-80(%rbp), %rdx
	movq	%rdx, -32(%rbp)
	movq	-40(%rbp), %r8
	movq	%r8, -56(%rbp)
	movq	-32(%rbp), %r8
	movq	%r8, -48(%rbp)
.Ltmp31:
	.cv_loc	8 1 143 0
	movq	-56(%rbp), %rdx
	movq	-48(%rbp), %r8
	callq	_ZN5alloc9allocator6Layout15from_size_align17hab64bbdbc929b8bbE
	leaq	-24(%rbp), %rcx
	callq	_ZN38_$LT$core..option..Option$LT$T$GT$$GT$6unwrap17hbc899c9fc81cc1ccE
	movq	%rax, -88(%rbp)
	movq	%rdx, -96(%rbp)
.Ltmp32:
	.cv_loc	8 1 144 0
	movq	-88(%rbp), %rax
	movq	-96(%rbp), %rdx
	addq	$128, %rsp
	popq	%rbp
	retq
.Ltmp33:
.Lfunc_end8:
	.seh_handlerdata
	.section	.text,"xr",one_only,_ZN5alloc9allocator6Layout9for_value17hb566f79f605d4454E
.Lcfi53:
	.seh_endproc
