	.text
	.def	 _ZN4core3ptr13drop_in_place17h06c8cbb18e6dbabcE;
	.scl	2;
	.type	32;
	.endef
	.section	.text,"xr",one_only,_ZN4core3ptr13drop_in_place17h06c8cbb18e6dbabcE
	.globl	_ZN4core3ptr13drop_in_place17h06c8cbb18e6dbabcE
	.p2align	4, 0x90
_ZN4core3ptr13drop_in_place17h06c8cbb18e6dbabcE:
.Lfunc_begin0:
	.cv_func_id 0
	.cv_file	1 "C:\\projects\\rust\\src\\libcore\\ptr.rs"
	.cv_loc	0 1 59 0 is_stmt 0
.Lcfi0:
.seh_proc _ZN4core3ptr13drop_in_place17h06c8cbb18e6dbabcE
	pushq	%rbp
.Lcfi1:
	.seh_pushreg 5
	subq	$48, %rsp
.Lcfi2:
	.seh_stackalloc 48
	leaq	48(%rsp), %rbp
.Lcfi3:
	.seh_setframe 5, 48
.Lcfi4:
	.seh_endprologue
	movq	%rcx, -8(%rbp)
.Ltmp0:
	movq	-8(%rbp), %rcx
	callq	_ZN4core3ptr13drop_in_place17he6f7d486b9358812E
	nop
	addq	$48, %rsp
	popq	%rbp
	retq
.Ltmp1:
.Lfunc_end0:
	.seh_handlerdata
	.section	.text,"xr",one_only,_ZN4core3ptr13drop_in_place17h06c8cbb18e6dbabcE
.Lcfi5:
	.seh_endproc

	.def	 _ZN4core3ptr13drop_in_place17h13462837c551f340E;
	.scl	2;
	.type	32;
	.endef
	.section	.text,"xr",one_only,_ZN4core3ptr13drop_in_place17h13462837c551f340E
	.globl	_ZN4core3ptr13drop_in_place17h13462837c551f340E
	.p2align	4, 0x90
_ZN4core3ptr13drop_in_place17h13462837c551f340E:
.Lfunc_begin1:
	.cv_func_id 1
	.cv_loc	1 1 59 0
.Lcfi6:
.seh_proc _ZN4core3ptr13drop_in_place17h13462837c551f340E
	pushq	%rbp
.Lcfi7:
	.seh_pushreg 5
	subq	$48, %rsp
.Lcfi8:
	.seh_stackalloc 48
	leaq	48(%rsp), %rbp
.Lcfi9:
	.seh_setframe 5, 48
.Lcfi10:
	.seh_endprologue
	movq	%rcx, -8(%rbp)
.Ltmp2:
	movq	-8(%rbp), %rcx
	callq	_ZN71_$LT$alloc..vec..IntoIter$LT$T$GT$$u20$as$u20$core..ops..drop..Drop$GT$4drop17h95fc15782307f265E
	nop
	addq	$48, %rsp
	popq	%rbp
	retq
.Ltmp3:
.Lfunc_end1:
	.seh_handlerdata
	.section	.text,"xr",one_only,_ZN4core3ptr13drop_in_place17h13462837c551f340E
.Lcfi11:
	.seh_endproc

	.def	 _ZN4core3ptr13drop_in_place17h2797f04aa9344bb7E;
	.scl	2;
	.type	32;
	.endef
	.section	.text,"xr",one_only,_ZN4core3ptr13drop_in_place17h2797f04aa9344bb7E
	.globl	_ZN4core3ptr13drop_in_place17h2797f04aa9344bb7E
	.p2align	4, 0x90
_ZN4core3ptr13drop_in_place17h2797f04aa9344bb7E:
.Lfunc_begin2:
	.cv_func_id 2
	.cv_loc	2 1 59 0
.Lcfi12:
.seh_proc _ZN4core3ptr13drop_in_place17h2797f04aa9344bb7E
	pushq	%rbp
.Lcfi13:
	.seh_pushreg 5
	subq	$48, %rsp
.Lcfi14:
	.seh_stackalloc 48
	leaq	48(%rsp), %rbp
.Lcfi15:
	.seh_setframe 5, 48
.Lcfi16:
	.seh_endprologue
	movq	%rcx, -8(%rbp)
.Ltmp4:
	movq	-8(%rbp), %rcx
	movq	(%rcx), %rcx
	testq	%rcx, %rcx
	je	.LBB2_2
	jmp	.LBB2_3
.Ltmp5:
.LBB2_1:
	addq	$48, %rsp
	popq	%rbp
.Ltmp6:
	retq
.LBB2_2:
.Ltmp7:
	movq	-8(%rbp), %rax
	addq	$8, %rax
	movq	%rax, %rcx
	callq	_ZN4core3ptr13drop_in_place17he87ea5237a1bab48E
	jmp	.LBB2_1
.Ltmp8:
.LBB2_3:
	movq	-8(%rbp), %rax
	addq	$8, %rax
	movq	%rax, %rcx
	callq	_ZN4core3ptr13drop_in_place17h74d6dd60109708dbE
	jmp	.LBB2_1
.Ltmp9:
.Lfunc_end2:
	.seh_handlerdata
	.section	.text,"xr",one_only,_ZN4core3ptr13drop_in_place17h2797f04aa9344bb7E
.Lcfi17:
	.seh_endproc

	.def	 _ZN4core3ptr13drop_in_place17h290d79caec86515aE;
	.scl	2;
	.type	32;
	.endef
	.section	.text,"xr",one_only,_ZN4core3ptr13drop_in_place17h290d79caec86515aE
	.globl	_ZN4core3ptr13drop_in_place17h290d79caec86515aE
	.p2align	4, 0x90
_ZN4core3ptr13drop_in_place17h290d79caec86515aE:
.Lfunc_begin3:
	.cv_func_id 3
	.cv_loc	3 1 59 0
.Lcfi18:
.seh_proc _ZN4core3ptr13drop_in_place17h290d79caec86515aE
	pushq	%rbp
.Lcfi19:
	.seh_pushreg 5
	subq	$48, %rsp
.Lcfi20:
	.seh_stackalloc 48
	leaq	48(%rsp), %rbp
.Lcfi21:
	.seh_setframe 5, 48
.Lcfi22:
	.seh_endprologue
	movq	%rcx, -8(%rbp)
.Ltmp10:
	movq	-8(%rbp), %rcx
	movb	(%rcx), %al
	testb	%al, %al
	jne	.LBB3_2
	jmp	.LBB3_1
.Ltmp11:
.LBB3_1:
	addq	$48, %rsp
	popq	%rbp
	retq
.LBB3_2:
.Ltmp12:
	movq	-8(%rbp), %rax
	addq	$8, %rax
	movq	%rax, %rcx
	callq	_ZN4core3ptr13drop_in_place17h74d6dd60109708dbE
	jmp	.LBB3_1
.Ltmp13:
.Lfunc_end3:
	.seh_handlerdata
	.section	.text,"xr",one_only,_ZN4core3ptr13drop_in_place17h290d79caec86515aE
.Lcfi23:
	.seh_endproc

	.def	 _ZN4core3ptr13drop_in_place17h34be3b3a13c91e60E;
	.scl	2;
	.type	32;
	.endef
	.section	.text,"xr",one_only,_ZN4core3ptr13drop_in_place17h34be3b3a13c91e60E
	.globl	_ZN4core3ptr13drop_in_place17h34be3b3a13c91e60E
	.p2align	4, 0x90
_ZN4core3ptr13drop_in_place17h34be3b3a13c91e60E:
.Lfunc_begin4:
	.cv_func_id 4
	.cv_loc	4 1 59 0
.Lcfi24:
.seh_proc _ZN4core3ptr13drop_in_place17h34be3b3a13c91e60E
	pushq	%rbp
.Lcfi25:
	.seh_pushreg 5
	subq	$48, %rsp
.Lcfi26:
	.seh_stackalloc 48
	leaq	48(%rsp), %rbp
.Lcfi27:
	.seh_setframe 5, 48
.Lcfi28:
	.seh_endprologue
	movq	%rcx, -8(%rbp)
.Ltmp14:
	movq	-8(%rbp), %rcx
	addq	$8, %rcx
	callq	_ZN4core3ptr13drop_in_place17h7c1ed1e97a94da88E
	nop
	addq	$48, %rsp
	popq	%rbp
	retq
.Ltmp15:
.Lfunc_end4:
	.seh_handlerdata
	.section	.text,"xr",one_only,_ZN4core3ptr13drop_in_place17h34be3b3a13c91e60E
.Lcfi29:
	.seh_endproc

	.def	 _ZN4core3ptr13drop_in_place17h49da1e077d465508E;
	.scl	2;
	.type	32;
	.endef
	.section	.text,"xr",one_only,_ZN4core3ptr13drop_in_place17h49da1e077d465508E
	.globl	_ZN4core3ptr13drop_in_place17h49da1e077d465508E
	.p2align	4, 0x90
_ZN4core3ptr13drop_in_place17h49da1e077d465508E:
.Lfunc_begin5:
	.cv_func_id 5
	.cv_loc	5 1 59 0
.Lcfi30:
.seh_proc _ZN4core3ptr13drop_in_place17h49da1e077d465508E
	pushq	%rbp
.Lcfi31:
	.seh_pushreg 5
	subq	$64, %rsp
.Lcfi32:
	.seh_stackalloc 64
	leaq	64(%rsp), %rbp
.Lcfi33:
	.seh_setframe 5, 64
.Lcfi34:
	.seh_endprologue
	movq	%rcx, -8(%rbp)
.Ltmp16:
	movq	-8(%rbp), %rcx
	movzbl	(%rcx), %eax
	movl	%eax, %ecx
	testq	%rcx, %rcx
	movq	%rcx, -16(%rbp)
	je	.LBB5_2
	jmp	.LBB5_3
.Ltmp17:
.LBB5_3:
	movq	-16(%rbp), %rax
	decq	%rax
	subq	$1, %rax
	movq	%rax, -24(%rbp)
	ja	.LBB5_1
	jmp	.LBB5_1
.Ltmp18:
.LBB5_1:
	addq	$64, %rsp
	popq	%rbp
.Ltmp19:
	retq
.LBB5_2:
.Ltmp20:
	movq	-8(%rbp), %rax
	addq	$8, %rax
	movq	%rax, %rcx
	callq	_ZN4core3ptr13drop_in_place17h7c1ed1e97a94da88E
	jmp	.LBB5_1
.Ltmp21:
.Lfunc_end5:
	.seh_handlerdata
	.section	.text,"xr",one_only,_ZN4core3ptr13drop_in_place17h49da1e077d465508E
.Lcfi35:
	.seh_endproc

	.def	 _ZN4core3ptr13drop_in_place17h5189ae731fb6b5e9E;
	.scl	2;
	.type	32;
	.endef
	.section	.text,"xr",one_only,_ZN4core3ptr13drop_in_place17h5189ae731fb6b5e9E
	.globl	_ZN4core3ptr13drop_in_place17h5189ae731fb6b5e9E
	.p2align	4, 0x90
_ZN4core3ptr13drop_in_place17h5189ae731fb6b5e9E:
.Lfunc_begin6:
	.cv_func_id 6
	.cv_loc	6 1 59 0
.Lcfi36:
.seh_proc _ZN4core3ptr13drop_in_place17h5189ae731fb6b5e9E
	pushq	%rbp
.Lcfi37:
	.seh_pushreg 5
	pushq	%rax
.Lcfi38:
	.seh_stackalloc 8
	movq	%rsp, %rbp
.Lcfi39:
	.seh_setframe 5, 0
.Lcfi40:
	.seh_endprologue
	movq	%rcx, (%rbp)
.Ltmp22:
	addq	$8, %rsp
	popq	%rbp
	retq
.Ltmp23:
.Lfunc_end6:
	.seh_handlerdata
	.section	.text,"xr",one_only,_ZN4core3ptr13drop_in_place17h5189ae731fb6b5e9E
.Lcfi41:
	.seh_endproc

	.def	 _ZN4core3ptr13drop_in_place17h5260d67d69fab684E;
	.scl	2;
	.type	32;
	.endef
	.section	.text,"xr",one_only,_ZN4core3ptr13drop_in_place17h5260d67d69fab684E
	.globl	_ZN4core3ptr13drop_in_place17h5260d67d69fab684E
	.p2align	4, 0x90
_ZN4core3ptr13drop_in_place17h5260d67d69fab684E:
.Lfunc_begin7:
	.cv_func_id 7
	.cv_loc	7 1 59 0
.Lcfi42:
.seh_proc _ZN4core3ptr13drop_in_place17h5260d67d69fab684E
	pushq	%rbp
.Lcfi43:
	.seh_pushreg 5
	subq	$48, %rsp
.Lcfi44:
	.seh_stackalloc 48
	leaq	48(%rsp), %rbp
.Lcfi45:
	.seh_setframe 5, 48
.Lcfi46:
	.seh_endprologue
	movq	%rcx, -8(%rbp)
.Ltmp24:
	movq	-8(%rbp), %rcx
	callq	_ZN71_$LT$alloc..vec..IntoIter$LT$T$GT$$u20$as$u20$core..ops..drop..Drop$GT$4drop17h29aa659956fee7a6E
	nop
	addq	$48, %rsp
	popq	%rbp
	retq
.Ltmp25:
.Lfunc_end7:
	.seh_handlerdata
	.section	.text,"xr",one_only,_ZN4core3ptr13drop_in_place17h5260d67d69fab684E
.Lcfi47:
	.seh_endproc

	.def	 _ZN4core3ptr13drop_in_place17h56f801c92f40a73eE;
	.scl	3;
	.type	32;
	.endef
	.section	.text,"xr",one_only,_ZN4core3ptr13drop_in_place17h56f801c92f40a73eE
	.p2align	4, 0x90
_ZN4core3ptr13drop_in_place17h56f801c92f40a73eE:
.Lfunc_begin8:
	.cv_func_id 8
	.cv_loc	8 1 59 0
.Lcfi48:
.seh_proc _ZN4core3ptr13drop_in_place17h56f801c92f40a73eE
	.seh_handler __CxxFrameHandler3, @unwind, @except
	pushq	%rbp
.Lcfi49:
	.seh_pushreg 5
	subq	$48, %rsp
.Lcfi50:
	.seh_stackalloc 48
	leaq	48(%rsp), %rbp
.Lcfi51:
	.seh_setframe 5, 48
.Lcfi52:
	.seh_endprologue
	movq	$-2, -8(%rbp)
	movq	%rcx, -16(%rbp)
.Ltmp28:
	movq	-16(%rbp), %rcx
.Ltmp26:
	callq	_ZN66_$LT$alloc..vec..Vec$LT$T$GT$$u20$as$u20$core..ops..drop..Drop$GT$4drop17h97a1d8c709ef146aE
.Ltmp27:
	jmp	.LBB8_1
.Ltmp29:
.LBB8_1:
	movq	-16(%rbp), %rax
	movq	%rax, %rcx
	callq	_ZN4core3ptr13drop_in_place17h98f15c7b8f4fcd9dE
	nop
	addq	$48, %rsp
	popq	%rbp
.Ltmp30:
	retq
	.seh_handlerdata
	.long	($cppxdata$_ZN4core3ptr13drop_in_place17h56f801c92f40a73eE)@IMGREL
	.section	.text,"xr",one_only,_ZN4core3ptr13drop_in_place17h56f801c92f40a73eE
.Lcfi53:
	.seh_endproc
	.def	 "?dtor$2@?0?_ZN4core3ptr13drop_in_place17h56f801c92f40a73eE@4HA";
	.scl	3;
	.type	32;
	.endef
	.p2align	4, 0x90
"?dtor$2@?0?_ZN4core3ptr13drop_in_place17h56f801c92f40a73eE@4HA":
.Lcfi54:
.seh_proc "?dtor$2@?0?_ZN4core3ptr13drop_in_place17h56f801c92f40a73eE@4HA"
.LBB8_2:
.Ltmp31:
	movq	%rdx, 16(%rsp)
	pushq	%rbp
.Lcfi55:
	.seh_pushreg 5
	subq	$32, %rsp
.Lcfi56:
	.seh_stackalloc 32
	leaq	48(%rdx), %rbp
.Ltmp32:
.Lcfi57:
	.seh_endprologue
	movq	-16(%rbp), %rcx
	callq	_ZN4core3ptr13drop_in_place17h98f15c7b8f4fcd9dE
	nop
	addq	$32, %rsp
	popq	%rbp
	retq
.Ltmp33:
.Lfunc_end8:
	.seh_handlerdata
	.section	.text,"xr",one_only,_ZN4core3ptr13drop_in_place17h56f801c92f40a73eE
.Lcfi58:
	.seh_endproc
	.section	.xdata,"dr",associative,_ZN4core3ptr13drop_in_place17h56f801c92f40a73eE
	.p2align	2
$cppxdata$_ZN4core3ptr13drop_in_place17h56f801c92f40a73eE:
	.long	429065506
	.long	1
	.long	($stateUnwindMap$_ZN4core3ptr13drop_in_place17h56f801c92f40a73eE)@IMGREL
	.long	0
	.long	0
	.long	3
	.long	($ip2state$_ZN4core3ptr13drop_in_place17h56f801c92f40a73eE)@IMGREL
	.long	40
	.long	0
	.long	1
$stateUnwindMap$_ZN4core3ptr13drop_in_place17h56f801c92f40a73eE:
	.long	-1
	.long	"?dtor$2@?0?_ZN4core3ptr13drop_in_place17h56f801c92f40a73eE@4HA"@IMGREL
$ip2state$_ZN4core3ptr13drop_in_place17h56f801c92f40a73eE:
	.long	.Lfunc_begin8@IMGREL
	.long	-1
	.long	.Ltmp26@IMGREL+1
	.long	0
	.long	.Ltmp27@IMGREL+1
	.long	-1
	.section	.text,"xr",one_only,_ZN4core3ptr13drop_in_place17h56f801c92f40a73eE

	.def	 _ZN4core3ptr13drop_in_place17h59df437e67f1c90fE;
	.scl	2;
	.type	32;
	.endef
	.section	.text,"xr",one_only,_ZN4core3ptr13drop_in_place17h59df437e67f1c90fE
	.globl	_ZN4core3ptr13drop_in_place17h59df437e67f1c90fE
	.p2align	4, 0x90
_ZN4core3ptr13drop_in_place17h59df437e67f1c90fE:
.Lfunc_begin9:
	.cv_func_id 9
	.cv_loc	9 1 59 0
.Lcfi59:
.seh_proc _ZN4core3ptr13drop_in_place17h59df437e67f1c90fE
	.seh_handler __CxxFrameHandler3, @unwind, @except
	pushq	%rbp
.Lcfi60:
	.seh_pushreg 5
	subq	$80, %rsp
.Lcfi61:
	.seh_stackalloc 80
	leaq	80(%rsp), %rbp
.Lcfi62:
	.seh_setframe 5, 80
.Lcfi63:
	.seh_endprologue
	movq	$-2, -8(%rbp)
	movq	%rcx, -32(%rbp)
	movq	%rdx, -24(%rbp)
.Ltmp36:
	movq	-24(%rbp), %rcx
	movq	-32(%rbp), %rdx
	movq	%rdx, -16(%rbp)
	shlq	$4, %rcx
	addq	-16(%rbp), %rcx
	movq	%rcx, -40(%rbp)
	jmp	.LBB9_5
.LBB9_1:
	addq	$80, %rsp
	popq	%rbp
	retq
.LBB9_4:
	movq	-16(%rbp), %rax
	movq	%rax, %rcx
	addq	$16, %rcx
	movq	%rcx, -16(%rbp)
.Ltmp34:
	movq	%rax, %rcx
	callq	_ZN4core3ptr13drop_in_place17h74d6dd60109708dbE
.Ltmp35:
	jmp	.LBB9_5
.LBB9_5:
	movq	-40(%rbp), %rax
	cmpq	%rax, -16(%rbp)
	je	.LBB9_1
	jmp	.LBB9_4
	.seh_handlerdata
	.long	($cppxdata$_ZN4core3ptr13drop_in_place17h59df437e67f1c90fE)@IMGREL
	.section	.text,"xr",one_only,_ZN4core3ptr13drop_in_place17h59df437e67f1c90fE
.Lcfi64:
	.seh_endproc
	.def	 "?dtor$6@?0?_ZN4core3ptr13drop_in_place17h59df437e67f1c90fE@4HA";
	.scl	3;
	.type	32;
	.endef
	.p2align	4, 0x90
"?dtor$6@?0?_ZN4core3ptr13drop_in_place17h59df437e67f1c90fE@4HA":
.Lcfi65:
.seh_proc "?dtor$6@?0?_ZN4core3ptr13drop_in_place17h59df437e67f1c90fE@4HA"
.LBB9_6:
	movq	%rdx, 16(%rsp)
	pushq	%rbp
.Lcfi66:
	.seh_pushreg 5
	subq	$32, %rsp
.Lcfi67:
	.seh_stackalloc 32
	leaq	80(%rdx), %rbp
.Lcfi68:
	.seh_endprologue
	addq	$32, %rsp
	popq	%rbp
	retq
.LBB9_2:
	movq	-16(%rbp), %rcx
	movq	-16(%rbp), %rax
	addq	$16, %rax
	movq	%rax, -16(%rbp)
	callq	_ZN4core3ptr13drop_in_place17h74d6dd60109708dbE
.LBB9_3:
	movq	-40(%rbp), %rax
	cmpq	%rax, -16(%rbp)
	je	.LBB9_8
	jmp	.LBB9_2
.Ltmp37:
	.seh_handlerdata
	.section	.text,"xr",one_only,_ZN4core3ptr13drop_in_place17h59df437e67f1c90fE
.Lcfi69:
	.seh_endproc
	.def	 "?dtor$7@?0?_ZN4core3ptr13drop_in_place17h59df437e67f1c90fE@4HA";
	.scl	3;
	.type	32;
	.endef
	.p2align	4, 0x90
"?dtor$7@?0?_ZN4core3ptr13drop_in_place17h59df437e67f1c90fE@4HA":
.Lcfi70:
.seh_proc "?dtor$7@?0?_ZN4core3ptr13drop_in_place17h59df437e67f1c90fE@4HA"
.LBB9_7:
	movq	%rdx, 16(%rsp)
	pushq	%rbp
.Lcfi71:
	.seh_pushreg 5
	subq	$32, %rsp
.Lcfi72:
	.seh_stackalloc 32
	leaq	80(%rdx), %rbp
.Lcfi73:
	.seh_endprologue
	jmp	.LBB9_3
.LBB9_8:
	addq	$32, %rsp
	popq	%rbp
	retq
.Lfunc_end9:
	.seh_handlerdata
	.section	.text,"xr",one_only,_ZN4core3ptr13drop_in_place17h59df437e67f1c90fE
.Lcfi74:
	.seh_endproc
	.section	.xdata,"dr",associative,_ZN4core3ptr13drop_in_place17h59df437e67f1c90fE
	.p2align	2
$cppxdata$_ZN4core3ptr13drop_in_place17h59df437e67f1c90fE:
	.long	429065506
	.long	2
	.long	($stateUnwindMap$_ZN4core3ptr13drop_in_place17h59df437e67f1c90fE)@IMGREL
	.long	0
	.long	0
	.long	3
	.long	($ip2state$_ZN4core3ptr13drop_in_place17h59df437e67f1c90fE)@IMGREL
	.long	72
	.long	0
	.long	1
$stateUnwindMap$_ZN4core3ptr13drop_in_place17h59df437e67f1c90fE:
	.long	-1
	.long	"?dtor$6@?0?_ZN4core3ptr13drop_in_place17h59df437e67f1c90fE@4HA"@IMGREL
	.long	0
	.long	"?dtor$7@?0?_ZN4core3ptr13drop_in_place17h59df437e67f1c90fE@4HA"@IMGREL
$ip2state$_ZN4core3ptr13drop_in_place17h59df437e67f1c90fE:
	.long	.Lfunc_begin9@IMGREL
	.long	-1
	.long	.Ltmp34@IMGREL+1
	.long	1
	.long	.Ltmp35@IMGREL+1
	.long	-1
	.section	.text,"xr",one_only,_ZN4core3ptr13drop_in_place17h59df437e67f1c90fE

	.def	 _ZN4core3ptr13drop_in_place17h5e54711b3d8481acE;
	.scl	3;
	.type	32;
	.endef
	.section	.text,"xr",one_only,_ZN4core3ptr13drop_in_place17h5e54711b3d8481acE
	.p2align	4, 0x90
_ZN4core3ptr13drop_in_place17h5e54711b3d8481acE:
.Lfunc_begin10:
	.cv_func_id 10
	.cv_loc	10 1 59 0
.Lcfi75:
.seh_proc _ZN4core3ptr13drop_in_place17h5e54711b3d8481acE
	pushq	%rbp
.Lcfi76:
	.seh_pushreg 5
	subq	$48, %rsp
.Lcfi77:
	.seh_stackalloc 48
	leaq	48(%rsp), %rbp
.Lcfi78:
	.seh_setframe 5, 48
.Lcfi79:
	.seh_endprologue
	movq	%rcx, -8(%rbp)
.Ltmp38:
	movq	-8(%rbp), %rcx
	callq	_ZN82_$LT$alloc..raw_vec..RawVec$LT$T$C$$u20$A$GT$$u20$as$u20$core..ops..drop..Drop$GT$4drop17h6baa41c8e0995814E
	nop
	addq	$48, %rsp
	popq	%rbp
	retq
.Ltmp39:
.Lfunc_end10:
	.seh_handlerdata
	.section	.text,"xr",one_only,_ZN4core3ptr13drop_in_place17h5e54711b3d8481acE
.Lcfi80:
	.seh_endproc

	.def	 _ZN4core3ptr13drop_in_place17h640f8fd808b94047E;
	.scl	2;
	.type	32;
	.endef
	.section	.text,"xr",one_only,_ZN4core3ptr13drop_in_place17h640f8fd808b94047E
	.globl	_ZN4core3ptr13drop_in_place17h640f8fd808b94047E
	.p2align	4, 0x90
_ZN4core3ptr13drop_in_place17h640f8fd808b94047E:
.Lfunc_begin11:
	.cv_func_id 11
	.cv_loc	11 1 59 0
.Lcfi81:
.seh_proc _ZN4core3ptr13drop_in_place17h640f8fd808b94047E
	pushq	%rbp
.Lcfi82:
	.seh_pushreg 5
	subq	$48, %rsp
.Lcfi83:
	.seh_stackalloc 48
	leaq	48(%rsp), %rbp
.Lcfi84:
	.seh_setframe 5, 48
.Lcfi85:
	.seh_endprologue
	movq	%rcx, -8(%rbp)
.Ltmp40:
	movq	-8(%rbp), %rcx
	movb	(%rcx), %al
	subb	$4, %al
	movb	%al, -9(%rbp)
	jne	.LBB11_2
	jmp	.LBB11_1
.Ltmp41:
.LBB11_1:
	addq	$48, %rsp
	popq	%rbp
	retq
.LBB11_2:
.Ltmp42:
	movq	-8(%rbp), %rax
	movq	%rax, %rcx
	callq	_ZN4core3ptr13drop_in_place17h49da1e077d465508E
	jmp	.LBB11_1
.Ltmp43:
.Lfunc_end11:
	.seh_handlerdata
	.section	.text,"xr",one_only,_ZN4core3ptr13drop_in_place17h640f8fd808b94047E
.Lcfi86:
	.seh_endproc

	.def	 _ZN4core3ptr13drop_in_place17h67760d014c257544E;
	.scl	2;
	.type	32;
	.endef
	.section	.text,"xr",one_only,_ZN4core3ptr13drop_in_place17h67760d014c257544E
	.globl	_ZN4core3ptr13drop_in_place17h67760d014c257544E
	.p2align	4, 0x90
_ZN4core3ptr13drop_in_place17h67760d014c257544E:
.Lfunc_begin12:
	.cv_func_id 12
	.cv_loc	12 1 59 0
.Lcfi87:
.seh_proc _ZN4core3ptr13drop_in_place17h67760d014c257544E
	pushq	%rbp
.Lcfi88:
	.seh_pushreg 5
	subq	$48, %rsp
.Lcfi89:
	.seh_stackalloc 48
	leaq	48(%rsp), %rbp
.Lcfi90:
	.seh_setframe 5, 48
.Lcfi91:
	.seh_endprologue
	movq	%rcx, -8(%rbp)
.Ltmp44:
	movq	-8(%rbp), %rcx
	callq	_ZN99_$LT$std..collections..hash..table..RawTable$LT$K$C$$u20$V$GT$$u20$as$u20$core..ops..drop..Drop$GT$4drop17h0d7e216229e5541aE
	nop
	addq	$48, %rsp
	popq	%rbp
	retq
.Ltmp45:
.Lfunc_end12:
	.seh_handlerdata
	.section	.text,"xr",one_only,_ZN4core3ptr13drop_in_place17h67760d014c257544E
.Lcfi92:
	.seh_endproc

	.def	 _ZN4core3ptr13drop_in_place17h6eceeab23a0988feE;
	.scl	2;
	.type	32;
	.endef
	.section	.text,"xr",one_only,_ZN4core3ptr13drop_in_place17h6eceeab23a0988feE
	.globl	_ZN4core3ptr13drop_in_place17h6eceeab23a0988feE
	.p2align	4, 0x90
_ZN4core3ptr13drop_in_place17h6eceeab23a0988feE:
.Lfunc_begin13:
	.cv_func_id 13
	.cv_loc	13 1 59 0
.Lcfi93:
.seh_proc _ZN4core3ptr13drop_in_place17h6eceeab23a0988feE
	.seh_handler __CxxFrameHandler3, @unwind, @except
	pushq	%rbp
.Lcfi94:
	.seh_pushreg 5
	subq	$48, %rsp
.Lcfi95:
	.seh_stackalloc 48
	leaq	48(%rsp), %rbp
.Lcfi96:
	.seh_setframe 5, 48
.Lcfi97:
	.seh_endprologue
	movq	$-2, -8(%rbp)
	movq	%rcx, -16(%rbp)
.Ltmp48:
	movq	-16(%rbp), %rcx
.Ltmp46:
	callq	_ZN4core3ptr13drop_in_place17h49da1e077d465508E
.Ltmp47:
	jmp	.LBB13_1
.Ltmp49:
.LBB13_1:
	movq	-16(%rbp), %rax
	addq	$32, %rax
	movq	%rax, %rcx
	callq	_ZN4core3ptr13drop_in_place17hbb2d1658cbd64b0bE
	nop
	addq	$48, %rsp
	popq	%rbp
.Ltmp50:
	retq
	.seh_handlerdata
	.long	($cppxdata$_ZN4core3ptr13drop_in_place17h6eceeab23a0988feE)@IMGREL
	.section	.text,"xr",one_only,_ZN4core3ptr13drop_in_place17h6eceeab23a0988feE
.Lcfi98:
	.seh_endproc
	.def	 "?dtor$2@?0?_ZN4core3ptr13drop_in_place17h6eceeab23a0988feE@4HA";
	.scl	3;
	.type	32;
	.endef
	.p2align	4, 0x90
"?dtor$2@?0?_ZN4core3ptr13drop_in_place17h6eceeab23a0988feE@4HA":
.Lcfi99:
.seh_proc "?dtor$2@?0?_ZN4core3ptr13drop_in_place17h6eceeab23a0988feE@4HA"
.LBB13_2:
.Ltmp51:
	movq	%rdx, 16(%rsp)
	pushq	%rbp
.Lcfi100:
	.seh_pushreg 5
	subq	$32, %rsp
.Lcfi101:
	.seh_stackalloc 32
	leaq	48(%rdx), %rbp
.Ltmp52:
.Lcfi102:
	.seh_endprologue
	movq	-16(%rbp), %rax
	addq	$32, %rax
	movq	%rax, %rcx
	callq	_ZN4core3ptr13drop_in_place17hbb2d1658cbd64b0bE
	nop
	addq	$32, %rsp
	popq	%rbp
	retq
.Ltmp53:
.Lfunc_end13:
	.seh_handlerdata
	.section	.text,"xr",one_only,_ZN4core3ptr13drop_in_place17h6eceeab23a0988feE
.Lcfi103:
	.seh_endproc
	.section	.xdata,"dr",associative,_ZN4core3ptr13drop_in_place17h6eceeab23a0988feE
	.p2align	2
$cppxdata$_ZN4core3ptr13drop_in_place17h6eceeab23a0988feE:
	.long	429065506
	.long	1
	.long	($stateUnwindMap$_ZN4core3ptr13drop_in_place17h6eceeab23a0988feE)@IMGREL
	.long	0
	.long	0
	.long	3
	.long	($ip2state$_ZN4core3ptr13drop_in_place17h6eceeab23a0988feE)@IMGREL
	.long	40
	.long	0
	.long	1
$stateUnwindMap$_ZN4core3ptr13drop_in_place17h6eceeab23a0988feE:
	.long	-1
	.long	"?dtor$2@?0?_ZN4core3ptr13drop_in_place17h6eceeab23a0988feE@4HA"@IMGREL
$ip2state$_ZN4core3ptr13drop_in_place17h6eceeab23a0988feE:
	.long	.Lfunc_begin13@IMGREL
	.long	-1
	.long	.Ltmp46@IMGREL+1
	.long	0
	.long	.Ltmp47@IMGREL+1
	.long	-1
	.section	.text,"xr",one_only,_ZN4core3ptr13drop_in_place17h6eceeab23a0988feE

	.def	 _ZN4core3ptr13drop_in_place17h74d6dd60109708dbE;
	.scl	2;
	.type	32;
	.endef
	.section	.text,"xr",one_only,_ZN4core3ptr13drop_in_place17h74d6dd60109708dbE
	.globl	_ZN4core3ptr13drop_in_place17h74d6dd60109708dbE
	.p2align	4, 0x90
_ZN4core3ptr13drop_in_place17h74d6dd60109708dbE:
.Lfunc_begin14:
	.cv_func_id 14
	.cv_loc	14 1 59 0
.Lcfi104:
.seh_proc _ZN4core3ptr13drop_in_place17h74d6dd60109708dbE
	.seh_handler __CxxFrameHandler3, @unwind, @except
	pushq	%rbp
.Lcfi105:
	.seh_pushreg 5
	subq	$64, %rsp
.Lcfi106:
	.seh_stackalloc 64
	leaq	64(%rsp), %rbp
.Lcfi107:
	.seh_setframe 5, 64
.Lcfi108:
	.seh_endprologue
	movq	$-2, -8(%rbp)
	movq	%rcx, -16(%rbp)
.Ltmp56:
	movq	-16(%rbp), %rcx
	movq	(%rcx), %rax
	movq	8(%rcx), %rcx
	movq	(%rcx), %rcx
.Ltmp54:
	movq	%rcx, -24(%rbp)
	movq	%rax, %rcx
	movq	-24(%rbp), %rax
	callq	*%rax
.Ltmp55:
	jmp	.LBB14_1
.Ltmp57:
.LBB14_1:
	movq	-16(%rbp), %rax
	movq	(%rax), %rcx
	movq	8(%rax), %rdx
	callq	_ZN5alloc4heap8box_free17h2b6f7be809442629E
	nop
	addq	$64, %rsp
	popq	%rbp
.Ltmp58:
	retq
	.seh_handlerdata
	.long	($cppxdata$_ZN4core3ptr13drop_in_place17h74d6dd60109708dbE)@IMGREL
	.section	.text,"xr",one_only,_ZN4core3ptr13drop_in_place17h74d6dd60109708dbE
.Lcfi109:
	.seh_endproc
	.def	 "?dtor$2@?0?_ZN4core3ptr13drop_in_place17h74d6dd60109708dbE@4HA";
	.scl	3;
	.type	32;
	.endef
	.p2align	4, 0x90
"?dtor$2@?0?_ZN4core3ptr13drop_in_place17h74d6dd60109708dbE@4HA":
.Lcfi110:
.seh_proc "?dtor$2@?0?_ZN4core3ptr13drop_in_place17h74d6dd60109708dbE@4HA"
.LBB14_2:
.Ltmp59:
	movq	%rdx, 16(%rsp)
	pushq	%rbp
.Lcfi111:
	.seh_pushreg 5
	subq	$32, %rsp
.Lcfi112:
	.seh_stackalloc 32
	leaq	64(%rdx), %rbp
.Ltmp60:
.Lcfi113:
	.seh_endprologue
	movq	-16(%rbp), %rax
	movq	(%rax), %rcx
	movq	8(%rax), %rdx
	callq	_ZN5alloc4heap8box_free17h2b6f7be809442629E
	nop
	addq	$32, %rsp
	popq	%rbp
	retq
.Ltmp61:
.Lfunc_end14:
	.seh_handlerdata
	.section	.text,"xr",one_only,_ZN4core3ptr13drop_in_place17h74d6dd60109708dbE
.Lcfi114:
	.seh_endproc
	.section	.xdata,"dr",associative,_ZN4core3ptr13drop_in_place17h74d6dd60109708dbE
	.p2align	2
$cppxdata$_ZN4core3ptr13drop_in_place17h74d6dd60109708dbE:
	.long	429065506
	.long	1
	.long	($stateUnwindMap$_ZN4core3ptr13drop_in_place17h74d6dd60109708dbE)@IMGREL
	.long	0
	.long	0
	.long	3
	.long	($ip2state$_ZN4core3ptr13drop_in_place17h74d6dd60109708dbE)@IMGREL
	.long	56
	.long	0
	.long	1
$stateUnwindMap$_ZN4core3ptr13drop_in_place17h74d6dd60109708dbE:
	.long	-1
	.long	"?dtor$2@?0?_ZN4core3ptr13drop_in_place17h74d6dd60109708dbE@4HA"@IMGREL
$ip2state$_ZN4core3ptr13drop_in_place17h74d6dd60109708dbE:
	.long	.Lfunc_begin14@IMGREL
	.long	-1
	.long	.Ltmp54@IMGREL+1
	.long	0
	.long	.Ltmp55@IMGREL+1
	.long	-1
	.section	.text,"xr",one_only,_ZN4core3ptr13drop_in_place17h74d6dd60109708dbE

	.def	 _ZN4core3ptr13drop_in_place17h7c1ed1e97a94da88E;
	.scl	2;
	.type	32;
	.endef
	.section	.text,"xr",one_only,_ZN4core3ptr13drop_in_place17h7c1ed1e97a94da88E
	.globl	_ZN4core3ptr13drop_in_place17h7c1ed1e97a94da88E
	.p2align	4, 0x90
_ZN4core3ptr13drop_in_place17h7c1ed1e97a94da88E:
.Lfunc_begin15:
	.cv_func_id 15
	.cv_loc	15 1 59 0
.Lcfi115:
.seh_proc _ZN4core3ptr13drop_in_place17h7c1ed1e97a94da88E
	pushq	%rbp
.Lcfi116:
	.seh_pushreg 5
	subq	$48, %rsp
.Lcfi117:
	.seh_stackalloc 48
	leaq	48(%rsp), %rbp
.Lcfi118:
	.seh_setframe 5, 48
.Lcfi119:
	.seh_endprologue
	movq	%rcx, -8(%rbp)
.Ltmp62:
	movq	-8(%rbp), %rcx
	callq	_ZN4core3ptr13drop_in_place17h56f801c92f40a73eE
	nop
	addq	$48, %rsp
	popq	%rbp
	retq
.Ltmp63:
.Lfunc_end15:
	.seh_handlerdata
	.section	.text,"xr",one_only,_ZN4core3ptr13drop_in_place17h7c1ed1e97a94da88E
.Lcfi120:
	.seh_endproc

	.def	 _ZN4core3ptr13drop_in_place17h80682cec102a5b0aE;
	.scl	2;
	.type	32;
	.endef
	.section	.text,"xr",one_only,_ZN4core3ptr13drop_in_place17h80682cec102a5b0aE
	.globl	_ZN4core3ptr13drop_in_place17h80682cec102a5b0aE
	.p2align	4, 0x90
_ZN4core3ptr13drop_in_place17h80682cec102a5b0aE:
.Lfunc_begin16:
	.cv_func_id 16
	.cv_loc	16 1 59 0
.Lcfi121:
.seh_proc _ZN4core3ptr13drop_in_place17h80682cec102a5b0aE
	.seh_handler __CxxFrameHandler3, @unwind, @except
	pushq	%rbp
.Lcfi122:
	.seh_pushreg 5
	subq	$80, %rsp
.Lcfi123:
	.seh_stackalloc 80
	leaq	80(%rsp), %rbp
.Lcfi124:
	.seh_setframe 5, 80
.Lcfi125:
	.seh_endprologue
	movq	$-2, -8(%rbp)
	movq	%rcx, -32(%rbp)
	movq	%rdx, -24(%rbp)
.Ltmp66:
	movq	-24(%rbp), %rcx
	movq	-32(%rbp), %rdx
	movq	%rdx, -16(%rbp)
	shlq	$5, %rcx
	addq	-16(%rbp), %rcx
	movq	%rcx, -40(%rbp)
	jmp	.LBB16_5
.LBB16_1:
	addq	$80, %rsp
	popq	%rbp
	retq
.LBB16_4:
	movq	-16(%rbp), %rax
	movq	%rax, %rcx
	addq	$32, %rcx
	movq	%rcx, -16(%rbp)
.Ltmp64:
	movq	%rax, %rcx
	callq	_ZN4core3ptr13drop_in_place17h49da1e077d465508E
.Ltmp65:
	jmp	.LBB16_5
.LBB16_5:
	movq	-40(%rbp), %rax
	cmpq	%rax, -16(%rbp)
	je	.LBB16_1
	jmp	.LBB16_4
	.seh_handlerdata
	.long	($cppxdata$_ZN4core3ptr13drop_in_place17h80682cec102a5b0aE)@IMGREL
	.section	.text,"xr",one_only,_ZN4core3ptr13drop_in_place17h80682cec102a5b0aE
.Lcfi126:
	.seh_endproc
	.def	 "?dtor$6@?0?_ZN4core3ptr13drop_in_place17h80682cec102a5b0aE@4HA";
	.scl	3;
	.type	32;
	.endef
	.p2align	4, 0x90
"?dtor$6@?0?_ZN4core3ptr13drop_in_place17h80682cec102a5b0aE@4HA":
.Lcfi127:
.seh_proc "?dtor$6@?0?_ZN4core3ptr13drop_in_place17h80682cec102a5b0aE@4HA"
.LBB16_6:
	movq	%rdx, 16(%rsp)
	pushq	%rbp
.Lcfi128:
	.seh_pushreg 5
	subq	$32, %rsp
.Lcfi129:
	.seh_stackalloc 32
	leaq	80(%rdx), %rbp
.Lcfi130:
	.seh_endprologue
	addq	$32, %rsp
	popq	%rbp
	retq
.LBB16_2:
	movq	-16(%rbp), %rcx
	movq	-16(%rbp), %rax
	addq	$32, %rax
	movq	%rax, -16(%rbp)
	callq	_ZN4core3ptr13drop_in_place17h49da1e077d465508E
.LBB16_3:
	movq	-40(%rbp), %rax
	cmpq	%rax, -16(%rbp)
	je	.LBB16_8
	jmp	.LBB16_2
.Ltmp67:
	.seh_handlerdata
	.section	.text,"xr",one_only,_ZN4core3ptr13drop_in_place17h80682cec102a5b0aE
.Lcfi131:
	.seh_endproc
	.def	 "?dtor$7@?0?_ZN4core3ptr13drop_in_place17h80682cec102a5b0aE@4HA";
	.scl	3;
	.type	32;
	.endef
	.p2align	4, 0x90
"?dtor$7@?0?_ZN4core3ptr13drop_in_place17h80682cec102a5b0aE@4HA":
.Lcfi132:
.seh_proc "?dtor$7@?0?_ZN4core3ptr13drop_in_place17h80682cec102a5b0aE@4HA"
.LBB16_7:
	movq	%rdx, 16(%rsp)
	pushq	%rbp
.Lcfi133:
	.seh_pushreg 5
	subq	$32, %rsp
.Lcfi134:
	.seh_stackalloc 32
	leaq	80(%rdx), %rbp
.Lcfi135:
	.seh_endprologue
	jmp	.LBB16_3
.LBB16_8:
	addq	$32, %rsp
	popq	%rbp
	retq
.Lfunc_end16:
	.seh_handlerdata
	.section	.text,"xr",one_only,_ZN4core3ptr13drop_in_place17h80682cec102a5b0aE
.Lcfi136:
	.seh_endproc
	.section	.xdata,"dr",associative,_ZN4core3ptr13drop_in_place17h80682cec102a5b0aE
	.p2align	2
$cppxdata$_ZN4core3ptr13drop_in_place17h80682cec102a5b0aE:
	.long	429065506
	.long	2
	.long	($stateUnwindMap$_ZN4core3ptr13drop_in_place17h80682cec102a5b0aE)@IMGREL
	.long	0
	.long	0
	.long	3
	.long	($ip2state$_ZN4core3ptr13drop_in_place17h80682cec102a5b0aE)@IMGREL
	.long	72
	.long	0
	.long	1
$stateUnwindMap$_ZN4core3ptr13drop_in_place17h80682cec102a5b0aE:
	.long	-1
	.long	"?dtor$6@?0?_ZN4core3ptr13drop_in_place17h80682cec102a5b0aE@4HA"@IMGREL
	.long	0
	.long	"?dtor$7@?0?_ZN4core3ptr13drop_in_place17h80682cec102a5b0aE@4HA"@IMGREL
$ip2state$_ZN4core3ptr13drop_in_place17h80682cec102a5b0aE:
	.long	.Lfunc_begin16@IMGREL
	.long	-1
	.long	.Ltmp64@IMGREL+1
	.long	1
	.long	.Ltmp65@IMGREL+1
	.long	-1
	.section	.text,"xr",one_only,_ZN4core3ptr13drop_in_place17h80682cec102a5b0aE

	.def	 _ZN4core3ptr13drop_in_place17h83ce86cf1ccfee18E;
	.scl	2;
	.type	32;
	.endef
	.section	.text,"xr",one_only,_ZN4core3ptr13drop_in_place17h83ce86cf1ccfee18E
	.globl	_ZN4core3ptr13drop_in_place17h83ce86cf1ccfee18E
	.p2align	4, 0x90
_ZN4core3ptr13drop_in_place17h83ce86cf1ccfee18E:
.Lfunc_begin17:
	.cv_func_id 17
	.cv_loc	17 1 59 0
.Lcfi137:
.seh_proc _ZN4core3ptr13drop_in_place17h83ce86cf1ccfee18E
	pushq	%rbp
.Lcfi138:
	.seh_pushreg 5
	subq	$48, %rsp
.Lcfi139:
	.seh_stackalloc 48
	leaq	48(%rsp), %rbp
.Lcfi140:
	.seh_setframe 5, 48
.Lcfi141:
	.seh_endprologue
	movq	%rcx, -8(%rbp)
.Ltmp68:
	movq	-8(%rbp), %rcx
	callq	_ZN82_$LT$alloc..raw_vec..RawVec$LT$T$C$$u20$A$GT$$u20$as$u20$core..ops..drop..Drop$GT$4drop17h84868149299c055dE
	nop
	addq	$48, %rsp
	popq	%rbp
	retq
.Ltmp69:
.Lfunc_end17:
	.seh_handlerdata
	.section	.text,"xr",one_only,_ZN4core3ptr13drop_in_place17h83ce86cf1ccfee18E
.Lcfi142:
	.seh_endproc

	.def	 _ZN4core3ptr13drop_in_place17h8fd3e96158fa051eE;
	.scl	2;
	.type	32;
	.endef
	.section	.text,"xr",one_only,_ZN4core3ptr13drop_in_place17h8fd3e96158fa051eE
	.globl	_ZN4core3ptr13drop_in_place17h8fd3e96158fa051eE
	.p2align	4, 0x90
_ZN4core3ptr13drop_in_place17h8fd3e96158fa051eE:
.Lfunc_begin18:
	.cv_func_id 18
	.cv_loc	18 1 59 0
.Lcfi143:
.seh_proc _ZN4core3ptr13drop_in_place17h8fd3e96158fa051eE
	pushq	%rbp
.Lcfi144:
	.seh_pushreg 5
	pushq	%rax
.Lcfi145:
	.seh_stackalloc 8
	movq	%rsp, %rbp
.Lcfi146:
	.seh_setframe 5, 0
.Lcfi147:
	.seh_endprologue
	movq	%rcx, (%rbp)
.Ltmp70:
	addq	$8, %rsp
	popq	%rbp
	retq
.Ltmp71:
.Lfunc_end18:
	.seh_handlerdata
	.section	.text,"xr",one_only,_ZN4core3ptr13drop_in_place17h8fd3e96158fa051eE
.Lcfi148:
	.seh_endproc

	.def	 _ZN4core3ptr13drop_in_place17h98f15c7b8f4fcd9dE;
	.scl	3;
	.type	32;
	.endef
	.section	.text,"xr",one_only,_ZN4core3ptr13drop_in_place17h98f15c7b8f4fcd9dE
	.p2align	4, 0x90
_ZN4core3ptr13drop_in_place17h98f15c7b8f4fcd9dE:
.Lfunc_begin19:
	.cv_func_id 19
	.cv_loc	19 1 59 0
.Lcfi149:
.seh_proc _ZN4core3ptr13drop_in_place17h98f15c7b8f4fcd9dE
	pushq	%rbp
.Lcfi150:
	.seh_pushreg 5
	subq	$48, %rsp
.Lcfi151:
	.seh_stackalloc 48
	leaq	48(%rsp), %rbp
.Lcfi152:
	.seh_setframe 5, 48
.Lcfi153:
	.seh_endprologue
	movq	%rcx, -8(%rbp)
.Ltmp72:
	movq	-8(%rbp), %rcx
	callq	_ZN82_$LT$alloc..raw_vec..RawVec$LT$T$C$$u20$A$GT$$u20$as$u20$core..ops..drop..Drop$GT$4drop17h40be7a2626c941b0E
	nop
	addq	$48, %rsp
	popq	%rbp
	retq
.Ltmp73:
.Lfunc_end19:
	.seh_handlerdata
	.section	.text,"xr",one_only,_ZN4core3ptr13drop_in_place17h98f15c7b8f4fcd9dE
.Lcfi154:
	.seh_endproc

	.def	 _ZN4core3ptr13drop_in_place17h9fc53fa2f72a609aE;
	.scl	2;
	.type	32;
	.endef
	.section	.text,"xr",one_only,_ZN4core3ptr13drop_in_place17h9fc53fa2f72a609aE
	.globl	_ZN4core3ptr13drop_in_place17h9fc53fa2f72a609aE
	.p2align	4, 0x90
_ZN4core3ptr13drop_in_place17h9fc53fa2f72a609aE:
.Lfunc_begin20:
	.cv_func_id 20
	.cv_loc	20 1 59 0
.Lcfi155:
.seh_proc _ZN4core3ptr13drop_in_place17h9fc53fa2f72a609aE
	pushq	%rbp
.Lcfi156:
	.seh_pushreg 5
	pushq	%rax
.Lcfi157:
	.seh_stackalloc 8
	movq	%rsp, %rbp
.Lcfi158:
	.seh_setframe 5, 0
.Lcfi159:
	.seh_endprologue
	movq	%rcx, (%rbp)
.Ltmp74:
	addq	$8, %rsp
	popq	%rbp
	retq
.Ltmp75:
.Lfunc_end20:
	.seh_handlerdata
	.section	.text,"xr",one_only,_ZN4core3ptr13drop_in_place17h9fc53fa2f72a609aE
.Lcfi160:
	.seh_endproc

	.def	 _ZN4core3ptr13drop_in_place17ha2a7f18b9650ff53E;
	.scl	2;
	.type	32;
	.endef
	.section	.text,"xr",one_only,_ZN4core3ptr13drop_in_place17ha2a7f18b9650ff53E
	.globl	_ZN4core3ptr13drop_in_place17ha2a7f18b9650ff53E
	.p2align	4, 0x90
_ZN4core3ptr13drop_in_place17ha2a7f18b9650ff53E:
.Lfunc_begin21:
	.cv_func_id 21
	.cv_loc	21 1 59 0
.Lcfi161:
.seh_proc _ZN4core3ptr13drop_in_place17ha2a7f18b9650ff53E
	pushq	%rbp
.Lcfi162:
	.seh_pushreg 5
	pushq	%rax
.Lcfi163:
	.seh_stackalloc 8
	movq	%rsp, %rbp
.Lcfi164:
	.seh_setframe 5, 0
.Lcfi165:
	.seh_endprologue
	movq	%rcx, (%rbp)
.Ltmp76:
	addq	$8, %rsp
	popq	%rbp
	retq
.Ltmp77:
.Lfunc_end21:
	.seh_handlerdata
	.section	.text,"xr",one_only,_ZN4core3ptr13drop_in_place17ha2a7f18b9650ff53E
.Lcfi166:
	.seh_endproc

	.def	 _ZN4core3ptr13drop_in_place17ha4e20fbe16adf8c7E;
	.scl	2;
	.type	32;
	.endef
	.section	.text,"xr",one_only,_ZN4core3ptr13drop_in_place17ha4e20fbe16adf8c7E
	.globl	_ZN4core3ptr13drop_in_place17ha4e20fbe16adf8c7E
	.p2align	4, 0x90
_ZN4core3ptr13drop_in_place17ha4e20fbe16adf8c7E:
.Lfunc_begin22:
	.cv_func_id 22
	.cv_loc	22 1 59 0
.Lcfi167:
.seh_proc _ZN4core3ptr13drop_in_place17ha4e20fbe16adf8c7E
	pushq	%rbp
.Lcfi168:
	.seh_pushreg 5
	pushq	%rax
.Lcfi169:
	.seh_stackalloc 8
	movq	%rsp, %rbp
.Lcfi170:
	.seh_setframe 5, 0
.Lcfi171:
	.seh_endprologue
	movq	%rcx, (%rbp)
.Ltmp78:
	addq	$8, %rsp
	popq	%rbp
	retq
.Ltmp79:
.Lfunc_end22:
	.seh_handlerdata
	.section	.text,"xr",one_only,_ZN4core3ptr13drop_in_place17ha4e20fbe16adf8c7E
.Lcfi172:
	.seh_endproc

	.def	 _ZN4core3ptr13drop_in_place17ha54c658c6c930ad3E;
	.scl	3;
	.type	32;
	.endef
	.section	.text,"xr",one_only,_ZN4core3ptr13drop_in_place17ha54c658c6c930ad3E
	.p2align	4, 0x90
_ZN4core3ptr13drop_in_place17ha54c658c6c930ad3E:
.Lfunc_begin23:
	.cv_func_id 23
	.cv_loc	23 1 59 0
.Lcfi173:
.seh_proc _ZN4core3ptr13drop_in_place17ha54c658c6c930ad3E
	pushq	%rbp
.Lcfi174:
	.seh_pushreg 5
	subq	$48, %rsp
.Lcfi175:
	.seh_stackalloc 48
	leaq	48(%rsp), %rbp
.Lcfi176:
	.seh_setframe 5, 48
.Lcfi177:
	.seh_endprologue
	movq	%rcx, -8(%rbp)
.Ltmp80:
	movq	-8(%rbp), %rcx
	callq	_ZN82_$LT$alloc..raw_vec..RawVec$LT$T$C$$u20$A$GT$$u20$as$u20$core..ops..drop..Drop$GT$4drop17hcf0f045fc59a783fE
	nop
	addq	$48, %rsp
	popq	%rbp
	retq
.Ltmp81:
.Lfunc_end23:
	.seh_handlerdata
	.section	.text,"xr",one_only,_ZN4core3ptr13drop_in_place17ha54c658c6c930ad3E
.Lcfi178:
	.seh_endproc

	.def	 _ZN4core3ptr13drop_in_place17hbb2d1658cbd64b0bE;
	.scl	3;
	.type	32;
	.endef
	.section	.text,"xr",one_only,_ZN4core3ptr13drop_in_place17hbb2d1658cbd64b0bE
	.p2align	4, 0x90
_ZN4core3ptr13drop_in_place17hbb2d1658cbd64b0bE:
.Lfunc_begin24:
	.cv_func_id 24
	.cv_loc	24 1 59 0
.Lcfi179:
.seh_proc _ZN4core3ptr13drop_in_place17hbb2d1658cbd64b0bE
	.seh_handler __CxxFrameHandler3, @unwind, @except
	pushq	%rbp
.Lcfi180:
	.seh_pushreg 5
	subq	$48, %rsp
.Lcfi181:
	.seh_stackalloc 48
	leaq	48(%rsp), %rbp
.Lcfi182:
	.seh_setframe 5, 48
.Lcfi183:
	.seh_endprologue
	movq	$-2, -8(%rbp)
	movq	%rcx, -16(%rbp)
.Ltmp84:
	movq	-16(%rbp), %rcx
.Ltmp82:
	callq	_ZN66_$LT$alloc..vec..Vec$LT$T$GT$$u20$as$u20$core..ops..drop..Drop$GT$4drop17h3df618f03a54f24fE
.Ltmp83:
	jmp	.LBB24_1
.Ltmp85:
.LBB24_1:
	movq	-16(%rbp), %rax
	movq	%rax, %rcx
	callq	_ZN4core3ptr13drop_in_place17ha54c658c6c930ad3E
	nop
	addq	$48, %rsp
	popq	%rbp
.Ltmp86:
	retq
	.seh_handlerdata
	.long	($cppxdata$_ZN4core3ptr13drop_in_place17hbb2d1658cbd64b0bE)@IMGREL
	.section	.text,"xr",one_only,_ZN4core3ptr13drop_in_place17hbb2d1658cbd64b0bE
.Lcfi184:
	.seh_endproc
	.def	 "?dtor$2@?0?_ZN4core3ptr13drop_in_place17hbb2d1658cbd64b0bE@4HA";
	.scl	3;
	.type	32;
	.endef
	.p2align	4, 0x90
"?dtor$2@?0?_ZN4core3ptr13drop_in_place17hbb2d1658cbd64b0bE@4HA":
.Lcfi185:
.seh_proc "?dtor$2@?0?_ZN4core3ptr13drop_in_place17hbb2d1658cbd64b0bE@4HA"
.LBB24_2:
.Ltmp87:
	movq	%rdx, 16(%rsp)
	pushq	%rbp
.Lcfi186:
	.seh_pushreg 5
	subq	$32, %rsp
.Lcfi187:
	.seh_stackalloc 32
	leaq	48(%rdx), %rbp
.Ltmp88:
.Lcfi188:
	.seh_endprologue
	movq	-16(%rbp), %rcx
	callq	_ZN4core3ptr13drop_in_place17ha54c658c6c930ad3E
	nop
	addq	$32, %rsp
	popq	%rbp
	retq
.Ltmp89:
.Lfunc_end24:
	.seh_handlerdata
	.section	.text,"xr",one_only,_ZN4core3ptr13drop_in_place17hbb2d1658cbd64b0bE
.Lcfi189:
	.seh_endproc
	.section	.xdata,"dr",associative,_ZN4core3ptr13drop_in_place17hbb2d1658cbd64b0bE
	.p2align	2
$cppxdata$_ZN4core3ptr13drop_in_place17hbb2d1658cbd64b0bE:
	.long	429065506
	.long	1
	.long	($stateUnwindMap$_ZN4core3ptr13drop_in_place17hbb2d1658cbd64b0bE)@IMGREL
	.long	0
	.long	0
	.long	3
	.long	($ip2state$_ZN4core3ptr13drop_in_place17hbb2d1658cbd64b0bE)@IMGREL
	.long	40
	.long	0
	.long	1
$stateUnwindMap$_ZN4core3ptr13drop_in_place17hbb2d1658cbd64b0bE:
	.long	-1
	.long	"?dtor$2@?0?_ZN4core3ptr13drop_in_place17hbb2d1658cbd64b0bE@4HA"@IMGREL
$ip2state$_ZN4core3ptr13drop_in_place17hbb2d1658cbd64b0bE:
	.long	.Lfunc_begin24@IMGREL
	.long	-1
	.long	.Ltmp82@IMGREL+1
	.long	0
	.long	.Ltmp83@IMGREL+1
	.long	-1
	.section	.text,"xr",one_only,_ZN4core3ptr13drop_in_place17hbb2d1658cbd64b0bE

	.def	 _ZN4core3ptr13drop_in_place17hbe4757f23980a841E;
	.scl	2;
	.type	32;
	.endef
	.section	.text,"xr",one_only,_ZN4core3ptr13drop_in_place17hbe4757f23980a841E
	.globl	_ZN4core3ptr13drop_in_place17hbe4757f23980a841E
	.p2align	4, 0x90
_ZN4core3ptr13drop_in_place17hbe4757f23980a841E:
.Lfunc_begin25:
	.cv_func_id 25
	.cv_loc	25 1 59 0
.Lcfi190:
.seh_proc _ZN4core3ptr13drop_in_place17hbe4757f23980a841E
	.seh_handler __CxxFrameHandler3, @unwind, @except
	pushq	%rbp
.Lcfi191:
	.seh_pushreg 5
	subq	$48, %rsp
.Lcfi192:
	.seh_stackalloc 48
	leaq	48(%rsp), %rbp
.Lcfi193:
	.seh_setframe 5, 48
.Lcfi194:
	.seh_endprologue
	movq	$-2, -8(%rbp)
	movq	%rcx, -16(%rbp)
.Ltmp92:
	movq	-16(%rbp), %rcx
.Ltmp90:
	callq	_ZN66_$LT$alloc..vec..Vec$LT$T$GT$$u20$as$u20$core..ops..drop..Drop$GT$4drop17hbe5258fcd58db250E
.Ltmp91:
	jmp	.LBB25_1
.Ltmp93:
.LBB25_1:
	movq	-16(%rbp), %rax
	movq	%rax, %rcx
	callq	_ZN4core3ptr13drop_in_place17hf5652ed0856e3a9eE
	nop
	addq	$48, %rsp
	popq	%rbp
.Ltmp94:
	retq
	.seh_handlerdata
	.long	($cppxdata$_ZN4core3ptr13drop_in_place17hbe4757f23980a841E)@IMGREL
	.section	.text,"xr",one_only,_ZN4core3ptr13drop_in_place17hbe4757f23980a841E
.Lcfi195:
	.seh_endproc
	.def	 "?dtor$2@?0?_ZN4core3ptr13drop_in_place17hbe4757f23980a841E@4HA";
	.scl	3;
	.type	32;
	.endef
	.p2align	4, 0x90
"?dtor$2@?0?_ZN4core3ptr13drop_in_place17hbe4757f23980a841E@4HA":
.Lcfi196:
.seh_proc "?dtor$2@?0?_ZN4core3ptr13drop_in_place17hbe4757f23980a841E@4HA"
.LBB25_2:
.Ltmp95:
	movq	%rdx, 16(%rsp)
	pushq	%rbp
.Lcfi197:
	.seh_pushreg 5
	subq	$32, %rsp
.Lcfi198:
	.seh_stackalloc 32
	leaq	48(%rdx), %rbp
.Ltmp96:
.Lcfi199:
	.seh_endprologue
	movq	-16(%rbp), %rcx
	callq	_ZN4core3ptr13drop_in_place17hf5652ed0856e3a9eE
	nop
	addq	$32, %rsp
	popq	%rbp
	retq
.Ltmp97:
.Lfunc_end25:
	.seh_handlerdata
	.section	.text,"xr",one_only,_ZN4core3ptr13drop_in_place17hbe4757f23980a841E
.Lcfi200:
	.seh_endproc
	.section	.xdata,"dr",associative,_ZN4core3ptr13drop_in_place17hbe4757f23980a841E
	.p2align	2
$cppxdata$_ZN4core3ptr13drop_in_place17hbe4757f23980a841E:
	.long	429065506
	.long	1
	.long	($stateUnwindMap$_ZN4core3ptr13drop_in_place17hbe4757f23980a841E)@IMGREL
	.long	0
	.long	0
	.long	3
	.long	($ip2state$_ZN4core3ptr13drop_in_place17hbe4757f23980a841E)@IMGREL
	.long	40
	.long	0
	.long	1
$stateUnwindMap$_ZN4core3ptr13drop_in_place17hbe4757f23980a841E:
	.long	-1
	.long	"?dtor$2@?0?_ZN4core3ptr13drop_in_place17hbe4757f23980a841E@4HA"@IMGREL
$ip2state$_ZN4core3ptr13drop_in_place17hbe4757f23980a841E:
	.long	.Lfunc_begin25@IMGREL
	.long	-1
	.long	.Ltmp90@IMGREL+1
	.long	0
	.long	.Ltmp91@IMGREL+1
	.long	-1
	.section	.text,"xr",one_only,_ZN4core3ptr13drop_in_place17hbe4757f23980a841E

	.def	 _ZN4core3ptr13drop_in_place17hdaed797c3b04aa17E;
	.scl	2;
	.type	32;
	.endef
	.section	.text,"xr",one_only,_ZN4core3ptr13drop_in_place17hdaed797c3b04aa17E
	.globl	_ZN4core3ptr13drop_in_place17hdaed797c3b04aa17E
	.p2align	4, 0x90
_ZN4core3ptr13drop_in_place17hdaed797c3b04aa17E:
.Lfunc_begin26:
	.cv_func_id 26
	.cv_loc	26 1 59 0
.Lcfi201:
.seh_proc _ZN4core3ptr13drop_in_place17hdaed797c3b04aa17E
	.seh_handler __CxxFrameHandler3, @unwind, @except
	pushq	%rbp
.Lcfi202:
	.seh_pushreg 5
	subq	$48, %rsp
.Lcfi203:
	.seh_stackalloc 48
	leaq	48(%rsp), %rbp
.Lcfi204:
	.seh_setframe 5, 48
.Lcfi205:
	.seh_endprologue
	movq	$-2, -8(%rbp)
	movq	%rcx, -16(%rbp)
.Ltmp100:
	movq	-16(%rbp), %rcx
.Ltmp98:
	callq	_ZN66_$LT$alloc..vec..Vec$LT$T$GT$$u20$as$u20$core..ops..drop..Drop$GT$4drop17hc8da3a7da919481dE
.Ltmp99:
	jmp	.LBB26_1
.Ltmp101:
.LBB26_1:
	movq	-16(%rbp), %rax
	movq	%rax, %rcx
	callq	_ZN4core3ptr13drop_in_place17h83ce86cf1ccfee18E
	nop
	addq	$48, %rsp
	popq	%rbp
.Ltmp102:
	retq
	.seh_handlerdata
	.long	($cppxdata$_ZN4core3ptr13drop_in_place17hdaed797c3b04aa17E)@IMGREL
	.section	.text,"xr",one_only,_ZN4core3ptr13drop_in_place17hdaed797c3b04aa17E
.Lcfi206:
	.seh_endproc
	.def	 "?dtor$2@?0?_ZN4core3ptr13drop_in_place17hdaed797c3b04aa17E@4HA";
	.scl	3;
	.type	32;
	.endef
	.p2align	4, 0x90
"?dtor$2@?0?_ZN4core3ptr13drop_in_place17hdaed797c3b04aa17E@4HA":
.Lcfi207:
.seh_proc "?dtor$2@?0?_ZN4core3ptr13drop_in_place17hdaed797c3b04aa17E@4HA"
.LBB26_2:
.Ltmp103:
	movq	%rdx, 16(%rsp)
	pushq	%rbp
.Lcfi208:
	.seh_pushreg 5
	subq	$32, %rsp
.Lcfi209:
	.seh_stackalloc 32
	leaq	48(%rdx), %rbp
.Ltmp104:
.Lcfi210:
	.seh_endprologue
	movq	-16(%rbp), %rcx
	callq	_ZN4core3ptr13drop_in_place17h83ce86cf1ccfee18E
	nop
	addq	$32, %rsp
	popq	%rbp
	retq
.Ltmp105:
.Lfunc_end26:
	.seh_handlerdata
	.section	.text,"xr",one_only,_ZN4core3ptr13drop_in_place17hdaed797c3b04aa17E
.Lcfi211:
	.seh_endproc
	.section	.xdata,"dr",associative,_ZN4core3ptr13drop_in_place17hdaed797c3b04aa17E
	.p2align	2
$cppxdata$_ZN4core3ptr13drop_in_place17hdaed797c3b04aa17E:
	.long	429065506
	.long	1
	.long	($stateUnwindMap$_ZN4core3ptr13drop_in_place17hdaed797c3b04aa17E)@IMGREL
	.long	0
	.long	0
	.long	3
	.long	($ip2state$_ZN4core3ptr13drop_in_place17hdaed797c3b04aa17E)@IMGREL
	.long	40
	.long	0
	.long	1
$stateUnwindMap$_ZN4core3ptr13drop_in_place17hdaed797c3b04aa17E:
	.long	-1
	.long	"?dtor$2@?0?_ZN4core3ptr13drop_in_place17hdaed797c3b04aa17E@4HA"@IMGREL
$ip2state$_ZN4core3ptr13drop_in_place17hdaed797c3b04aa17E:
	.long	.Lfunc_begin26@IMGREL
	.long	-1
	.long	.Ltmp98@IMGREL+1
	.long	0
	.long	.Ltmp99@IMGREL+1
	.long	-1
	.section	.text,"xr",one_only,_ZN4core3ptr13drop_in_place17hdaed797c3b04aa17E

	.def	 _ZN4core3ptr13drop_in_place17he33d22e50f46b4faE;
	.scl	2;
	.type	32;
	.endef
	.section	.text,"xr",one_only,_ZN4core3ptr13drop_in_place17he33d22e50f46b4faE
	.globl	_ZN4core3ptr13drop_in_place17he33d22e50f46b4faE
	.p2align	4, 0x90
_ZN4core3ptr13drop_in_place17he33d22e50f46b4faE:
.Lfunc_begin27:
	.cv_func_id 27
	.cv_loc	27 1 59 0
.Lcfi212:
.seh_proc _ZN4core3ptr13drop_in_place17he33d22e50f46b4faE
	pushq	%rbp
.Lcfi213:
	.seh_pushreg 5
	subq	$48, %rsp
.Lcfi214:
	.seh_stackalloc 48
	leaq	48(%rsp), %rbp
.Lcfi215:
	.seh_setframe 5, 48
.Lcfi216:
	.seh_endprologue
	movq	%rcx, -8(%rbp)
.Ltmp106:
	movq	-8(%rbp), %rcx
	movq	(%rcx), %rcx
	testq	%rcx, %rcx
	jne	.LBB27_2
	jmp	.LBB27_1
.Ltmp107:
.LBB27_1:
	addq	$48, %rsp
	popq	%rbp
	retq
.LBB27_2:
.Ltmp108:
	movq	-8(%rbp), %rax
	movq	%rax, %rcx
	callq	_ZN4core3ptr13drop_in_place17h74d6dd60109708dbE
	jmp	.LBB27_1
.Ltmp109:
.Lfunc_end27:
	.seh_handlerdata
	.section	.text,"xr",one_only,_ZN4core3ptr13drop_in_place17he33d22e50f46b4faE
.Lcfi217:
	.seh_endproc

	.def	 _ZN4core3ptr13drop_in_place17he5e0218070fd6d8cE;
	.scl	3;
	.type	32;
	.endef
	.section	.text,"xr",one_only,_ZN4core3ptr13drop_in_place17he5e0218070fd6d8cE
	.p2align	4, 0x90
_ZN4core3ptr13drop_in_place17he5e0218070fd6d8cE:
.Lfunc_begin28:
	.cv_func_id 28
	.cv_loc	28 1 59 0
.Lcfi218:
.seh_proc _ZN4core3ptr13drop_in_place17he5e0218070fd6d8cE
	pushq	%rbp
.Lcfi219:
	.seh_pushreg 5
	subq	$48, %rsp
.Lcfi220:
	.seh_stackalloc 48
	leaq	48(%rsp), %rbp
.Lcfi221:
	.seh_setframe 5, 48
.Lcfi222:
	.seh_endprologue
	movq	%rcx, -16(%rbp)
	movq	%rdx, -8(%rbp)
.Ltmp110:
	movq	-16(%rbp), %rcx
	movq	-8(%rbp), %rdx
	callq	*(%rdx)
	nop
	addq	$48, %rsp
	popq	%rbp
	retq
.Ltmp111:
.Lfunc_end28:
	.seh_handlerdata
	.section	.text,"xr",one_only,_ZN4core3ptr13drop_in_place17he5e0218070fd6d8cE
.Lcfi223:
	.seh_endproc

	.def	 _ZN4core3ptr13drop_in_place17he6f7d486b9358812E;
	.scl	2;
	.type	32;
	.endef
	.section	.text,"xr",one_only,_ZN4core3ptr13drop_in_place17he6f7d486b9358812E
	.globl	_ZN4core3ptr13drop_in_place17he6f7d486b9358812E
	.p2align	4, 0x90
_ZN4core3ptr13drop_in_place17he6f7d486b9358812E:
.Lfunc_begin29:
	.cv_func_id 29
	.cv_loc	29 1 59 0
.Lcfi224:
.seh_proc _ZN4core3ptr13drop_in_place17he6f7d486b9358812E
	pushq	%rbp
.Lcfi225:
	.seh_pushreg 5
	subq	$48, %rsp
.Lcfi226:
	.seh_stackalloc 48
	leaq	48(%rsp), %rbp
.Lcfi227:
	.seh_setframe 5, 48
.Lcfi228:
	.seh_endprologue
	movq	%rcx, -8(%rbp)
.Ltmp112:
	movq	-8(%rbp), %rcx
	movq	(%rcx), %rcx
	testq	%rcx, %rcx
	jne	.LBB29_2
	jmp	.LBB29_1
.Ltmp113:
.LBB29_1:
	addq	$48, %rsp
	popq	%rbp
	retq
.LBB29_2:
.Ltmp114:
	movq	-8(%rbp), %rax
	movq	%rax, %rcx
	callq	_ZN4core3ptr13drop_in_place17h7c1ed1e97a94da88E
	jmp	.LBB29_1
.Ltmp115:
.Lfunc_end29:
	.seh_handlerdata
	.section	.text,"xr",one_only,_ZN4core3ptr13drop_in_place17he6f7d486b9358812E
.Lcfi229:
	.seh_endproc

	.def	 _ZN4core3ptr13drop_in_place17he87ea5237a1bab48E;
	.scl	2;
	.type	32;
	.endef
	.section	.text,"xr",one_only,_ZN4core3ptr13drop_in_place17he87ea5237a1bab48E
	.globl	_ZN4core3ptr13drop_in_place17he87ea5237a1bab48E
	.p2align	4, 0x90
_ZN4core3ptr13drop_in_place17he87ea5237a1bab48E:
.Lfunc_begin30:
	.cv_func_id 30
	.cv_loc	30 1 59 0
.Lcfi230:
.seh_proc _ZN4core3ptr13drop_in_place17he87ea5237a1bab48E
	.seh_handler __CxxFrameHandler3, @unwind, @except
	pushq	%rbp
.Lcfi231:
	.seh_pushreg 5
	subq	$48, %rsp
.Lcfi232:
	.seh_stackalloc 48
	leaq	48(%rsp), %rbp
.Lcfi233:
	.seh_setframe 5, 48
.Lcfi234:
	.seh_endprologue
	movq	$-2, -8(%rbp)
	movq	%rcx, -16(%rbp)
.Ltmp118:
	movq	-16(%rbp), %rcx
.Ltmp116:
	callq	_ZN66_$LT$alloc..vec..Vec$LT$T$GT$$u20$as$u20$core..ops..drop..Drop$GT$4drop17hfc11bb0feccf10b4E
.Ltmp117:
	jmp	.LBB30_1
.Ltmp119:
.LBB30_1:
	movq	-16(%rbp), %rax
	movq	%rax, %rcx
	callq	_ZN4core3ptr13drop_in_place17h5e54711b3d8481acE
	nop
	addq	$48, %rsp
	popq	%rbp
.Ltmp120:
	retq
	.seh_handlerdata
	.long	($cppxdata$_ZN4core3ptr13drop_in_place17he87ea5237a1bab48E)@IMGREL
	.section	.text,"xr",one_only,_ZN4core3ptr13drop_in_place17he87ea5237a1bab48E
.Lcfi235:
	.seh_endproc
	.def	 "?dtor$2@?0?_ZN4core3ptr13drop_in_place17he87ea5237a1bab48E@4HA";
	.scl	3;
	.type	32;
	.endef
	.p2align	4, 0x90
"?dtor$2@?0?_ZN4core3ptr13drop_in_place17he87ea5237a1bab48E@4HA":
.Lcfi236:
.seh_proc "?dtor$2@?0?_ZN4core3ptr13drop_in_place17he87ea5237a1bab48E@4HA"
.LBB30_2:
.Ltmp121:
	movq	%rdx, 16(%rsp)
	pushq	%rbp
.Lcfi237:
	.seh_pushreg 5
	subq	$32, %rsp
.Lcfi238:
	.seh_stackalloc 32
	leaq	48(%rdx), %rbp
.Ltmp122:
.Lcfi239:
	.seh_endprologue
	movq	-16(%rbp), %rcx
	callq	_ZN4core3ptr13drop_in_place17h5e54711b3d8481acE
	nop
	addq	$32, %rsp
	popq	%rbp
	retq
.Ltmp123:
.Lfunc_end30:
	.seh_handlerdata
	.section	.text,"xr",one_only,_ZN4core3ptr13drop_in_place17he87ea5237a1bab48E
.Lcfi240:
	.seh_endproc
	.section	.xdata,"dr",associative,_ZN4core3ptr13drop_in_place17he87ea5237a1bab48E
	.p2align	2
$cppxdata$_ZN4core3ptr13drop_in_place17he87ea5237a1bab48E:
	.long	429065506
	.long	1
	.long	($stateUnwindMap$_ZN4core3ptr13drop_in_place17he87ea5237a1bab48E)@IMGREL
	.long	0
	.long	0
	.long	3
	.long	($ip2state$_ZN4core3ptr13drop_in_place17he87ea5237a1bab48E)@IMGREL
	.long	40
	.long	0
	.long	1
$stateUnwindMap$_ZN4core3ptr13drop_in_place17he87ea5237a1bab48E:
	.long	-1
	.long	"?dtor$2@?0?_ZN4core3ptr13drop_in_place17he87ea5237a1bab48E@4HA"@IMGREL
$ip2state$_ZN4core3ptr13drop_in_place17he87ea5237a1bab48E:
	.long	.Lfunc_begin30@IMGREL
	.long	-1
	.long	.Ltmp116@IMGREL+1
	.long	0
	.long	.Ltmp117@IMGREL+1
	.long	-1
	.section	.text,"xr",one_only,_ZN4core3ptr13drop_in_place17he87ea5237a1bab48E

	.def	 _ZN4core3ptr13drop_in_place17hede72e9419fc1834E;
	.scl	2;
	.type	32;
	.endef
	.section	.text,"xr",one_only,_ZN4core3ptr13drop_in_place17hede72e9419fc1834E
	.globl	_ZN4core3ptr13drop_in_place17hede72e9419fc1834E
	.p2align	4, 0x90
_ZN4core3ptr13drop_in_place17hede72e9419fc1834E:
.Lfunc_begin31:
	.cv_func_id 31
	.cv_loc	31 1 59 0
.Lcfi241:
.seh_proc _ZN4core3ptr13drop_in_place17hede72e9419fc1834E
	.seh_handler __CxxFrameHandler3, @unwind, @except
	pushq	%rbp
.Lcfi242:
	.seh_pushreg 5
	subq	$80, %rsp
.Lcfi243:
	.seh_stackalloc 80
	leaq	80(%rsp), %rbp
.Lcfi244:
	.seh_setframe 5, 80
.Lcfi245:
	.seh_endprologue
	movq	$-2, -8(%rbp)
	movq	%rcx, -32(%rbp)
	movq	%rdx, -24(%rbp)
.Ltmp126:
	movq	-24(%rbp), %rcx
	movq	-32(%rbp), %rdx
	movq	%rdx, -16(%rbp)
	imulq	$56, %rcx, %rcx
	addq	-16(%rbp), %rcx
	movq	%rcx, -40(%rbp)
	jmp	.LBB31_5
.LBB31_1:
	addq	$80, %rsp
	popq	%rbp
	retq
.LBB31_4:
	movq	-16(%rbp), %rax
	movq	%rax, %rcx
	addq	$56, %rcx
	movq	%rcx, -16(%rbp)
.Ltmp124:
	movq	%rax, %rcx
	callq	_ZN4core3ptr13drop_in_place17h6eceeab23a0988feE
.Ltmp125:
	jmp	.LBB31_5
.LBB31_5:
	movq	-40(%rbp), %rax
	cmpq	%rax, -16(%rbp)
	je	.LBB31_1
	jmp	.LBB31_4
	.seh_handlerdata
	.long	($cppxdata$_ZN4core3ptr13drop_in_place17hede72e9419fc1834E)@IMGREL
	.section	.text,"xr",one_only,_ZN4core3ptr13drop_in_place17hede72e9419fc1834E
.Lcfi246:
	.seh_endproc
	.def	 "?dtor$6@?0?_ZN4core3ptr13drop_in_place17hede72e9419fc1834E@4HA";
	.scl	3;
	.type	32;
	.endef
	.p2align	4, 0x90
"?dtor$6@?0?_ZN4core3ptr13drop_in_place17hede72e9419fc1834E@4HA":
.Lcfi247:
.seh_proc "?dtor$6@?0?_ZN4core3ptr13drop_in_place17hede72e9419fc1834E@4HA"
.LBB31_6:
	movq	%rdx, 16(%rsp)
	pushq	%rbp
.Lcfi248:
	.seh_pushreg 5
	subq	$32, %rsp
.Lcfi249:
	.seh_stackalloc 32
	leaq	80(%rdx), %rbp
.Lcfi250:
	.seh_endprologue
	addq	$32, %rsp
	popq	%rbp
	retq
.LBB31_2:
	movq	-16(%rbp), %rcx
	movq	-16(%rbp), %rax
	addq	$56, %rax
	movq	%rax, -16(%rbp)
	callq	_ZN4core3ptr13drop_in_place17h6eceeab23a0988feE
.LBB31_3:
	movq	-40(%rbp), %rax
	cmpq	%rax, -16(%rbp)
	je	.LBB31_8
	jmp	.LBB31_2
.Ltmp127:
	.seh_handlerdata
	.section	.text,"xr",one_only,_ZN4core3ptr13drop_in_place17hede72e9419fc1834E
.Lcfi251:
	.seh_endproc
	.def	 "?dtor$7@?0?_ZN4core3ptr13drop_in_place17hede72e9419fc1834E@4HA";
	.scl	3;
	.type	32;
	.endef
	.p2align	4, 0x90
"?dtor$7@?0?_ZN4core3ptr13drop_in_place17hede72e9419fc1834E@4HA":
.Lcfi252:
.seh_proc "?dtor$7@?0?_ZN4core3ptr13drop_in_place17hede72e9419fc1834E@4HA"
.LBB31_7:
	movq	%rdx, 16(%rsp)
	pushq	%rbp
.Lcfi253:
	.seh_pushreg 5
	subq	$32, %rsp
.Lcfi254:
	.seh_stackalloc 32
	leaq	80(%rdx), %rbp
.Lcfi255:
	.seh_endprologue
	jmp	.LBB31_3
.LBB31_8:
	addq	$32, %rsp
	popq	%rbp
	retq
.Lfunc_end31:
	.seh_handlerdata
	.section	.text,"xr",one_only,_ZN4core3ptr13drop_in_place17hede72e9419fc1834E
.Lcfi256:
	.seh_endproc
	.section	.xdata,"dr",associative,_ZN4core3ptr13drop_in_place17hede72e9419fc1834E
	.p2align	2
$cppxdata$_ZN4core3ptr13drop_in_place17hede72e9419fc1834E:
	.long	429065506
	.long	2
	.long	($stateUnwindMap$_ZN4core3ptr13drop_in_place17hede72e9419fc1834E)@IMGREL
	.long	0
	.long	0
	.long	3
	.long	($ip2state$_ZN4core3ptr13drop_in_place17hede72e9419fc1834E)@IMGREL
	.long	72
	.long	0
	.long	1
$stateUnwindMap$_ZN4core3ptr13drop_in_place17hede72e9419fc1834E:
	.long	-1
	.long	"?dtor$6@?0?_ZN4core3ptr13drop_in_place17hede72e9419fc1834E@4HA"@IMGREL
	.long	0
	.long	"?dtor$7@?0?_ZN4core3ptr13drop_in_place17hede72e9419fc1834E@4HA"@IMGREL
$ip2state$_ZN4core3ptr13drop_in_place17hede72e9419fc1834E:
	.long	.Lfunc_begin31@IMGREL
	.long	-1
	.long	.Ltmp124@IMGREL+1
	.long	1
	.long	.Ltmp125@IMGREL+1
	.long	-1
	.section	.text,"xr",one_only,_ZN4core3ptr13drop_in_place17hede72e9419fc1834E

	.def	 _ZN4core3ptr13drop_in_place17hf1f6b49c01774bbdE;
	.scl	2;
	.type	32;
	.endef
	.section	.text,"xr",one_only,_ZN4core3ptr13drop_in_place17hf1f6b49c01774bbdE
	.globl	_ZN4core3ptr13drop_in_place17hf1f6b49c01774bbdE
	.p2align	4, 0x90
_ZN4core3ptr13drop_in_place17hf1f6b49c01774bbdE:
.Lfunc_begin32:
	.cv_func_id 32
	.cv_loc	32 1 59 0
.Lcfi257:
.seh_proc _ZN4core3ptr13drop_in_place17hf1f6b49c01774bbdE
	pushq	%rbp
.Lcfi258:
	.seh_pushreg 5
	pushq	%rax
.Lcfi259:
	.seh_stackalloc 8
	movq	%rsp, %rbp
.Lcfi260:
	.seh_setframe 5, 0
.Lcfi261:
	.seh_endprologue
	movq	%rcx, (%rbp)
.Ltmp128:
	addq	$8, %rsp
	popq	%rbp
	retq
.Ltmp129:
.Lfunc_end32:
	.seh_handlerdata
	.section	.text,"xr",one_only,_ZN4core3ptr13drop_in_place17hf1f6b49c01774bbdE
.Lcfi262:
	.seh_endproc

	.def	 _ZN4core3ptr13drop_in_place17hf4f53841c71b8883E;
	.scl	2;
	.type	32;
	.endef
	.section	.text,"xr",one_only,_ZN4core3ptr13drop_in_place17hf4f53841c71b8883E
	.globl	_ZN4core3ptr13drop_in_place17hf4f53841c71b8883E
	.p2align	4, 0x90
_ZN4core3ptr13drop_in_place17hf4f53841c71b8883E:
.Lfunc_begin33:
	.cv_func_id 33
	.cv_loc	33 1 59 0
.Lcfi263:
.seh_proc _ZN4core3ptr13drop_in_place17hf4f53841c71b8883E
	pushq	%rbp
.Lcfi264:
	.seh_pushreg 5
	subq	$48, %rsp
.Lcfi265:
	.seh_stackalloc 48
	leaq	48(%rsp), %rbp
.Lcfi266:
	.seh_setframe 5, 48
.Lcfi267:
	.seh_endprologue
	movq	%rcx, -8(%rbp)
.Ltmp130:
	movq	-8(%rbp), %rcx
	movq	(%rcx), %rax
	movq	8(%rcx), %rdx
	movq	%rax, %rcx
	callq	_ZN5alloc4heap8box_free17h7d7f6a27c346cdfeE
	nop
	addq	$48, %rsp
	popq	%rbp
	retq
.Ltmp131:
.Lfunc_end33:
	.seh_handlerdata
	.section	.text,"xr",one_only,_ZN4core3ptr13drop_in_place17hf4f53841c71b8883E
.Lcfi268:
	.seh_endproc

	.def	 _ZN4core3ptr13drop_in_place17hf5652ed0856e3a9eE;
	.scl	2;
	.type	32;
	.endef
	.section	.text,"xr",one_only,_ZN4core3ptr13drop_in_place17hf5652ed0856e3a9eE
	.globl	_ZN4core3ptr13drop_in_place17hf5652ed0856e3a9eE
	.p2align	4, 0x90
_ZN4core3ptr13drop_in_place17hf5652ed0856e3a9eE:
.Lfunc_begin34:
	.cv_func_id 34
	.cv_loc	34 1 59 0
.Lcfi269:
.seh_proc _ZN4core3ptr13drop_in_place17hf5652ed0856e3a9eE
	pushq	%rbp
.Lcfi270:
	.seh_pushreg 5
	subq	$48, %rsp
.Lcfi271:
	.seh_stackalloc 48
	leaq	48(%rsp), %rbp
.Lcfi272:
	.seh_setframe 5, 48
.Lcfi273:
	.seh_endprologue
	movq	%rcx, -8(%rbp)
.Ltmp132:
	movq	-8(%rbp), %rcx
	callq	_ZN82_$LT$alloc..raw_vec..RawVec$LT$T$C$$u20$A$GT$$u20$as$u20$core..ops..drop..Drop$GT$4drop17h7c1392fdce5a6f02E
	nop
	addq	$48, %rsp
	popq	%rbp
	retq
.Ltmp133:
.Lfunc_end34:
	.seh_handlerdata
	.section	.text,"xr",one_only,_ZN4core3ptr13drop_in_place17hf5652ed0856e3a9eE
.Lcfi274:
	.seh_endproc

	.def	 _ZN4core5clone5Clone5clone17h1604281bd2a637ebE;
	.scl	2;
	.type	32;
	.endef
	.section	.text,"xr",one_only,_ZN4core5clone5Clone5clone17h1604281bd2a637ebE
	.globl	_ZN4core5clone5Clone5clone17h1604281bd2a637ebE
	.p2align	4, 0x90
_ZN4core5clone5Clone5clone17h1604281bd2a637ebE:
.Lfunc_begin35:
	.cv_func_id 35
	.cv_file	2 "C:\\projects\\rust\\src\\libcore\\clone.rs"
	.cv_loc	35 2 103 0
.Lcfi275:
.seh_proc _ZN4core5clone5Clone5clone17h1604281bd2a637ebE
	pushq	%rbp
.Lcfi276:
	.seh_pushreg 5
	pushq	%rax
.Lcfi277:
	.seh_stackalloc 8
	movq	%rsp, %rbp
.Lcfi278:
	.seh_setframe 5, 0
.Lcfi279:
	.seh_endprologue
	movq	%rcx, (%rbp)
.Ltmp134:
	movq	(%rbp), %rcx
	movq	(%rcx), %rax
	addq	$8, %rsp
	popq	%rbp
	retq
.Ltmp135:
.Lfunc_end35:
	.seh_handlerdata
	.section	.text,"xr",one_only,_ZN4core5clone5Clone5clone17h1604281bd2a637ebE
.Lcfi280:
	.seh_endproc
