	.text
	.def	 _ZN4core3num21_$LT$impl$u20$u16$GT$5to_le17ha843422093de3716E;
	.scl	2;
	.type	32;
	.endef
	.section	.text,"xr",one_only,_ZN4core3num21_$LT$impl$u20$u16$GT$5to_le17ha843422093de3716E
	.globl	_ZN4core3num21_$LT$impl$u20$u16$GT$5to_le17ha843422093de3716E
	.p2align	4, 0x90
_ZN4core3num21_$LT$impl$u20$u16$GT$5to_le17ha843422093de3716E:
.Lfunc_begin0:
	.cv_func_id 0
	.cv_file	1 "C:\\projects\\rust\\src\\libcore\\num\\mod.rs"
	.cv_loc	0 1 1551 0 is_stmt 0
.Lcfi0:
.seh_proc _ZN4core3num21_$LT$impl$u20$u16$GT$5to_le17ha843422093de3716E
	pushq	%rbp
.Lcfi1:
	.seh_pushreg 5
	pushq	%rax
.Lcfi2:
	.seh_stackalloc 8
	movq	%rsp, %rbp
.Lcfi3:
	.seh_setframe 5, 0
.Lcfi4:
	.seh_endprologue
	movw	%cx, %ax
	movw	%ax, 6(%rbp)
.Ltmp0:
	.cv_loc	0 1 1552 0
	movw	6(%rbp), %ax
	.cv_loc	0 1 1553 0
	addq	$8, %rsp
	popq	%rbp
	retq
.Ltmp1:
.Lfunc_end0:
	.seh_handlerdata
	.section	.text,"xr",one_only,_ZN4core3num21_$LT$impl$u20$u16$GT$5to_le17ha843422093de3716E
.Lcfi5:
	.seh_endproc

	.def	 _ZN4core3num21_$LT$impl$u20$u32$GT$5to_le17hc08d40bd0a66ad12E;
	.scl	2;
	.type	32;
	.endef
	.section	.text,"xr",one_only,_ZN4core3num21_$LT$impl$u20$u32$GT$5to_le17hc08d40bd0a66ad12E
	.globl	_ZN4core3num21_$LT$impl$u20$u32$GT$5to_le17hc08d40bd0a66ad12E
	.p2align	4, 0x90
_ZN4core3num21_$LT$impl$u20$u32$GT$5to_le17hc08d40bd0a66ad12E:
.Lfunc_begin1:
	.cv_func_id 1
	.cv_loc	1 1 1551 0
.Lcfi6:
.seh_proc _ZN4core3num21_$LT$impl$u20$u32$GT$5to_le17hc08d40bd0a66ad12E
	pushq	%rbp
.Lcfi7:
	.seh_pushreg 5
	pushq	%rax
.Lcfi8:
	.seh_stackalloc 8
	movq	%rsp, %rbp
.Lcfi9:
	.seh_setframe 5, 0
.Lcfi10:
	.seh_endprologue
	movl	%ecx, 4(%rbp)
.Ltmp2:
	.cv_loc	1 1 1552 0
	movl	4(%rbp), %eax
	.cv_loc	1 1 1553 0
	addq	$8, %rsp
	popq	%rbp
	retq
.Ltmp3:
.Lfunc_end1:
	.seh_handlerdata
	.section	.text,"xr",one_only,_ZN4core3num21_$LT$impl$u20$u32$GT$5to_le17hc08d40bd0a66ad12E
.Lcfi11:
	.seh_endproc

	.def	 _ZN4core3num21_$LT$impl$u20$u64$GT$11rotate_left17h07fc2f1ad45c83d6E;
	.scl	2;
	.type	32;
	.endef
	.section	.text,"xr",one_only,_ZN4core3num21_$LT$impl$u20$u64$GT$11rotate_left17h07fc2f1ad45c83d6E
	.globl	_ZN4core3num21_$LT$impl$u20$u64$GT$11rotate_left17h07fc2f1ad45c83d6E
	.p2align	4, 0x90
_ZN4core3num21_$LT$impl$u20$u64$GT$11rotate_left17h07fc2f1ad45c83d6E:
.Lfunc_begin2:
	.cv_func_id 2
	.cv_loc	2 1 1408 0
.Lcfi12:
.seh_proc _ZN4core3num21_$LT$impl$u20$u64$GT$11rotate_left17h07fc2f1ad45c83d6E
	pushq	%rbp
.Lcfi13:
	.seh_pushreg 5
	subq	$48, %rsp
.Lcfi14:
	.seh_stackalloc 48
	leaq	48(%rsp), %rbp
.Lcfi15:
	.seh_setframe 5, 48
.Lcfi16:
	.seh_endprologue
	movq	%rcx, -16(%rbp)
	movl	%edx, -8(%rbp)
.Ltmp4:
	.cv_loc	2 1 1410 0
	movl	-8(%rbp), %edx
	movl	%edx, -20(%rbp)
	movl	$64, %eax
	movl	-20(%rbp), %ecx
	andl	$63, %ecx
	movl	%ecx, -4(%rbp)
.Ltmp5:
	.cv_loc	2 1 1411 0
	movq	-16(%rbp), %rdx
	movl	-4(%rbp), %ecx
	movl	%ecx, %r8d
	andq	$63, %r8
	movq	%r8, %rcx
	shlq	%cl, %rdx
	movq	-16(%rbp), %r8
	subl	-4(%rbp), %eax
	movq	%r8, -32(%rbp)
	movq	%rdx, -40(%rbp)
	movl	%eax, -44(%rbp)
	movl	-44(%rbp), %eax
	andl	$63, %eax
	movl	%eax, %eax
	movl	%eax, %ecx
	andq	$63, %rcx
	movq	-32(%rbp), %rdx
	shrq	%cl, %rdx
	movq	-40(%rbp), %r8
	orq	%rdx, %r8
.Ltmp6:
	.cv_loc	2 1 1412 0
	movq	%r8, %rax
	addq	$48, %rsp
	popq	%rbp
	retq
.Ltmp7:
.Lfunc_end2:
	.seh_handlerdata
	.section	.text,"xr",one_only,_ZN4core3num21_$LT$impl$u20$u64$GT$11rotate_left17h07fc2f1ad45c83d6E
.Lcfi17:
	.seh_endproc

	.def	 _ZN4core3num21_$LT$impl$u20$u64$GT$12wrapping_add17h6eb05fc927508761E;
	.scl	2;
	.type	32;
	.endef
	.section	.text,"xr",one_only,_ZN4core3num21_$LT$impl$u20$u64$GT$12wrapping_add17h6eb05fc927508761E
	.globl	_ZN4core3num21_$LT$impl$u20$u64$GT$12wrapping_add17h6eb05fc927508761E
	.p2align	4, 0x90
_ZN4core3num21_$LT$impl$u20$u64$GT$12wrapping_add17h6eb05fc927508761E:
.Lfunc_begin3:
	.cv_func_id 3
	.cv_loc	3 1 1778 0
.Lcfi18:
.seh_proc _ZN4core3num21_$LT$impl$u20$u64$GT$12wrapping_add17h6eb05fc927508761E
	pushq	%rbp
.Lcfi19:
	.seh_pushreg 5
	subq	$32, %rsp
.Lcfi20:
	.seh_stackalloc 32
	leaq	32(%rsp), %rbp
.Lcfi21:
	.seh_setframe 5, 32
.Lcfi22:
	.seh_endprologue
	movq	%rcx, -24(%rbp)
	movq	%rdx, -16(%rbp)
.Ltmp8:
	.cv_loc	3 1 1780 0
	movq	-24(%rbp), %rcx
	addq	-16(%rbp), %rcx
	movq	%rcx, -8(%rbp)
	movq	-8(%rbp), %rax
	movq	%rax, -32(%rbp)
.Ltmp9:
	.cv_loc	3 1 1782 0
	movq	-32(%rbp), %rax
	addq	$32, %rsp
	popq	%rbp
	retq
.Ltmp10:
.Lfunc_end3:
	.seh_handlerdata
	.section	.text,"xr",one_only,_ZN4core3num21_$LT$impl$u20$u64$GT$12wrapping_add17h6eb05fc927508761E
.Lcfi23:
	.seh_endproc

	.def	 _ZN4core3num21_$LT$impl$u20$u64$GT$5to_le17h4ac720812d13fec3E;
	.scl	2;
	.type	32;
	.endef
	.section	.text,"xr",one_only,_ZN4core3num21_$LT$impl$u20$u64$GT$5to_le17h4ac720812d13fec3E
	.globl	_ZN4core3num21_$LT$impl$u20$u64$GT$5to_le17h4ac720812d13fec3E
	.p2align	4, 0x90
_ZN4core3num21_$LT$impl$u20$u64$GT$5to_le17h4ac720812d13fec3E:
.Lfunc_begin4:
	.cv_func_id 4
	.cv_loc	4 1 1551 0
.Lcfi24:
.seh_proc _ZN4core3num21_$LT$impl$u20$u64$GT$5to_le17h4ac720812d13fec3E
	pushq	%rbp
.Lcfi25:
	.seh_pushreg 5
	pushq	%rax
.Lcfi26:
	.seh_stackalloc 8
	movq	%rsp, %rbp
.Lcfi27:
	.seh_setframe 5, 0
.Lcfi28:
	.seh_endprologue
	movq	%rcx, (%rbp)
.Ltmp11:
	.cv_loc	4 1 1552 0
	movq	(%rbp), %rax
	.cv_loc	4 1 1553 0
	addq	$8, %rsp
	popq	%rbp
	retq
.Ltmp12:
.Lfunc_end4:
	.seh_handlerdata
	.section	.text,"xr",one_only,_ZN4core3num21_$LT$impl$u20$u64$GT$5to_le17h4ac720812d13fec3E
.Lcfi29:
	.seh_endproc

	.def	 _ZN4core3num23_$LT$impl$u20$usize$GT$11checked_add17h2595e4725e9ad1d8E;
	.scl	2;
	.type	32;
	.endef
	.section	.text,"xr",one_only,_ZN4core3num23_$LT$impl$u20$usize$GT$11checked_add17h2595e4725e9ad1d8E
	.globl	_ZN4core3num23_$LT$impl$u20$usize$GT$11checked_add17h2595e4725e9ad1d8E
	.p2align	4, 0x90
_ZN4core3num23_$LT$impl$u20$usize$GT$11checked_add17h2595e4725e9ad1d8E:
.Lfunc_begin5:
	.cv_func_id 5
	.cv_loc	5 1 1568 0
.Lcfi30:
.seh_proc _ZN4core3num23_$LT$impl$u20$usize$GT$11checked_add17h2595e4725e9ad1d8E
	pushq	%rbp
.Lcfi31:
	.seh_pushreg 5
	subq	$96, %rsp
.Lcfi32:
	.seh_stackalloc 96
	leaq	96(%rsp), %rbp
.Lcfi33:
	.seh_setframe 5, 96
.Lcfi34:
	.seh_endprologue
	movq	%rcx, %rax
	movq	%rdx, -32(%rbp)
	movq	%r8, -24(%rbp)
.Ltmp13:
	.cv_loc	5 1 1569 0
	movq	-32(%rbp), %rdx
	movq	-24(%rbp), %r8
	movq	%rcx, -40(%rbp)
	movq	%rdx, %rcx
	movq	%r8, %rdx
	movq	%rax, -48(%rbp)
	callq	_ZN4core3num23_$LT$impl$u20$usize$GT$15overflowing_add17hec405971a6f447d9E
	movq	%rax, -56(%rbp)
	movb	%dl, -57(%rbp)
	movq	-56(%rbp), %rax
	movq	%rax, -16(%rbp)
	movb	-57(%rbp), %cl
	andb	$1, %cl
	movb	%cl, -1(%rbp)
.Ltmp14:
	.cv_loc	5 1 1570 0
	testb	$1, -1(%rbp)
	je	.LBB5_3
	movq	-40(%rbp), %rax
	movq	$0, (%rax)
	jmp	.LBB5_4
.LBB5_3:
	movq	-16(%rbp), %rax
	movq	-40(%rbp), %rcx
	movq	$1, (%rcx)
	movq	%rax, 8(%rcx)
.Ltmp15:
.LBB5_4:
	.cv_loc	5 1 1571 0
	movq	-48(%rbp), %rax
	addq	$96, %rsp
	popq	%rbp
	retq
.Ltmp16:
.Lfunc_end5:
	.seh_handlerdata
	.section	.text,"xr",one_only,_ZN4core3num23_$LT$impl$u20$usize$GT$11checked_add17h2595e4725e9ad1d8E
.Lcfi35:
	.seh_endproc

	.def	 _ZN4core3num23_$LT$impl$u20$usize$GT$11checked_mul17he54b40f9f4f9b5c4E;
	.scl	2;
	.type	32;
	.endef
	.section	.text,"xr",one_only,_ZN4core3num23_$LT$impl$u20$usize$GT$11checked_mul17he54b40f9f4f9b5c4E
	.globl	_ZN4core3num23_$LT$impl$u20$usize$GT$11checked_mul17he54b40f9f4f9b5c4E
	.p2align	4, 0x90
_ZN4core3num23_$LT$impl$u20$usize$GT$11checked_mul17he54b40f9f4f9b5c4E:
.Lfunc_begin6:
	.cv_func_id 6
	.cv_loc	6 1 1604 0
.Lcfi36:
.seh_proc _ZN4core3num23_$LT$impl$u20$usize$GT$11checked_mul17he54b40f9f4f9b5c4E
	pushq	%rbp
.Lcfi37:
	.seh_pushreg 5
	subq	$96, %rsp
.Lcfi38:
	.seh_stackalloc 96
	leaq	96(%rsp), %rbp
.Lcfi39:
	.seh_setframe 5, 96
.Lcfi40:
	.seh_endprologue
	movq	%rcx, %rax
	movq	%rdx, -32(%rbp)
	movq	%r8, -24(%rbp)
.Ltmp17:
	.cv_loc	6 1 1605 0
	movq	-32(%rbp), %rdx
	movq	-24(%rbp), %r8
	movq	%rcx, -40(%rbp)
	movq	%rdx, %rcx
	movq	%r8, %rdx
	movq	%rax, -48(%rbp)
	callq	_ZN4core3num23_$LT$impl$u20$usize$GT$15overflowing_mul17h39abd30f4d4e35feE
	movq	%rax, -56(%rbp)
	movb	%dl, -57(%rbp)
	movq	-56(%rbp), %rax
	movq	%rax, -16(%rbp)
	movb	-57(%rbp), %cl
	andb	$1, %cl
	movb	%cl, -1(%rbp)
.Ltmp18:
	.cv_loc	6 1 1606 0
	testb	$1, -1(%rbp)
	je	.LBB6_3
	movq	-40(%rbp), %rax
	movq	$0, (%rax)
	jmp	.LBB6_4
.LBB6_3:
	movq	-16(%rbp), %rax
	movq	-40(%rbp), %rcx
	movq	$1, (%rcx)
	movq	%rax, 8(%rcx)
.Ltmp19:
.LBB6_4:
	.cv_loc	6 1 1607 0
	movq	-48(%rbp), %rax
	addq	$96, %rsp
	popq	%rbp
	retq
.Ltmp20:
.Lfunc_end6:
	.seh_handlerdata
	.section	.text,"xr",one_only,_ZN4core3num23_$LT$impl$u20$usize$GT$11checked_mul17he54b40f9f4f9b5c4E
.Lcfi41:
	.seh_endproc

	.def	 _ZN4core3num23_$LT$impl$u20$usize$GT$12wrapping_add17hb5013636858df802E;
	.scl	2;
	.type	32;
	.endef
	.section	.text,"xr",one_only,_ZN4core3num23_$LT$impl$u20$usize$GT$12wrapping_add17hb5013636858df802E
	.globl	_ZN4core3num23_$LT$impl$u20$usize$GT$12wrapping_add17hb5013636858df802E
	.p2align	4, 0x90
_ZN4core3num23_$LT$impl$u20$usize$GT$12wrapping_add17hb5013636858df802E:
.Lfunc_begin7:
	.cv_func_id 7
	.cv_loc	7 1 1778 0
.Lcfi42:
.seh_proc _ZN4core3num23_$LT$impl$u20$usize$GT$12wrapping_add17hb5013636858df802E
	pushq	%rbp
.Lcfi43:
	.seh_pushreg 5
	subq	$32, %rsp
.Lcfi44:
	.seh_stackalloc 32
	leaq	32(%rsp), %rbp
.Lcfi45:
	.seh_setframe 5, 32
.Lcfi46:
	.seh_endprologue
	movq	%rcx, -24(%rbp)
	movq	%rdx, -16(%rbp)
.Ltmp21:
	.cv_loc	7 1 1780 0
	movq	-24(%rbp), %rcx
	addq	-16(%rbp), %rcx
	movq	%rcx, -8(%rbp)
	movq	-8(%rbp), %rax
	movq	%rax, -32(%rbp)
.Ltmp22:
	.cv_loc	7 1 1782 0
	movq	-32(%rbp), %rax
	addq	$32, %rsp
	popq	%rbp
	retq
.Ltmp23:
.Lfunc_end7:
	.seh_handlerdata
	.section	.text,"xr",one_only,_ZN4core3num23_$LT$impl$u20$usize$GT$12wrapping_add17hb5013636858df802E
.Lcfi47:
	.seh_endproc

	.def	 _ZN4core3num23_$LT$impl$u20$usize$GT$12wrapping_mul17hbfff3ceafe74be04E;
	.scl	2;
	.type	32;
	.endef
	.section	.text,"xr",one_only,_ZN4core3num23_$LT$impl$u20$usize$GT$12wrapping_mul17hbfff3ceafe74be04E
	.globl	_ZN4core3num23_$LT$impl$u20$usize$GT$12wrapping_mul17hbfff3ceafe74be04E
	.p2align	4, 0x90
_ZN4core3num23_$LT$impl$u20$usize$GT$12wrapping_mul17hbfff3ceafe74be04E:
.Lfunc_begin8:
	.cv_func_id 8
	.cv_loc	8 1 1816 0
.Lcfi48:
.seh_proc _ZN4core3num23_$LT$impl$u20$usize$GT$12wrapping_mul17hbfff3ceafe74be04E
	pushq	%rbp
.Lcfi49:
	.seh_pushreg 5
	subq	$32, %rsp
.Lcfi50:
	.seh_stackalloc 32
	leaq	32(%rsp), %rbp
.Lcfi51:
	.seh_setframe 5, 32
.Lcfi52:
	.seh_endprologue
	movq	%rcx, -24(%rbp)
	movq	%rdx, -16(%rbp)
.Ltmp24:
	.cv_loc	8 1 1818 0
	movq	-24(%rbp), %rcx
	imulq	-16(%rbp), %rcx
	movq	%rcx, -8(%rbp)
	movq	-8(%rbp), %rax
	movq	%rax, -32(%rbp)
.Ltmp25:
	.cv_loc	8 1 1820 0
	movq	-32(%rbp), %rax
	addq	$32, %rsp
	popq	%rbp
	retq
.Ltmp26:
.Lfunc_end8:
	.seh_handlerdata
	.section	.text,"xr",one_only,_ZN4core3num23_$LT$impl$u20$usize$GT$12wrapping_mul17hbfff3ceafe74be04E
.Lcfi53:
	.seh_endproc

	.def	 _ZN4core3num23_$LT$impl$u20$usize$GT$12wrapping_sub17hcdbad80dcddfbfa4E;
	.scl	2;
	.type	32;
	.endef
	.section	.text,"xr",one_only,_ZN4core3num23_$LT$impl$u20$usize$GT$12wrapping_sub17hcdbad80dcddfbfa4E
	.globl	_ZN4core3num23_$LT$impl$u20$usize$GT$12wrapping_sub17hcdbad80dcddfbfa4E
	.p2align	4, 0x90
_ZN4core3num23_$LT$impl$u20$usize$GT$12wrapping_sub17hcdbad80dcddfbfa4E:
.Lfunc_begin9:
	.cv_func_id 9
	.cv_loc	9 1 1797 0
.Lcfi54:
.seh_proc _ZN4core3num23_$LT$impl$u20$usize$GT$12wrapping_sub17hcdbad80dcddfbfa4E
	pushq	%rbp
.Lcfi55:
	.seh_pushreg 5
	subq	$32, %rsp
.Lcfi56:
	.seh_stackalloc 32
	leaq	32(%rsp), %rbp
.Lcfi57:
	.seh_setframe 5, 32
.Lcfi58:
	.seh_endprologue
	movq	%rcx, -24(%rbp)
	movq	%rdx, -16(%rbp)
.Ltmp27:
	.cv_loc	9 1 1799 0
	movq	-24(%rbp), %rcx
	subq	-16(%rbp), %rcx
	movq	%rcx, -8(%rbp)
	movq	-8(%rbp), %rax
	movq	%rax, -32(%rbp)
.Ltmp28:
	.cv_loc	9 1 1801 0
	movq	-32(%rbp), %rax
	addq	$32, %rsp
	popq	%rbp
	retq
.Ltmp29:
.Lfunc_end9:
	.seh_handlerdata
	.section	.text,"xr",one_only,_ZN4core3num23_$LT$impl$u20$usize$GT$12wrapping_sub17hcdbad80dcddfbfa4E
.Lcfi59:
	.seh_endproc

	.def	 _ZN4core3num23_$LT$impl$u20$usize$GT$15is_power_of_two17h47775aceccb15faeE;
	.scl	2;
	.type	32;
	.endef
	.section	.text,"xr",one_only,_ZN4core3num23_$LT$impl$u20$usize$GT$15is_power_of_two17h47775aceccb15faeE
	.globl	_ZN4core3num23_$LT$impl$u20$usize$GT$15is_power_of_two17h47775aceccb15faeE
	.p2align	4, 0x90
_ZN4core3num23_$LT$impl$u20$usize$GT$15is_power_of_two17h47775aceccb15faeE:
.Lfunc_begin10:
	.cv_func_id 10
	.cv_loc	10 1 2177 0
.Lcfi60:
.seh_proc _ZN4core3num23_$LT$impl$u20$usize$GT$15is_power_of_two17h47775aceccb15faeE
	pushq	%rbp
.Lcfi61:
	.seh_pushreg 5
	subq	$64, %rsp
.Lcfi62:
	.seh_stackalloc 64
	leaq	64(%rsp), %rbp
.Lcfi63:
	.seh_setframe 5, 64
.Lcfi64:
	.seh_endprologue
	movl	$1, %eax
	movl	%eax, %edx
	movq	%rcx, -16(%rbp)
.Ltmp30:
	.cv_loc	10 1 2178 0
	movq	-16(%rbp), %rcx
	callq	_ZN4core3num23_$LT$impl$u20$usize$GT$12wrapping_sub17hcdbad80dcddfbfa4E
	movq	%rax, -24(%rbp)
	jmp	.LBB10_5
.LBB10_1:
	movb	$1, -1(%rbp)
	jmp	.LBB10_4
.LBB10_2:
	movb	$0, -1(%rbp)
	jmp	.LBB10_4
.LBB10_3:
	cmpq	$0, -16(%rbp)
	sete	%al
	xorb	$-1, %al
	testb	$1, %al
	jne	.LBB10_1
	jmp	.LBB10_2
.LBB10_4:
	.cv_loc	10 1 2179 0
	movb	-1(%rbp), %al
	andb	$1, %al
	movzbl	%al, %eax
	addq	$64, %rsp
	popq	%rbp
	retq
.LBB10_5:
	.cv_loc	10 1 2178 0
	movq	-24(%rbp), %rax
	andq	-16(%rbp), %rax
	cmpq	$0, %rax
	je	.LBB10_3
	jmp	.LBB10_2
.Ltmp31:
.Lfunc_end10:
	.seh_handlerdata
	.section	.text,"xr",one_only,_ZN4core3num23_$LT$impl$u20$usize$GT$15is_power_of_two17h47775aceccb15faeE
.Lcfi65:
	.seh_endproc

	.def	 _ZN4core3num23_$LT$impl$u20$usize$GT$15overflowing_add17hec405971a6f447d9E;
	.scl	2;
	.type	32;
	.endef
	.section	.text,"xr",one_only,_ZN4core3num23_$LT$impl$u20$usize$GT$15overflowing_add17hec405971a6f447d9E
	.globl	_ZN4core3num23_$LT$impl$u20$usize$GT$15overflowing_add17hec405971a6f447d9E
	.p2align	4, 0x90
_ZN4core3num23_$LT$impl$u20$usize$GT$15overflowing_add17hec405971a6f447d9E:
.Lfunc_begin11:
	.cv_func_id 11
	.cv_loc	11 1 1959 0
.Lcfi66:
.seh_proc _ZN4core3num23_$LT$impl$u20$usize$GT$15overflowing_add17hec405971a6f447d9E
	pushq	%rbp
.Lcfi67:
	.seh_pushreg 5
	subq	$80, %rsp
.Lcfi68:
	.seh_stackalloc 80
	leaq	80(%rsp), %rbp
.Lcfi69:
	.seh_setframe 5, 80
.Lcfi70:
	.seh_endprologue
	movq	%rcx, -64(%rbp)
	movq	%rdx, -56(%rbp)
.Ltmp32:
	.cv_loc	11 1 1961 0
	movq	-64(%rbp), %rcx
	.cv_loc	11 1 1962 0
	movq	-56(%rbp), %rdx
	.cv_loc	11 1 1961 0
	addq	%rdx, %rcx
	setb	%al
	andb	$1, %al
	movq	%rcx, -16(%rbp)
	movb	%al, -8(%rbp)
	movq	-16(%rbp), %rcx
	movb	-8(%rbp), %al
	movq	%rcx, -72(%rbp)
	movb	%al, -73(%rbp)
.Ltmp33:
	.cv_loc	11 1 1960 0
	movq	-72(%rbp), %rax
	movq	%rax, -32(%rbp)
	movb	-73(%rbp), %cl
	andb	$1, %cl
	movb	%cl, -17(%rbp)
.Ltmp34:
	.cv_loc	11 1 1964 0
	movq	-32(%rbp), %rdx
	movb	-17(%rbp), %cl
	movq	%rdx, -48(%rbp)
	movb	%cl, -40(%rbp)
.Ltmp35:
	.cv_loc	11 1 1965 0
	movq	-48(%rbp), %rax
	movb	-40(%rbp), %dl
	addq	$80, %rsp
	popq	%rbp
	retq
.Ltmp36:
.Lfunc_end11:
	.seh_handlerdata
	.section	.text,"xr",one_only,_ZN4core3num23_$LT$impl$u20$usize$GT$15overflowing_add17hec405971a6f447d9E
.Lcfi71:
	.seh_endproc

	.def	 _ZN4core3num23_$LT$impl$u20$usize$GT$15overflowing_mul17h39abd30f4d4e35feE;
	.scl	3;
	.type	32;
	.endef
	.section	.text,"xr",one_only,_ZN4core3num23_$LT$impl$u20$usize$GT$15overflowing_mul17h39abd30f4d4e35feE
	.p2align	4, 0x90
_ZN4core3num23_$LT$impl$u20$usize$GT$15overflowing_mul17h39abd30f4d4e35feE:
.Lfunc_begin12:
	.cv_func_id 12
	.cv_loc	12 1 2009 0
.Lcfi72:
.seh_proc _ZN4core3num23_$LT$impl$u20$usize$GT$15overflowing_mul17h39abd30f4d4e35feE
	pushq	%rbp
.Lcfi73:
	.seh_pushreg 5
	subq	$80, %rsp
.Lcfi74:
	.seh_stackalloc 80
	leaq	80(%rsp), %rbp
.Lcfi75:
	.seh_setframe 5, 80
.Lcfi76:
	.seh_endprologue
	movq	%rcx, -64(%rbp)
	movq	%rdx, -56(%rbp)
.Ltmp37:
	.cv_loc	12 1 2011 0
	movq	-64(%rbp), %rax
	.cv_loc	12 1 2012 0
	movq	-56(%rbp), %rcx
	.cv_loc	12 1 2011 0
	mulq	%rcx
	seto	%r8b
	andb	$1, %r8b
	movq	%rax, -16(%rbp)
	movb	%r8b, -8(%rbp)
	movq	-16(%rbp), %rax
	movb	-8(%rbp), %r8b
	movq	%rax, -72(%rbp)
	movb	%r8b, -73(%rbp)
.Ltmp38:
	.cv_loc	12 1 2010 0
	movq	-72(%rbp), %rax
	movq	%rax, -32(%rbp)
	movb	-73(%rbp), %cl
	andb	$1, %cl
	movb	%cl, -17(%rbp)
.Ltmp39:
	.cv_loc	12 1 2014 0
	movq	-32(%rbp), %rdx
	movb	-17(%rbp), %cl
	movq	%rdx, -48(%rbp)
	movb	%cl, -40(%rbp)
.Ltmp40:
	.cv_loc	12 1 2015 0
	movq	-48(%rbp), %rax
	movb	-40(%rbp), %dl
	addq	$80, %rsp
	popq	%rbp
	retq
.Ltmp41:
.Lfunc_end12:
	.seh_handlerdata
	.section	.text,"xr",one_only,_ZN4core3num23_$LT$impl$u20$usize$GT$15overflowing_mul17h39abd30f4d4e35feE
.Lcfi77:
	.seh_endproc
