	.text
	.def	 _ZN8asteroid8settings15SettingsBuilder3new17hd3bdf11796c8a6ccE;
	.scl	2;
	.type	32;
	.endef
	.section	.text,"xr",one_only,_ZN8asteroid8settings15SettingsBuilder3new17hd3bdf11796c8a6ccE
	.globl	_ZN8asteroid8settings15SettingsBuilder3new17hd3bdf11796c8a6ccE
	.p2align	4, 0x90
_ZN8asteroid8settings15SettingsBuilder3new17hd3bdf11796c8a6ccE:
.Lfunc_begin0:
	.cv_func_id 0
	.cv_file	1 "C:\\Users\\Zack\\source\\asteroid\\src\\settings.rs"
	.cv_loc	0 1 31 0 is_stmt 0
.Lcfi0:
.seh_proc _ZN8asteroid8settings15SettingsBuilder3new17hd3bdf11796c8a6ccE
	pushq	%rbp
.Lcfi1:
	.seh_pushreg 5
	subq	$48, %rsp
.Lcfi2:
	.seh_stackalloc 48
	leaq	48(%rsp), %rbp
.Lcfi3:
	.seh_setframe 5, 48
.Lcfi4:
	.seh_endprologue
	movq	%rcx, %rax
.Ltmp0:
	.cv_loc	0 1 33 0
	movq	$0, -48(%rbp)
	.cv_loc	0 1 34 0
	movl	$0, -24(%rbp)
	.cv_loc	0 1 35 0
	movl	$0, -16(%rbp)
	.cv_loc	0 1 36 0
	movb	$2, -3(%rbp)
	.cv_loc	0 1 37 0
	movb	$2, -2(%rbp)
	.cv_loc	0 1 38 0
	movb	$2, -1(%rbp)
	.cv_loc	0 1 32 0
	movq	-48(%rbp), %rdx
	movq	%rdx, (%rcx)
	movq	-40(%rbp), %rdx
	movq	%rdx, 8(%rcx)
	movq	-32(%rbp), %rdx
	movq	%rdx, 16(%rcx)
	movq	-24(%rbp), %rdx
	movq	%rdx, 24(%rcx)
	movq	-16(%rbp), %rdx
	movq	%rdx, 32(%rcx)
	movb	-3(%rbp), %r8b
	movb	%r8b, 40(%rcx)
	movb	-2(%rbp), %r8b
	movb	%r8b, 41(%rcx)
	movb	-1(%rbp), %r8b
	movb	%r8b, 42(%rcx)
	.cv_loc	0 1 40 0
	addq	$48, %rsp
	popq	%rbp
	retq
.Ltmp1:
.Lfunc_end0:
	.seh_handlerdata
	.section	.text,"xr",one_only,_ZN8asteroid8settings15SettingsBuilder3new17hd3bdf11796c8a6ccE
.Lcfi5:
	.seh_endproc

	.def	 _ZN8asteroid8settings15SettingsBuilder5title17h5ecb955b664a0531E;
	.scl	2;
	.type	32;
	.endef
	.section	.text,"xr",one_only,_ZN8asteroid8settings15SettingsBuilder5title17h5ecb955b664a0531E
	.globl	_ZN8asteroid8settings15SettingsBuilder5title17h5ecb955b664a0531E
	.p2align	4, 0x90
_ZN8asteroid8settings15SettingsBuilder5title17h5ecb955b664a0531E:
.Lfunc_begin1:
	.cv_func_id 1
	.cv_loc	1 1 42 0
.Lcfi6:
.seh_proc _ZN8asteroid8settings15SettingsBuilder5title17h5ecb955b664a0531E
	.seh_handler __CxxFrameHandler3, @unwind, @except
	pushq	%rbp
.Lcfi7:
	.seh_pushreg 5
	subq	$128, %rsp
.Lcfi8:
	.seh_stackalloc 128
	leaq	128(%rsp), %rbp
.Lcfi9:
	.seh_setframe 5, 128
.Lcfi10:
	.seh_endprologue
	movq	$-2, -8(%rbp)
	movq	%rcx, %rax
	movq	%r8, -72(%rbp)
	movq	%r9, -64(%rbp)
.Ltmp4:
	.cv_loc	1 1 44 0
	movq	-72(%rbp), %r8
	movq	-64(%rbp), %r9
.Ltmp2:
	leaq	-32(%rbp), %r10
	movq	%rcx, -80(%rbp)
	movq	%r10, %rcx
	movq	%rdx, -88(%rbp)
.Ltmp5:
	movq	%r8, %rdx
	movq	%r9, %r8
	movq	%rax, -96(%rbp)
	callq	_ZN5alloc3str56_$LT$impl$u20$alloc..borrow..ToOwned$u20$for$u20$str$GT$8to_owned17h22b98e3fb520a0c4E
.Ltmp3:
	jmp	.LBB1_1
.Ltmp6:
.LBB1_1:
	movq	-32(%rbp), %rax
	movq	%rax, -56(%rbp)
	movq	-24(%rbp), %rax
	movq	%rax, -48(%rbp)
	movq	-16(%rbp), %rax
	movq	%rax, -40(%rbp)
	.cv_loc	1 1 43 0
	movq	-56(%rbp), %rax
	movq	-80(%rbp), %rcx
	movq	%rax, (%rcx)
	movq	-48(%rbp), %rax
	movq	%rax, 8(%rcx)
	movq	-40(%rbp), %rax
	movq	%rax, 16(%rcx)
	movq	-88(%rbp), %rax
	movq	24(%rax), %rdx
	movq	%rdx, 24(%rcx)
	movq	32(%rax), %rdx
	movq	%rdx, 32(%rcx)
	movb	40(%rax), %r8b
	movb	%r8b, 40(%rcx)
	movb	41(%rax), %r8b
	movb	%r8b, 41(%rcx)
	movb	42(%rax), %r8b
	movb	%r8b, 42(%rcx)
	.cv_loc	1 1 47 0
	movq	%rax, %rcx
	callq	_ZN4core3ptr13drop_in_place17h06c8cbb18e6dbabcE
	movq	-96(%rbp), %rax
	addq	$128, %rsp
	popq	%rbp
.Ltmp7:
	retq
	.seh_handlerdata
	.long	($cppxdata$_ZN8asteroid8settings15SettingsBuilder5title17h5ecb955b664a0531E)@IMGREL
	.section	.text,"xr",one_only,_ZN8asteroid8settings15SettingsBuilder5title17h5ecb955b664a0531E
.Lcfi11:
	.seh_endproc
	.def	 "?dtor$2@?0?_ZN8asteroid8settings15SettingsBuilder5title17h5ecb955b664a0531E@4HA";
	.scl	3;
	.type	32;
	.endef
	.p2align	4, 0x90
"?dtor$2@?0?_ZN8asteroid8settings15SettingsBuilder5title17h5ecb955b664a0531E@4HA":
.Lcfi12:
.seh_proc "?dtor$2@?0?_ZN8asteroid8settings15SettingsBuilder5title17h5ecb955b664a0531E@4HA"
.LBB1_2:
.Ltmp8:
	movq	%rdx, 16(%rsp)
	pushq	%rbp
.Lcfi13:
	.seh_pushreg 5
	subq	$32, %rsp
.Lcfi14:
	.seh_stackalloc 32
	leaq	128(%rdx), %rbp
.Ltmp9:
.Lcfi15:
	.seh_endprologue
	movq	-88(%rbp), %rcx
	callq	_ZN4core3ptr13drop_in_place17h06c8cbb18e6dbabcE
	.cv_loc	1 1 42 0
	nop
	addq	$32, %rsp
	popq	%rbp
	retq
.Ltmp10:
.Lfunc_end1:
	.seh_handlerdata
	.section	.text,"xr",one_only,_ZN8asteroid8settings15SettingsBuilder5title17h5ecb955b664a0531E
.Lcfi16:
	.seh_endproc
	.section	.xdata,"dr",associative,_ZN8asteroid8settings15SettingsBuilder5title17h5ecb955b664a0531E
	.p2align	2
$cppxdata$_ZN8asteroid8settings15SettingsBuilder5title17h5ecb955b664a0531E:
	.long	429065506
	.long	1
	.long	($stateUnwindMap$_ZN8asteroid8settings15SettingsBuilder5title17h5ecb955b664a0531E)@IMGREL
	.long	0
	.long	0
	.long	3
	.long	($ip2state$_ZN8asteroid8settings15SettingsBuilder5title17h5ecb955b664a0531E)@IMGREL
	.long	120
	.long	0
	.long	1
$stateUnwindMap$_ZN8asteroid8settings15SettingsBuilder5title17h5ecb955b664a0531E:
	.long	-1
	.long	"?dtor$2@?0?_ZN8asteroid8settings15SettingsBuilder5title17h5ecb955b664a0531E@4HA"@IMGREL
$ip2state$_ZN8asteroid8settings15SettingsBuilder5title17h5ecb955b664a0531E:
	.long	.Lfunc_begin1@IMGREL
	.long	-1
	.long	.Ltmp2@IMGREL+1
	.long	0
	.long	.Ltmp3@IMGREL+1
	.long	-1
	.section	.text,"xr",one_only,_ZN8asteroid8settings15SettingsBuilder5title17h5ecb955b664a0531E

	.def	 _ZN8asteroid8settings15SettingsBuilder5width17hcaba5f436916c530E;
	.scl	2;
	.type	32;
	.endef
	.section	.text,"xr",one_only,_ZN8asteroid8settings15SettingsBuilder5width17hcaba5f436916c530E
	.globl	_ZN8asteroid8settings15SettingsBuilder5width17hcaba5f436916c530E
	.p2align	4, 0x90
_ZN8asteroid8settings15SettingsBuilder5width17hcaba5f436916c530E:
.Lfunc_begin2:
	.cv_func_id 2
	.cv_loc	2 1 49 0
.Lcfi17:
.seh_proc _ZN8asteroid8settings15SettingsBuilder5width17hcaba5f436916c530E
	pushq	%rbp
.Lcfi18:
	.seh_pushreg 5
	subq	$16, %rsp
.Lcfi19:
	.seh_stackalloc 16
	leaq	16(%rsp), %rbp
.Lcfi20:
	.seh_setframe 5, 16
.Lcfi21:
	.seh_endprologue
	movq	%rcx, %rax
	movl	%r8d, -12(%rbp)
.Ltmp11:
	.cv_loc	2 1 51 0
	movl	-12(%rbp), %r8d
	movl	$1, -8(%rbp)
	movl	%r8d, -4(%rbp)
	.cv_loc	2 1 50 0
	movq	(%rdx), %r9
	movq	%r9, (%rcx)
	movq	8(%rdx), %r9
	movq	%r9, 8(%rcx)
	movq	16(%rdx), %r9
	movq	%r9, 16(%rcx)
	movq	-8(%rbp), %r9
	movq	%r9, 24(%rcx)
	movq	32(%rdx), %r9
	movq	%r9, 32(%rcx)
	movb	40(%rdx), %r10b
	movb	%r10b, 40(%rcx)
	movb	41(%rdx), %r10b
	movb	%r10b, 41(%rcx)
	movb	42(%rdx), %r10b
	movb	%r10b, 42(%rcx)
	.cv_loc	2 1 54 0
	addq	$16, %rsp
	popq	%rbp
	retq
.Ltmp12:
.Lfunc_end2:
	.seh_handlerdata
	.section	.text,"xr",one_only,_ZN8asteroid8settings15SettingsBuilder5width17hcaba5f436916c530E
.Lcfi22:
	.seh_endproc

	.def	 _ZN8asteroid8settings15SettingsBuilder6height17h0e96067a4d1e17b7E;
	.scl	2;
	.type	32;
	.endef
	.section	.text,"xr",one_only,_ZN8asteroid8settings15SettingsBuilder6height17h0e96067a4d1e17b7E
	.globl	_ZN8asteroid8settings15SettingsBuilder6height17h0e96067a4d1e17b7E
	.p2align	4, 0x90
_ZN8asteroid8settings15SettingsBuilder6height17h0e96067a4d1e17b7E:
.Lfunc_begin3:
	.cv_func_id 3
	.cv_loc	3 1 56 0
.Lcfi23:
.seh_proc _ZN8asteroid8settings15SettingsBuilder6height17h0e96067a4d1e17b7E
	pushq	%rbp
.Lcfi24:
	.seh_pushreg 5
	subq	$16, %rsp
.Lcfi25:
	.seh_stackalloc 16
	leaq	16(%rsp), %rbp
.Lcfi26:
	.seh_setframe 5, 16
.Lcfi27:
	.seh_endprologue
	movq	%rcx, %rax
	movl	%r8d, -12(%rbp)
.Ltmp13:
	.cv_loc	3 1 58 0
	movl	-12(%rbp), %r8d
	movl	$1, -8(%rbp)
	movl	%r8d, -4(%rbp)
	.cv_loc	3 1 57 0
	movq	(%rdx), %r9
	movq	%r9, (%rcx)
	movq	8(%rdx), %r9
	movq	%r9, 8(%rcx)
	movq	16(%rdx), %r9
	movq	%r9, 16(%rcx)
	movq	24(%rdx), %r9
	movq	%r9, 24(%rcx)
	movq	-8(%rbp), %r9
	movq	%r9, 32(%rcx)
	movb	40(%rdx), %r10b
	movb	%r10b, 40(%rcx)
	movb	41(%rdx), %r10b
	movb	%r10b, 41(%rcx)
	movb	42(%rdx), %r10b
	movb	%r10b, 42(%rcx)
	.cv_loc	3 1 61 0
	addq	$16, %rsp
	popq	%rbp
	retq
.Ltmp14:
.Lfunc_end3:
	.seh_handlerdata
	.section	.text,"xr",one_only,_ZN8asteroid8settings15SettingsBuilder6height17h0e96067a4d1e17b7E
.Lcfi28:
	.seh_endproc

	.def	 _ZN8asteroid8settings15SettingsBuilder5vsync17hc97b552d0f48e8d8E;
	.scl	2;
	.type	32;
	.endef
	.section	.text,"xr",one_only,_ZN8asteroid8settings15SettingsBuilder5vsync17hc97b552d0f48e8d8E
	.globl	_ZN8asteroid8settings15SettingsBuilder5vsync17hc97b552d0f48e8d8E
	.p2align	4, 0x90
_ZN8asteroid8settings15SettingsBuilder5vsync17hc97b552d0f48e8d8E:
.Lfunc_begin4:
	.cv_func_id 4
	.cv_loc	4 1 63 0
.Lcfi29:
.seh_proc _ZN8asteroid8settings15SettingsBuilder5vsync17hc97b552d0f48e8d8E
	pushq	%rbp
.Lcfi30:
	.seh_pushreg 5
	pushq	%rax
.Lcfi31:
	.seh_stackalloc 8
	movq	%rsp, %rbp
.Lcfi32:
	.seh_setframe 5, 0
.Lcfi33:
	.seh_endprologue
	movb	%r8b, %al
	movq	%rcx, %r9
	andb	$1, %al
	movb	%al, 6(%rbp)
.Ltmp15:
	.cv_loc	4 1 65 0
	movb	6(%rbp), %al
	andb	$1, %al
	movb	%al, 7(%rbp)
	.cv_loc	4 1 64 0
	movq	(%rdx), %r10
	movq	%r10, (%rcx)
	movq	8(%rdx), %r10
	movq	%r10, 8(%rcx)
	movq	16(%rdx), %r10
	movq	%r10, 16(%rcx)
	movq	24(%rdx), %r10
	movq	%r10, 24(%rcx)
	movq	32(%rdx), %r10
	movq	%r10, 32(%rcx)
	movb	7(%rbp), %al
	movb	%al, 40(%rcx)
	movb	41(%rdx), %al
	movb	%al, 41(%rcx)
	movb	42(%rdx), %al
	movb	%al, 42(%rcx)
	.cv_loc	4 1 68 0
	movq	%r9, %rax
	addq	$8, %rsp
	popq	%rbp
	retq
.Ltmp16:
.Lfunc_end4:
	.seh_handlerdata
	.section	.text,"xr",one_only,_ZN8asteroid8settings15SettingsBuilder5vsync17hc97b552d0f48e8d8E
.Lcfi34:
	.seh_endproc

	.def	 _ZN8asteroid8settings15SettingsBuilder10fullscreen17h9f777f07606b84e7E;
	.scl	2;
	.type	32;
	.endef
	.section	.text,"xr",one_only,_ZN8asteroid8settings15SettingsBuilder10fullscreen17h9f777f07606b84e7E
	.globl	_ZN8asteroid8settings15SettingsBuilder10fullscreen17h9f777f07606b84e7E
	.p2align	4, 0x90
_ZN8asteroid8settings15SettingsBuilder10fullscreen17h9f777f07606b84e7E:
.Lfunc_begin5:
	.cv_func_id 5
	.cv_loc	5 1 70 0
.Lcfi35:
.seh_proc _ZN8asteroid8settings15SettingsBuilder10fullscreen17h9f777f07606b84e7E
	pushq	%rbp
.Lcfi36:
	.seh_pushreg 5
	pushq	%rax
.Lcfi37:
	.seh_stackalloc 8
	movq	%rsp, %rbp
.Lcfi38:
	.seh_setframe 5, 0
.Lcfi39:
	.seh_endprologue
	movb	%r8b, %al
	movq	%rcx, %r9
	andb	$1, %al
	movb	%al, 6(%rbp)
.Ltmp17:
	.cv_loc	5 1 72 0
	movb	6(%rbp), %al
	andb	$1, %al
	movb	%al, 7(%rbp)
	.cv_loc	5 1 71 0
	movq	(%rdx), %r10
	movq	%r10, (%rcx)
	movq	8(%rdx), %r10
	movq	%r10, 8(%rcx)
	movq	16(%rdx), %r10
	movq	%r10, 16(%rcx)
	movq	24(%rdx), %r10
	movq	%r10, 24(%rcx)
	movq	32(%rdx), %r10
	movq	%r10, 32(%rcx)
	movb	40(%rdx), %al
	movb	%al, 40(%rcx)
	movb	7(%rbp), %al
	movb	%al, 41(%rcx)
	movb	42(%rdx), %al
	movb	%al, 42(%rcx)
	.cv_loc	5 1 75 0
	movq	%r9, %rax
	addq	$8, %rsp
	popq	%rbp
	retq
.Ltmp18:
.Lfunc_end5:
	.seh_handlerdata
	.section	.text,"xr",one_only,_ZN8asteroid8settings15SettingsBuilder10fullscreen17h9f777f07606b84e7E
.Lcfi40:
	.seh_endproc

	.def	 _ZN8asteroid8settings15SettingsBuilder14exit_on_escape17h20c0be160b19fa26E;
	.scl	2;
	.type	32;
	.endef
	.section	.text,"xr",one_only,_ZN8asteroid8settings15SettingsBuilder14exit_on_escape17h20c0be160b19fa26E
	.globl	_ZN8asteroid8settings15SettingsBuilder14exit_on_escape17h20c0be160b19fa26E
	.p2align	4, 0x90
_ZN8asteroid8settings15SettingsBuilder14exit_on_escape17h20c0be160b19fa26E:
.Lfunc_begin6:
	.cv_func_id 6
	.cv_loc	6 1 77 0
.Lcfi41:
.seh_proc _ZN8asteroid8settings15SettingsBuilder14exit_on_escape17h20c0be160b19fa26E
	pushq	%rbp
.Lcfi42:
	.seh_pushreg 5
	pushq	%rax
.Lcfi43:
	.seh_stackalloc 8
	movq	%rsp, %rbp
.Lcfi44:
	.seh_setframe 5, 0
.Lcfi45:
	.seh_endprologue
	movb	%r8b, %al
	movq	%rcx, %r9
	andb	$1, %al
	movb	%al, 6(%rbp)
.Ltmp19:
	.cv_loc	6 1 79 0
	movb	6(%rbp), %al
	andb	$1, %al
	movb	%al, 7(%rbp)
	.cv_loc	6 1 78 0
	movq	(%rdx), %r10
	movq	%r10, (%rcx)
	movq	8(%rdx), %r10
	movq	%r10, 8(%rcx)
	movq	16(%rdx), %r10
	movq	%r10, 16(%rcx)
	movq	24(%rdx), %r10
	movq	%r10, 24(%rcx)
	movq	32(%rdx), %r10
	movq	%r10, 32(%rcx)
	movb	40(%rdx), %al
	movb	%al, 40(%rcx)
	movb	41(%rdx), %al
	movb	%al, 41(%rcx)
	movb	7(%rbp), %al
	movb	%al, 42(%rcx)
	.cv_loc	6 1 82 0
	movq	%r9, %rax
	addq	$8, %rsp
	popq	%rbp
	retq
.Ltmp20:
.Lfunc_end6:
	.seh_handlerdata
	.section	.text,"xr",one_only,_ZN8asteroid8settings15SettingsBuilder14exit_on_escape17h20c0be160b19fa26E
.Lcfi46:
	.seh_endproc

	.def	 _ZN8asteroid8settings15SettingsBuilder5build17h896a22d2253725d5E;
	.scl	2;
	.type	32;
	.endef
	.section	.text,"xr",one_only,_ZN8asteroid8settings15SettingsBuilder5build17h896a22d2253725d5E
	.globl	_ZN8asteroid8settings15SettingsBuilder5build17h896a22d2253725d5E
	.p2align	4, 0x90
_ZN8asteroid8settings15SettingsBuilder5build17h896a22d2253725d5E:
.Lfunc_begin7:
	.cv_func_id 7
	.cv_loc	7 1 84 0
.Lcfi47:
.seh_proc _ZN8asteroid8settings15SettingsBuilder5build17h896a22d2253725d5E
	.seh_handler __CxxFrameHandler3, @unwind, @except
	pushq	%rbp
.Lcfi48:
	.seh_pushreg 5
	subq	$176, %rsp
.Lcfi49:
	.seh_stackalloc 176
	leaq	128(%rsp), %rbp
.Lcfi50:
	.seh_setframe 5, 128
.Lcfi51:
	.seh_endprologue
	movq	$-2, 40(%rbp)
	movq	%rcx, %rax
.Ltmp35:
	.cv_loc	7 1 86 0
	movb	$0, 39(%rbp)
	movb	$1, 39(%rbp)
	movq	16(%rdx), %r8
	movq	%r8, -16(%rbp)
	movups	(%rdx), %xmm0
	movaps	%xmm0, -32(%rbp)
.Ltmp21:
	leaq	str.0(%rip), %r8
	movl	$8, %r9d
	movl	%r9d, %r10d
	leaq	-8(%rbp), %r11
	movq	%rcx, -64(%rbp)
	movq	%r11, %rcx
	movq	%rdx, -72(%rbp)
.Ltmp36:
	movq	%r8, %rdx
	movq	%r10, %r8
	movq	%rax, -80(%rbp)
	callq	_ZN50_$LT$T$u20$as$u20$core..convert..Into$LT$U$GT$$GT$4into17h04902d3b25c6a684E
.Ltmp22:
	jmp	.LBB7_1
.Ltmp37:
.LBB7_1:
	movb	$0, 39(%rbp)
.Ltmp23:
	leaq	-56(%rbp), %rcx
	leaq	-32(%rbp), %rdx
	leaq	-8(%rbp), %r8
	callq	_ZN38_$LT$core..option..Option$LT$T$GT$$GT$9unwrap_or17he829138cf4c97badE
.Ltmp24:
	jmp	.LBB7_2
.Ltmp38:
.LBB7_2:
	movb	$0, 39(%rbp)
	.cv_loc	7 1 87 0
	movq	-72(%rbp), %rax
	movq	24(%rax), %rcx
	movq	%rcx, 16(%rbp)
	movq	16(%rbp), %rcx
.Ltmp25:
	movl	$600, %edx
	callq	_ZN38_$LT$core..option..Option$LT$T$GT$$GT$9unwrap_or17h96dfb5224951b285E
.Ltmp26:
	movl	%eax, -84(%rbp)
	jmp	.LBB7_3
.Ltmp39:
.LBB7_3:
	.cv_loc	7 1 88 0
	movq	-72(%rbp), %rax
	movq	32(%rax), %rcx
	movq	%rcx, 24(%rbp)
	movq	24(%rbp), %rcx
.Ltmp27:
	movl	$900, %edx
	callq	_ZN38_$LT$core..option..Option$LT$T$GT$$GT$9unwrap_or17h96dfb5224951b285E
.Ltmp28:
	movl	%eax, -88(%rbp)
	jmp	.LBB7_4
.Ltmp40:
.LBB7_4:
	.cv_loc	7 1 89 0
	movq	-72(%rbp), %rax
	movzbl	40(%rax), %ecx
.Ltmp29:
	xorl	%edx, %edx
	callq	_ZN38_$LT$core..option..Option$LT$T$GT$$GT$9unwrap_or17h4c414916fa6ec589E
.Ltmp30:
	movb	%al, -89(%rbp)
	jmp	.LBB7_5
.Ltmp41:
.LBB7_5:
	.cv_loc	7 1 90 0
	movq	-72(%rbp), %rax
	movzbl	41(%rax), %ecx
.Ltmp31:
	xorl	%edx, %edx
	callq	_ZN38_$LT$core..option..Option$LT$T$GT$$GT$9unwrap_or17h4c414916fa6ec589E
.Ltmp32:
	movb	%al, -90(%rbp)
	jmp	.LBB7_6
.Ltmp42:
.LBB7_6:
	.cv_loc	7 1 91 0
	movq	-72(%rbp), %rax
	movzbl	42(%rax), %ecx
.Ltmp33:
	movl	$1, %edx
	callq	_ZN38_$LT$core..option..Option$LT$T$GT$$GT$9unwrap_or17h4c414916fa6ec589E
.Ltmp34:
	movb	%al, -91(%rbp)
	jmp	.LBB7_7
.Ltmp43:
.LBB7_7:
	.cv_loc	7 1 85 0
	movq	-56(%rbp), %rax
	movq	-64(%rbp), %rcx
	movq	%rax, (%rcx)
	movq	-48(%rbp), %rax
	movq	%rax, 8(%rcx)
	movq	-40(%rbp), %rax
	movq	%rax, 16(%rcx)
	movl	-84(%rbp), %edx
	movl	%edx, 24(%rcx)
	movl	-88(%rbp), %r8d
	movl	%r8d, 28(%rcx)
	movb	-89(%rbp), %r9b
	andb	$1, %r9b
	movb	%r9b, 32(%rcx)
	movb	-90(%rbp), %r9b
	andb	$1, %r9b
	movb	%r9b, 33(%rcx)
	movb	-91(%rbp), %r9b
	andb	$1, %r9b
	movb	%r9b, 34(%rcx)
	.cv_loc	7 1 93 0
	movq	-80(%rbp), %rax
	addq	$176, %rsp
	popq	%rbp
.Ltmp44:
	retq
	.seh_handlerdata
	.long	($cppxdata$_ZN8asteroid8settings15SettingsBuilder5build17h896a22d2253725d5E)@IMGREL
	.section	.text,"xr",one_only,_ZN8asteroid8settings15SettingsBuilder5build17h896a22d2253725d5E
.Lcfi52:
	.seh_endproc
	.def	 "?dtor$9@?0?_ZN8asteroid8settings15SettingsBuilder5build17h896a22d2253725d5E@4HA";
	.scl	3;
	.type	32;
	.endef
	.p2align	4, 0x90
"?dtor$9@?0?_ZN8asteroid8settings15SettingsBuilder5build17h896a22d2253725d5E@4HA":
.Lcfi53:
.seh_proc "?dtor$9@?0?_ZN8asteroid8settings15SettingsBuilder5build17h896a22d2253725d5E@4HA"
.LBB7_9:
	movq	%rdx, 16(%rsp)
	pushq	%rbp
.Lcfi54:
	.seh_pushreg 5
	subq	$32, %rsp
.Lcfi55:
	.seh_stackalloc 32
	leaq	128(%rdx), %rbp
.Lcfi56:
	.seh_endprologue
	.cv_loc	7 1 84 0
	addq	$32, %rsp
	popq	%rbp
	retq
	.seh_handlerdata
	.section	.text,"xr",one_only,_ZN8asteroid8settings15SettingsBuilder5build17h896a22d2253725d5E
.Lcfi57:
	.seh_endproc
	.def	 "?dtor$10@?0?_ZN8asteroid8settings15SettingsBuilder5build17h896a22d2253725d5E@4HA";
	.scl	3;
	.type	32;
	.endef
	.p2align	4, 0x90
"?dtor$10@?0?_ZN8asteroid8settings15SettingsBuilder5build17h896a22d2253725d5E@4HA":
.Lcfi58:
.seh_proc "?dtor$10@?0?_ZN8asteroid8settings15SettingsBuilder5build17h896a22d2253725d5E@4HA"
.LBB7_10:
.Ltmp45:
	movq	%rdx, 16(%rsp)
	pushq	%rbp
.Lcfi59:
	.seh_pushreg 5
	subq	$32, %rsp
.Lcfi60:
	.seh_stackalloc 32
	leaq	128(%rdx), %rbp
.Ltmp46:
.Lcfi61:
	.seh_endprologue
	leaq	-56(%rbp), %rcx
	.cv_loc	7 1 92 0
	callq	_ZN4core3ptr13drop_in_place17h7c1ed1e97a94da88E
	nop
	addq	$32, %rsp
	popq	%rbp
	retq
.LBB7_8:
	.cv_loc	7 1 86 0
	movb	$0, 39(%rbp)
	leaq	-32(%rbp), %rcx
	callq	_ZN4core3ptr13drop_in_place17he6f7d486b9358812E
	nop
	addq	$32, %rsp
	popq	%rbp
	retq
	.seh_handlerdata
	.section	.text,"xr",one_only,_ZN8asteroid8settings15SettingsBuilder5build17h896a22d2253725d5E
.Lcfi62:
	.seh_endproc
	.def	 "?dtor$11@?0?_ZN8asteroid8settings15SettingsBuilder5build17h896a22d2253725d5E@4HA";
	.scl	3;
	.type	32;
	.endef
	.p2align	4, 0x90
"?dtor$11@?0?_ZN8asteroid8settings15SettingsBuilder5build17h896a22d2253725d5E@4HA":
.Lcfi63:
.seh_proc "?dtor$11@?0?_ZN8asteroid8settings15SettingsBuilder5build17h896a22d2253725d5E@4HA"
.LBB7_11:
	movq	%rdx, 16(%rsp)
	pushq	%rbp
.Lcfi64:
	.seh_pushreg 5
	subq	$32, %rsp
.Lcfi65:
	.seh_stackalloc 32
	leaq	128(%rdx), %rbp
.Lcfi66:
	.seh_endprologue
	testb	$1, 39(%rbp)
	jne	.LBB7_8
.Ltmp47:
	addq	$32, %rsp
	popq	%rbp
	retq
.Lfunc_end7:
	.seh_handlerdata
	.section	.text,"xr",one_only,_ZN8asteroid8settings15SettingsBuilder5build17h896a22d2253725d5E
.Lcfi67:
	.seh_endproc
	.section	.xdata,"dr",associative,_ZN8asteroid8settings15SettingsBuilder5build17h896a22d2253725d5E
	.p2align	2
$cppxdata$_ZN8asteroid8settings15SettingsBuilder5build17h896a22d2253725d5E:
	.long	429065506
	.long	3
	.long	($stateUnwindMap$_ZN8asteroid8settings15SettingsBuilder5build17h896a22d2253725d5E)@IMGREL
	.long	0
	.long	0
	.long	4
	.long	($ip2state$_ZN8asteroid8settings15SettingsBuilder5build17h896a22d2253725d5E)@IMGREL
	.long	168
	.long	0
	.long	1
$stateUnwindMap$_ZN8asteroid8settings15SettingsBuilder5build17h896a22d2253725d5E:
	.long	-1
	.long	"?dtor$9@?0?_ZN8asteroid8settings15SettingsBuilder5build17h896a22d2253725d5E@4HA"@IMGREL
	.long	0
	.long	"?dtor$11@?0?_ZN8asteroid8settings15SettingsBuilder5build17h896a22d2253725d5E@4HA"@IMGREL
	.long	0
	.long	"?dtor$10@?0?_ZN8asteroid8settings15SettingsBuilder5build17h896a22d2253725d5E@4HA"@IMGREL
$ip2state$_ZN8asteroid8settings15SettingsBuilder5build17h896a22d2253725d5E:
	.long	.Lfunc_begin7@IMGREL
	.long	-1
	.long	.Ltmp21@IMGREL+1
	.long	1
	.long	.Ltmp25@IMGREL+1
	.long	2
	.long	.Ltmp34@IMGREL+1
	.long	-1
	.section	.text,"xr",one_only,_ZN8asteroid8settings15SettingsBuilder5build17h896a22d2253725d5E

	.def	 _ZN8asteroid8settings4open17hac88e32d8e3700b0E;
	.scl	2;
	.type	32;
	.endef
	.section	.text,"xr",one_only,_ZN8asteroid8settings4open17hac88e32d8e3700b0E
	.globl	_ZN8asteroid8settings4open17hac88e32d8e3700b0E
	.p2align	4, 0x90
_ZN8asteroid8settings4open17hac88e32d8e3700b0E:
.Lfunc_begin8:
	.cv_func_id 8
	.cv_loc	8 1 105 0
.Lcfi68:
.seh_proc _ZN8asteroid8settings4open17hac88e32d8e3700b0E
	.seh_handler __CxxFrameHandler3, @unwind, @except
	pushq	%rbp
.Lcfi69:
	.seh_pushreg 5
	subq	$1232, %rsp
.Lcfi70:
	.seh_stackalloc 1232
	leaq	128(%rsp), %rbp
.Lcfi71:
	.seh_setframe 5, 128
.Lcfi72:
	.seh_endprologue
	movq	$-2, 1096(%rbp)
	movq	%rcx, %rax
	movq	%rdx, 160(%rbp)
	movq	%r8, 168(%rbp)
.Ltmp138:
	.cv_loc	8 1 106 0
	movb	$0, 1090(%rbp)
	movb	$0, 1093(%rbp)
	movb	$0, 1088(%rbp)
	movb	$0, 1087(%rbp)
	movb	$0, 1091(%rbp)
	movb	$0, 1094(%rbp)
	movb	$0, 1086(%rbp)
	movb	$0, 1089(%rbp)
	movb	$0, 1095(%rbp)
	movb	$0, 1092(%rbp)
	movq	160(%rbp), %rdx
	movq	168(%rbp), %r8
	movb	$1, 1086(%rbp)
	movb	$1, 1087(%rbp)
	leaq	176(%rbp), %r9
	movq	%rcx, 152(%rbp)
	movq	%r9, %rcx
	movq	%rax, 144(%rbp)
	callq	_ZN4nccl10parse_file17h22a6adfbd129782eE
	.cv_loc	8 1 107 0
	movq	176(%rbp), %rax
	testq	%rax, %rax
	movq	%rax, 136(%rbp)
	je	.LBB8_3
	jmp	.LBB8_97
.Ltmp139:
.LBB8_97:
	movq	136(%rbp), %rax
	subq	$1, %rax
	movq	%rax, 128(%rbp)
	je	.LBB8_4
	jmp	.LBB8_2
.Ltmp140:
.LBB8_2:
	.cv_loc	8 1 128 0
	ud2
.Ltmp141:
.LBB8_3:
	.cv_loc	8 1 107 0
	movb	$0, 1087(%rbp)
	movb	$1, 1088(%rbp)
	movq	232(%rbp), %rax
	movq	%rax, 288(%rbp)
	movups	184(%rbp), %xmm0
	movups	200(%rbp), %xmm1
	movups	216(%rbp), %xmm2
	movaps	%xmm2, 272(%rbp)
	movaps	%xmm1, 256(%rbp)
	movaps	%xmm0, 240(%rbp)
.Ltmp142:
	.cv_loc	8 1 108 0
.Ltmp66:
	leaq	656(%rbp), %rcx
	callq	_ZN8asteroid8settings15SettingsBuilder3new17hd3bdf11796c8a6ccE
.Ltmp67:
	jmp	.LBB8_6
.Ltmp143:
.LBB8_4:
	.cv_loc	8 1 119 0
	movb	$0, 1086(%rbp)
	movq	200(%rbp), %rax
	movq	%rax, 320(%rbp)
	movups	184(%rbp), %xmm0
	movaps	%xmm0, 304(%rbp)
.Ltmp144:
	.cv_loc	8 1 120 0
	movq	320(%rbp), %rax
	movq	%rax, 896(%rbp)
	movaps	304(%rbp), %xmm0
	movaps	%xmm0, 880(%rbp)
.Ltmp48:
	leaq	848(%rbp), %rcx
	leaq	880(%rbp), %rdx
	callq	_ZN77_$LT$alloc..vec..Vec$LT$T$GT$$u20$as$u20$core..iter..traits..IntoIterator$GT$9into_iter17he1cfb7e75d24fff2E
.Ltmp49:
	jmp	.LBB8_41
.Ltmp145:
.LBB8_5:
	.cv_loc	8 1 127 0
	testb	$1, 1088(%rbp)
	jne	.LBB8_68
	jmp	.LBB8_53
.Ltmp146:
.LBB8_6:
	.cv_loc	8 1 109 0
	movb	$1, 1089(%rbp)
.Ltmp68:
	leaq	str.6(%rip), %rdx
	movl	$6, %eax
	movl	%eax, %r8d
	leaq	240(%rbp), %rcx
	callq	_ZN69_$LT$nccl..pair..Pair$u20$as$u20$core..ops..index..Index$LT$T$GT$$GT$5index17h264d8a1beec5e0caE
.Ltmp69:
	movq	%rax, 120(%rbp)
	jmp	.LBB8_7
.Ltmp147:
.LBB8_7:
.Ltmp70:
	leaq	str.7(%rip), %rdx
	movl	$5, %eax
	movl	%eax, %r8d
	movq	120(%rbp), %rcx
	callq	_ZN69_$LT$nccl..pair..Pair$u20$as$u20$core..ops..index..Index$LT$T$GT$$GT$5index17h264d8a1beec5e0caE
.Ltmp71:
	movq	%rax, 112(%rbp)
	jmp	.LBB8_8
.Ltmp148:
.LBB8_8:
.Ltmp72:
	leaq	str.0(%rip), %rdx
	movl	$8, %eax
	movl	%eax, %r8d
	leaq	728(%rbp), %rcx
	callq	_ZN50_$LT$T$u20$as$u20$core..convert..Into$LT$U$GT$$GT$4into17h04902d3b25c6a684E
.Ltmp73:
	jmp	.LBB8_9
.Ltmp149:
.LBB8_9:
.Ltmp74:
	leaq	704(%rbp), %rcx
	leaq	728(%rbp), %r8
	movq	112(%rbp), %rdx
	callq	_ZN4nccl4pair4Pair8value_or17h923623e732dc4effE
.Ltmp75:
	jmp	.LBB8_10
.Ltmp150:
.LBB8_10:
.Ltmp76:
	leaq	704(%rbp), %rcx
	callq	_ZN65_$LT$alloc..string..String$u20$as$u20$core..ops..deref..Deref$GT$5deref17h87e2e24adb925e4cE
.Ltmp77:
	movq	%rdx, 104(%rbp)
	movq	%rax, 96(%rbp)
	jmp	.LBB8_11
.Ltmp151:
.LBB8_11:
	.cv_loc	8 1 108 0
	movb	$0, 1089(%rbp)
.Ltmp78:
	leaq	608(%rbp), %rcx
	leaq	656(%rbp), %rdx
	movq	96(%rbp), %r8
	movq	104(%rbp), %r9
	callq	_ZN8asteroid8settings15SettingsBuilder5title17h5ecb955b664a0531E
.Ltmp79:
	jmp	.LBB8_12
.Ltmp152:
.LBB8_12:
	.cv_loc	8 1 109 0
	movb	$1, 1090(%rbp)
	movb	$0, 1089(%rbp)
	.cv_loc	8 1 110 0
.Ltmp80:
	leaq	str.6(%rip), %rdx
	movl	$6, %eax
	movl	%eax, %r8d
	leaq	240(%rbp), %rcx
	callq	_ZN69_$LT$nccl..pair..Pair$u20$as$u20$core..ops..index..Index$LT$T$GT$$GT$5index17h264d8a1beec5e0caE
.Ltmp81:
	movq	%rax, 88(%rbp)
	jmp	.LBB8_13
.Ltmp153:
.LBB8_13:
.Ltmp82:
	leaq	str.8(%rip), %rdx
	movl	$5, %eax
	movl	%eax, %r8d
	movq	88(%rbp), %rcx
	callq	_ZN69_$LT$nccl..pair..Pair$u20$as$u20$core..ops..index..Index$LT$T$GT$$GT$5index17h264d8a1beec5e0caE
.Ltmp83:
	movq	%rax, 80(%rbp)
	jmp	.LBB8_14
.Ltmp154:
.LBB8_14:
	movl	$4, %eax
	movl	%eax, %ecx
	movq	%rcx, 72(%rbp)
	movq	72(%rbp), %rdx
	callq	_ZN5alloc4heap15exchange_malloc17hc861eca9d8f05e82E
	movl	$600, (%rax)
.Ltmp84:
	movl	$1, %r8d
	leaq	776(%rbp), %rcx
	movq	%rax, %rdx
	callq	_ZN5alloc5slice29_$LT$impl$u20$$u5b$T$u5d$$GT$8into_vec17h8cfcb9579e6e89caE
.Ltmp85:
	jmp	.LBB8_15
.Ltmp155:
.LBB8_15:
.Ltmp86:
	leaq	752(%rbp), %rcx
	leaq	776(%rbp), %r8
	movq	80(%rbp), %rdx
	callq	_ZN4nccl4pair4Pair10keys_as_or17hdd13d866f3e9f486E
.Ltmp87:
	jmp	.LBB8_16
.Ltmp156:
.LBB8_16:
.Ltmp88:
	xorl	%eax, %eax
	movl	%eax, %edx
	leaq	752(%rbp), %rcx
	callq	_ZN81_$LT$alloc..vec..Vec$LT$T$GT$$u20$as$u20$core..ops..index..Index$LT$usize$GT$$GT$5index17h6f9a3f4b5abb7600E
.Ltmp89:
	movq	%rax, 64(%rbp)
	jmp	.LBB8_17
.Ltmp157:
.LBB8_17:
	movq	64(%rbp), %rax
	movl	(%rax), %r8d
	.cv_loc	8 1 108 0
	movb	$0, 1090(%rbp)
.Ltmp90:
	leaq	560(%rbp), %rcx
	leaq	608(%rbp), %rdx
	callq	_ZN8asteroid8settings15SettingsBuilder5width17hcaba5f436916c530E
.Ltmp91:
	jmp	.LBB8_18
.Ltmp158:
.LBB8_18:
	.cv_loc	8 1 110 0
	movb	$1, 1091(%rbp)
	movb	$0, 1090(%rbp)
	.cv_loc	8 1 111 0
.Ltmp92:
	leaq	str.6(%rip), %rdx
	movl	$6, %eax
	movl	%eax, %r8d
	leaq	240(%rbp), %rcx
	callq	_ZN69_$LT$nccl..pair..Pair$u20$as$u20$core..ops..index..Index$LT$T$GT$$GT$5index17h264d8a1beec5e0caE
.Ltmp93:
	movq	%rax, 56(%rbp)
	jmp	.LBB8_19
.Ltmp159:
.LBB8_19:
.Ltmp94:
	leaq	str.9(%rip), %rdx
	movl	$6, %eax
	movl	%eax, %r8d
	movq	56(%rbp), %rcx
	callq	_ZN69_$LT$nccl..pair..Pair$u20$as$u20$core..ops..index..Index$LT$T$GT$$GT$5index17h264d8a1beec5e0caE
.Ltmp95:
	movq	%rax, 48(%rbp)
	jmp	.LBB8_20
.Ltmp160:
.LBB8_20:
	movl	$4, %eax
	movl	%eax, %ecx
	movq	%rcx, 40(%rbp)
	movq	40(%rbp), %rdx
	callq	_ZN5alloc4heap15exchange_malloc17hc861eca9d8f05e82E
	movl	$900, (%rax)
.Ltmp96:
	movl	$1, %r8d
	leaq	824(%rbp), %rcx
	movq	%rax, %rdx
	callq	_ZN5alloc5slice29_$LT$impl$u20$$u5b$T$u5d$$GT$8into_vec17h8cfcb9579e6e89caE
.Ltmp97:
	jmp	.LBB8_21
.Ltmp161:
.LBB8_21:
.Ltmp98:
	leaq	800(%rbp), %rcx
	leaq	824(%rbp), %r8
	movq	48(%rbp), %rdx
	callq	_ZN4nccl4pair4Pair10keys_as_or17hdd13d866f3e9f486E
.Ltmp99:
	jmp	.LBB8_22
.Ltmp162:
.LBB8_22:
.Ltmp100:
	xorl	%eax, %eax
	movl	%eax, %edx
	leaq	800(%rbp), %rcx
	callq	_ZN81_$LT$alloc..vec..Vec$LT$T$GT$$u20$as$u20$core..ops..index..Index$LT$usize$GT$$GT$5index17h6f9a3f4b5abb7600E
.Ltmp101:
	movq	%rax, 32(%rbp)
	jmp	.LBB8_23
.Ltmp163:
.LBB8_23:
	movq	32(%rbp), %rax
	movl	(%rax), %r8d
	.cv_loc	8 1 108 0
	movb	$0, 1091(%rbp)
.Ltmp102:
	leaq	512(%rbp), %rcx
	leaq	560(%rbp), %rdx
	callq	_ZN8asteroid8settings15SettingsBuilder6height17h0e96067a4d1e17b7E
.Ltmp103:
	jmp	.LBB8_24
.Ltmp164:
.LBB8_24:
	.cv_loc	8 1 111 0
	movb	$1, 1092(%rbp)
	movb	$0, 1091(%rbp)
	.cv_loc	8 1 112 0
.Ltmp104:
	leaq	str.6(%rip), %rdx
	movl	$6, %eax
	movl	%eax, %r8d
	leaq	240(%rbp), %rcx
	callq	_ZN69_$LT$nccl..pair..Pair$u20$as$u20$core..ops..index..Index$LT$T$GT$$GT$5index17h264d8a1beec5e0caE
.Ltmp105:
	movq	%rax, 24(%rbp)
	jmp	.LBB8_25
.Ltmp165:
.LBB8_25:
.Ltmp106:
	leaq	str.a(%rip), %rdx
	movl	$5, %eax
	movl	%eax, %r8d
	movq	24(%rbp), %rcx
	callq	_ZN69_$LT$nccl..pair..Pair$u20$as$u20$core..ops..index..Index$LT$T$GT$$GT$5index17h264d8a1beec5e0caE
.Ltmp107:
	movq	%rax, 16(%rbp)
	jmp	.LBB8_26
.Ltmp166:
.LBB8_26:
.Ltmp108:
	xorl	%edx, %edx
	movq	16(%rbp), %rcx
	callq	_ZN4nccl4pair4Pair11value_as_or17h8e282815c5c03995E
.Ltmp109:
	movb	%al, 15(%rbp)
	jmp	.LBB8_27
.Ltmp167:
.LBB8_27:
	.cv_loc	8 1 108 0
	movb	$0, 1092(%rbp)
.Ltmp110:
	movb	15(%rbp), %al
	andb	$1, %al
	movzbl	%al, %r8d
	leaq	464(%rbp), %rcx
	leaq	512(%rbp), %rdx
	callq	_ZN8asteroid8settings15SettingsBuilder5vsync17hc97b552d0f48e8d8E
.Ltmp111:
	jmp	.LBB8_28
.Ltmp168:
.LBB8_28:
	.cv_loc	8 1 112 0
	movb	$1, 1093(%rbp)
	movb	$0, 1092(%rbp)
	.cv_loc	8 1 113 0
.Ltmp112:
	leaq	str.6(%rip), %rdx
	movl	$6, %eax
	movl	%eax, %r8d
	leaq	240(%rbp), %rcx
	callq	_ZN69_$LT$nccl..pair..Pair$u20$as$u20$core..ops..index..Index$LT$T$GT$$GT$5index17h264d8a1beec5e0caE
.Ltmp113:
	movq	%rax, (%rbp)
	jmp	.LBB8_29
.Ltmp169:
.LBB8_29:
.Ltmp114:
	leaq	str.b(%rip), %rdx
	movl	$10, %eax
	movl	%eax, %r8d
	movq	(%rbp), %rcx
	callq	_ZN69_$LT$nccl..pair..Pair$u20$as$u20$core..ops..index..Index$LT$T$GT$$GT$5index17h264d8a1beec5e0caE
.Ltmp115:
	movq	%rax, -8(%rbp)
	jmp	.LBB8_30
.Ltmp170:
.LBB8_30:
.Ltmp116:
	xorl	%edx, %edx
	movq	-8(%rbp), %rcx
	callq	_ZN4nccl4pair4Pair11value_as_or17h8e282815c5c03995E
.Ltmp117:
	movb	%al, -9(%rbp)
	jmp	.LBB8_31
.Ltmp171:
.LBB8_31:
	.cv_loc	8 1 108 0
	movb	$0, 1093(%rbp)
.Ltmp118:
	movb	-9(%rbp), %al
	andb	$1, %al
	movzbl	%al, %r8d
	leaq	416(%rbp), %rcx
	leaq	464(%rbp), %rdx
	callq	_ZN8asteroid8settings15SettingsBuilder10fullscreen17h9f777f07606b84e7E
.Ltmp119:
	jmp	.LBB8_32
.Ltmp172:
.LBB8_32:
	.cv_loc	8 1 113 0
	movb	$1, 1094(%rbp)
	movb	$0, 1093(%rbp)
	.cv_loc	8 1 114 0
.Ltmp120:
	leaq	str.6(%rip), %rdx
	movl	$6, %eax
	movl	%eax, %r8d
	leaq	240(%rbp), %rcx
	callq	_ZN69_$LT$nccl..pair..Pair$u20$as$u20$core..ops..index..Index$LT$T$GT$$GT$5index17h264d8a1beec5e0caE
.Ltmp121:
	movq	%rax, -24(%rbp)
	jmp	.LBB8_33
.Ltmp173:
.LBB8_33:
.Ltmp122:
	leaq	str.c(%rip), %rdx
	movl	$14, %eax
	movl	%eax, %r8d
	movq	-24(%rbp), %rcx
	callq	_ZN69_$LT$nccl..pair..Pair$u20$as$u20$core..ops..index..Index$LT$T$GT$$GT$5index17h264d8a1beec5e0caE
.Ltmp123:
	movq	%rax, -32(%rbp)
	jmp	.LBB8_34
.Ltmp174:
.LBB8_34:
.Ltmp124:
	movl	$1, %edx
	movq	-32(%rbp), %rcx
	callq	_ZN4nccl4pair4Pair11value_as_or17h8e282815c5c03995E
.Ltmp125:
	movb	%al, -33(%rbp)
	jmp	.LBB8_35
.Ltmp175:
.LBB8_35:
	.cv_loc	8 1 108 0
	movb	$0, 1094(%rbp)
.Ltmp126:
	movb	-33(%rbp), %al
	andb	$1, %al
	movzbl	%al, %r8d
	leaq	368(%rbp), %rcx
	leaq	416(%rbp), %rdx
	callq	_ZN8asteroid8settings15SettingsBuilder14exit_on_escape17h20c0be160b19fa26E
.Ltmp127:
	jmp	.LBB8_36
.Ltmp176:
.LBB8_36:
	.cv_loc	8 1 114 0
	movb	$0, 1094(%rbp)
	.cv_loc	8 1 108 0
.Ltmp128:
	leaq	328(%rbp), %rcx
	leaq	368(%rbp), %rdx
	callq	_ZN8asteroid8settings15SettingsBuilder5build17h896a22d2253725d5E
.Ltmp129:
	jmp	.LBB8_37
.Ltmp177:
.LBB8_37:
	movq	360(%rbp), %rax
	movq	152(%rbp), %rcx
	movq	%rax, 32(%rcx)
	movups	328(%rbp), %xmm0
	movups	344(%rbp), %xmm1
	movups	%xmm1, 16(%rcx)
	movups	%xmm0, (%rcx)
	.cv_loc	8 1 117 0
.Ltmp130:
	leaq	800(%rbp), %rcx
	callq	_ZN4core3ptr13drop_in_place17he87ea5237a1bab48E
.Ltmp131:
	jmp	.LBB8_38
.Ltmp178:
.LBB8_38:
.Ltmp132:
	leaq	752(%rbp), %rcx
	callq	_ZN4core3ptr13drop_in_place17he87ea5237a1bab48E
.Ltmp133:
	jmp	.LBB8_39
.Ltmp179:
.LBB8_39:
.Ltmp134:
	leaq	704(%rbp), %rcx
	callq	_ZN4core3ptr13drop_in_place17h7c1ed1e97a94da88E
.Ltmp135:
	jmp	.LBB8_40
.Ltmp180:
.LBB8_40:
	.cv_loc	8 1 106 0
	jmp	.LBB8_5
.Ltmp181:
.LBB8_41:
	.cv_loc	8 1 120 0
	movq	848(%rbp), %rax
	movq	%rax, 904(%rbp)
	movq	856(%rbp), %rax
	movq	%rax, 912(%rbp)
	movq	864(%rbp), %rax
	movq	%rax, 920(%rbp)
	movq	872(%rbp), %rax
	movq	%rax, 928(%rbp)
.Ltmp182:
.LBB8_42:
	.cv_loc	8 1 120 0
.Ltmp50:
	leaq	952(%rbp), %rcx
	leaq	904(%rbp), %rdx
	callq	_ZN80_$LT$alloc..vec..IntoIter$LT$T$GT$$u20$as$u20$core..iter..iterator..Iterator$GT$4next17h7640a91baf677c6dE
.Ltmp51:
	jmp	.LBB8_43
.Ltmp183:
.LBB8_43:
	movq	952(%rbp), %rax
	testq	%rax, %rax
	setne	%cl
	movzbl	%cl, %edx
	movl	%edx, %eax
	movq	%rax, -48(%rbp)
	je	.LBB8_45
	jmp	.LBB8_98
.Ltmp184:
.LBB8_98:
	movq	-48(%rbp), %rax
	subq	$1, %rax
	movq	%rax, -56(%rbp)
	je	.LBB8_46
	jmp	.LBB8_2
.Ltmp185:
.LBB8_45:
	.cv_loc	8 1 122 0
.Ltmp62:
	leaq	952(%rbp), %rcx
	callq	_ZN4core3ptr13drop_in_place17he33d22e50f46b4faE
.Ltmp63:
	jmp	.LBB8_47
.Ltmp186:
.LBB8_46:
	movl	$1, %eax
	movl	%eax, %ecx
	xorl	%eax, %eax
	movl	%eax, %edx
	.cv_loc	8 1 120 0
	movq	952(%rbp), %r8
	movq	960(%rbp), %r9
	movq	%r8, 968(%rbp)
	movq	%r9, 976(%rbp)
.Ltmp187:
	.cv_loc	8 1 120 0
	movq	968(%rbp), %r8
	movq	976(%rbp), %r9
	movb	$1, 1095(%rbp)
	movq	%r8, 936(%rbp)
	movq	%r9, 944(%rbp)
.Ltmp188:
	.cv_loc	8 1 122 0
	cmpq	$0, 952(%rbp)
	cmoveq	%rdx, %rcx
	cmpq	$1, %rcx
	je	.LBB8_66
	jmp	.LBB8_67
.Ltmp189:
.LBB8_47:
	.cv_loc	8 1 122 0
	movb	$0, 1095(%rbp)
.Ltmp190:
	.cv_loc	8 1 122 0
.Ltmp64:
	leaq	904(%rbp), %rcx
	callq	_ZN4core3ptr13drop_in_place17h5260d67d69fab684E
.Ltmp65:
	jmp	.LBB8_52
.Ltmp191:
.LBB8_48:
	.cv_loc	8 1 121 0
	movq	-64(%rbp), %rax
	movq	%rax, 1048(%rbp)
	movq	-72(%rbp), %rcx
	movq	%rcx, 1056(%rbp)
.Ltmp192:
	.cv_loc	8 1 121 0
.Ltmp56:
	leaq	ref.4(%rip), %rdx
	movq	%rsp, %r8
	movq	%rdx, 40(%r8)
	movq	$1, 48(%r8)
	movq	$1, 32(%r8)
	leaq	ref.3(%rip), %rdx
	movl	$2, %r9d
	movl	%r9d, %r8d
	leaq	1000(%rbp), %rcx
	leaq	1048(%rbp), %r9
	callq	_ZN4core3fmt9Arguments16new_v1_formatted17h647572f4005f46b4E
.Ltmp57:
	jmp	.LBB8_49
.Ltmp193:
.LBB8_49:
.Ltmp58:
	leaq	1000(%rbp), %rcx
	callq	_ZN3std2io5stdio6_print17hfbfe1bd088f43dc9E
.Ltmp59:
	jmp	.LBB8_50
.Ltmp194:
.LBB8_50:
	.cv_loc	8 1 122 0
.Ltmp60:
	leaq	984(%rbp), %rcx
	callq	_ZN4core3ptr13drop_in_place17h74d6dd60109708dbE
.Ltmp61:
	jmp	.LBB8_51
.Ltmp195:
.LBB8_51:
	.cv_loc	8 1 122 0
	movb	$0, 1095(%rbp)
	.cv_loc	8 1 120 0
	jmp	.LBB8_42
.Ltmp196:
.LBB8_52:
	.cv_loc	8 1 125 0
	movq	152(%rbp), %rax
	movq	$0, (%rax)
.Ltmp197:
	.cv_loc	8 1 106 0
	jmp	.LBB8_5
.Ltmp198:
.LBB8_53:
	.cv_loc	8 1 127 0
	movb	$0, 1088(%rbp)
	.cv_loc	8 1 128 0
	cmpq	$0, 176(%rbp)
	je	.LBB8_70
	jmp	.LBB8_72
.Ltmp199:
.LBB8_66:
	.cv_loc	8 1 120 0
	movb	$0, 1095(%rbp)
	movq	936(%rbp), %rax
	movq	944(%rbp), %rcx
	movq	%rax, 984(%rbp)
	movq	%rcx, 992(%rbp)
	leaq	984(%rbp), %rax
.Ltmp200:
	.cv_loc	8 1 121 0
	movq	%rax, 1064(%rbp)
	movq	1064(%rbp), %rax
	movq	%rax, 1072(%rbp)
.Ltmp201:
	.cv_loc	8 1 121 0
	movq	1072(%rbp), %rcx
.Ltmp54:
	leaq	_ZN65_$LT$alloc..boxed..Box$LT$T$GT$$u20$as$u20$core..fmt..Display$GT$3fmt17h5cb2c0e540dc9cadE(%rip), %rdx
	callq	_ZN4core3fmt10ArgumentV13new17ha30c89cb7ba7b8d9E
.Ltmp55:
	movq	%rdx, -72(%rbp)
	movq	%rax, -64(%rbp)
	jmp	.LBB8_48
.Ltmp202:
.LBB8_67:
	.cv_loc	8 1 122 0
.Ltmp52:
	leaq	952(%rbp), %rcx
	callq	_ZN4core3ptr13drop_in_place17he33d22e50f46b4faE
.Ltmp53:
	jmp	.LBB8_66
.Ltmp203:
.LBB8_68:
	.cv_loc	8 1 127 0
	movb	$0, 1088(%rbp)
.Ltmp136:
	leaq	240(%rbp), %rcx
	callq	_ZN4core3ptr13drop_in_place17h6eceeab23a0988feE
.Ltmp137:
	jmp	.LBB8_53
.Ltmp204:
.LBB8_69:
	.cv_loc	8 1 128 0
	movb	$0, 1086(%rbp)
	movb	$0, 1087(%rbp)
	movq	144(%rbp), %rax
	addq	$1232, %rsp
	popq	%rbp
.Ltmp205:
	retq
.LBB8_70:
.Ltmp206:
	testb	$1, 1087(%rbp)
	je	.LBB8_69
.Ltmp207:
	leaq	176(%rbp), %rax
	movb	$0, 1087(%rbp)
	addq	$8, %rax
	movq	%rax, %rcx
	callq	_ZN4core3ptr13drop_in_place17h6eceeab23a0988feE
	jmp	.LBB8_69
.Ltmp208:
.LBB8_72:
	testb	$1, 1086(%rbp)
	je	.LBB8_69
.Ltmp209:
	leaq	176(%rbp), %rax
	movb	$0, 1086(%rbp)
	addq	$8, %rax
	movq	%rax, %rcx
	callq	_ZN4core3ptr13drop_in_place17hbe4757f23980a841E
	jmp	.LBB8_69
.Ltmp210:
.LBB8_1:
	.cv_loc	8 1 105 0
	addq	$64, %rsp
	popq	%rbp
	retq
.LBB8_54:
	.cv_loc	8 1 128 0
	testb	$1, 1087(%rbp)
	je	.LBB8_1
	leaq	176(%rbp), %rax
	movb	$0, 1087(%rbp)
	addq	$8, %rax
	movq	%rax, %rcx
	callq	_ZN4core3ptr13drop_in_place17h6eceeab23a0988feE
	jmp	.LBB8_1
.LBB8_56:
	testb	$1, 1086(%rbp)
	je	.LBB8_1
	leaq	176(%rbp), %rax
	movb	$0, 1086(%rbp)
	addq	$8, %rax
	movq	%rax, %rcx
	callq	_ZN4core3ptr13drop_in_place17hbe4757f23980a841E
	jmp	.LBB8_1
	.seh_handlerdata
	.long	($cppxdata$_ZN8asteroid8settings4open17hac88e32d8e3700b0E)@IMGREL
	.section	.text,"xr",one_only,_ZN8asteroid8settings4open17hac88e32d8e3700b0E
.Lcfi73:
	.seh_endproc
	.def	 "?dtor$74@?0?_ZN8asteroid8settings4open17hac88e32d8e3700b0E@4HA";
	.scl	3;
	.type	32;
	.endef
	.p2align	4, 0x90
"?dtor$74@?0?_ZN8asteroid8settings4open17hac88e32d8e3700b0E@4HA":
.Lcfi74:
.seh_proc "?dtor$74@?0?_ZN8asteroid8settings4open17hac88e32d8e3700b0E@4HA"
.LBB8_74:
	movq	%rdx, 16(%rsp)
	pushq	%rbp
.Lcfi75:
	.seh_pushreg 5
	subq	$64, %rsp
.Lcfi76:
	.seh_stackalloc 64
	leaq	128(%rdx), %rbp
.Lcfi77:
	.seh_endprologue
	cmpq	$0, 176(%rbp)
	je	.LBB8_54
	jmp	.LBB8_56
	.seh_handlerdata
	.section	.text,"xr",one_only,_ZN8asteroid8settings4open17hac88e32d8e3700b0E
.Lcfi78:
	.seh_endproc
	.def	 "?dtor$75@?0?_ZN8asteroid8settings4open17hac88e32d8e3700b0E@4HA";
	.scl	3;
	.type	32;
	.endef
	.p2align	4, 0x90
"?dtor$75@?0?_ZN8asteroid8settings4open17hac88e32d8e3700b0E@4HA":
.Lcfi79:
.seh_proc "?dtor$75@?0?_ZN8asteroid8settings4open17hac88e32d8e3700b0E@4HA"
.LBB8_75:
.Ltmp211:
	movq	%rdx, 16(%rsp)
	pushq	%rbp
.Lcfi80:
	.seh_pushreg 5
.Ltmp212:
	subq	$64, %rsp
.Lcfi81:
	.seh_stackalloc 64
	leaq	128(%rdx), %rbp
.Ltmp213:
.Lcfi82:
	.seh_endprologue
	.cv_loc	8 1 109 0
	movb	$0, 1089(%rbp)
	leaq	656(%rbp), %rcx
	callq	_ZN4core3ptr13drop_in_place17h06c8cbb18e6dbabcE
	nop
	addq	$64, %rsp
	popq	%rbp
	retq
	.seh_handlerdata
	.section	.text,"xr",one_only,_ZN8asteroid8settings4open17hac88e32d8e3700b0E
.Lcfi83:
	.seh_endproc
	.def	 "?dtor$76@?0?_ZN8asteroid8settings4open17hac88e32d8e3700b0E@4HA";
	.scl	3;
	.type	32;
	.endef
	.p2align	4, 0x90
"?dtor$76@?0?_ZN8asteroid8settings4open17hac88e32d8e3700b0E@4HA":
.Lcfi84:
.seh_proc "?dtor$76@?0?_ZN8asteroid8settings4open17hac88e32d8e3700b0E@4HA"
.LBB8_76:
	movq	%rdx, 16(%rsp)
	pushq	%rbp
.Lcfi85:
	.seh_pushreg 5
	subq	$64, %rsp
.Lcfi86:
	.seh_stackalloc 64
	leaq	128(%rdx), %rbp
.Lcfi87:
	.seh_endprologue
	leaq	704(%rbp), %rcx
	.cv_loc	8 1 117 0
	callq	_ZN4core3ptr13drop_in_place17h7c1ed1e97a94da88E
	nop
	addq	$64, %rsp
	popq	%rbp
	retq
.LBB8_59:
	.cv_loc	8 1 109 0
	movb	$0, 1089(%rbp)
	leaq	656(%rbp), %rcx
	callq	_ZN4core3ptr13drop_in_place17h06c8cbb18e6dbabcE
	nop
	addq	$64, %rsp
	popq	%rbp
	retq
	.seh_handlerdata
	.section	.text,"xr",one_only,_ZN8asteroid8settings4open17hac88e32d8e3700b0E
.Lcfi88:
	.seh_endproc
	.def	 "?dtor$77@?0?_ZN8asteroid8settings4open17hac88e32d8e3700b0E@4HA";
	.scl	3;
	.type	32;
	.endef
	.p2align	4, 0x90
"?dtor$77@?0?_ZN8asteroid8settings4open17hac88e32d8e3700b0E@4HA":
.Lcfi89:
.seh_proc "?dtor$77@?0?_ZN8asteroid8settings4open17hac88e32d8e3700b0E@4HA"
.LBB8_77:
.Ltmp214:
	movq	%rdx, 16(%rsp)
	pushq	%rbp
.Lcfi90:
	.seh_pushreg 5
	subq	$64, %rsp
.Lcfi91:
	.seh_stackalloc 64
	leaq	128(%rdx), %rbp
.Ltmp215:
.Lcfi92:
	.seh_endprologue
	testb	$1, 1089(%rbp)
	jne	.LBB8_59
	jmp	.LBB8_90
.LBB8_90:
	addq	$64, %rsp
	popq	%rbp
	retq
	.seh_handlerdata
	.section	.text,"xr",one_only,_ZN8asteroid8settings4open17hac88e32d8e3700b0E
.Lcfi93:
	.seh_endproc
	.def	 "?dtor$78@?0?_ZN8asteroid8settings4open17hac88e32d8e3700b0E@4HA";
	.scl	3;
	.type	32;
	.endef
	.p2align	4, 0x90
"?dtor$78@?0?_ZN8asteroid8settings4open17hac88e32d8e3700b0E@4HA":
.Lcfi94:
.seh_proc "?dtor$78@?0?_ZN8asteroid8settings4open17hac88e32d8e3700b0E@4HA"
.LBB8_78:
.Ltmp216:
	movq	%rdx, 16(%rsp)
	pushq	%rbp
.Lcfi95:
	.seh_pushreg 5
	subq	$64, %rsp
.Lcfi96:
	.seh_stackalloc 64
	leaq	128(%rdx), %rbp
.Ltmp217:
.Lcfi97:
	.seh_endprologue
	.cv_loc	8 1 110 0
	movb	$0, 1090(%rbp)
	leaq	608(%rbp), %rcx
	callq	_ZN4core3ptr13drop_in_place17h06c8cbb18e6dbabcE
	nop
	addq	$64, %rsp
	popq	%rbp
	retq
	.seh_handlerdata
	.section	.text,"xr",one_only,_ZN8asteroid8settings4open17hac88e32d8e3700b0E
.Lcfi98:
	.seh_endproc
	.def	 "?dtor$79@?0?_ZN8asteroid8settings4open17hac88e32d8e3700b0E@4HA";
	.scl	3;
	.type	32;
	.endef
	.p2align	4, 0x90
"?dtor$79@?0?_ZN8asteroid8settings4open17hac88e32d8e3700b0E@4HA":
.Lcfi99:
.seh_proc "?dtor$79@?0?_ZN8asteroid8settings4open17hac88e32d8e3700b0E@4HA"
.LBB8_79:
	movq	%rdx, 16(%rsp)
	pushq	%rbp
.Lcfi100:
	.seh_pushreg 5
	subq	$64, %rsp
.Lcfi101:
	.seh_stackalloc 64
	leaq	128(%rdx), %rbp
.Lcfi102:
	.seh_endprologue
	leaq	752(%rbp), %rcx
	.cv_loc	8 1 117 0
	callq	_ZN4core3ptr13drop_in_place17he87ea5237a1bab48E
	nop
	addq	$64, %rsp
	popq	%rbp
	retq
.LBB8_60:
	.cv_loc	8 1 110 0
	movb	$0, 1090(%rbp)
	leaq	608(%rbp), %rcx
	callq	_ZN4core3ptr13drop_in_place17h06c8cbb18e6dbabcE
	nop
	addq	$64, %rsp
	popq	%rbp
	retq
	.seh_handlerdata
	.section	.text,"xr",one_only,_ZN8asteroid8settings4open17hac88e32d8e3700b0E
.Lcfi103:
	.seh_endproc
	.def	 "?dtor$80@?0?_ZN8asteroid8settings4open17hac88e32d8e3700b0E@4HA";
	.scl	3;
	.type	32;
	.endef
	.p2align	4, 0x90
"?dtor$80@?0?_ZN8asteroid8settings4open17hac88e32d8e3700b0E@4HA":
.Lcfi104:
.seh_proc "?dtor$80@?0?_ZN8asteroid8settings4open17hac88e32d8e3700b0E@4HA"
.LBB8_80:
.Ltmp218:
	movq	%rdx, 16(%rsp)
	pushq	%rbp
.Lcfi105:
	.seh_pushreg 5
	subq	$64, %rsp
.Lcfi106:
	.seh_stackalloc 64
	leaq	128(%rdx), %rbp
.Ltmp219:
.Lcfi107:
	.seh_endprologue
	testb	$1, 1090(%rbp)
	jne	.LBB8_60
	jmp	.LBB8_91
.LBB8_91:
	addq	$64, %rsp
	popq	%rbp
	retq
	.seh_handlerdata
	.section	.text,"xr",one_only,_ZN8asteroid8settings4open17hac88e32d8e3700b0E
.Lcfi108:
	.seh_endproc
	.def	 "?dtor$81@?0?_ZN8asteroid8settings4open17hac88e32d8e3700b0E@4HA";
	.scl	3;
	.type	32;
	.endef
	.p2align	4, 0x90
"?dtor$81@?0?_ZN8asteroid8settings4open17hac88e32d8e3700b0E@4HA":
.Lcfi109:
.seh_proc "?dtor$81@?0?_ZN8asteroid8settings4open17hac88e32d8e3700b0E@4HA"
.LBB8_81:
.Ltmp220:
	movq	%rdx, 16(%rsp)
	pushq	%rbp
.Lcfi110:
	.seh_pushreg 5
	subq	$64, %rsp
.Lcfi111:
	.seh_stackalloc 64
	leaq	128(%rdx), %rbp
.Ltmp221:
.Lcfi112:
	.seh_endprologue
	.cv_loc	8 1 111 0
	movb	$0, 1091(%rbp)
	leaq	560(%rbp), %rcx
	callq	_ZN4core3ptr13drop_in_place17h06c8cbb18e6dbabcE
	nop
	addq	$64, %rsp
	popq	%rbp
	retq
	.seh_handlerdata
	.section	.text,"xr",one_only,_ZN8asteroid8settings4open17hac88e32d8e3700b0E
.Lcfi113:
	.seh_endproc
	.def	 "?dtor$82@?0?_ZN8asteroid8settings4open17hac88e32d8e3700b0E@4HA";
	.scl	3;
	.type	32;
	.endef
	.p2align	4, 0x90
"?dtor$82@?0?_ZN8asteroid8settings4open17hac88e32d8e3700b0E@4HA":
.Lcfi114:
.seh_proc "?dtor$82@?0?_ZN8asteroid8settings4open17hac88e32d8e3700b0E@4HA"
.LBB8_82:
	movq	%rdx, 16(%rsp)
	pushq	%rbp
.Lcfi115:
	.seh_pushreg 5
	subq	$64, %rsp
.Lcfi116:
	.seh_stackalloc 64
	leaq	128(%rdx), %rbp
.Lcfi117:
	.seh_endprologue
	leaq	800(%rbp), %rcx
	.cv_loc	8 1 117 0
	callq	_ZN4core3ptr13drop_in_place17he87ea5237a1bab48E
	nop
	addq	$64, %rsp
	popq	%rbp
	retq
.LBB8_61:
	.cv_loc	8 1 111 0
	movb	$0, 1091(%rbp)
	leaq	560(%rbp), %rcx
	callq	_ZN4core3ptr13drop_in_place17h06c8cbb18e6dbabcE
	nop
	addq	$64, %rsp
	popq	%rbp
	retq
	.seh_handlerdata
	.section	.text,"xr",one_only,_ZN8asteroid8settings4open17hac88e32d8e3700b0E
.Lcfi118:
	.seh_endproc
	.def	 "?dtor$83@?0?_ZN8asteroid8settings4open17hac88e32d8e3700b0E@4HA";
	.scl	3;
	.type	32;
	.endef
	.p2align	4, 0x90
"?dtor$83@?0?_ZN8asteroid8settings4open17hac88e32d8e3700b0E@4HA":
.Lcfi119:
.seh_proc "?dtor$83@?0?_ZN8asteroid8settings4open17hac88e32d8e3700b0E@4HA"
.LBB8_83:
.Ltmp222:
	movq	%rdx, 16(%rsp)
	pushq	%rbp
.Lcfi120:
	.seh_pushreg 5
	subq	$64, %rsp
.Lcfi121:
	.seh_stackalloc 64
	leaq	128(%rdx), %rbp
.Ltmp223:
.Lcfi122:
	.seh_endprologue
	testb	$1, 1091(%rbp)
	jne	.LBB8_61
	jmp	.LBB8_92
.LBB8_92:
	addq	$64, %rsp
	popq	%rbp
	retq
.LBB8_62:
	.cv_loc	8 1 112 0
	movb	$0, 1092(%rbp)
	leaq	512(%rbp), %rcx
	callq	_ZN4core3ptr13drop_in_place17h06c8cbb18e6dbabcE
	nop
	addq	$64, %rsp
	popq	%rbp
	retq
	.seh_handlerdata
	.section	.text,"xr",one_only,_ZN8asteroid8settings4open17hac88e32d8e3700b0E
.Lcfi123:
	.seh_endproc
	.def	 "?dtor$84@?0?_ZN8asteroid8settings4open17hac88e32d8e3700b0E@4HA";
	.scl	3;
	.type	32;
	.endef
	.p2align	4, 0x90
"?dtor$84@?0?_ZN8asteroid8settings4open17hac88e32d8e3700b0E@4HA":
.Lcfi124:
.seh_proc "?dtor$84@?0?_ZN8asteroid8settings4open17hac88e32d8e3700b0E@4HA"
.LBB8_84:
.Ltmp224:
	movq	%rdx, 16(%rsp)
	pushq	%rbp
.Lcfi125:
	.seh_pushreg 5
	subq	$64, %rsp
.Lcfi126:
	.seh_stackalloc 64
	leaq	128(%rdx), %rbp
.Ltmp225:
.Lcfi127:
	.seh_endprologue
	testb	$1, 1092(%rbp)
	jne	.LBB8_62
	jmp	.LBB8_93
.LBB8_93:
	addq	$64, %rsp
	popq	%rbp
	retq
.LBB8_63:
	.cv_loc	8 1 113 0
	movb	$0, 1093(%rbp)
	leaq	464(%rbp), %rcx
	callq	_ZN4core3ptr13drop_in_place17h06c8cbb18e6dbabcE
	nop
	addq	$64, %rsp
	popq	%rbp
	retq
	.seh_handlerdata
	.section	.text,"xr",one_only,_ZN8asteroid8settings4open17hac88e32d8e3700b0E
.Lcfi128:
	.seh_endproc
	.def	 "?dtor$85@?0?_ZN8asteroid8settings4open17hac88e32d8e3700b0E@4HA";
	.scl	3;
	.type	32;
	.endef
	.p2align	4, 0x90
"?dtor$85@?0?_ZN8asteroid8settings4open17hac88e32d8e3700b0E@4HA":
.Lcfi129:
.seh_proc "?dtor$85@?0?_ZN8asteroid8settings4open17hac88e32d8e3700b0E@4HA"
.LBB8_85:
.Ltmp226:
	movq	%rdx, 16(%rsp)
	pushq	%rbp
.Lcfi130:
	.seh_pushreg 5
	subq	$64, %rsp
.Lcfi131:
	.seh_stackalloc 64
	leaq	128(%rdx), %rbp
.Ltmp227:
.Lcfi132:
	.seh_endprologue
	testb	$1, 1093(%rbp)
	jne	.LBB8_63
	jmp	.LBB8_94
.LBB8_94:
	addq	$64, %rsp
	popq	%rbp
	retq
.LBB8_64:
	.cv_loc	8 1 114 0
	movb	$0, 1094(%rbp)
	leaq	416(%rbp), %rcx
	callq	_ZN4core3ptr13drop_in_place17h06c8cbb18e6dbabcE
	nop
	addq	$64, %rsp
	popq	%rbp
	retq
	.seh_handlerdata
	.section	.text,"xr",one_only,_ZN8asteroid8settings4open17hac88e32d8e3700b0E
.Lcfi133:
	.seh_endproc
	.def	 "?dtor$86@?0?_ZN8asteroid8settings4open17hac88e32d8e3700b0E@4HA";
	.scl	3;
	.type	32;
	.endef
	.p2align	4, 0x90
"?dtor$86@?0?_ZN8asteroid8settings4open17hac88e32d8e3700b0E@4HA":
.Lcfi134:
.seh_proc "?dtor$86@?0?_ZN8asteroid8settings4open17hac88e32d8e3700b0E@4HA"
.LBB8_86:
.Ltmp228:
	movq	%rdx, 16(%rsp)
	pushq	%rbp
.Lcfi135:
	.seh_pushreg 5
	subq	$64, %rsp
.Lcfi136:
	.seh_stackalloc 64
	leaq	128(%rdx), %rbp
.Ltmp229:
.Lcfi137:
	.seh_endprologue
	testb	$1, 1094(%rbp)
	jne	.LBB8_64
	jmp	.LBB8_95
.Ltmp230:
.LBB8_95:
	addq	$64, %rsp
	popq	%rbp
	retq
	.seh_handlerdata
	.section	.text,"xr",one_only,_ZN8asteroid8settings4open17hac88e32d8e3700b0E
.Lcfi138:
	.seh_endproc
	.def	 "?dtor$87@?0?_ZN8asteroid8settings4open17hac88e32d8e3700b0E@4HA";
	.scl	3;
	.type	32;
	.endef
	.p2align	4, 0x90
"?dtor$87@?0?_ZN8asteroid8settings4open17hac88e32d8e3700b0E@4HA":
.Lcfi139:
.seh_proc "?dtor$87@?0?_ZN8asteroid8settings4open17hac88e32d8e3700b0E@4HA"
.LBB8_87:
.Ltmp231:
	movq	%rdx, 16(%rsp)
	pushq	%rbp
.Lcfi140:
	.seh_pushreg 5
	subq	$64, %rsp
.Lcfi141:
	.seh_stackalloc 64
	leaq	128(%rdx), %rbp
.Ltmp232:
.Lcfi142:
	.seh_endprologue
	leaq	984(%rbp), %rcx
.Ltmp233:
	.cv_loc	8 1 122 0
	callq	_ZN4core3ptr13drop_in_place17h74d6dd60109708dbE
	nop
	addq	$64, %rsp
	popq	%rbp
	retq
.Ltmp234:
.LBB8_58:
	.cv_loc	8 1 127 0
	movb	$0, 1088(%rbp)
	leaq	240(%rbp), %rcx
	callq	_ZN4core3ptr13drop_in_place17h6eceeab23a0988feE
	nop
	addq	$64, %rsp
	popq	%rbp
	retq
	.seh_handlerdata
	.section	.text,"xr",one_only,_ZN8asteroid8settings4open17hac88e32d8e3700b0E
.Lcfi143:
	.seh_endproc
	.def	 "?dtor$88@?0?_ZN8asteroid8settings4open17hac88e32d8e3700b0E@4HA";
	.scl	3;
	.type	32;
	.endef
	.p2align	4, 0x90
"?dtor$88@?0?_ZN8asteroid8settings4open17hac88e32d8e3700b0E@4HA":
.Lcfi144:
.seh_proc "?dtor$88@?0?_ZN8asteroid8settings4open17hac88e32d8e3700b0E@4HA"
.LBB8_88:
	movq	%rdx, 16(%rsp)
	pushq	%rbp
.Lcfi145:
	.seh_pushreg 5
	subq	$64, %rsp
.Lcfi146:
	.seh_stackalloc 64
	leaq	128(%rdx), %rbp
.Lcfi147:
	.seh_endprologue
	testb	$1, 1088(%rbp)
	jne	.LBB8_58
	jmp	.LBB8_96
.LBB8_96:
	addq	$64, %rsp
	popq	%rbp
	retq
.LBB8_44:
	leaq	904(%rbp), %rcx
.Ltmp235:
	.cv_loc	8 1 122 0
	callq	_ZN4core3ptr13drop_in_place17h5260d67d69fab684E
	nop
	addq	$64, %rsp
	popq	%rbp
	retq
.LBB8_65:
	leaq	936(%rbp), %rcx
.Ltmp236:
	.cv_loc	8 1 122 0
	movb	$0, 1095(%rbp)
	callq	_ZN4core3ptr13drop_in_place17h74d6dd60109708dbE
	jmp	.LBB8_44
	.seh_handlerdata
	.section	.text,"xr",one_only,_ZN8asteroid8settings4open17hac88e32d8e3700b0E
.Lcfi148:
	.seh_endproc
	.def	 "?dtor$89@?0?_ZN8asteroid8settings4open17hac88e32d8e3700b0E@4HA";
	.scl	3;
	.type	32;
	.endef
	.p2align	4, 0x90
"?dtor$89@?0?_ZN8asteroid8settings4open17hac88e32d8e3700b0E@4HA":
.Lcfi149:
.seh_proc "?dtor$89@?0?_ZN8asteroid8settings4open17hac88e32d8e3700b0E@4HA"
.LBB8_89:
	movq	%rdx, 16(%rsp)
	pushq	%rbp
.Lcfi150:
	.seh_pushreg 5
	subq	$64, %rsp
.Lcfi151:
	.seh_stackalloc 64
	leaq	128(%rdx), %rbp
.Lcfi152:
	.seh_endprologue
	testb	$1, 1095(%rbp)
	jne	.LBB8_65
	jmp	.LBB8_44
.Ltmp237:
.Lfunc_end8:
	.seh_handlerdata
	.section	.text,"xr",one_only,_ZN8asteroid8settings4open17hac88e32d8e3700b0E
.Lcfi153:
	.seh_endproc
	.section	.xdata,"dr",associative,_ZN8asteroid8settings4open17hac88e32d8e3700b0E
	.p2align	2
$cppxdata$_ZN8asteroid8settings4open17hac88e32d8e3700b0E:
	.long	429065506
	.long	16
	.long	($stateUnwindMap$_ZN8asteroid8settings4open17hac88e32d8e3700b0E)@IMGREL
	.long	0
	.long	0
	.long	27
	.long	($ip2state$_ZN8asteroid8settings4open17hac88e32d8e3700b0E)@IMGREL
	.long	1224
	.long	0
	.long	1
$stateUnwindMap$_ZN8asteroid8settings4open17hac88e32d8e3700b0E:
	.long	-1
	.long	"?dtor$74@?0?_ZN8asteroid8settings4open17hac88e32d8e3700b0E@4HA"@IMGREL
	.long	0
	.long	"?dtor$88@?0?_ZN8asteroid8settings4open17hac88e32d8e3700b0E@4HA"@IMGREL
	.long	1
	.long	"?dtor$89@?0?_ZN8asteroid8settings4open17hac88e32d8e3700b0E@4HA"@IMGREL
	.long	2
	.long	"?dtor$87@?0?_ZN8asteroid8settings4open17hac88e32d8e3700b0E@4HA"@IMGREL
	.long	1
	.long	"?dtor$76@?0?_ZN8asteroid8settings4open17hac88e32d8e3700b0E@4HA"@IMGREL
	.long	4
	.long	"?dtor$77@?0?_ZN8asteroid8settings4open17hac88e32d8e3700b0E@4HA"@IMGREL
	.long	4
	.long	"?dtor$79@?0?_ZN8asteroid8settings4open17hac88e32d8e3700b0E@4HA"@IMGREL
	.long	6
	.long	"?dtor$80@?0?_ZN8asteroid8settings4open17hac88e32d8e3700b0E@4HA"@IMGREL
	.long	6
	.long	"?dtor$82@?0?_ZN8asteroid8settings4open17hac88e32d8e3700b0E@4HA"@IMGREL
	.long	8
	.long	"?dtor$86@?0?_ZN8asteroid8settings4open17hac88e32d8e3700b0E@4HA"@IMGREL
	.long	8
	.long	"?dtor$85@?0?_ZN8asteroid8settings4open17hac88e32d8e3700b0E@4HA"@IMGREL
	.long	8
	.long	"?dtor$84@?0?_ZN8asteroid8settings4open17hac88e32d8e3700b0E@4HA"@IMGREL
	.long	8
	.long	"?dtor$83@?0?_ZN8asteroid8settings4open17hac88e32d8e3700b0E@4HA"@IMGREL
	.long	6
	.long	"?dtor$81@?0?_ZN8asteroid8settings4open17hac88e32d8e3700b0E@4HA"@IMGREL
	.long	4
	.long	"?dtor$78@?0?_ZN8asteroid8settings4open17hac88e32d8e3700b0E@4HA"@IMGREL
	.long	1
	.long	"?dtor$75@?0?_ZN8asteroid8settings4open17hac88e32d8e3700b0E@4HA"@IMGREL
$ip2state$_ZN8asteroid8settings4open17hac88e32d8e3700b0E:
	.long	.Lfunc_begin8@IMGREL
	.long	-1
	.long	.Ltmp66@IMGREL+1
	.long	1
	.long	.Ltmp68@IMGREL+1
	.long	15
	.long	.Ltmp76@IMGREL+1
	.long	5
	.long	.Ltmp80@IMGREL+1
	.long	14
	.long	.Ltmp83@IMGREL+1
	.long	-1
	.long	.Ltmp84@IMGREL+1
	.long	14
	.long	.Ltmp88@IMGREL+1
	.long	7
	.long	.Ltmp92@IMGREL+1
	.long	13
	.long	.Ltmp95@IMGREL+1
	.long	-1
	.long	.Ltmp96@IMGREL+1
	.long	13
	.long	.Ltmp100@IMGREL+1
	.long	12
	.long	.Ltmp104@IMGREL+1
	.long	11
	.long	.Ltmp112@IMGREL+1
	.long	10
	.long	.Ltmp120@IMGREL+1
	.long	9
	.long	.Ltmp128@IMGREL+1
	.long	8
	.long	.Ltmp130@IMGREL+1
	.long	6
	.long	.Ltmp132@IMGREL+1
	.long	4
	.long	.Ltmp134@IMGREL+1
	.long	1
	.long	.Ltmp50@IMGREL+1
	.long	2
	.long	.Ltmp64@IMGREL+1
	.long	1
	.long	.Ltmp56@IMGREL+1
	.long	3
	.long	.Ltmp60@IMGREL+1
	.long	2
	.long	.Ltmp54@IMGREL+1
	.long	3
	.long	.Ltmp52@IMGREL+1
	.long	2
	.long	.Ltmp136@IMGREL+1
	.long	0
	.long	.Ltmp137@IMGREL+1
	.long	-1
	.section	.text,"xr",one_only,_ZN8asteroid8settings4open17hac88e32d8e3700b0E

	.section	.rdata,"dr",one_only,str.0
str.0:
	.ascii	"untitled"

	.section	.rdata,"dr",one_only,str.1
str.1:

	.section	.rdata,"dr",one_only,str.2
str.2:
	.byte	10

	.section	.rdata,"dr",one_only,ref.3
	.p2align	3
ref.3:
	.quad	str.1
	.quad	0
	.quad	str.2
	.quad	1

	.section	.rdata,"dr",one_only,ref.4
	.p2align	3
ref.4:
	.quad	1
	.quad	0
	.quad	3
	.zero	8
	.quad	3
	.zero	8
	.long	32
	.long	0
	.byte	3
	.zero	7

	.section	.rdata,"dr",one_only,const.5
	.p2align	3
const.5:
	.quad	ref.4

	.section	.rdata,"dr",one_only,str.6
str.6:
	.ascii	"window"

	.section	.rdata,"dr",one_only,str.7
str.7:
	.ascii	"title"

	.section	.rdata,"dr",one_only,str.8
str.8:
	.ascii	"width"

	.section	.rdata,"dr",one_only,str.9
str.9:
	.ascii	"height"

	.section	.rdata,"dr",one_only,str.a
str.a:
	.ascii	"vsync"

	.section	.rdata,"dr",one_only,str.b
str.b:
	.ascii	"fullscreen"

	.section	.rdata,"dr",one_only,str.c
str.c:
	.ascii	"exit on escape"
