	.text
	.def	 _ZN4core3ptr31_$LT$impl$u20$$BP$mut$u20$T$GT$7is_null17hf92091945e7a6ebfE;
	.scl	2;
	.type	32;
	.endef
	.section	.text,"xr",one_only,_ZN4core3ptr31_$LT$impl$u20$$BP$mut$u20$T$GT$7is_null17hf92091945e7a6ebfE
	.globl	_ZN4core3ptr31_$LT$impl$u20$$BP$mut$u20$T$GT$7is_null17hf92091945e7a6ebfE
	.p2align	4, 0x90
_ZN4core3ptr31_$LT$impl$u20$$BP$mut$u20$T$GT$7is_null17hf92091945e7a6ebfE:
.Lfunc_begin0:
	.cv_func_id 0
	.cv_file	1 "C:\\projects\\rust\\src\\libcore\\ptr.rs"
	.cv_loc	0 1 1165 0 is_stmt 0
.Lcfi0:
.seh_proc _ZN4core3ptr31_$LT$impl$u20$$BP$mut$u20$T$GT$7is_null17hf92091945e7a6ebfE
	pushq	%rbp
.Lcfi1:
	.seh_pushreg 5
	subq	$64, %rsp
.Lcfi2:
	.seh_stackalloc 64
	leaq	64(%rsp), %rbp
.Lcfi3:
	.seh_setframe 5, 64
.Lcfi4:
	.seh_endprologue
	movq	%rcx, -8(%rbp)
.Ltmp0:
	.cv_loc	0 1 1168 0
	movq	-8(%rbp), %rcx
	movq	%rcx, -16(%rbp)
	callq	_ZN4core3ptr8null_mut17h3b43a16dddb6aa7bE
	movq	%rax, -24(%rbp)
	movq	-16(%rbp), %rax
	movq	-24(%rbp), %rcx
	cmpq	%rcx, %rax
	sete	%dl
	.cv_loc	0 1 1169 0
	andb	$1, %dl
	movzbl	%dl, %eax
	addq	$64, %rsp
	popq	%rbp
	retq
.Ltmp1:
.Lfunc_end0:
	.seh_handlerdata
	.section	.text,"xr",one_only,_ZN4core3ptr31_$LT$impl$u20$$BP$mut$u20$T$GT$7is_null17hf92091945e7a6ebfE
.Lcfi5:
	.seh_endproc

	.def	 _ZN4core3ptr33_$LT$impl$u20$$BP$const$u20$T$GT$6offset17hf2a2afa92084a586E;
	.scl	2;
	.type	32;
	.endef
	.section	.text,"xr",one_only,_ZN4core3ptr33_$LT$impl$u20$$BP$const$u20$T$GT$6offset17hf2a2afa92084a586E
	.globl	_ZN4core3ptr33_$LT$impl$u20$$BP$const$u20$T$GT$6offset17hf2a2afa92084a586E
	.p2align	4, 0x90
_ZN4core3ptr33_$LT$impl$u20$$BP$const$u20$T$GT$6offset17hf2a2afa92084a586E:
.Lfunc_begin1:
	.cv_func_id 1
	.cv_loc	1 1 621 0
.Lcfi6:
.seh_proc _ZN4core3ptr33_$LT$impl$u20$$BP$const$u20$T$GT$6offset17hf2a2afa92084a586E
	pushq	%rbp
.Lcfi7:
	.seh_pushreg 5
	subq	$32, %rsp
.Lcfi8:
	.seh_stackalloc 32
	leaq	32(%rsp), %rbp
.Lcfi9:
	.seh_setframe 5, 32
.Lcfi10:
	.seh_endprologue
	movq	%rcx, -24(%rbp)
	movq	%rdx, -16(%rbp)
.Ltmp2:
	.cv_loc	1 1 622 0
	movq	-24(%rbp), %rcx
	imulq	$56, -16(%rbp), %rdx
	addq	%rdx, %rcx
	movq	%rcx, -8(%rbp)
	movq	-8(%rbp), %rax
	movq	%rax, -32(%rbp)
	.cv_loc	1 1 623 0
	movq	-32(%rbp), %rax
	addq	$32, %rsp
	popq	%rbp
	retq
.Ltmp3:
.Lfunc_end1:
	.seh_handlerdata
	.section	.text,"xr",one_only,_ZN4core3ptr33_$LT$impl$u20$$BP$const$u20$T$GT$6offset17hf2a2afa92084a586E
.Lcfi11:
	.seh_endproc

	.def	 _ZN4core3ptr33_$LT$impl$u20$$BP$const$u20$T$GT$7is_null17hca3330dd9db05e3eE;
	.scl	2;
	.type	32;
	.endef
	.section	.text,"xr",one_only,_ZN4core3ptr33_$LT$impl$u20$$BP$const$u20$T$GT$7is_null17hca3330dd9db05e3eE
	.globl	_ZN4core3ptr33_$LT$impl$u20$$BP$const$u20$T$GT$7is_null17hca3330dd9db05e3eE
	.p2align	4, 0x90
_ZN4core3ptr33_$LT$impl$u20$$BP$const$u20$T$GT$7is_null17hca3330dd9db05e3eE:
.Lfunc_begin2:
	.cv_func_id 2
	.cv_loc	2 1 529 0
.Lcfi12:
.seh_proc _ZN4core3ptr33_$LT$impl$u20$$BP$const$u20$T$GT$7is_null17hca3330dd9db05e3eE
	pushq	%rbp
.Lcfi13:
	.seh_pushreg 5
	subq	$64, %rsp
.Lcfi14:
	.seh_stackalloc 64
	leaq	64(%rsp), %rbp
.Lcfi15:
	.seh_setframe 5, 64
.Lcfi16:
	.seh_endprologue
	movq	%rcx, -8(%rbp)
.Ltmp4:
	.cv_loc	2 1 532 0
	movq	-8(%rbp), %rcx
	movq	%rcx, -16(%rbp)
	callq	_ZN4core3ptr4null17h87d8c0f96b2ac6aeE
	movq	%rax, -24(%rbp)
	movq	-16(%rbp), %rax
	movq	-24(%rbp), %rcx
	cmpq	%rcx, %rax
	sete	%dl
	.cv_loc	2 1 533 0
	andb	$1, %dl
	movzbl	%dl, %eax
	addq	$64, %rsp
	popq	%rbp
	retq
.Ltmp5:
.Lfunc_end2:
	.seh_handlerdata
	.section	.text,"xr",one_only,_ZN4core3ptr33_$LT$impl$u20$$BP$const$u20$T$GT$7is_null17hca3330dd9db05e3eE
.Lcfi17:
	.seh_endproc

	.def	 _ZN4nccl4pair4Pair10keys_as_or17hdd13d866f3e9f486E;
	.scl	2;
	.type	32;
	.endef
	.section	.text,"xr",one_only,_ZN4nccl4pair4Pair10keys_as_or17hdd13d866f3e9f486E
	.globl	_ZN4nccl4pair4Pair10keys_as_or17hdd13d866f3e9f486E
	.p2align	4, 0x90
_ZN4nccl4pair4Pair10keys_as_or17hdd13d866f3e9f486E:
.Lfunc_begin3:
	.cv_func_id 3
	.cv_file	2 "C:\\Users\\Zack\\.cargo\\registry\\src\\github.com-1ecc6299db9ec823\\nccl-0.4.3\\src\\pair.rs"
	.cv_loc	3 2 244 0
.Lcfi18:
.seh_proc _ZN4nccl4pair4Pair10keys_as_or17hdd13d866f3e9f486E
	.seh_handler __CxxFrameHandler3, @unwind, @except
	pushq	%rbp
.Lcfi19:
	.seh_pushreg 5
	subq	$144, %rsp
.Lcfi20:
	.seh_stackalloc 144
	leaq	128(%rsp), %rbp
.Lcfi21:
	.seh_setframe 5, 128
.Lcfi22:
	.seh_endprologue
	movq	$-2, 8(%rbp)
	movq	%rcx, %rax
	movq	%rdx, -72(%rbp)
.Ltmp10:
	.cv_loc	3 2 245 0
	movb	$0, 7(%rbp)
	movb	$1, 7(%rbp)
	movq	-72(%rbp), %rdx
.Ltmp6:
	leaq	-64(%rbp), %r9
	movq	%rcx, -80(%rbp)
	movq	%r9, %rcx
	movq	%rax, -88(%rbp)
	movq	%r8, -96(%rbp)
.Ltmp11:
	callq	_ZN4nccl4pair4Pair7keys_as17h76d1e8b0bef1344eE
.Ltmp7:
	jmp	.LBB3_2
.Ltmp12:
.LBB3_2:
	movb	$0, 7(%rbp)
	movq	-96(%rbp), %rax
	movq	16(%rax), %rcx
	movq	%rcx, -16(%rbp)
	movups	(%rax), %xmm0
	movaps	%xmm0, -32(%rbp)
.Ltmp8:
	leaq	-64(%rbp), %rdx
	leaq	-32(%rbp), %r8
	movq	-80(%rbp), %rcx
	callq	_ZN47_$LT$core..result..Result$LT$T$C$$u20$E$GT$$GT$9unwrap_or17hf62e19366a672d0bE
.Ltmp9:
	jmp	.LBB3_3
.Ltmp13:
.LBB3_3:
	.cv_loc	3 2 246 0
	movq	-88(%rbp), %rax
	addq	$144, %rsp
	popq	%rbp
.Ltmp14:
	retq
.LBB3_1:
	.cv_loc	3 2 244 0
	addq	$32, %rsp
	popq	%rbp
	retq
.LBB3_4:
	.cv_loc	3 2 246 0
	movb	$0, 7(%rbp)
	movq	-96(%rbp), %rcx
	callq	_ZN4core3ptr13drop_in_place17he87ea5237a1bab48E
	jmp	.LBB3_1
	.seh_handlerdata
	.long	($cppxdata$_ZN4nccl4pair4Pair10keys_as_or17hdd13d866f3e9f486E)@IMGREL
	.section	.text,"xr",one_only,_ZN4nccl4pair4Pair10keys_as_or17hdd13d866f3e9f486E
.Lcfi23:
	.seh_endproc
	.def	 "?dtor$5@?0?_ZN4nccl4pair4Pair10keys_as_or17hdd13d866f3e9f486E@4HA";
	.scl	3;
	.type	32;
	.endef
	.p2align	4, 0x90
"?dtor$5@?0?_ZN4nccl4pair4Pair10keys_as_or17hdd13d866f3e9f486E@4HA":
.Lcfi24:
.seh_proc "?dtor$5@?0?_ZN4nccl4pair4Pair10keys_as_or17hdd13d866f3e9f486E@4HA"
.LBB3_5:
	movq	%rdx, 16(%rsp)
	pushq	%rbp
.Lcfi25:
	.seh_pushreg 5
	subq	$32, %rsp
.Lcfi26:
	.seh_stackalloc 32
	leaq	128(%rdx), %rbp
.Lcfi27:
	.seh_endprologue
	testb	$1, 7(%rbp)
	jne	.LBB3_4
	jmp	.LBB3_1
.Ltmp15:
.Lfunc_end3:
	.seh_handlerdata
	.section	.text,"xr",one_only,_ZN4nccl4pair4Pair10keys_as_or17hdd13d866f3e9f486E
.Lcfi28:
	.seh_endproc
	.section	.xdata,"dr",associative,_ZN4nccl4pair4Pair10keys_as_or17hdd13d866f3e9f486E
	.p2align	2
$cppxdata$_ZN4nccl4pair4Pair10keys_as_or17hdd13d866f3e9f486E:
	.long	429065506
	.long	1
	.long	($stateUnwindMap$_ZN4nccl4pair4Pair10keys_as_or17hdd13d866f3e9f486E)@IMGREL
	.long	0
	.long	0
	.long	3
	.long	($ip2state$_ZN4nccl4pair4Pair10keys_as_or17hdd13d866f3e9f486E)@IMGREL
	.long	136
	.long	0
	.long	1
$stateUnwindMap$_ZN4nccl4pair4Pair10keys_as_or17hdd13d866f3e9f486E:
	.long	-1
	.long	"?dtor$5@?0?_ZN4nccl4pair4Pair10keys_as_or17hdd13d866f3e9f486E@4HA"@IMGREL
$ip2state$_ZN4nccl4pair4Pair10keys_as_or17hdd13d866f3e9f486E:
	.long	.Lfunc_begin3@IMGREL
	.long	-1
	.long	.Ltmp6@IMGREL+1
	.long	0
	.long	.Ltmp9@IMGREL+1
	.long	-1
	.section	.text,"xr",one_only,_ZN4nccl4pair4Pair10keys_as_or17hdd13d866f3e9f486E

	.def	 _ZN4nccl4pair4Pair11value_as_or17h8e282815c5c03995E;
	.scl	2;
	.type	32;
	.endef
	.section	.text,"xr",one_only,_ZN4nccl4pair4Pair11value_as_or17h8e282815c5c03995E
	.globl	_ZN4nccl4pair4Pair11value_as_or17h8e282815c5c03995E
	.p2align	4, 0x90
_ZN4nccl4pair4Pair11value_as_or17h8e282815c5c03995E:
.Lfunc_begin4:
	.cv_func_id 4
	.cv_loc	4 2 215 0
.Lcfi29:
.seh_proc _ZN4nccl4pair4Pair11value_as_or17h8e282815c5c03995E
	.seh_handler __CxxFrameHandler3, @unwind, @except
	pushq	%rbp
.Lcfi30:
	.seh_pushreg 5
	subq	$96, %rsp
.Lcfi31:
	.seh_stackalloc 96
	leaq	96(%rsp), %rbp
.Lcfi32:
	.seh_setframe 5, 96
.Lcfi33:
	.seh_endprologue
	movq	$-2, -8(%rbp)
	movb	%dl, %al
	movq	%rcx, -56(%rbp)
	andb	$1, %al
	movb	%al, -41(%rbp)
.Ltmp20:
	.cv_loc	4 2 216 0
	movb	$0, -9(%rbp)
	movb	$1, -9(%rbp)
	movq	-56(%rbp), %rdx
.Ltmp16:
	leaq	-40(%rbp), %rcx
	callq	_ZN4nccl4pair4Pair8value_as17h484e12e0fd3f4adcE
.Ltmp17:
	jmp	.LBB4_2
.Ltmp21:
.LBB4_2:
	movb	$0, -9(%rbp)
	movzbl	-41(%rbp), %edx
.Ltmp18:
	leaq	-40(%rbp), %rcx
	callq	_ZN47_$LT$core..result..Result$LT$T$C$$u20$E$GT$$GT$9unwrap_or17h9648151ad8199aa6E
.Ltmp19:
	movb	%al, -57(%rbp)
	jmp	.LBB4_3
.Ltmp22:
.LBB4_3:
	.cv_loc	4 2 217 0
	movb	-57(%rbp), %al
	andb	$1, %al
	movzbl	%al, %eax
	addq	$96, %rsp
	popq	%rbp
.Ltmp23:
	retq
.LBB4_1:
	.cv_loc	4 2 215 0
	addq	$32, %rsp
	popq	%rbp
	retq
.LBB4_4:
	.cv_loc	4 2 217 0
	movb	$0, -9(%rbp)
	jmp	.LBB4_1
	.seh_handlerdata
	.long	($cppxdata$_ZN4nccl4pair4Pair11value_as_or17h8e282815c5c03995E)@IMGREL
	.section	.text,"xr",one_only,_ZN4nccl4pair4Pair11value_as_or17h8e282815c5c03995E
.Lcfi34:
	.seh_endproc
	.def	 "?dtor$5@?0?_ZN4nccl4pair4Pair11value_as_or17h8e282815c5c03995E@4HA";
	.scl	3;
	.type	32;
	.endef
	.p2align	4, 0x90
"?dtor$5@?0?_ZN4nccl4pair4Pair11value_as_or17h8e282815c5c03995E@4HA":
.Lcfi35:
.seh_proc "?dtor$5@?0?_ZN4nccl4pair4Pair11value_as_or17h8e282815c5c03995E@4HA"
.LBB4_5:
	movq	%rdx, 16(%rsp)
	pushq	%rbp
.Lcfi36:
	.seh_pushreg 5
	subq	$32, %rsp
.Lcfi37:
	.seh_stackalloc 32
	leaq	96(%rdx), %rbp
.Lcfi38:
	.seh_endprologue
	testb	$1, -9(%rbp)
	jne	.LBB4_4
	jmp	.LBB4_1
.Ltmp24:
.Lfunc_end4:
	.seh_handlerdata
	.section	.text,"xr",one_only,_ZN4nccl4pair4Pair11value_as_or17h8e282815c5c03995E
.Lcfi39:
	.seh_endproc
	.section	.xdata,"dr",associative,_ZN4nccl4pair4Pair11value_as_or17h8e282815c5c03995E
	.p2align	2
$cppxdata$_ZN4nccl4pair4Pair11value_as_or17h8e282815c5c03995E:
	.long	429065506
	.long	1
	.long	($stateUnwindMap$_ZN4nccl4pair4Pair11value_as_or17h8e282815c5c03995E)@IMGREL
	.long	0
	.long	0
	.long	3
	.long	($ip2state$_ZN4nccl4pair4Pair11value_as_or17h8e282815c5c03995E)@IMGREL
	.long	88
	.long	0
	.long	1
$stateUnwindMap$_ZN4nccl4pair4Pair11value_as_or17h8e282815c5c03995E:
	.long	-1
	.long	"?dtor$5@?0?_ZN4nccl4pair4Pair11value_as_or17h8e282815c5c03995E@4HA"@IMGREL
$ip2state$_ZN4nccl4pair4Pair11value_as_or17h8e282815c5c03995E:
	.long	.Lfunc_begin4@IMGREL
	.long	-1
	.long	.Ltmp16@IMGREL+1
	.long	0
	.long	.Ltmp19@IMGREL+1
	.long	-1
	.section	.text,"xr",one_only,_ZN4nccl4pair4Pair11value_as_or17h8e282815c5c03995E

	.def	 _ZN4nccl4pair4Pair7get_ref17h5f8ad8abedc5db4cE;
	.scl	3;
	.type	32;
	.endef
	.section	.text,"xr",one_only,_ZN4nccl4pair4Pair7get_ref17h5f8ad8abedc5db4cE
	.p2align	4, 0x90
_ZN4nccl4pair4Pair7get_ref17h5f8ad8abedc5db4cE:
.Lfunc_begin5:
	.cv_func_id 5
	.cv_loc	5 2 154 0
.Lcfi40:
.seh_proc _ZN4nccl4pair4Pair7get_ref17h5f8ad8abedc5db4cE
	.seh_handler __CxxFrameHandler3, @unwind, @except
	pushq	%rbp
.Lcfi41:
	.seh_pushreg 5
	subq	$480, %rsp
.Lcfi42:
	.seh_stackalloc 480
	leaq	128(%rsp), %rbp
.Lcfi43:
	.seh_setframe 5, 128
.Lcfi44:
	.seh_endprologue
	movq	$-2, 344(%rbp)
	movq	%rcx, %rax
	movq	%rdx, 48(%rbp)
	movq	%r8, 56(%rbp)
	movq	%r9, 64(%rbp)
.Ltmp47:
	.cv_loc	5 2 155 0
	movq	56(%rbp), %rdx
	movq	64(%rbp), %r8
	leaq	72(%rbp), %r9
	movq	%rcx, 40(%rbp)
	movq	%r9, %rcx
	movq	%rax, 32(%rbp)
	callq	_ZN50_$LT$T$u20$as$u20$core..convert..Into$LT$U$GT$$GT$4into17h9f4ef6c7b1018193E
.Ltmp48:
	.cv_loc	5 2 157 0
	movq	48(%rbp), %rax
	addq	$32, %rax
.Ltmp25:
	movq	%rax, %rcx
	callq	_ZN33_$LT$alloc..vec..Vec$LT$T$GT$$GT$8is_empty17h186e906472103467E
.Ltmp26:
	movb	%al, 31(%rbp)
	jmp	.LBB5_1
.Ltmp49:
.LBB5_1:
	movb	31(%rbp), %al
	testb	$1, %al
	jne	.LBB5_2
	jmp	.LBB5_3
.Ltmp50:
.LBB5_2:
	.cv_loc	5 2 158 0
	movq	48(%rbp), %rax
	movq	40(%rbp), %rcx
	movq	$0, (%rcx)
	movq	%rax, 8(%rcx)
	jmp	.LBB5_5
.Ltmp51:
.LBB5_3:
	.cv_loc	5 2 160 0
	movq	48(%rbp), %rax
	addq	$32, %rax
.Ltmp27:
	movq	%rax, %rcx
	callq	_ZN92_$LT$$RF$$u27$a$u20$alloc..vec..Vec$LT$T$GT$$u20$as$u20$core..iter..traits..IntoIterator$GT$9into_iter17hefcdcde6fb0519dfE
.Ltmp28:
	movq	%rdx, 16(%rbp)
	movq	%rax, 8(%rbp)
	jmp	.LBB5_6
.Ltmp52:
.LBB5_4:
	.cv_loc	5 2 168 0
	movq	32(%rbp), %rax
	addq	$480, %rsp
	popq	%rbp
.Ltmp53:
	retq
.LBB5_5:
.Ltmp54:
	leaq	72(%rbp), %rcx
	callq	_ZN4core3ptr13drop_in_place17h49da1e077d465508E
	jmp	.LBB5_4
.Ltmp55:
.LBB5_6:
	.cv_loc	5 2 160 0
	movq	8(%rbp), %rax
	movq	%rax, 104(%rbp)
	movq	16(%rbp), %rax
	movq	%rax, 112(%rbp)
.Ltmp56:
.LBB5_7:
	.cv_loc	5 2 160 0
.Ltmp29:
	leaq	104(%rbp), %rcx
	callq	_ZN91_$LT$core..slice..Iter$LT$$u27$a$C$$u20$T$GT$$u20$as$u20$core..iter..iterator..Iterator$GT$4next17h857574a67b077f09E
.Ltmp30:
	movq	%rax, (%rbp)
	jmp	.LBB5_8
.Ltmp57:
.LBB5_8:
	movq	(%rbp), %rax
	movq	%rax, 128(%rbp)
	movq	128(%rbp), %rcx
	testq	%rcx, %rcx
	setne	%dl
	movzbl	%dl, %r8d
	movl	%r8d, %ecx
	movq	%rcx, -8(%rbp)
	je	.LBB5_9
	jmp	.LBB5_26
.Ltmp58:
.LBB5_26:
	movq	-8(%rbp), %rax
	subq	$1, %rax
	movq	%rax, -16(%rbp)
	je	.LBB5_11
	jmp	.LBB5_10
.Ltmp59:
.LBB5_9:
	.cv_loc	5 2 167 0
	movb	$0, 199(%rbp)
	leaq	72(%rbp), %rax
	movq	%rax, 288(%rbp)
	.cv_file	3 "C:\\Users\\Zack\\.cargo\\registry\\src\\github.com-1ecc6299db9ec823\\nccl-0.4.3\\src\\lib.rs"
	.cv_loc	5 3 1 0
	movq	288(%rbp), %rax
	movq	%rax, 296(%rbp)
.Ltmp60:
	.cv_loc	5 2 167 0
	movq	296(%rbp), %rcx
	.cv_file	4 "\\<format macros>"
	.cv_loc	5 4 2 0
.Ltmp33:
	leaq	_ZN57_$LT$nccl..value..Value$u20$as$u20$core..fmt..Display$GT$3fmt17h5391cfedaee41061E(%rip), %rdx
	callq	_ZN4core3fmt10ArgumentV13new17ha7efe3f43a69d008E
.Ltmp34:
	movq	%rdx, -24(%rbp)
	movq	%rax, -32(%rbp)
	jmp	.LBB5_15
.Ltmp61:
.LBB5_10:
	.cv_loc	5 2 168 0
	ud2
.Ltmp62:
.LBB5_11:
	.cv_loc	5 2 160 0
	movq	128(%rbp), %rax
	movq	%rax, 136(%rbp)
.Ltmp63:
	.cv_loc	5 2 160 0
	movq	136(%rbp), %rax
	movq	%rax, 120(%rbp)
.Ltmp64:
	.cv_loc	5 2 160 0
	movq	120(%rbp), %rax
	movq	%rax, 144(%rbp)
.Ltmp65:
	.cv_loc	5 2 161 0
	movq	144(%rbp), %rcx
.Ltmp31:
	leaq	72(%rbp), %rdx
	callq	_ZN59_$LT$nccl..value..Value$u20$as$u20$core..cmp..PartialEq$GT$2eq17h22cba617091a78feE
.Ltmp32:
	movb	%al, -33(%rbp)
	jmp	.LBB5_12
.Ltmp66:
.LBB5_12:
	movb	-33(%rbp), %al
	testb	$1, %al
	jne	.LBB5_13
	jmp	.LBB5_14
.Ltmp67:
.LBB5_13:
	.cv_loc	5 2 162 0
	movq	144(%rbp), %rax
	movq	40(%rbp), %rcx
	movq	$0, (%rcx)
	movq	%rax, 8(%rcx)
.Ltmp68:
	.cv_loc	5 2 162 0
	jmp	.LBB5_5
.Ltmp69:
.LBB5_14:
	.cv_loc	5 2 160 0
	jmp	.LBB5_7
.Ltmp70:
.LBB5_15:
	.cv_loc	5 2 167 0
	movq	-32(%rbp), %rax
	movq	%rax, 272(%rbp)
	movq	-24(%rbp), %rcx
	movq	%rcx, 280(%rbp)
.Ltmp71:
	.cv_loc	5 4 2 0
.Ltmp35:
	leaq	ref.2(%rip), %rdx
	movq	%rsp, %r8
	movq	%rdx, 40(%r8)
	movq	$1, 48(%r8)
	movq	$1, 32(%r8)
	leaq	ref.1(%rip), %rdx
	movl	$1, %r9d
	movl	%r9d, %r8d
	leaq	224(%rbp), %rcx
	leaq	272(%rbp), %r9
	callq	_ZN4core3fmt9Arguments16new_v1_formatted17h647572f4005f46b4E
.Ltmp36:
	jmp	.LBB5_16
.Ltmp72:
.LBB5_16:
.Ltmp37:
	leaq	200(%rbp), %rcx
	leaq	224(%rbp), %rdx
	callq	_ZN5alloc3fmt6format17hbb03c9d39b048a14E
.Ltmp38:
	jmp	.LBB5_17
.Ltmp73:
.LBB5_17:
	.cv_loc	5 2 167 0
.Ltmp39:
	leaq	200(%rbp), %rcx
	callq	_ZN65_$LT$alloc..string..String$u20$as$u20$core..ops..deref..Deref$GT$5deref17h87e2e24adb925e4cE
.Ltmp40:
	movq	%rdx, -48(%rbp)
	movq	%rax, -56(%rbp)
	jmp	.LBB5_18
.Ltmp74:
.LBB5_18:
	movzbl	199(%rbp), %edx
.Ltmp41:
	movq	%rsp, %rax
	movq	$0, 32(%rax)
	leaq	152(%rbp), %rcx
	movq	-56(%rbp), %r8
	movq	-48(%rbp), %r9
	callq	_ZN4nccl5error9NcclError3new17h7b411b200ee4b3c5E
.Ltmp42:
	jmp	.LBB5_19
.Ltmp75:
.LBB5_19:
	.cv_file	5 "C:\\projects\\rust\\src\\liballoc\\boxed.rs"
	.cv_inline_site_id 6 within 5 inlined_at 2 167 0
	.cv_loc	6 5 242 0
.Ltmp43:
	movl	$40, %eax
	movl	%eax, %ecx
	movl	$8, %eax
	movl	%eax, %edx
	callq	_ZN5alloc4heap15exchange_malloc17hc861eca9d8f05e82E
.Ltmp44:
	movq	%rax, -64(%rbp)
	jmp	.LBB5_20
.Ltmp76:
.LBB5_20:
	movq	184(%rbp), %rax
	movq	%rax, 336(%rbp)
	movups	152(%rbp), %xmm0
	movups	168(%rbp), %xmm1
	movaps	%xmm1, 320(%rbp)
	movaps	%xmm0, 304(%rbp)
	movq	336(%rbp), %rax
	movq	-64(%rbp), %rcx
	movq	%rax, 32(%rcx)
	movaps	304(%rbp), %xmm0
	movaps	320(%rbp), %xmm1
	movups	%xmm1, 16(%rcx)
	movups	%xmm0, (%rcx)
.Ltmp77:
	.cv_loc	5 2 167 0
	movq	40(%rbp), %rax
	movq	$1, (%rax)
	movq	%rcx, 8(%rax)
	leaq	vtable.4(%rip), %rdx
	movq	%rdx, 16(%rax)
.Ltmp78:
	.cv_loc	5 2 168 0
.Ltmp45:
	leaq	72(%rbp), %rcx
	callq	_ZN4core3ptr13drop_in_place17h49da1e077d465508E
.Ltmp46:
	jmp	.LBB5_21
.Ltmp79:
.LBB5_21:
	leaq	200(%rbp), %rcx
	callq	_ZN4core3ptr13drop_in_place17h7c1ed1e97a94da88E
	jmp	.LBB5_4
.Ltmp80:
	.seh_handlerdata
	.long	($cppxdata$_ZN4nccl4pair4Pair7get_ref17h5f8ad8abedc5db4cE)@IMGREL
	.section	.text,"xr",one_only,_ZN4nccl4pair4Pair7get_ref17h5f8ad8abedc5db4cE
.Lcfi45:
	.seh_endproc
	.def	 "?dtor$22@?0?_ZN4nccl4pair4Pair7get_ref17h5f8ad8abedc5db4cE@4HA";
	.scl	3;
	.type	32;
	.endef
	.p2align	4, 0x90
"?dtor$22@?0?_ZN4nccl4pair4Pair7get_ref17h5f8ad8abedc5db4cE@4HA":
.Lcfi46:
.seh_proc "?dtor$22@?0?_ZN4nccl4pair4Pair7get_ref17h5f8ad8abedc5db4cE@4HA"
.LBB5_22:
	movq	%rdx, 16(%rsp)
	pushq	%rbp
.Lcfi47:
	.seh_pushreg 5
	subq	$64, %rsp
.Lcfi48:
	.seh_stackalloc 64
	leaq	128(%rdx), %rbp
.Lcfi49:
	.seh_endprologue
	.cv_loc	5 2 154 0
	addq	$64, %rsp
	popq	%rbp
	retq
	.seh_handlerdata
	.section	.text,"xr",one_only,_ZN4nccl4pair4Pair7get_ref17h5f8ad8abedc5db4cE
.Lcfi50:
	.seh_endproc
	.def	 "?dtor$23@?0?_ZN4nccl4pair4Pair7get_ref17h5f8ad8abedc5db4cE@4HA";
	.scl	3;
	.type	32;
	.endef
	.p2align	4, 0x90
"?dtor$23@?0?_ZN4nccl4pair4Pair7get_ref17h5f8ad8abedc5db4cE@4HA":
.Lcfi51:
.seh_proc "?dtor$23@?0?_ZN4nccl4pair4Pair7get_ref17h5f8ad8abedc5db4cE@4HA"
.LBB5_23:
.Ltmp81:
	movq	%rdx, 16(%rsp)
	pushq	%rbp
.Lcfi52:
	.seh_pushreg 5
	subq	$64, %rsp
.Lcfi53:
	.seh_stackalloc 64
	leaq	128(%rdx), %rbp
.Ltmp82:
.Lcfi54:
	.seh_endprologue
	leaq	72(%rbp), %rcx
	.cv_loc	5 2 168 0
	callq	_ZN4core3ptr13drop_in_place17h49da1e077d465508E
	nop
	addq	$64, %rsp
	popq	%rbp
	retq
	.seh_handlerdata
	.section	.text,"xr",one_only,_ZN4nccl4pair4Pair7get_ref17h5f8ad8abedc5db4cE
.Lcfi55:
	.seh_endproc
	.def	 "?dtor$24@?0?_ZN4nccl4pair4Pair7get_ref17h5f8ad8abedc5db4cE@4HA";
	.scl	3;
	.type	32;
	.endef
	.p2align	4, 0x90
"?dtor$24@?0?_ZN4nccl4pair4Pair7get_ref17h5f8ad8abedc5db4cE@4HA":
.Lcfi56:
.seh_proc "?dtor$24@?0?_ZN4nccl4pair4Pair7get_ref17h5f8ad8abedc5db4cE@4HA"
.LBB5_24:
	movq	%rdx, 16(%rsp)
	pushq	%rbp
.Lcfi57:
	.seh_pushreg 5
	subq	$64, %rsp
.Lcfi58:
	.seh_stackalloc 64
	leaq	128(%rdx), %rbp
.Lcfi59:
	.seh_endprologue
	leaq	200(%rbp), %rcx
	callq	_ZN4core3ptr13drop_in_place17h7c1ed1e97a94da88E
	nop
	addq	$64, %rsp
	popq	%rbp
	retq
	.seh_handlerdata
	.section	.text,"xr",one_only,_ZN4nccl4pair4Pair7get_ref17h5f8ad8abedc5db4cE
.Lcfi60:
	.seh_endproc
	.def	 "?dtor$25@?0?_ZN4nccl4pair4Pair7get_ref17h5f8ad8abedc5db4cE@4HA";
	.scl	3;
	.type	32;
	.endef
	.p2align	4, 0x90
"?dtor$25@?0?_ZN4nccl4pair4Pair7get_ref17h5f8ad8abedc5db4cE@4HA":
.Lcfi61:
.seh_proc "?dtor$25@?0?_ZN4nccl4pair4Pair7get_ref17h5f8ad8abedc5db4cE@4HA"
.LBB5_25:
.Ltmp83:
	movq	%rdx, 16(%rsp)
	pushq	%rbp
.Lcfi62:
	.seh_pushreg 5
	subq	$64, %rsp
.Lcfi63:
	.seh_stackalloc 64
	leaq	128(%rdx), %rbp
.Ltmp84:
.Lcfi64:
	.seh_endprologue
	leaq	72(%rbp), %rcx
	callq	_ZN4core3ptr13drop_in_place17h49da1e077d465508E
	nop
	addq	$64, %rsp
	popq	%rbp
	retq
.Ltmp85:
.Lfunc_end5:
	.seh_handlerdata
	.section	.text,"xr",one_only,_ZN4nccl4pair4Pair7get_ref17h5f8ad8abedc5db4cE
.Lcfi65:
	.seh_endproc
	.section	.xdata,"dr",associative,_ZN4nccl4pair4Pair7get_ref17h5f8ad8abedc5db4cE
	.p2align	2
$cppxdata$_ZN4nccl4pair4Pair7get_ref17h5f8ad8abedc5db4cE:
	.long	429065506
	.long	4
	.long	($stateUnwindMap$_ZN4nccl4pair4Pair7get_ref17h5f8ad8abedc5db4cE)@IMGREL
	.long	0
	.long	0
	.long	7
	.long	($ip2state$_ZN4nccl4pair4Pair7get_ref17h5f8ad8abedc5db4cE)@IMGREL
	.long	472
	.long	0
	.long	1
$stateUnwindMap$_ZN4nccl4pair4Pair7get_ref17h5f8ad8abedc5db4cE:
	.long	-1
	.long	"?dtor$22@?0?_ZN4nccl4pair4Pair7get_ref17h5f8ad8abedc5db4cE@4HA"@IMGREL
	.long	0
	.long	"?dtor$24@?0?_ZN4nccl4pair4Pair7get_ref17h5f8ad8abedc5db4cE@4HA"@IMGREL
	.long	1
	.long	"?dtor$25@?0?_ZN4nccl4pair4Pair7get_ref17h5f8ad8abedc5db4cE@4HA"@IMGREL
	.long	0
	.long	"?dtor$23@?0?_ZN4nccl4pair4Pair7get_ref17h5f8ad8abedc5db4cE@4HA"@IMGREL
$ip2state$_ZN4nccl4pair4Pair7get_ref17h5f8ad8abedc5db4cE:
	.long	.Lfunc_begin5@IMGREL
	.long	-1
	.long	.Ltmp25@IMGREL+1
	.long	3
	.long	.Ltmp28@IMGREL+1
	.long	-1
	.long	.Ltmp29@IMGREL+1
	.long	3
	.long	.Ltmp39@IMGREL+1
	.long	2
	.long	.Ltmp45@IMGREL+1
	.long	1
	.long	.Ltmp46@IMGREL+1
	.long	-1
	.section	.text,"xr",one_only,_ZN4nccl4pair4Pair7get_ref17h5f8ad8abedc5db4cE

	.def	 _ZN4nccl4pair4Pair7keys_as17h76d1e8b0bef1344eE;
	.scl	3;
	.type	32;
	.endef
	.section	.text,"xr",one_only,_ZN4nccl4pair4Pair7keys_as17h76d1e8b0bef1344eE
	.p2align	4, 0x90
_ZN4nccl4pair4Pair7keys_as17h76d1e8b0bef1344eE:
.Lfunc_begin6:
	.cv_func_id 7
	.cv_loc	7 2 232 0
.Lcfi66:
.seh_proc _ZN4nccl4pair4Pair7keys_as17h76d1e8b0bef1344eE
	.seh_handler __CxxFrameHandler3, @unwind, @except
	pushq	%rbp
.Lcfi67:
	.seh_pushreg 5
	subq	$624, %rsp
.Lcfi68:
	.seh_stackalloc 624
	leaq	128(%rsp), %rbp
.Lcfi69:
	.seh_setframe 5, 128
.Lcfi70:
	.seh_endprologue
	movq	$-2, 488(%rbp)
	movq	%rcx, %rax
	movq	%rdx, -8(%rbp)
.Ltmp108:
	.cv_loc	7 2 233 0
	movb	$0, 438(%rbp)
	movb	$0, 439(%rbp)
	xorl	%r8d, %r8d
	movl	%r8d, %edx
	.cv_file	6 "\\<vec macros>"
	.cv_loc	7 6 3 0
	movl	$4, %r8d
	movl	%r8d, %r9d
	movq	%rcx, -16(%rbp)
	movq	%rdx, %rcx
	movq	%rdx, -24(%rbp)
	movq	%r9, %rdx
	movq	%rax, -32(%rbp)
	callq	_ZN5alloc4heap15exchange_malloc17hc861eca9d8f05e82E
	movq	%rbp, %rcx
	movq	%rax, %rdx
	movq	-24(%rbp), %r8
	callq	_ZN5alloc5slice29_$LT$impl$u20$$u5b$T$u5d$$GT$8into_vec17h8cfcb9579e6e89caE
.Ltmp109:
	.cv_loc	7 2 234 0
	movq	-8(%rbp), %rdx
.Ltmp86:
	leaq	56(%rbp), %rcx
	callq	_ZN4nccl4pair4Pair4keys17h986011e640a6d5b3E
.Ltmp87:
	jmp	.LBB6_1
.Ltmp110:
.LBB6_1:
.Ltmp88:
	leaq	24(%rbp), %rcx
	leaq	56(%rbp), %rdx
	callq	_ZN77_$LT$alloc..vec..Vec$LT$T$GT$$u20$as$u20$core..iter..traits..IntoIterator$GT$9into_iter17hce32ffae45ef9e37E
.Ltmp89:
	jmp	.LBB6_2
.Ltmp111:
.LBB6_2:
	movq	24(%rbp), %rax
	movq	%rax, 80(%rbp)
	movq	32(%rbp), %rax
	movq	%rax, 88(%rbp)
	movq	40(%rbp), %rax
	movq	%rax, 96(%rbp)
	movq	48(%rbp), %rax
	movq	%rax, 104(%rbp)
.Ltmp112:
.LBB6_3:
	.cv_loc	7 2 234 0
.Ltmp90:
	leaq	144(%rbp), %rcx
	leaq	80(%rbp), %rdx
	callq	_ZN80_$LT$alloc..vec..IntoIter$LT$T$GT$$u20$as$u20$core..iter..iterator..Iterator$GT$4next17h99853a5a8231200eE
.Ltmp91:
	jmp	.LBB6_4
.Ltmp113:
.LBB6_4:
	movb	144(%rbp), %al
	subb	$4, %al
	setne	%cl
	movzbl	%cl, %edx
	movl	%edx, %r8d
	movb	%al, -33(%rbp)
	movq	%r8, -48(%rbp)
	je	.LBB6_6
	jmp	.LBB6_31
.Ltmp114:
.LBB6_31:
	movq	-48(%rbp), %rax
	subq	$1, %rax
	movq	%rax, -56(%rbp)
	je	.LBB6_8
	jmp	.LBB6_7
.Ltmp115:
.LBB6_6:
	.cv_loc	7 2 239 0
.Ltmp104:
	leaq	144(%rbp), %rcx
	callq	_ZN4core3ptr13drop_in_place17h640f8fd808b94047E
.Ltmp105:
	jmp	.LBB6_9
.Ltmp116:
.LBB6_7:
	.cv_loc	7 2 241 0
	ud2
.Ltmp117:
.LBB6_8:
	movl	$1, %eax
	movl	%eax, %ecx
	xorl	%eax, %eax
	movl	%eax, %edx
.Ltmp118:
	.cv_loc	7 2 234 0
	movq	144(%rbp), %r8
	movq	%r8, 176(%rbp)
	movq	152(%rbp), %r8
	movq	%r8, 184(%rbp)
	movq	160(%rbp), %r8
	movq	%r8, 192(%rbp)
	movq	168(%rbp), %r8
	movq	%r8, 200(%rbp)
.Ltmp119:
	.cv_loc	7 2 234 0
	movq	176(%rbp), %r8
	movq	%r8, 208(%rbp)
	movq	184(%rbp), %r8
	movq	%r8, 216(%rbp)
	movq	192(%rbp), %r8
	movq	%r8, 224(%rbp)
	movq	200(%rbp), %r8
	movq	%r8, 232(%rbp)
	movb	$1, 438(%rbp)
	movq	208(%rbp), %r8
	movq	%r8, 112(%rbp)
	movq	216(%rbp), %r8
	movq	%r8, 120(%rbp)
	movq	224(%rbp), %r8
	movq	%r8, 128(%rbp)
	movq	232(%rbp), %r8
	movq	%r8, 136(%rbp)
.Ltmp120:
	.cv_loc	7 2 239 0
	cmpb	$4, 144(%rbp)
	cmoveq	%rdx, %rcx
	cmpq	$1, %rcx
	je	.LBB6_20
	jmp	.LBB6_21
.Ltmp121:
.LBB6_9:
	.cv_loc	7 2 239 0
	movb	$0, 438(%rbp)
.Ltmp122:
	.cv_loc	7 2 239 0
.Ltmp106:
	leaq	80(%rbp), %rcx
	callq	_ZN4core3ptr13drop_in_place17h13462837c551f340E
.Ltmp107:
	jmp	.LBB6_18
.Ltmp123:
.LBB6_10:
	.cv_loc	7 2 235 0
	movq	-64(%rbp), %rax
	movq	%rax, 440(%rbp)
	movq	440(%rbp), %rcx
	movq	%rcx, 312(%rbp)
	movb	$1, 439(%rbp)
	.cv_loc	7 2 236 0
	movl	312(%rbp), %edx
	movl	%edx, %ecx
	testq	%rcx, %rcx
	movq	%rcx, -72(%rbp)
	je	.LBB6_12
	jmp	.LBB6_32
.Ltmp124:
.LBB6_32:
	movq	-72(%rbp), %rax
	subq	$1, %rax
	movq	%rax, -80(%rbp)
	jne	.LBB6_7
	jmp	.LBB6_11
.Ltmp125:
.LBB6_11:
	.cv_loc	7 2 237 0
	movb	$2, 407(%rbp)
	movzbl	407(%rbp), %edx
.Ltmp96:
	movq	%rsp, %rax
	movq	$0, 32(%rax)
	leaq	str.5(%rip), %r8
	movl	$22, %ecx
	movl	%ecx, %r9d
	leaq	360(%rbp), %rcx
	callq	_ZN4nccl5error9NcclError3new17h7b411b200ee4b3c5E
.Ltmp97:
	jmp	.LBB6_14
.Ltmp126:
.LBB6_12:
	.cv_loc	7 2 236 0
	movb	$0, 439(%rbp)
	movl	316(%rbp), %eax
	movl	%eax, 356(%rbp)
.Ltmp127:
	.cv_loc	7 2 236 0
	movl	356(%rbp), %edx
.Ltmp102:
	movq	%rbp, %rcx
	callq	_ZN33_$LT$alloc..vec..Vec$LT$T$GT$$GT$4push17h9d7895f5c09d5bffE
.Ltmp103:
	jmp	.LBB6_13
.Ltmp128:
.LBB6_13:
	.cv_loc	7 2 239 0
	movl	312(%rbp), %eax
	movl	%eax, %ecx
	cmpq	$0, %rcx
	je	.LBB6_25
	jmp	.LBB6_26
.Ltmp129:
.LBB6_14:
	.cv_inline_site_id 8 within 7 inlined_at 2 237 0
	.cv_loc	8 5 242 0
.Ltmp98:
	movl	$40, %eax
	movl	%eax, %ecx
	movl	$8, %eax
	movl	%eax, %edx
	callq	_ZN5alloc4heap15exchange_malloc17hc861eca9d8f05e82E
.Ltmp99:
	movq	%rax, -88(%rbp)
	jmp	.LBB6_15
.Ltmp130:
.LBB6_15:
	movq	392(%rbp), %rax
	movq	%rax, 480(%rbp)
	movups	360(%rbp), %xmm0
	movups	376(%rbp), %xmm1
	movaps	%xmm1, 464(%rbp)
	movaps	%xmm0, 448(%rbp)
	movq	480(%rbp), %rax
	movq	-88(%rbp), %rcx
	movq	%rax, 32(%rcx)
	movaps	448(%rbp), %xmm0
	movaps	464(%rbp), %xmm1
	movups	%xmm1, 16(%rcx)
	movups	%xmm0, (%rcx)
.Ltmp131:
	.cv_loc	7 2 237 0
	movq	-16(%rbp), %rax
	movq	$1, (%rax)
	movq	%rcx, 8(%rax)
	leaq	vtable.4(%rip), %rdx
	movq	%rdx, 16(%rax)
	.cv_loc	7 2 239 0
	movb	$0, 439(%rbp)
.Ltmp132:
	.cv_loc	7 2 239 0
	movb	$0, 438(%rbp)
.Ltmp133:
	.cv_loc	7 2 239 0
.Ltmp100:
	leaq	80(%rbp), %rcx
	callq	_ZN4core3ptr13drop_in_place17h13462837c551f340E
.Ltmp101:
	jmp	.LBB6_17
.Ltmp134:
.LBB6_16:
	.cv_loc	7 2 241 0
	movq	-32(%rbp), %rax
	addq	$624, %rsp
	popq	%rbp
	retq
.LBB6_17:
.Ltmp135:
	movq	%rbp, %rcx
	callq	_ZN4core3ptr13drop_in_place17he87ea5237a1bab48E
	.cv_loc	7 2 237 0
	jmp	.LBB6_16
.Ltmp136:
.LBB6_18:
	.cv_loc	7 2 240 0
	movq	(%rbp), %rax
	movq	%rax, 408(%rbp)
	movq	8(%rbp), %rax
	movq	%rax, 416(%rbp)
	movq	16(%rbp), %rax
	movq	%rax, 424(%rbp)
	movq	-16(%rbp), %rax
	movq	$0, (%rax)
	movq	408(%rbp), %rcx
	movq	%rcx, 8(%rax)
	movq	416(%rbp), %rcx
	movq	%rcx, 16(%rax)
	movq	424(%rbp), %rcx
	movq	%rcx, 24(%rax)
.Ltmp137:
	.cv_loc	7 2 241 0
	jmp	.LBB6_16
.Ltmp138:
.LBB6_20:
	.cv_loc	7 2 234 0
	movb	$0, 438(%rbp)
	movups	112(%rbp), %xmm0
	movups	128(%rbp), %xmm1
	movaps	%xmm1, 288(%rbp)
	movaps	%xmm0, 272(%rbp)
	movaps	272(%rbp), %xmm0
	movaps	288(%rbp), %xmm1
	movaps	%xmm1, 256(%rbp)
	movaps	%xmm0, 240(%rbp)
.Ltmp139:
	.cv_loc	7 2 235 0
	movaps	240(%rbp), %xmm0
	movaps	256(%rbp), %xmm1
	movaps	%xmm1, 336(%rbp)
	movaps	%xmm0, 320(%rbp)
.Ltmp94:
	leaq	320(%rbp), %rcx
	callq	_ZN63_$LT$nccl..value..Value$u20$as$u20$nccl..TryInto$LT$u32$GT$$GT$8try_into17h2ffdbf029a17a63bE
.Ltmp95:
	movq	%rax, -64(%rbp)
	jmp	.LBB6_10
.Ltmp140:
.LBB6_21:
	.cv_loc	7 2 239 0
.Ltmp92:
	leaq	144(%rbp), %rcx
	callq	_ZN4core3ptr13drop_in_place17h640f8fd808b94047E
.Ltmp93:
	jmp	.LBB6_20
.Ltmp141:
.LBB6_25:
	.cv_loc	7 2 239 0
	movb	$0, 439(%rbp)
.Ltmp142:
	.cv_loc	7 2 239 0
	movb	$0, 438(%rbp)
	.cv_loc	7 2 234 0
	jmp	.LBB6_3
.Ltmp143:
.LBB6_26:
	.cv_loc	7 2 239 0
	jmp	.LBB6_25
.Ltmp144:
	.seh_handlerdata
	.long	($cppxdata$_ZN4nccl4pair4Pair7keys_as17h76d1e8b0bef1344eE)@IMGREL
	.section	.text,"xr",one_only,_ZN4nccl4pair4Pair7keys_as17h76d1e8b0bef1344eE
.Lcfi71:
	.seh_endproc
	.def	 "?dtor$27@?0?_ZN4nccl4pair4Pair7keys_as17h76d1e8b0bef1344eE@4HA";
	.scl	3;
	.type	32;
	.endef
	.p2align	4, 0x90
"?dtor$27@?0?_ZN4nccl4pair4Pair7keys_as17h76d1e8b0bef1344eE@4HA":
.Lcfi72:
.seh_proc "?dtor$27@?0?_ZN4nccl4pair4Pair7keys_as17h76d1e8b0bef1344eE@4HA"
.LBB6_27:
	movq	%rdx, 16(%rsp)
	pushq	%rbp
.Lcfi73:
	.seh_pushreg 5
	subq	$48, %rsp
.Lcfi74:
	.seh_stackalloc 48
	leaq	128(%rdx), %rbp
.Lcfi75:
	.seh_endprologue
	movq	%rbp, %rcx
	.cv_loc	7 2 241 0
	callq	_ZN4core3ptr13drop_in_place17he87ea5237a1bab48E
	.cv_loc	7 2 232 0
	nop
	addq	$48, %rsp
	popq	%rbp
	retq
.LBB6_22:
.Ltmp145:
	.cv_loc	7 2 239 0
	testb	$1, 439(%rbp)
	je	.LBB6_30
	movb	$0, 439(%rbp)
	addq	$48, %rsp
	popq	%rbp
	retq
.LBB6_24:
	addq	$48, %rsp
	popq	%rbp
	retq
	.seh_handlerdata
	.section	.text,"xr",one_only,_ZN4nccl4pair4Pair7keys_as17h76d1e8b0bef1344eE
.Lcfi76:
	.seh_endproc
	.def	 "?dtor$28@?0?_ZN4nccl4pair4Pair7keys_as17h76d1e8b0bef1344eE@4HA";
	.scl	3;
	.type	32;
	.endef
	.p2align	4, 0x90
"?dtor$28@?0?_ZN4nccl4pair4Pair7keys_as17h76d1e8b0bef1344eE@4HA":
.Lcfi77:
.seh_proc "?dtor$28@?0?_ZN4nccl4pair4Pair7keys_as17h76d1e8b0bef1344eE@4HA"
.LBB6_28:
	movq	%rdx, 16(%rsp)
	pushq	%rbp
.Lcfi78:
	.seh_pushreg 5
	subq	$48, %rsp
.Lcfi79:
	.seh_stackalloc 48
	leaq	128(%rdx), %rbp
.Lcfi80:
	.seh_endprologue
	movl	312(%rbp), %eax
	movl	%eax, %ecx
	cmpq	$0, %rcx
	je	.LBB6_22
	jmp	.LBB6_24
.Ltmp146:
.LBB6_30:
	addq	$48, %rsp
	popq	%rbp
	retq
.LBB6_5:
	leaq	80(%rbp), %rcx
	.cv_loc	7 2 239 0
	callq	_ZN4core3ptr13drop_in_place17h13462837c551f340E
	nop
	addq	$48, %rsp
	popq	%rbp
	retq
.LBB6_19:
	leaq	112(%rbp), %rcx
.Ltmp147:
	.cv_loc	7 2 239 0
	movb	$0, 438(%rbp)
	callq	_ZN4core3ptr13drop_in_place17h49da1e077d465508E
	jmp	.LBB6_5
	.seh_handlerdata
	.section	.text,"xr",one_only,_ZN4nccl4pair4Pair7keys_as17h76d1e8b0bef1344eE
.Lcfi81:
	.seh_endproc
	.def	 "?dtor$29@?0?_ZN4nccl4pair4Pair7keys_as17h76d1e8b0bef1344eE@4HA";
	.scl	3;
	.type	32;
	.endef
	.p2align	4, 0x90
"?dtor$29@?0?_ZN4nccl4pair4Pair7keys_as17h76d1e8b0bef1344eE@4HA":
.Lcfi82:
.seh_proc "?dtor$29@?0?_ZN4nccl4pair4Pair7keys_as17h76d1e8b0bef1344eE@4HA"
.LBB6_29:
	movq	%rdx, 16(%rsp)
	pushq	%rbp
.Lcfi83:
	.seh_pushreg 5
	subq	$48, %rsp
.Lcfi84:
	.seh_stackalloc 48
	leaq	128(%rdx), %rbp
.Lcfi85:
	.seh_endprologue
	testb	$1, 438(%rbp)
	jne	.LBB6_19
	jmp	.LBB6_5
.Ltmp148:
.Lfunc_end6:
	.seh_handlerdata
	.section	.text,"xr",one_only,_ZN4nccl4pair4Pair7keys_as17h76d1e8b0bef1344eE
.Lcfi86:
	.seh_endproc
	.section	.xdata,"dr",associative,_ZN4nccl4pair4Pair7keys_as17h76d1e8b0bef1344eE
	.p2align	2
$cppxdata$_ZN4nccl4pair4Pair7keys_as17h76d1e8b0bef1344eE:
	.long	429065506
	.long	3
	.long	($stateUnwindMap$_ZN4nccl4pair4Pair7keys_as17h76d1e8b0bef1344eE)@IMGREL
	.long	0
	.long	0
	.long	9
	.long	($ip2state$_ZN4nccl4pair4Pair7keys_as17h76d1e8b0bef1344eE)@IMGREL
	.long	616
	.long	0
	.long	1
$stateUnwindMap$_ZN4nccl4pair4Pair7keys_as17h76d1e8b0bef1344eE:
	.long	-1
	.long	"?dtor$27@?0?_ZN4nccl4pair4Pair7keys_as17h76d1e8b0bef1344eE@4HA"@IMGREL
	.long	0
	.long	"?dtor$29@?0?_ZN4nccl4pair4Pair7keys_as17h76d1e8b0bef1344eE@4HA"@IMGREL
	.long	1
	.long	"?dtor$28@?0?_ZN4nccl4pair4Pair7keys_as17h76d1e8b0bef1344eE@4HA"@IMGREL
$ip2state$_ZN4nccl4pair4Pair7keys_as17h76d1e8b0bef1344eE:
	.long	.Lfunc_begin6@IMGREL
	.long	-1
	.long	.Ltmp86@IMGREL+1
	.long	0
	.long	.Ltmp90@IMGREL+1
	.long	1
	.long	.Ltmp106@IMGREL+1
	.long	0
	.long	.Ltmp96@IMGREL+1
	.long	2
	.long	.Ltmp100@IMGREL+1
	.long	0
	.long	.Ltmp101@IMGREL+1
	.long	-1
	.long	.Ltmp94@IMGREL+1
	.long	1
	.long	.Ltmp93@IMGREL+1
	.long	-1
	.section	.text,"xr",one_only,_ZN4nccl4pair4Pair7keys_as17h76d1e8b0bef1344eE

	.def	 _ZN4nccl4pair4Pair8value_as17h484e12e0fd3f4adcE;
	.scl	3;
	.type	32;
	.endef
	.section	.text,"xr",one_only,_ZN4nccl4pair4Pair8value_as17h484e12e0fd3f4adcE
	.p2align	4, 0x90
_ZN4nccl4pair4Pair8value_as17h484e12e0fd3f4adcE:
.Lfunc_begin7:
	.cv_func_id 9
	.cv_loc	9 2 204 0
.Lcfi87:
.seh_proc _ZN4nccl4pair4Pair8value_as17h484e12e0fd3f4adcE
	.seh_handler __CxxFrameHandler3, @unwind, @except
	pushq	%rbp
.Lcfi88:
	.seh_pushreg 5
	pushq	%rsi
.Lcfi89:
	.seh_pushreg 6
	pushq	%rdi
.Lcfi90:
	.seh_pushreg 7
	subq	$528, %rsp
.Lcfi91:
	.seh_stackalloc 528
	leaq	128(%rsp), %rbp
.Lcfi92:
	.seh_setframe 5, 128
.Lcfi93:
	.seh_endprologue
	movq	$-2, 392(%rbp)
	movq	%rcx, %rax
	movq	%rdx, 88(%rbp)
.Ltmp159:
	.cv_loc	9 2 205 0
	movb	$0, 311(%rbp)
	movq	88(%rbp), %rdx
	movb	$1, 311(%rbp)
	leaq	96(%rbp), %r8
	movq	%rcx, 80(%rbp)
	movq	%r8, %rcx
	movq	%rax, 72(%rbp)
	callq	_ZN4nccl4pair4Pair9value_raw17hd8c8defb6cfd1341E
	.cv_loc	9 2 206 0
	movb	96(%rbp), %r9b
	subb	$4, %r9b
	setne	%r10b
	movzbl	%r10b, %r11d
	movl	%r11d, %eax
	movb	%r9b, 71(%rbp)
	movq	%rax, 56(%rbp)
	je	.LBB7_2
	jmp	.LBB7_27
.Ltmp160:
.LBB7_27:
	movq	56(%rbp), %rax
	subq	$1, %rax
	movq	%rax, 48(%rbp)
	je	.LBB7_4
	jmp	.LBB7_3
.Ltmp161:
.LBB7_2:
	.cv_loc	9 2 210 0
	movb	$5, 310(%rbp)
	movzbl	310(%rbp), %edx
.Ltmp155:
	movq	%rsp, %rax
	movq	$0, 32(%rax)
	leaq	str.6(%rip), %r8
	movl	$65, %ecx
	movl	%ecx, %r9d
	leaq	264(%rbp), %rcx
	callq	_ZN4nccl5error9NcclError3new17h7b411b200ee4b3c5E
.Ltmp156:
	jmp	.LBB7_12
.Ltmp162:
.LBB7_3:
	.cv_loc	9 2 212 0
	ud2
.Ltmp163:
.LBB7_4:
	.cv_loc	9 2 206 0
	movb	$0, 311(%rbp)
	movups	96(%rbp), %xmm0
	movups	112(%rbp), %xmm1
	movaps	%xmm1, 144(%rbp)
	movaps	%xmm0, 128(%rbp)
.Ltmp164:
	.cv_loc	9 2 206 0
	movaps	128(%rbp), %xmm0
	movaps	144(%rbp), %xmm1
	movaps	%xmm1, 192(%rbp)
	movaps	%xmm0, 176(%rbp)
.Ltmp149:
	leaq	176(%rbp), %rcx
	callq	_ZN64_$LT$nccl..value..Value$u20$as$u20$nccl..TryInto$LT$bool$GT$$GT$8try_into17he74fb58eba16034cE
.Ltmp150:
	movb	%al, 47(%rbp)
	jmp	.LBB7_6
.Ltmp165:
.LBB7_5:
	movl	$1, %eax
	movl	%eax, %ecx
	xorl	%eax, %eax
	movl	%eax, %edx
	.cv_loc	9 2 212 0
	cmpb	$4, 96(%rbp)
	cmoveq	%rdx, %rcx
	cmpq	$1, %rcx
	je	.LBB7_22
	jmp	.LBB7_24
.Ltmp166:
.LBB7_6:
	.cv_loc	9 2 206 0
	movb	47(%rbp), %al
	movb	%al, 175(%rbp)
	.cv_loc	9 2 207 0
	movb	175(%rbp), %cl
	subb	$2, %cl
	sete	%dl
	movzbl	%dl, %r8d
	movl	%r8d, %r9d
	movb	%cl, 46(%rbp)
	movq	%r9, 32(%rbp)
	jne	.LBB7_8
	jmp	.LBB7_28
.Ltmp167:
.LBB7_28:
	movq	32(%rbp), %rax
	subq	$1, %rax
	movq	%rax, 24(%rbp)
	jne	.LBB7_3
	jmp	.LBB7_7
.Ltmp168:
.LBB7_7:
	.cv_loc	9 2 208 0
	movb	$2, 263(%rbp)
	movzbl	263(%rbp), %edx
.Ltmp151:
	movq	%rsp, %rax
	movq	$0, 32(%rax)
	leaq	str.5(%rip), %r8
	movl	$22, %ecx
	movl	%ecx, %r9d
	leaq	216(%rbp), %rcx
	callq	_ZN4nccl5error9NcclError3new17h7b411b200ee4b3c5E
.Ltmp152:
	jmp	.LBB7_9
.Ltmp169:
.LBB7_8:
	xorl	%eax, %eax
	movl	%eax, %ecx
	movl	$1, %eax
	movl	%eax, %edx
	.cv_loc	9 2 207 0
	movb	175(%rbp), %r8b
	andb	$1, %r8b
	movb	%r8b, 215(%rbp)
.Ltmp170:
	.cv_loc	9 2 207 0
	movb	215(%rbp), %r8b
	movq	80(%rbp), %r9
	movb	$0, (%r9)
	andb	$1, %r8b
	movb	%r8b, 1(%r9)
.Ltmp171:
	.cv_loc	9 2 209 0
	cmpb	$2, 175(%rbp)
	cmoveq	%rdx, %rcx
	cmpq	$0, %rcx
	je	.LBB7_19
	jmp	.LBB7_20
.Ltmp172:
.LBB7_9:
	.cv_inline_site_id 10 within 9 inlined_at 2 208 0
	.cv_loc	10 5 242 0
.Ltmp153:
	movl	$40, %eax
	movl	%eax, %ecx
	movl	$8, %eax
	movl	%eax, %edx
	callq	_ZN5alloc4heap15exchange_malloc17hc861eca9d8f05e82E
.Ltmp154:
	movq	%rax, 16(%rbp)
	jmp	.LBB7_10
.Ltmp173:
.LBB7_10:
	movl	$1, %eax
	movl	%eax, %ecx
	xorl	%eax, %eax
	movl	%eax, %edx
	leaq	vtable.4(%rip), %r8
	movl	$40, %eax
	movl	%eax, %r9d
	leaq	312(%rbp), %r10
	leaq	216(%rbp), %r11
	movq	16(%rbp), %rsi
	movq	%r10, %rdi
	movq	%rcx, 8(%rbp)
	movq	%rdi, %rcx
	movq	%rdx, (%rbp)
	movq	%r11, %rdx
	movq	%r8, -8(%rbp)
	movq	%r9, %r8
	movq	%rsi, -16(%rbp)
	movq	%r10, -24(%rbp)
	movq	%r9, -32(%rbp)
	callq	memcpy
	movq	-24(%rbp), %rcx
	movq	16(%rbp), %rdx
	movq	%rcx, -40(%rbp)
	movq	%rdx, %rcx
	movq	-40(%rbp), %rdx
	movq	-32(%rbp), %r8
	callq	memcpy
.Ltmp174:
	.cv_loc	9 2 208 0
	movq	-16(%rbp), %rcx
	movq	80(%rbp), %rdx
	movb	$1, (%rdx)
	movq	%rcx, 8(%rdx)
	movq	-8(%rbp), %rcx
	movq	%rcx, 16(%rdx)
.Ltmp175:
	.cv_loc	9 2 212 0
	cmpb	$4, 96(%rbp)
	movq	8(%rbp), %r8
	movq	(%rbp), %r9
	cmoveq	%r9, %r8
	cmpq	$1, %r8
	je	.LBB7_17
	jmp	.LBB7_18
.Ltmp176:
.LBB7_11:
	movq	72(%rbp), %rax
	addq	$528, %rsp
	popq	%rdi
	popq	%rsi
	popq	%rbp
.Ltmp177:
	retq
.LBB7_12:
.Ltmp178:
	.cv_inline_site_id 11 within 9 inlined_at 2 210 0
	.cv_loc	11 5 242 0
.Ltmp157:
	movl	$40, %eax
	movl	%eax, %ecx
	movl	$8, %eax
	movl	%eax, %edx
	callq	_ZN5alloc4heap15exchange_malloc17hc861eca9d8f05e82E
.Ltmp158:
	movq	%rax, -48(%rbp)
	jmp	.LBB7_13
.Ltmp179:
.LBB7_13:
	leaq	vtable.4(%rip), %rax
	movl	$40, %ecx
	movl	%ecx, %edx
	leaq	352(%rbp), %r8
	leaq	264(%rbp), %r9
	movq	-48(%rbp), %r10
	movq	%r8, %r11
	movq	%r11, %rcx
	movq	%rdx, -56(%rbp)
	movq	%r9, %rdx
	movq	-56(%rbp), %r9
	movq	%r8, -64(%rbp)
	movq	%r9, %r8
	movq	%rax, -72(%rbp)
	movq	%r10, -80(%rbp)
	callq	memcpy
	movq	-64(%rbp), %rax
	movq	-48(%rbp), %rcx
	movq	%rax, %rdx
	movq	-56(%rbp), %r8
	callq	memcpy
.Ltmp180:
	.cv_loc	9 2 210 0
	movq	-80(%rbp), %rax
	movq	80(%rbp), %rcx
	movb	$1, (%rcx)
	movq	%rax, 8(%rcx)
	movq	-72(%rbp), %rax
	movq	%rax, 16(%rcx)
	.cv_loc	9 2 205 0
	jmp	.LBB7_5
.Ltmp181:
.LBB7_17:
	.cv_loc	9 2 212 0
	movb	$0, 311(%rbp)
	.cv_loc	9 2 208 0
	jmp	.LBB7_11
.Ltmp182:
.LBB7_18:
	leaq	96(%rbp), %rcx
	.cv_loc	9 2 212 0
	callq	_ZN4core3ptr13drop_in_place17h640f8fd808b94047E
	jmp	.LBB7_17
.Ltmp183:
.LBB7_19:
	.cv_loc	9 2 205 0
	jmp	.LBB7_5
.Ltmp184:
.LBB7_20:
	.cv_loc	9 2 209 0
	jmp	.LBB7_19
.Ltmp185:
.LBB7_21:
	.cv_loc	9 2 212 0
	movb	$0, 311(%rbp)
	jmp	.LBB7_11
.Ltmp186:
.LBB7_22:
	testb	$1, 311(%rbp)
	je	.LBB7_21
.Ltmp187:
	leaq	96(%rbp), %rax
	movb	$0, 311(%rbp)
	movq	%rax, %rcx
	callq	_ZN4core3ptr13drop_in_place17h49da1e077d465508E
	jmp	.LBB7_21
.Ltmp188:
.LBB7_24:
	leaq	96(%rbp), %rcx
	callq	_ZN4core3ptr13drop_in_place17h640f8fd808b94047E
	jmp	.LBB7_21
.Ltmp189:
	.seh_handlerdata
	.long	($cppxdata$_ZN4nccl4pair4Pair8value_as17h484e12e0fd3f4adcE)@IMGREL
	.section	.text,"xr",one_only,_ZN4nccl4pair4Pair8value_as17h484e12e0fd3f4adcE
.Lcfi94:
	.seh_endproc
	.def	 "?dtor$25@?0?_ZN4nccl4pair4Pair8value_as17h484e12e0fd3f4adcE@4HA";
	.scl	3;
	.type	32;
	.endef
	.p2align	4, 0x90
"?dtor$25@?0?_ZN4nccl4pair4Pair8value_as17h484e12e0fd3f4adcE@4HA":
.Lcfi95:
.seh_proc "?dtor$25@?0?_ZN4nccl4pair4Pair8value_as17h484e12e0fd3f4adcE@4HA"
.LBB7_25:
	movq	%rdx, 16(%rsp)
	pushq	%rbp
.Lcfi96:
	.seh_pushreg 5
.Ltmp190:
	pushq	%rsi
.Lcfi97:
	.seh_pushreg 6
	pushq	%rdi
.Lcfi98:
	.seh_pushreg 7
	subq	$48, %rsp
.Lcfi99:
	.seh_stackalloc 48
	leaq	128(%rdx), %rbp
.Ltmp191:
.Lcfi100:
	.seh_endprologue
	.cv_loc	9 2 209 0
	addq	$48, %rsp
	popq	%rdi
	popq	%rsi
	popq	%rbp
	retq
.Ltmp192:
.LBB7_1:
	.cv_loc	9 2 204 0
	addq	$48, %rsp
	popq	%rdi
	popq	%rsi
	popq	%rbp
	retq
.LBB7_14:
	.cv_loc	9 2 212 0
	testb	$1, 311(%rbp)
	je	.LBB7_1
	leaq	96(%rbp), %rax
	movb	$0, 311(%rbp)
	movq	%rax, %rcx
	callq	_ZN4core3ptr13drop_in_place17h49da1e077d465508E
	jmp	.LBB7_1
.LBB7_16:
	leaq	96(%rbp), %rcx
	callq	_ZN4core3ptr13drop_in_place17h640f8fd808b94047E
	jmp	.LBB7_1
	.seh_handlerdata
	.section	.text,"xr",one_only,_ZN4nccl4pair4Pair8value_as17h484e12e0fd3f4adcE
.Lcfi101:
	.seh_endproc
	.def	 "?dtor$26@?0?_ZN4nccl4pair4Pair8value_as17h484e12e0fd3f4adcE@4HA";
	.scl	3;
	.type	32;
	.endef
	.p2align	4, 0x90
"?dtor$26@?0?_ZN4nccl4pair4Pair8value_as17h484e12e0fd3f4adcE@4HA":
.Lcfi102:
.seh_proc "?dtor$26@?0?_ZN4nccl4pair4Pair8value_as17h484e12e0fd3f4adcE@4HA"
.LBB7_26:
	movq	%rdx, 16(%rsp)
	pushq	%rbp
.Lcfi103:
	.seh_pushreg 5
	pushq	%rsi
.Lcfi104:
	.seh_pushreg 6
	pushq	%rdi
.Lcfi105:
	.seh_pushreg 7
	subq	$48, %rsp
.Lcfi106:
	.seh_stackalloc 48
	leaq	128(%rdx), %rbp
.Lcfi107:
	.seh_endprologue
	movl	$1, %eax
	movl	%eax, %ecx
	xorl	%eax, %eax
	movl	%eax, %edx
	cmpb	$4, 96(%rbp)
	cmoveq	%rdx, %rcx
	cmpq	$1, %rcx
	je	.LBB7_14
	jmp	.LBB7_16
.Ltmp193:
.Lfunc_end7:
	.seh_handlerdata
	.section	.text,"xr",one_only,_ZN4nccl4pair4Pair8value_as17h484e12e0fd3f4adcE
.Lcfi108:
	.seh_endproc
	.section	.xdata,"dr",associative,_ZN4nccl4pair4Pair8value_as17h484e12e0fd3f4adcE
	.p2align	2
$cppxdata$_ZN4nccl4pair4Pair8value_as17h484e12e0fd3f4adcE:
	.long	429065506
	.long	2
	.long	($stateUnwindMap$_ZN4nccl4pair4Pair8value_as17h484e12e0fd3f4adcE)@IMGREL
	.long	0
	.long	0
	.long	6
	.long	($ip2state$_ZN4nccl4pair4Pair8value_as17h484e12e0fd3f4adcE)@IMGREL
	.long	520
	.long	0
	.long	1
$stateUnwindMap$_ZN4nccl4pair4Pair8value_as17h484e12e0fd3f4adcE:
	.long	-1
	.long	"?dtor$26@?0?_ZN4nccl4pair4Pair8value_as17h484e12e0fd3f4adcE@4HA"@IMGREL
	.long	0
	.long	"?dtor$25@?0?_ZN4nccl4pair4Pair8value_as17h484e12e0fd3f4adcE@4HA"@IMGREL
$ip2state$_ZN4nccl4pair4Pair8value_as17h484e12e0fd3f4adcE:
	.long	.Lfunc_begin7@IMGREL
	.long	-1
	.long	.Ltmp155@IMGREL+1
	.long	0
	.long	.Ltmp151@IMGREL+1
	.long	1
	.long	.Ltmp154@IMGREL+1
	.long	-1
	.long	.Ltmp157@IMGREL+1
	.long	0
	.long	.Ltmp158@IMGREL+1
	.long	-1
	.section	.text,"xr",one_only,_ZN4nccl4pair4Pair8value_as17h484e12e0fd3f4adcE

	.def	 _ZN53_$LT$$u5b$T$u5d$$u20$as$u20$core..slice..SliceExt$GT$3len17h5721d17604d5e235E;
	.scl	3;
	.type	32;
	.endef
	.section	.text,"xr",one_only,_ZN53_$LT$$u5b$T$u5d$$u20$as$u20$core..slice..SliceExt$GT$3len17h5721d17604d5e235E
	.p2align	4, 0x90
_ZN53_$LT$$u5b$T$u5d$$u20$as$u20$core..slice..SliceExt$GT$3len17h5721d17604d5e235E:
.Lfunc_begin8:
	.cv_func_id 12
	.cv_file	7 "C:\\projects\\rust\\src\\libcore\\slice\\mod.rs"
	.cv_loc	12 7 438 0
.Lcfi109:
.seh_proc _ZN53_$LT$$u5b$T$u5d$$u20$as$u20$core..slice..SliceExt$GT$3len17h5721d17604d5e235E
	pushq	%rbp
.Lcfi110:
	.seh_pushreg 5
	subq	$40, %rsp
.Lcfi111:
	.seh_stackalloc 40
	leaq	32(%rsp), %rbp
.Lcfi112:
	.seh_setframe 5, 32
.Lcfi113:
	.seh_endprologue
	movq	%rcx, -24(%rbp)
	movq	%rdx, -16(%rbp)
.Ltmp194:
	.cv_loc	12 7 440 0
	movq	-24(%rbp), %rcx
	movq	-16(%rbp), %rdx
	movq	%rcx, -8(%rbp)
	movq	%rdx, (%rbp)
	movq	(%rbp), %rax
	movq	%rax, -32(%rbp)
.Ltmp195:
	.cv_loc	12 7 442 0
	movq	-32(%rbp), %rax
	addq	$40, %rsp
	popq	%rbp
	retq
.Ltmp196:
.Lfunc_end8:
	.seh_handlerdata
	.section	.text,"xr",one_only,_ZN53_$LT$$u5b$T$u5d$$u20$as$u20$core..slice..SliceExt$GT$3len17h5721d17604d5e235E
.Lcfi114:
	.seh_endproc

	.def	 _ZN53_$LT$$u5b$T$u5d$$u20$as$u20$core..slice..SliceExt$GT$4iter17h10dc626d75493a31E;
	.scl	3;
	.type	32;
	.endef
	.section	.text,"xr",one_only,_ZN53_$LT$$u5b$T$u5d$$u20$as$u20$core..slice..SliceExt$GT$4iter17h10dc626d75493a31E
	.p2align	4, 0x90
_ZN53_$LT$$u5b$T$u5d$$u20$as$u20$core..slice..SliceExt$GT$4iter17h10dc626d75493a31E:
.Lfunc_begin9:
	.cv_func_id 13
	.cv_loc	13 7 293 0
.Lcfi115:
.seh_proc _ZN53_$LT$$u5b$T$u5d$$u20$as$u20$core..slice..SliceExt$GT$4iter17h10dc626d75493a31E
	pushq	%rbp
.Lcfi116:
	.seh_pushreg 5
	subq	$176, %rsp
.Lcfi117:
	.seh_stackalloc 176
	leaq	128(%rsp), %rbp
.Lcfi118:
	.seh_setframe 5, 128
.Lcfi119:
	.seh_endprologue
	movq	%rcx, -16(%rbp)
	movq	%rdx, -8(%rbp)
.Ltmp197:
	.cv_loc	13 7 295 0
	callq	_ZN4core3mem7size_of17h164ff08c8f7ba06dE
	movq	%rax, -24(%rbp)
	movq	-24(%rbp), %rax
	cmpq	$0, %rax
	jne	.LBB9_3
	movl	$1, %eax
	movl	%eax, %ecx
	.cv_loc	13 7 296 0
	movq	%rcx, 16(%rbp)
	.cv_loc	13 7 295 0
	jmp	.LBB9_7
.LBB9_3:
	.cv_loc	13 7 298 0
	movq	-16(%rbp), %rcx
	movq	-8(%rbp), %rdx
	callq	_ZN53_$LT$$u5b$T$u5d$$u20$as$u20$core..slice..SliceExt$GT$6as_ptr17heb4d1937600aacd8E
	movq	%rax, 24(%rbp)
.Ltmp198:
	.cv_loc	13 7 299 0
	movq	24(%rbp), %rcx
	callq	_ZN4core3ptr33_$LT$impl$u20$$BP$const$u20$T$GT$7is_null17hca3330dd9db05e3eE
	movb	%al, -25(%rbp)
	.cv_loc	13 7 300 0
	movq	24(%rbp), %rax
	movq	%rax, 16(%rbp)
.Ltmp199:
.LBB9_7:
	.cv_loc	13 7 304 0
	movq	16(%rbp), %rax
	.cv_loc	13 7 305 0
	movq	16(%rbp), %rcx
	movq	%rcx, 40(%rbp)
.Ltmp200:
	.cv_loc	13 7 247 0
	movq	40(%rbp), %rcx
	movq	%rax, -40(%rbp)
	callq	_ZN4core5slice13size_from_ptr17h42569c3209718e30E
	movq	%rax, -48(%rbp)
	movq	-48(%rbp), %rax
	cmpq	$0, %rax
	jne	.LBB9_10
	.cv_loc	13 7 248 0
	movq	40(%rbp), %rax
	.cv_loc	13 7 305 0
	movq	-16(%rbp), %rcx
	movq	-8(%rbp), %rdx
	movq	%rax, -56(%rbp)
	callq	_ZN53_$LT$$u5b$T$u5d$$u20$as$u20$core..slice..SliceExt$GT$3len17h5721d17604d5e235E
	movq	%rax, -64(%rbp)
	jmp	.LBB9_11
.LBB9_10:
	.cv_loc	13 7 250 0
	movq	40(%rbp), %rcx
	.cv_loc	13 7 305 0
	movq	-16(%rbp), %rax
	movq	-8(%rbp), %rdx
	movq	%rcx, -72(%rbp)
	movq	%rax, %rcx
	callq	_ZN53_$LT$$u5b$T$u5d$$u20$as$u20$core..slice..SliceExt$GT$3len17h5721d17604d5e235E
	movq	%rax, -80(%rbp)
	jmp	.LBB9_13
.LBB9_11:
	.cv_loc	13 7 248 0
	movq	-56(%rbp), %rcx
	movq	-64(%rbp), %rdx
	callq	_ZN4core3ptr31_$LT$impl$u20$$BP$mut$u20$T$GT$15wrapping_offset17h6bb45fda0aa3abcaE
	movq	%rax, -88(%rbp)
	movq	-88(%rbp), %rax
	movq	%rax, 32(%rbp)
	.cv_loc	13 7 247 0
	jmp	.LBB9_15
.LBB9_13:
	.cv_loc	13 7 250 0
	movq	-72(%rbp), %rcx
	movq	-80(%rbp), %rdx
	callq	_ZN4core3ptr33_$LT$impl$u20$$BP$const$u20$T$GT$6offset17hf2a2afa92084a586E
	movq	%rax, 32(%rbp)
	.cv_loc	13 7 247 0
	jmp	.LBB9_15
.Ltmp201:
.LBB9_15:
	.cv_loc	13 7 303 0
	movq	-40(%rbp), %rax
	movq	%rax, (%rbp)
	movq	32(%rbp), %rcx
	movq	%rcx, 8(%rbp)
.Ltmp202:
	.cv_loc	13 7 309 0
	movq	(%rbp), %rax
	movq	8(%rbp), %rdx
	addq	$176, %rsp
	popq	%rbp
	retq
.Ltmp203:
.Lfunc_end9:
	.seh_handlerdata
	.section	.text,"xr",one_only,_ZN53_$LT$$u5b$T$u5d$$u20$as$u20$core..slice..SliceExt$GT$4iter17h10dc626d75493a31E
.Lcfi120:
	.seh_endproc

	.def	 _ZN53_$LT$$u5b$T$u5d$$u20$as$u20$core..slice..SliceExt$GT$6as_ptr17heb4d1937600aacd8E;
	.scl	3;
	.type	32;
	.endef
	.section	.text,"xr",one_only,_ZN53_$LT$$u5b$T$u5d$$u20$as$u20$core..slice..SliceExt$GT$6as_ptr17heb4d1937600aacd8E
	.p2align	4, 0x90
_ZN53_$LT$$u5b$T$u5d$$u20$as$u20$core..slice..SliceExt$GT$6as_ptr17heb4d1937600aacd8E:
.Lfunc_begin10:
	.cv_func_id 14
	.cv_loc	14 7 409 0
.Lcfi121:
.seh_proc _ZN53_$LT$$u5b$T$u5d$$u20$as$u20$core..slice..SliceExt$GT$6as_ptr17heb4d1937600aacd8E
	pushq	%rbp
.Lcfi122:
	.seh_pushreg 5
	subq	$16, %rsp
.Lcfi123:
	.seh_stackalloc 16
	leaq	16(%rsp), %rbp
.Lcfi124:
	.seh_setframe 5, 16
.Lcfi125:
	.seh_endprologue
	movq	%rcx, -16(%rbp)
	movq	%rdx, -8(%rbp)
.Ltmp204:
	.cv_loc	14 7 410 0
	movq	-16(%rbp), %rcx
	.cv_loc	14 7 411 0
	movq	%rcx, %rax
	addq	$16, %rsp
	popq	%rbp
	retq
.Ltmp205:
.Lfunc_end10:
	.seh_handlerdata
	.section	.text,"xr",one_only,_ZN53_$LT$$u5b$T$u5d$$u20$as$u20$core..slice..SliceExt$GT$6as_ptr17heb4d1937600aacd8E
.Lcfi126:
	.seh_endproc

	.def	 _ZN5alloc5slice29_$LT$impl$u20$$u5b$T$u5d$$GT$4iter17h977e1b454c071d8dE;
	.scl	2;
	.type	32;
	.endef
	.section	.text,"xr",one_only,_ZN5alloc5slice29_$LT$impl$u20$$u5b$T$u5d$$GT$4iter17h977e1b454c071d8dE
	.globl	_ZN5alloc5slice29_$LT$impl$u20$$u5b$T$u5d$$GT$4iter17h977e1b454c071d8dE
	.p2align	4, 0x90
_ZN5alloc5slice29_$LT$impl$u20$$u5b$T$u5d$$GT$4iter17h977e1b454c071d8dE:
.Lfunc_begin11:
	.cv_func_id 15
	.cv_file	8 "C:\\projects\\rust\\src\\liballoc\\slice.rs"
	.cv_loc	15 8 558 0
.Lcfi127:
.seh_proc _ZN5alloc5slice29_$LT$impl$u20$$u5b$T$u5d$$GT$4iter17h977e1b454c071d8dE
	pushq	%rbp
.Lcfi128:
	.seh_pushreg 5
	subq	$64, %rsp
.Lcfi129:
	.seh_stackalloc 64
	leaq	64(%rsp), %rbp
.Lcfi130:
	.seh_setframe 5, 64
.Lcfi131:
	.seh_endprologue
	movq	%rcx, -16(%rbp)
	movq	%rdx, -8(%rbp)
.Ltmp206:
	.cv_loc	15 8 559 0
	movq	-16(%rbp), %rcx
	movq	-8(%rbp), %rdx
	callq	_ZN53_$LT$$u5b$T$u5d$$u20$as$u20$core..slice..SliceExt$GT$4iter17h10dc626d75493a31E
	movq	%rax, -24(%rbp)
	movq	%rdx, -32(%rbp)
	.cv_loc	15 8 560 0
	movq	-24(%rbp), %rax
	movq	-32(%rbp), %rdx
	addq	$64, %rsp
	popq	%rbp
	retq
.Ltmp207:
.Lfunc_end11:
	.seh_handlerdata
	.section	.text,"xr",one_only,_ZN5alloc5slice29_$LT$impl$u20$$u5b$T$u5d$$GT$4iter17h977e1b454c071d8dE
.Lcfi132:
	.seh_endproc

	.def	 _ZN69_$LT$nccl..pair..Pair$u20$as$u20$core..ops..index..Index$LT$T$GT$$GT$5index17h264d8a1beec5e0caE;
	.scl	2;
	.type	32;
	.endef
	.section	.text,"xr",one_only,_ZN69_$LT$nccl..pair..Pair$u20$as$u20$core..ops..index..Index$LT$T$GT$$GT$5index17h264d8a1beec5e0caE
	.globl	_ZN69_$LT$nccl..pair..Pair$u20$as$u20$core..ops..index..Index$LT$T$GT$$GT$5index17h264d8a1beec5e0caE
	.p2align	4, 0x90
_ZN69_$LT$nccl..pair..Pair$u20$as$u20$core..ops..index..Index$LT$T$GT$$GT$5index17h264d8a1beec5e0caE:
.Lfunc_begin12:
	.cv_func_id 16
	.cv_loc	16 2 285 0
.Lcfi133:
.seh_proc _ZN69_$LT$nccl..pair..Pair$u20$as$u20$core..ops..index..Index$LT$T$GT$$GT$5index17h264d8a1beec5e0caE
	pushq	%rbp
.Lcfi134:
	.seh_pushreg 5
	subq	$96, %rsp
.Lcfi135:
	.seh_stackalloc 96
	leaq	96(%rsp), %rbp
.Lcfi136:
	.seh_setframe 5, 96
.Lcfi137:
	.seh_endprologue
	leaq	-24(%rbp), %rax
	movq	%rcx, -48(%rbp)
	movq	%rdx, -40(%rbp)
	movq	%r8, -32(%rbp)
.Ltmp208:
	.cv_loc	16 2 286 0
	movq	-48(%rbp), %rdx
	movq	-40(%rbp), %r8
	movq	-32(%rbp), %r9
	movq	%rax, %rcx
	callq	_ZN4nccl4pair4Pair7get_ref17h5f8ad8abedc5db4cE
	leaq	-24(%rbp), %rcx
	callq	_ZN47_$LT$core..result..Result$LT$T$C$$u20$E$GT$$GT$6unwrap17h2d18375f63a0afccE
	movq	%rax, -56(%rbp)
	.cv_loc	16 2 287 0
	movq	-56(%rbp), %rax
	addq	$96, %rsp
	popq	%rbp
	retq
.Ltmp209:
.Lfunc_end12:
	.seh_handlerdata
	.section	.text,"xr",one_only,_ZN69_$LT$nccl..pair..Pair$u20$as$u20$core..ops..index..Index$LT$T$GT$$GT$5index17h264d8a1beec5e0caE
.Lcfi138:
	.seh_endproc

	.section	.rdata,"dr",one_only,str.0
	.p2align	4
str.0:
	.ascii	"Could not find key: "

	.section	.rdata,"dr",one_only,ref.1
	.p2align	3
ref.1:
	.quad	str.0
	.quad	20

	.section	.rdata,"dr",one_only,ref.2
	.p2align	3
ref.2:
	.quad	1
	.quad	0
	.quad	3
	.zero	8
	.quad	3
	.zero	8
	.long	32
	.long	0
	.byte	3
	.zero	7

	.section	.rdata,"dr",one_only,const.3
	.p2align	3
const.3:
	.quad	ref.2

	.section	.rdata,"dr",one_only,vtable.4
	.p2align	3
vtable.4:
	.quad	_ZN4core3ptr13drop_in_place17h34be3b3a13c91e60E
	.quad	40
	.quad	8
	.quad	_ZN60_$LT$nccl..error..NcclError$u20$as$u20$std..error..Error$GT$11description17hf0b9f1139b2f40f3E
	.quad	_ZN3std5error5Error5cause17hffea693a1d4e5f70E
	.quad	_ZN3std5error5Error7type_id17heb491e2db373d700E
	.quad	_ZN61_$LT$nccl..error..NcclError$u20$as$u20$core..fmt..Display$GT$3fmt17h3e6a969112eee505E
	.quad	_ZN59_$LT$nccl..error..NcclError$u20$as$u20$core..fmt..Debug$GT$3fmt17h95d1a042bd4eb8baE

	.section	.rdata,"dr",one_only,str.5
	.p2align	4
str.5:
	.ascii	"Could not convert to T"

	.section	.rdata,"dr",one_only,str.6
	.p2align	4
str.6:
	.ascii	"Could not convert value: multiple values. Use keys() or keys_as()"
